(dp1
S'FamilleTag'
p2
(dp3
S'type'
p4
S'list:reference FamilleTag'
p5
sS'sortable'
p6
I4
sS'sql'
p7
S'TEXT'
p8
ssS'Tag'
p9
(dp10
g4
S'list:reference Tag'
p11
sg6
I3
sg7
g8
ssS'id'
p12
(dp13
g4
g12
sg6
I1
sg7
S'INTEGER PRIMARY KEY AUTOINCREMENT'
p14
ssS'Name'
p15
(dp16
g4
S'string'
p17
sg6
I2
sg7
S'CHAR(512) UNIQUE'
p18
ss.