(dp1
S'Vote'
p2
(dp3
S'type'
p4
S'integer'
p5
sS'sortable'
p6
I4
sS'sql'
p7
S'INTEGER'
p8
ssS'auth_user'
p9
(dp10
g4
S'reference auth_user'
p11
sg6
I5
sg7
S'INTEGER REFERENCES auth_user(id) ON DELETE CASCADE'
p12
ssS'Texte'
p13
(dp14
g4
S'string'
p15
sg6
I3
sg7
S'CHAR(512)'
p16
ssS'id'
p17
(dp18
g4
g17
sg6
I1
sg7
S'INTEGER PRIMARY KEY AUTOINCREMENT'
p19
ssS'Name'
p20
(dp21
g4
g15
sg6
I2
sg7
S'CHAR(512) UNIQUE'
p22
ss.