(dp1
S'OpenStreetMap'
p2
(dp3
S'type'
p4
S'string'
p5
sS'sortable'
p6
I2
sS'sql'
p7
S'CHAR(512) UNIQUE'
p8
ssS'Tag'
p9
(dp10
g4
S'list:reference Tag'
p11
sg6
I3
sg7
S'TEXT'
p12
ssS'id'
p13
(dp14
g4
g13
sg6
I1
sg7
S'INTEGER PRIMARY KEY AUTOINCREMENT'
p15
ss.