(dp1
S'Comment'
p2
(dp3
S'type'
p4
S'string'
p5
sS'sortable'
p6
I4
sS'sql'
p7
S'CHAR(512)'
p8
ssS'auth_user'
p9
(dp10
g4
S'reference auth_user'
p11
sg6
I3
sg7
S'INTEGER REFERENCES auth_user(id) ON DELETE CASCADE'
p12
ssS'Barcode'
p13
(dp14
g4
g5
sg6
I2
sg7
S'CHAR(512)'
p15
ssS'id'
p16
(dp17
g4
g16
sg6
I1
sg7
S'INTEGER PRIMARY KEY AUTOINCREMENT'
p18
ssS'Hk'
p19
(dp20
g4
S'boolean'
p21
sg6
I5
sg7
S'CHAR(1)'
p22
ss.