(dp1
S'output'
p2
S"<type 'exceptions.NameError'> name 'curd' is not defined"
p3
sS'layer'
p4
S'C:\\Users\\Bussiere\\Dropbox\\Projets\\Yuki\\web2py\\applications\\init\\views\\default/index.html'
p5
sS'code'
p6
S'form\nresponse.write(\'\\n\', escape=False)\nform,table=curd.search(db.Barcodebase)\nresponse.write(\'\\n\', escape=False)\nresponse.write(form)\nresponse.write(\'\\n\', escape=False)\nresponse.write(table)\nresponse.write(\'\\n<a href="../init/default/user/login">login</a><br>\\n<a href="../init/default/user/register">Register</a><br>\\n\', escape=False)'
p7
sS'snapshot'
p8
(dp9
S'exception'
p10
(dp11
S'__hash__'
p12
S"<method-wrapper '__hash__' of exceptions.NameError object at 0x06FDFBC0>"
p13
sS'__setattr__'
p14
S"<method-wrapper '__setattr__' of exceptions.NameError object at 0x06FDFBC0>"
p15
sS'__reduce_ex__'
p16
S'<built-in method __reduce_ex__ of exceptions.NameError object at 0x06FDFBC0>'
p17
sS'__getslice__'
p18
S"<method-wrapper '__getslice__' of exceptions.NameError object at 0x06FDFBC0>"
p19
sS'__getitem__'
p20
S"<method-wrapper '__getitem__' of exceptions.NameError object at 0x06FDFBC0>"
p21
sS'__setstate__'
p22
S'<built-in method __setstate__ of exceptions.NameError object at 0x06FDFBC0>'
p23
sS'__reduce__'
p24
S'<built-in method __reduce__ of exceptions.NameError object at 0x06FDFBC0>'
p25
sS'__str__'
p26
S"<method-wrapper '__str__' of exceptions.NameError object at 0x06FDFBC0>"
p27
sS'args'
p28
S'("name \'curd\' is not defined",)'
p29
sS'__getattribute__'
p30
S"<method-wrapper '__getattribute__' of exceptions.NameError object at 0x06FDFBC0>"
p31
sS'__class__'
p32
S"<type 'exceptions.NameError'>"
p33
sS'__delattr__'
p34
S"<method-wrapper '__delattr__' of exceptions.NameError object at 0x06FDFBC0>"
p35
sS'__repr__'
p36
S"<method-wrapper '__repr__' of exceptions.NameError object at 0x06FDFBC0>"
p37
sS'__dict__'
p38
S'{}'
p39
sS'__doc__'
p40
S"'Name not found globally.'"
p41
sS'__init__'
p42
S"<method-wrapper '__init__' of exceptions.NameError object at 0x06FDFBC0>"
p43
sS'__new__'
p44
S'<built-in method __new__ of type object at 0x1E1CD8D8>'
p45
ssS'evalue'
p46
S"name 'curd' is not defined"
p47
sS'request'
p48
ccopy_reg
_reconstructor
p49
(cgluon.html
BEAUTIFY
p50
c__builtin__
object
p51
NtRp52
(dp53
S'attributes'
p54
(dp55
sS'components'
p56
(lp57
g49
(cgluon.html
TABLE
p58
g51
NtRp59
(dp60
g54
(dp61
S'level'
p62
I5
ssS'parent'
p63
Nsg56
(lp64
g49
(cgluon.html
TR
p65
g51
NtRp66
(dp67
g54
(dp68
sg63
g59
sg56
(lp69
g49
(cgluon.html
TD
p70
g51
NtRp71
(dp72
g54
(dp73
S'_style'
p74
S'font-weight:bold;vertical-align:top'
p75
ssg63
g66
sg56
(lp76
S'ajax'
p77
asbag49
(g70
g51
NtRp78
(dp79
g54
(dp80
S'_valign'
p81
S'top'
p82
ssg63
g66
sg56
(lp83
S':'
asbag49
(g70
g51
NtRp84
(dp85
g54
(dp86
sg63
g66
sg56
(lp87
g49
(g50
g51
NtRp88
(dp89
g54
(dp90
g62
I5
ssg63
g84
sg56
(lp91
S'False'
p92
asbasbasbag49
(g65
g51
NtRp93
(dp94
g54
(dp95
sg63
g59
sg56
(lp96
g49
(g70
g51
NtRp97
(dp98
g54
(dp99
g74
g75
ssg63
g93
sg56
(lp100
S'application'
p101
asbag49
(g70
g51
NtRp102
(dp103
g54
(dp104
g81
g82
ssg63
g93
sg56
(lp105
S':'
asbag49
(g70
g51
NtRp106
(dp107
g54
(dp108
sg63
g93
sg56
(lp109
g49
(g50
g51
NtRp110
(dp111
g54
(dp112
g62
I5
ssg63
g106
sg56
(lp113
S'init'
p114
asbasbasbag49
(g65
g51
NtRp115
(dp116
g54
(dp117
sg63
g59
sg56
(lp118
g49
(g70
g51
NtRp119
(dp120
g54
(dp121
g74
g75
ssg63
g115
sg56
(lp122
g28
asbag49
(g70
g51
NtRp123
(dp124
g54
(dp125
g81
g82
ssg63
g115
sg56
(lp126
S':'
asbag49
(g70
g51
NtRp127
(dp128
g54
(dp129
sg63
g115
sg56
(lp130
g49
(g50
g51
NtRp131
(dp132
g54
(dp133
g62
I5
ssg63
g127
sg56
(lp134
g49
(g58
g51
NtRp135
(dp136
g54
(dp137
g62
I4
ssg63
Nsg56
(lp138
sbasbasbasbag49
(g65
g51
NtRp139
(dp140
g54
(dp141
sg63
g59
sg56
(lp142
g49
(g70
g51
NtRp143
(dp144
g54
(dp145
g74
g75
ssg63
g139
sg56
(lp146
S'body'
p147
asbag49
(g70
g51
NtRp148
(dp149
g54
(dp150
g81
g82
ssg63
g139
sg56
(lp151
S':'
asbag49
(g70
g51
NtRp152
(dp153
g54
(dp154
sg63
g139
sg56
(lp155
g49
(g50
g51
NtRp156
(dp157
g54
(dp158
g62
I5
ssg63
g152
sg56
(lp159
S'<cStringIO.StringO object at 0x0441AE80>'
p160
asbasbasbag49
(g65
g51
NtRp161
(dp162
g54
(dp163
sg63
g59
sg56
(lp164
g49
(g70
g51
NtRp165
(dp166
g54
(dp167
g74
g75
ssg63
g161
sg56
(lp168
S'client'
p169
asbag49
(g70
g51
NtRp170
(dp171
g54
(dp172
g81
g82
ssg63
g161
sg56
(lp173
S':'
asbag49
(g70
g51
NtRp174
(dp175
g54
(dp176
sg63
g161
sg56
(lp177
g49
(g50
g51
NtRp178
(dp179
g54
(dp180
g62
I5
ssg63
g174
sg56
(lp181
S'127.0.0.1'
p182
asbasbasbag49
(g65
g51
NtRp183
(dp184
g54
(dp185
sg63
g59
sg56
(lp186
g49
(g70
g51
NtRp187
(dp188
g54
(dp189
g74
g75
ssg63
g183
sg56
(lp190
S'controller'
p191
asbag49
(g70
g51
NtRp192
(dp193
g54
(dp194
g81
g82
ssg63
g183
sg56
(lp195
S':'
asbag49
(g70
g51
NtRp196
(dp197
g54
(dp198
sg63
g183
sg56
(lp199
g49
(g50
g51
NtRp200
(dp201
g54
(dp202
g62
I5
ssg63
g196
sg56
(lp203
S'default'
p204
asbasbasbag49
(g65
g51
NtRp205
(dp206
g54
(dp207
sg63
g59
sg56
(lp208
g49
(g70
g51
NtRp209
(dp210
g54
(dp211
g74
g75
ssg63
g205
sg56
(lp212
S'cookies'
p213
asbag49
(g70
g51
NtRp214
(dp215
g54
(dp216
g81
g82
ssg63
g205
sg56
(lp217
S':'
asbag49
(g70
g51
NtRp218
(dp219
g54
(dp220
sg63
g205
sg56
(lp221
g49
(g50
g51
NtRp222
(dp223
g54
(dp224
g62
I5
ssg63
g218
sg56
(lp225
g49
(g58
g51
NtRp226
(dp227
g54
(dp228
g62
I4
ssg63
Nsg56
(lp229
g49
(g65
g51
NtRp230
(dp231
g54
(dp232
sg63
g226
sg56
(lp233
g49
(g70
g51
NtRp234
(dp235
g54
(dp236
g74
g75
ssg63
g230
sg56
(lp237
S'session_id_admin'
p238
asbag49
(g70
g51
NtRp239
(dp240
g54
(dp241
g81
g82
ssg63
g230
sg56
(lp242
S':'
asbag49
(g70
g51
NtRp243
(dp244
g54
(dp245
sg63
g230
sg56
(lp246
g49
(g50
g51
NtRp247
(dp248
g54
(dp249
g62
I4
ssg63
g243
sg56
(lp250
g49
(g58
g51
NtRp251
(dp252
g54
(dp253
g62
I3
ssg63
Nsg56
(lp254
g49
(g65
g51
NtRp255
(dp256
g54
(dp257
sg63
g251
sg56
(lp258
g49
(g70
g51
NtRp259
(dp260
g54
(dp261
g74
g75
ssg63
g255
sg56
(lp262
S'comment'
p263
asbag49
(g70
g51
NtRp264
(dp265
g54
(dp266
g81
g82
ssg63
g255
sg56
(lp267
S':'
asbag49
(g70
g51
NtRp268
(dp269
g54
(dp270
sg63
g255
sg56
(lp271
g49
(g50
g51
NtRp272
(dp273
g54
(dp274
g62
I3
ssg63
g268
sg56
(lp275
S''
asbasbasbag49
(g65
g51
NtRp276
(dp277
g54
(dp278
sg63
g251
sg56
(lp279
g49
(g70
g51
NtRp280
(dp281
g54
(dp282
g74
g75
ssg63
g276
sg56
(lp283
S'domain'
p284
asbag49
(g70
g51
NtRp285
(dp286
g54
(dp287
g81
g82
ssg63
g276
sg56
(lp288
S':'
asbag49
(g70
g51
NtRp289
(dp290
g54
(dp291
sg63
g276
sg56
(lp292
g49
(g50
g51
NtRp293
(dp294
g54
(dp295
g62
I3
ssg63
g289
sg56
(lp296
S''
asbasbasbag49
(g65
g51
NtRp297
(dp298
g54
(dp299
sg63
g251
sg56
(lp300
g49
(g70
g51
NtRp301
(dp302
g54
(dp303
g74
g75
ssg63
g297
sg56
(lp304
S'expires'
p305
asbag49
(g70
g51
NtRp306
(dp307
g54
(dp308
g81
g82
ssg63
g297
sg56
(lp309
S':'
asbag49
(g70
g51
NtRp310
(dp311
g54
(dp312
sg63
g297
sg56
(lp313
g49
(g50
g51
NtRp314
(dp315
g54
(dp316
g62
I3
ssg63
g310
sg56
(lp317
S''
asbasbasbag49
(g65
g51
NtRp318
(dp319
g54
(dp320
sg63
g251
sg56
(lp321
g49
(g70
g51
NtRp322
(dp323
g54
(dp324
g74
g75
ssg63
g318
sg56
(lp325
S'max-age'
p326
asbag49
(g70
g51
NtRp327
(dp328
g54
(dp329
g81
g82
ssg63
g318
sg56
(lp330
S':'
asbag49
(g70
g51
NtRp331
(dp332
g54
(dp333
sg63
g318
sg56
(lp334
g49
(g50
g51
NtRp335
(dp336
g54
(dp337
g62
I3
ssg63
g331
sg56
(lp338
S''
asbasbasbag49
(g65
g51
NtRp339
(dp340
g54
(dp341
sg63
g251
sg56
(lp342
g49
(g70
g51
NtRp343
(dp344
g54
(dp345
g74
g75
ssg63
g339
sg56
(lp346
S'path'
p347
asbag49
(g70
g51
NtRp348
(dp349
g54
(dp350
g81
g82
ssg63
g339
sg56
(lp351
S':'
asbag49
(g70
g51
NtRp352
(dp353
g54
(dp354
sg63
g339
sg56
(lp355
g49
(g50
g51
NtRp356
(dp357
g54
(dp358
g62
I3
ssg63
g352
sg56
(lp359
S''
asbasbasbag49
(g65
g51
NtRp360
(dp361
g54
(dp362
sg63
g251
sg56
(lp363
g49
(g70
g51
NtRp364
(dp365
g54
(dp366
g74
g75
ssg63
g360
sg56
(lp367
S'secure'
p368
asbag49
(g70
g51
NtRp369
(dp370
g54
(dp371
g81
g82
ssg63
g360
sg56
(lp372
S':'
asbag49
(g70
g51
NtRp373
(dp374
g54
(dp375
sg63
g360
sg56
(lp376
g49
(g50
g51
NtRp377
(dp378
g54
(dp379
g62
I3
ssg63
g373
sg56
(lp380
S''
asbasbasbag49
(g65
g51
NtRp381
(dp382
g54
(dp383
sg63
g251
sg56
(lp384
g49
(g70
g51
NtRp385
(dp386
g54
(dp387
g74
g75
ssg63
g381
sg56
(lp388
S'version'
p389
asbag49
(g70
g51
NtRp390
(dp391
g54
(dp392
g81
g82
ssg63
g381
sg56
(lp393
S':'
asbag49
(g70
g51
NtRp394
(dp395
g54
(dp396
sg63
g381
sg56
(lp397
g49
(g50
g51
NtRp398
(dp399
g54
(dp400
g62
I3
ssg63
g394
sg56
(lp401
S''
asbasbasbasbasbasbasbag49
(g65
g51
NtRp402
(dp403
g54
(dp404
sg63
g226
sg56
(lp405
g49
(g70
g51
NtRp406
(dp407
g54
(dp408
g74
g75
ssg63
g402
sg56
(lp409
S'session_id_init'
p410
asbag49
(g70
g51
NtRp411
(dp412
g54
(dp413
g81
g82
ssg63
g402
sg56
(lp414
S':'
asbag49
(g70
g51
NtRp415
(dp416
g54
(dp417
sg63
g402
sg56
(lp418
g49
(g50
g51
NtRp419
(dp420
g54
(dp421
g62
I4
ssg63
g415
sg56
(lp422
g49
(g58
g51
NtRp423
(dp424
g54
(dp425
g62
I3
ssg63
Nsg56
(lp426
g49
(g65
g51
NtRp427
(dp428
g54
(dp429
sg63
g423
sg56
(lp430
g49
(g70
g51
NtRp431
(dp432
g54
(dp433
g74
g75
ssg63
g427
sg56
(lp434
g263
asbag49
(g70
g51
NtRp435
(dp436
g54
(dp437
g81
g82
ssg63
g427
sg56
(lp438
S':'
asbag49
(g70
g51
NtRp439
(dp440
g54
(dp441
sg63
g427
sg56
(lp442
g49
(g50
g51
NtRp443
(dp444
g54
(dp445
g62
I3
ssg63
g439
sg56
(lp446
S''
asbasbasbag49
(g65
g51
NtRp447
(dp448
g54
(dp449
sg63
g423
sg56
(lp450
g49
(g70
g51
NtRp451
(dp452
g54
(dp453
g74
g75
ssg63
g447
sg56
(lp454
g284
asbag49
(g70
g51
NtRp455
(dp456
g54
(dp457
g81
g82
ssg63
g447
sg56
(lp458
S':'
asbag49
(g70
g51
NtRp459
(dp460
g54
(dp461
sg63
g447
sg56
(lp462
g49
(g50
g51
NtRp463
(dp464
g54
(dp465
g62
I3
ssg63
g459
sg56
(lp466
S''
asbasbasbag49
(g65
g51
NtRp467
(dp468
g54
(dp469
sg63
g423
sg56
(lp470
g49
(g70
g51
NtRp471
(dp472
g54
(dp473
g74
g75
ssg63
g467
sg56
(lp474
g305
asbag49
(g70
g51
NtRp475
(dp476
g54
(dp477
g81
g82
ssg63
g467
sg56
(lp478
S':'
asbag49
(g70
g51
NtRp479
(dp480
g54
(dp481
sg63
g467
sg56
(lp482
g49
(g50
g51
NtRp483
(dp484
g54
(dp485
g62
I3
ssg63
g479
sg56
(lp486
S''
asbasbasbag49
(g65
g51
NtRp487
(dp488
g54
(dp489
sg63
g423
sg56
(lp490
g49
(g70
g51
NtRp491
(dp492
g54
(dp493
g74
g75
ssg63
g487
sg56
(lp494
g326
asbag49
(g70
g51
NtRp495
(dp496
g54
(dp497
g81
g82
ssg63
g487
sg56
(lp498
S':'
asbag49
(g70
g51
NtRp499
(dp500
g54
(dp501
sg63
g487
sg56
(lp502
g49
(g50
g51
NtRp503
(dp504
g54
(dp505
g62
I3
ssg63
g499
sg56
(lp506
S''
asbasbasbag49
(g65
g51
NtRp507
(dp508
g54
(dp509
sg63
g423
sg56
(lp510
g49
(g70
g51
NtRp511
(dp512
g54
(dp513
g74
g75
ssg63
g507
sg56
(lp514
g347
asbag49
(g70
g51
NtRp515
(dp516
g54
(dp517
g81
g82
ssg63
g507
sg56
(lp518
S':'
asbag49
(g70
g51
NtRp519
(dp520
g54
(dp521
sg63
g507
sg56
(lp522
g49
(g50
g51
NtRp523
(dp524
g54
(dp525
g62
I3
ssg63
g519
sg56
(lp526
S''
asbasbasbag49
(g65
g51
NtRp527
(dp528
g54
(dp529
sg63
g423
sg56
(lp530
g49
(g70
g51
NtRp531
(dp532
g54
(dp533
g74
g75
ssg63
g527
sg56
(lp534
g368
asbag49
(g70
g51
NtRp535
(dp536
g54
(dp537
g81
g82
ssg63
g527
sg56
(lp538
S':'
asbag49
(g70
g51
NtRp539
(dp540
g54
(dp541
sg63
g527
sg56
(lp542
g49
(g50
g51
NtRp543
(dp544
g54
(dp545
g62
I3
ssg63
g539
sg56
(lp546
S''
asbasbasbag49
(g65
g51
NtRp547
(dp548
g54
(dp549
sg63
g423
sg56
(lp550
g49
(g70
g51
NtRp551
(dp552
g54
(dp553
g74
g75
ssg63
g547
sg56
(lp554
g389
asbag49
(g70
g51
NtRp555
(dp556
g54
(dp557
g81
g82
ssg63
g547
sg56
(lp558
S':'
asbag49
(g70
g51
NtRp559
(dp560
g54
(dp561
sg63
g547
sg56
(lp562
g49
(g50
g51
NtRp563
(dp564
g54
(dp565
g62
I3
ssg63
g559
sg56
(lp566
S''
asbasbasbasbasbasbasbasbasbasbasbag49
(g65
g51
NtRp567
(dp568
g54
(dp569
sg63
g59
sg56
(lp570
g49
(g70
g51
NtRp571
(dp572
g54
(dp573
g74
g75
ssg63
g567
sg56
(lp574
S'env'
p575
asbag49
(g70
g51
NtRp576
(dp577
g54
(dp578
g81
g82
ssg63
g567
sg56
(lp579
S':'
asbag49
(g70
g51
NtRp580
(dp581
g54
(dp582
sg63
g567
sg56
(lp583
g49
(g50
g51
NtRp584
(dp585
g54
(dp586
g62
I5
ssg63
g580
sg56
(lp587
g49
(g58
g51
NtRp588
(dp589
g54
(dp590
g62
I4
ssg63
Nsg56
(lp591
g49
(g65
g51
NtRp592
(dp593
g54
(dp594
sg63
g588
sg56
(lp595
g49
(g70
g51
NtRp596
(dp597
g54
(dp598
g74
g75
ssg63
g592
sg56
(lp599
S'app_folders'
p600
asbag49
(g70
g51
NtRp601
(dp602
g54
(dp603
g81
g82
ssg63
g592
sg56
(lp604
S':'
asbag49
(g70
g51
NtRp605
(dp606
g54
(dp607
sg63
g592
sg56
(lp608
g49
(g50
g51
NtRp609
(dp610
g54
(dp611
g62
I4
ssg63
g605
sg56
(lp612
S"set(['C:\\\\Users\\\\Bussiere\\\\Dropbox\\\\Projets\\\\Yuki\\\\web2py\\\\applications\\\\init\\\\', 'C:\\\\Users\\\\Bussiere\\\\Dropbox\\\\Projets\\\\Yuki\\\\web2py\\\\applications\\\\admin\\\\'])"
p613
asbasbasbag49
(g65
g51
NtRp614
(dp615
g54
(dp616
sg63
g588
sg56
(lp617
g49
(g70
g51
NtRp618
(dp619
g54
(dp620
g74
g75
ssg63
g614
sg56
(lp621
S'applications_parent'
p622
asbag49
(g70
g51
NtRp623
(dp624
g54
(dp625
g81
g82
ssg63
g614
sg56
(lp626
S':'
asbag49
(g70
g51
NtRp627
(dp628
g54
(dp629
sg63
g614
sg56
(lp630
g49
(g50
g51
NtRp631
(dp632
g54
(dp633
g62
I4
ssg63
g627
sg56
(lp634
S'C:\\Users\\Bussiere\\Dropbox\\Projets\\Yuki\\web2py'
p635
asbasbasbag49
(g65
g51
NtRp636
(dp637
g54
(dp638
sg63
g588
sg56
(lp639
g49
(g70
g51
NtRp640
(dp641
g54
(dp642
g74
g75
ssg63
g636
sg56
(lp643
S'cmd_args'
p644
asbag49
(g70
g51
NtRp645
(dp646
g54
(dp647
g81
g82
ssg63
g636
sg56
(lp648
S':'
asbag49
(g70
g51
NtRp649
(dp650
g54
(dp651
sg63
g636
sg56
(lp652
g49
(g50
g51
NtRp653
(dp654
g54
(dp655
g62
I4
ssg63
g649
sg56
(lp656
g49
(g58
g51
NtRp657
(dp658
g54
(dp659
g62
I3
ssg63
Nsg56
(lp660
sbasbasbasbag49
(g65
g51
NtRp661
(dp662
g54
(dp663
sg63
g588
sg56
(lp664
g49
(g70
g51
NtRp665
(dp666
g54
(dp667
g74
g75
ssg63
g661
sg56
(lp668
S'cmd_options'
p669
asbag49
(g70
g51
NtRp670
(dp671
g54
(dp672
g81
g82
ssg63
g661
sg56
(lp673
S':'
asbag49
(g70
g51
NtRp674
(dp675
g54
(dp676
sg63
g661
sg56
(lp677
g49
(g50
g51
NtRp678
(dp679
g54
(dp680
g62
I4
ssg63
g674
sg56
(lp681
S"<Values at 0x3c04f58: {'verbose': False, 'ip': '127.0.0.1', 'shutdown_timeout': 5, 'taskbar': False, 'nocron': False, 'pid_filename': 'httpserver.pid', 'maxthreads': None, 'softcron': False, 'server_name': 'Batou', 'bpython': False, 'nogui': False, 'port': 8000, 'extcron': False, 'debuglevel': 30, 'test': None, 'folder': 'C:\\\\Users\\\\Bussiere\\\\Dropbox\\\\Projets\\\\Yuki\\\\web2py', 'config': '', 'import_models': False, 'winservice': '', 'shell': None, 'run': '', 'log_filename': 'httpserver.log', 'args': [''], 'socket_timeout': 5, 'ssl_ca_certificate': None, 'scheduler': None, 'profiler_filename': None, 'ssl_private_key': '', 'password': '<ask>', 'request_queue_size': 5, 'ssl_certificate': '', 'cronjob': False, 'numthreads': None, 'quiet': False, 'interfaces': None, 'minthreads': None, 'timeout': 10, 'plain': False, 'nobanner': False}>"
p682
asbasbasbag49
(g65
g51
NtRp683
(dp684
g54
(dp685
sg63
g588
sg56
(lp686
g49
(g70
g51
NtRp687
(dp688
g54
(dp689
g74
g75
ssg63
g683
sg56
(lp690
S'db_sessions'
p691
asbag49
(g70
g51
NtRp692
(dp693
g54
(dp694
g81
g82
ssg63
g683
sg56
(lp695
S':'
asbag49
(g70
g51
NtRp696
(dp697
g54
(dp698
sg63
g683
sg56
(lp699
g49
(g50
g51
NtRp700
(dp701
g54
(dp702
g62
I4
ssg63
g696
sg56
(lp703
S'set([])'
p704
asbasbasbag49
(g65
g51
NtRp705
(dp706
g54
(dp707
sg63
g588
sg56
(lp708
g49
(g70
g51
NtRp709
(dp710
g54
(dp711
g74
g75
ssg63
g705
sg56
(lp712
S'debugging'
p713
asbag49
(g70
g51
NtRp714
(dp715
g54
(dp716
g81
g82
ssg63
g705
sg56
(lp717
S':'
asbag49
(g70
g51
NtRp718
(dp719
g54
(dp720
sg63
g705
sg56
(lp721
g49
(g50
g51
NtRp722
(dp723
g54
(dp724
g62
I4
ssg63
g718
sg56
(lp725
S'True'
p726
asbasbasbag49
(g65
g51
NtRp727
(dp728
g54
(dp729
sg63
g588
sg56
(lp730
g49
(g70
g51
NtRp731
(dp732
g54
(dp733
g74
g75
ssg63
g727
sg56
(lp734
S'gluon_parent'
p735
asbag49
(g70
g51
NtRp736
(dp737
g54
(dp738
g81
g82
ssg63
g727
sg56
(lp739
S':'
asbag49
(g70
g51
NtRp740
(dp741
g54
(dp742
sg63
g727
sg56
(lp743
g49
(g50
g51
NtRp744
(dp745
g54
(dp746
g62
I4
ssg63
g740
sg56
(lp747
S'C:\\Users\\Bussiere\\Dropbox\\Projets\\Yuki\\web2py'
p748
asbasbasbag49
(g65
g51
NtRp749
(dp750
g54
(dp751
sg63
g588
sg56
(lp752
g49
(g70
g51
NtRp753
(dp754
g54
(dp755
g74
g75
ssg63
g749
sg56
(lp756
S'http_accept'
p757
asbag49
(g70
g51
NtRp758
(dp759
g54
(dp760
g81
g82
ssg63
g749
sg56
(lp761
S':'
asbag49
(g70
g51
NtRp762
(dp763
g54
(dp764
sg63
g749
sg56
(lp765
g49
(g50
g51
NtRp766
(dp767
g54
(dp768
g62
I4
ssg63
g762
sg56
(lp769
S'text/html,application/xhtml+xml,application/xml;q=0.9,*/*;q=0.8'
p770
asbasbasbag49
(g65
g51
NtRp771
(dp772
g54
(dp773
sg63
g588
sg56
(lp774
g49
(g70
g51
NtRp775
(dp776
g54
(dp777
g74
g75
ssg63
g771
sg56
(lp778
S'http_accept_charset'
p779
asbag49
(g70
g51
NtRp780
(dp781
g54
(dp782
g81
g82
ssg63
g771
sg56
(lp783
S':'
asbag49
(g70
g51
NtRp784
(dp785
g54
(dp786
sg63
g771
sg56
(lp787
g49
(g50
g51
NtRp788
(dp789
g54
(dp790
g62
I4
ssg63
g784
sg56
(lp791
S'ISO-8859-1,utf-8;q=0.7,*;q=0.3'
p792
asbasbasbag49
(g65
g51
NtRp793
(dp794
g54
(dp795
sg63
g588
sg56
(lp796
g49
(g70
g51
NtRp797
(dp798
g54
(dp799
g74
g75
ssg63
g793
sg56
(lp800
S'http_accept_encoding'
p801
asbag49
(g70
g51
NtRp802
(dp803
g54
(dp804
g81
g82
ssg63
g793
sg56
(lp805
S':'
asbag49
(g70
g51
NtRp806
(dp807
g54
(dp808
sg63
g793
sg56
(lp809
g49
(g50
g51
NtRp810
(dp811
g54
(dp812
g62
I4
ssg63
g806
sg56
(lp813
S'gzip,deflate,sdch'
p814
asbasbasbag49
(g65
g51
NtRp815
(dp816
g54
(dp817
sg63
g588
sg56
(lp818
g49
(g70
g51
NtRp819
(dp820
g54
(dp821
g74
g75
ssg63
g815
sg56
(lp822
S'http_accept_language'
p823
asbag49
(g70
g51
NtRp824
(dp825
g54
(dp826
g81
g82
ssg63
g815
sg56
(lp827
S':'
asbag49
(g70
g51
NtRp828
(dp829
g54
(dp830
sg63
g815
sg56
(lp831
g49
(g50
g51
NtRp832
(dp833
g54
(dp834
g62
I4
ssg63
g828
sg56
(lp835
S'en-US,en;q=0.8'
p836
asbasbasbag49
(g65
g51
NtRp837
(dp838
g54
(dp839
sg63
g588
sg56
(lp840
g49
(g70
g51
NtRp841
(dp842
g54
(dp843
g74
g75
ssg63
g837
sg56
(lp844
S'http_cache_control'
p845
asbag49
(g70
g51
NtRp846
(dp847
g54
(dp848
g81
g82
ssg63
g837
sg56
(lp849
S':'
asbag49
(g70
g51
NtRp850
(dp851
g54
(dp852
sg63
g837
sg56
(lp853
g49
(g50
g51
NtRp854
(dp855
g54
(dp856
g62
I4
ssg63
g850
sg56
(lp857
S'max-age=0'
p858
asbasbasbag49
(g65
g51
NtRp859
(dp860
g54
(dp861
sg63
g588
sg56
(lp862
g49
(g70
g51
NtRp863
(dp864
g54
(dp865
g74
g75
ssg63
g859
sg56
(lp866
S'http_connection'
p867
asbag49
(g70
g51
NtRp868
(dp869
g54
(dp870
g81
g82
ssg63
g859
sg56
(lp871
S':'
asbag49
(g70
g51
NtRp872
(dp873
g54
(dp874
sg63
g859
sg56
(lp875
g49
(g50
g51
NtRp876
(dp877
g54
(dp878
g62
I4
ssg63
g872
sg56
(lp879
S'keep-alive'
p880
asbasbasbag49
(g65
g51
NtRp881
(dp882
g54
(dp883
sg63
g588
sg56
(lp884
g49
(g70
g51
NtRp885
(dp886
g54
(dp887
g74
g75
ssg63
g881
sg56
(lp888
S'http_cookie'
p889
asbag49
(g70
g51
NtRp890
(dp891
g54
(dp892
g81
g82
ssg63
g881
sg56
(lp893
S':'
asbag49
(g70
g51
NtRp894
(dp895
g54
(dp896
sg63
g881
sg56
(lp897
g49
(g50
g51
NtRp898
(dp899
g54
(dp900
g62
I4
ssg63
g894
sg56
(lp901
S'session_id_admin=127.0.0.1-6531a48e-c307-4ba4-bdc5-14f2cebd3752; session_id_init=127.0.0.1-e491f18b-7b0c-472f-8228-a18d6ec769aa'
p902
asbasbasbag49
(g65
g51
NtRp903
(dp904
g54
(dp905
sg63
g588
sg56
(lp906
g49
(g70
g51
NtRp907
(dp908
g54
(dp909
g74
g75
ssg63
g903
sg56
(lp910
S'http_host'
p911
asbag49
(g70
g51
NtRp912
(dp913
g54
(dp914
g81
g82
ssg63
g903
sg56
(lp915
S':'
asbag49
(g70
g51
NtRp916
(dp917
g54
(dp918
sg63
g903
sg56
(lp919
g49
(g50
g51
NtRp920
(dp921
g54
(dp922
g62
I4
ssg63
g916
sg56
(lp923
S'127.0.0.1:8000'
p924
asbasbasbag49
(g65
g51
NtRp925
(dp926
g54
(dp927
sg63
g588
sg56
(lp928
g49
(g70
g51
NtRp929
(dp930
g54
(dp931
g74
g75
ssg63
g925
sg56
(lp932
S'http_user_agent'
p933
asbag49
(g70
g51
NtRp934
(dp935
g54
(dp936
g81
g82
ssg63
g925
sg56
(lp937
S':'
asbag49
(g70
g51
NtRp938
(dp939
g54
(dp940
sg63
g925
sg56
(lp941
g49
(g50
g51
NtRp942
(dp943
g54
(dp944
g62
I4
ssg63
g938
sg56
(lp945
S'Mozilla/5.0 (Windows NT 6.1; WOW64) AppleWebKit/535.18 (KHTML, like Gecko) Chrome/18.0.1011.0 Safari/535.18'
p946
asbasbasbag49
(g65
g51
NtRp947
(dp948
g54
(dp949
sg63
g588
sg56
(lp950
g49
(g70
g51
NtRp951
(dp952
g54
(dp953
g74
g75
ssg63
g947
sg56
(lp954
S'is_jython'
p955
asbag49
(g70
g51
NtRp956
(dp957
g54
(dp958
g81
g82
ssg63
g947
sg56
(lp959
S':'
asbag49
(g70
g51
NtRp960
(dp961
g54
(dp962
sg63
g947
sg56
(lp963
g49
(g50
g51
NtRp964
(dp965
g54
(dp966
g62
I4
ssg63
g960
sg56
(lp967
g92
asbasbasbag49
(g65
g51
NtRp968
(dp969
g54
(dp970
sg63
g588
sg56
(lp971
g49
(g70
g51
NtRp972
(dp973
g54
(dp974
g74
g75
ssg63
g968
sg56
(lp975
S'is_pypy'
p976
asbag49
(g70
g51
NtRp977
(dp978
g54
(dp979
g81
g82
ssg63
g968
sg56
(lp980
S':'
asbag49
(g70
g51
NtRp981
(dp982
g54
(dp983
sg63
g968
sg56
(lp984
g49
(g50
g51
NtRp985
(dp986
g54
(dp987
g62
I4
ssg63
g981
sg56
(lp988
g92
asbasbasbag49
(g65
g51
NtRp989
(dp990
g54
(dp991
sg63
g588
sg56
(lp992
g49
(g70
g51
NtRp993
(dp994
g54
(dp995
g74
g75
ssg63
g989
sg56
(lp996
S'path_info'
p997
asbag49
(g70
g51
NtRp998
(dp999
g54
(dp1000
g81
g82
ssg63
g989
sg56
(lp1001
S':'
asbag49
(g70
g51
NtRp1002
(dp1003
g54
(dp1004
sg63
g989
sg56
(lp1005
g49
(g50
g51
NtRp1006
(dp1007
g54
(dp1008
g62
I4
ssg63
g1002
sg56
(lp1009
S'/'
asbasbasbag49
(g65
g51
NtRp1010
(dp1011
g54
(dp1012
sg63
g588
sg56
(lp1013
g49
(g70
g51
NtRp1014
(dp1015
g54
(dp1016
g74
g75
ssg63
g1010
sg56
(lp1017
S'query_string'
p1018
asbag49
(g70
g51
NtRp1019
(dp1020
g54
(dp1021
g81
g82
ssg63
g1010
sg56
(lp1022
S':'
asbag49
(g70
g51
NtRp1023
(dp1024
g54
(dp1025
sg63
g1010
sg56
(lp1026
g49
(g50
g51
NtRp1027
(dp1028
g54
(dp1029
g62
I4
ssg63
g1023
sg56
(lp1030
S''
asbasbasbag49
(g65
g51
NtRp1031
(dp1032
g54
(dp1033
sg63
g588
sg56
(lp1034
g49
(g70
g51
NtRp1035
(dp1036
g54
(dp1037
g74
g75
ssg63
g1031
sg56
(lp1038
S'remote_addr'
p1039
asbag49
(g70
g51
NtRp1040
(dp1041
g54
(dp1042
g81
g82
ssg63
g1031
sg56
(lp1043
S':'
asbag49
(g70
g51
NtRp1044
(dp1045
g54
(dp1046
sg63
g1031
sg56
(lp1047
g49
(g50
g51
NtRp1048
(dp1049
g54
(dp1050
g62
I4
ssg63
g1044
sg56
(lp1051
g182
asbasbasbag49
(g65
g51
NtRp1052
(dp1053
g54
(dp1054
sg63
g588
sg56
(lp1055
g49
(g70
g51
NtRp1056
(dp1057
g54
(dp1058
g74
g75
ssg63
g1052
sg56
(lp1059
S'remote_port'
p1060
asbag49
(g70
g51
NtRp1061
(dp1062
g54
(dp1063
g81
g82
ssg63
g1052
sg56
(lp1064
S':'
asbag49
(g70
g51
NtRp1065
(dp1066
g54
(dp1067
sg63
g1052
sg56
(lp1068
g49
(g50
g51
NtRp1069
(dp1070
g54
(dp1071
g62
I4
ssg63
g1065
sg56
(lp1072
S'53214'
p1073
asbasbasbag49
(g65
g51
NtRp1074
(dp1075
g54
(dp1076
sg63
g588
sg56
(lp1077
g49
(g70
g51
NtRp1078
(dp1079
g54
(dp1080
g74
g75
ssg63
g1074
sg56
(lp1081
S'request_method'
p1082
asbag49
(g70
g51
NtRp1083
(dp1084
g54
(dp1085
g81
g82
ssg63
g1074
sg56
(lp1086
S':'
asbag49
(g70
g51
NtRp1087
(dp1088
g54
(dp1089
sg63
g1074
sg56
(lp1090
g49
(g50
g51
NtRp1091
(dp1092
g54
(dp1093
g62
I4
ssg63
g1087
sg56
(lp1094
S'GET'
p1095
asbasbasbag49
(g65
g51
NtRp1096
(dp1097
g54
(dp1098
sg63
g588
sg56
(lp1099
g49
(g70
g51
NtRp1100
(dp1101
g54
(dp1102
g74
g75
ssg63
g1096
sg56
(lp1103
S'script_name'
p1104
asbag49
(g70
g51
NtRp1105
(dp1106
g54
(dp1107
g81
g82
ssg63
g1096
sg56
(lp1108
S':'
asbag49
(g70
g51
NtRp1109
(dp1110
g54
(dp1111
sg63
g1096
sg56
(lp1112
g49
(g50
g51
NtRp1113
(dp1114
g54
(dp1115
g62
I4
ssg63
g1109
sg56
(lp1116
S''
asbasbasbag49
(g65
g51
NtRp1117
(dp1118
g54
(dp1119
sg63
g588
sg56
(lp1120
g49
(g70
g51
NtRp1121
(dp1122
g54
(dp1123
g74
g75
ssg63
g1117
sg56
(lp1124
S'server_name'
p1125
asbag49
(g70
g51
NtRp1126
(dp1127
g54
(dp1128
g81
g82
ssg63
g1117
sg56
(lp1129
S':'
asbag49
(g70
g51
NtRp1130
(dp1131
g54
(dp1132
sg63
g1117
sg56
(lp1133
g49
(g50
g51
NtRp1134
(dp1135
g54
(dp1136
g62
I4
ssg63
g1130
sg56
(lp1137
S'Batou'
p1138
asbasbasbag49
(g65
g51
NtRp1139
(dp1140
g54
(dp1141
sg63
g588
sg56
(lp1142
g49
(g70
g51
NtRp1143
(dp1144
g54
(dp1145
g74
g75
ssg63
g1139
sg56
(lp1146
S'server_port'
p1147
asbag49
(g70
g51
NtRp1148
(dp1149
g54
(dp1150
g81
g82
ssg63
g1139
sg56
(lp1151
S':'
asbag49
(g70
g51
NtRp1152
(dp1153
g54
(dp1154
sg63
g1139
sg56
(lp1155
g49
(g50
g51
NtRp1156
(dp1157
g54
(dp1158
g62
I4
ssg63
g1152
sg56
(lp1159
S'8000'
p1160
asbasbasbag49
(g65
g51
NtRp1161
(dp1162
g54
(dp1163
sg63
g588
sg56
(lp1164
g49
(g70
g51
NtRp1165
(dp1166
g54
(dp1167
g74
g75
ssg63
g1161
sg56
(lp1168
S'server_protocol'
p1169
asbag49
(g70
g51
NtRp1170
(dp1171
g54
(dp1172
g81
g82
ssg63
g1161
sg56
(lp1173
S':'
asbag49
(g70
g51
NtRp1174
(dp1175
g54
(dp1176
sg63
g1161
sg56
(lp1177
g49
(g50
g51
NtRp1178
(dp1179
g54
(dp1180
g62
I4
ssg63
g1174
sg56
(lp1181
S'HTTP/1.1'
p1182
asbasbasbag49
(g65
g51
NtRp1183
(dp1184
g54
(dp1185
sg63
g588
sg56
(lp1186
g49
(g70
g51
NtRp1187
(dp1188
g54
(dp1189
g74
g75
ssg63
g1183
sg56
(lp1190
S'server_software'
p1191
asbag49
(g70
g51
NtRp1192
(dp1193
g54
(dp1194
g81
g82
ssg63
g1183
sg56
(lp1195
S':'
asbag49
(g70
g51
NtRp1196
(dp1197
g54
(dp1198
sg63
g1183
sg56
(lp1199
g49
(g50
g51
NtRp1200
(dp1201
g54
(dp1202
g62
I4
ssg63
g1196
sg56
(lp1203
S'Rocket 1.2.4'
p1204
asbasbasbag49
(g65
g51
NtRp1205
(dp1206
g54
(dp1207
sg63
g588
sg56
(lp1208
g49
(g70
g51
NtRp1209
(dp1210
g54
(dp1211
g74
g75
ssg63
g1205
sg56
(lp1212
S'web2py_crontype'
p1213
asbag49
(g70
g51
NtRp1214
(dp1215
g54
(dp1216
g81
g82
ssg63
g1205
sg56
(lp1217
S':'
asbag49
(g70
g51
NtRp1218
(dp1219
g54
(dp1220
sg63
g1205
sg56
(lp1221
g49
(g50
g51
NtRp1222
(dp1223
g54
(dp1224
g62
I4
ssg63
g1218
sg56
(lp1225
S'hard'
p1226
asbasbasbag49
(g65
g51
NtRp1227
(dp1228
g54
(dp1229
sg63
g588
sg56
(lp1230
g49
(g70
g51
NtRp1231
(dp1232
g54
(dp1233
g74
g75
ssg63
g1227
sg56
(lp1234
S'web2py_path'
p1235
asbag49
(g70
g51
NtRp1236
(dp1237
g54
(dp1238
g81
g82
ssg63
g1227
sg56
(lp1239
S':'
asbag49
(g70
g51
NtRp1240
(dp1241
g54
(dp1242
sg63
g1227
sg56
(lp1243
g49
(g50
g51
NtRp1244
(dp1245
g54
(dp1246
g62
I4
ssg63
g1240
sg56
(lp1247
g635
asbasbasbag49
(g65
g51
NtRp1248
(dp1249
g54
(dp1250
sg63
g588
sg56
(lp1251
g49
(g70
g51
NtRp1252
(dp1253
g54
(dp1254
g74
g75
ssg63
g1248
sg56
(lp1255
S'web2py_version'
p1256
asbag49
(g70
g51
NtRp1257
(dp1258
g54
(dp1259
g81
g82
ssg63
g1248
sg56
(lp1260
S':'
asbag49
(g70
g51
NtRp1261
(dp1262
g54
(dp1263
sg63
g1248
sg56
(lp1264
g49
(g50
g51
NtRp1265
(dp1266
g54
(dp1267
g62
I4
ssg63
g1261
sg56
(lp1268
g49
(g58
g51
NtRp1269
(dp1270
g54
(dp1271
g62
I3
ssg63
Nsg56
(lp1272
g49
(g65
g51
NtRp1273
(dp1274
g54
(dp1275
sg63
g1269
sg56
(lp1276
g49
(g70
g51
NtRp1277
(dp1278
g54
(dp1279
sg63
g1273
sg56
(lp1280
g49
(g50
g51
NtRp1281
(dp1282
g54
(dp1283
g62
I3
ssg63
g1277
sg56
(lp1284
S'1'
asbasbasbag49
(g65
g51
NtRp1285
(dp1286
g54
(dp1287
sg63
g1269
sg56
(lp1288
g49
(g70
g51
NtRp1289
(dp1290
g54
(dp1291
sg63
g1285
sg56
(lp1292
g49
(g50
g51
NtRp1293
(dp1294
g54
(dp1295
g62
I3
ssg63
g1289
sg56
(lp1296
S'99'
p1297
asbasbasbag49
(g65
g51
NtRp1298
(dp1299
g54
(dp1300
sg63
g1269
sg56
(lp1301
g49
(g70
g51
NtRp1302
(dp1303
g54
(dp1304
sg63
g1298
sg56
(lp1305
g49
(g50
g51
NtRp1306
(dp1307
g54
(dp1308
g62
I3
ssg63
g1302
sg56
(lp1309
S'7'
asbasbasbag49
(g65
g51
NtRp1310
(dp1311
g54
(dp1312
sg63
g1269
sg56
(lp1313
g49
(g70
g51
NtRp1314
(dp1315
g54
(dp1316
sg63
g1310
sg56
(lp1317
g49
(g50
g51
NtRp1318
(dp1319
g54
(dp1320
g62
I3
ssg63
g1314
sg56
(lp1321
S'datetime.datetime(2012, 3, 4, 22, 12, 8)'
p1322
asbasbasbag49
(g65
g51
NtRp1323
(dp1324
g54
(dp1325
sg63
g1269
sg56
(lp1326
g49
(g70
g51
NtRp1327
(dp1328
g54
(dp1329
sg63
g1323
sg56
(lp1330
g49
(g50
g51
NtRp1331
(dp1332
g54
(dp1333
g62
I3
ssg63
g1327
sg56
(lp1334
S'stable'
p1335
asbasbasbasbasbasbasbag49
(g65
g51
NtRp1336
(dp1337
g54
(dp1338
sg63
g588
sg56
(lp1339
g49
(g70
g51
NtRp1340
(dp1341
g54
(dp1342
g74
g75
ssg63
g1336
sg56
(lp1343
S'wsgi_errors'
p1344
asbag49
(g70
g51
NtRp1345
(dp1346
g54
(dp1347
g81
g82
ssg63
g1336
sg56
(lp1348
S':'
asbag49
(g70
g51
NtRp1349
(dp1350
g54
(dp1351
sg63
g1336
sg56
(lp1352
g49
(g50
g51
NtRp1353
(dp1354
g54
(dp1355
g62
I4
ssg63
g1349
sg56
(lp1356
S"<open file '<stderr>', mode 'w' at 0x004200B0>"
p1357
asbasbasbag49
(g65
g51
NtRp1358
(dp1359
g54
(dp1360
sg63
g588
sg56
(lp1361
g49
(g70
g51
NtRp1362
(dp1363
g54
(dp1364
g74
g75
ssg63
g1358
sg56
(lp1365
S'wsgi_file_wrapper'
p1366
asbag49
(g70
g51
NtRp1367
(dp1368
g54
(dp1369
g81
g82
ssg63
g1358
sg56
(lp1370
S':'
asbag49
(g70
g51
NtRp1371
(dp1372
g54
(dp1373
sg63
g1358
sg56
(lp1374
g49
(g50
g51
NtRp1375
(dp1376
g54
(dp1377
g62
I4
ssg63
g1371
sg56
(lp1378
S'<class wsgiref.util.FileWrapper at 0x02B168D0>'
p1379
asbasbasbag49
(g65
g51
NtRp1380
(dp1381
g54
(dp1382
sg63
g588
sg56
(lp1383
g49
(g70
g51
NtRp1384
(dp1385
g54
(dp1386
g74
g75
ssg63
g1380
sg56
(lp1387
S'wsgi_input'
p1388
asbag49
(g70
g51
NtRp1389
(dp1390
g54
(dp1391
g81
g82
ssg63
g1380
sg56
(lp1392
S':'
asbag49
(g70
g51
NtRp1393
(dp1394
g54
(dp1395
sg63
g1380
sg56
(lp1396
g49
(g50
g51
NtRp1397
(dp1398
g54
(dp1399
g62
I4
ssg63
g1393
sg56
(lp1400
S'<socket._fileobject object at 0x03E68170>'
p1401
asbasbasbag49
(g65
g51
NtRp1402
(dp1403
g54
(dp1404
sg63
g588
sg56
(lp1405
g49
(g70
g51
NtRp1406
(dp1407
g54
(dp1408
g74
g75
ssg63
g1402
sg56
(lp1409
S'wsgi_multiprocess'
p1410
asbag49
(g70
g51
NtRp1411
(dp1412
g54
(dp1413
g81
g82
ssg63
g1402
sg56
(lp1414
S':'
asbag49
(g70
g51
NtRp1415
(dp1416
g54
(dp1417
sg63
g1402
sg56
(lp1418
g49
(g50
g51
NtRp1419
(dp1420
g54
(dp1421
g62
I4
ssg63
g1415
sg56
(lp1422
g92
asbasbasbag49
(g65
g51
NtRp1423
(dp1424
g54
(dp1425
sg63
g588
sg56
(lp1426
g49
(g70
g51
NtRp1427
(dp1428
g54
(dp1429
g74
g75
ssg63
g1423
sg56
(lp1430
S'wsgi_multithread'
p1431
asbag49
(g70
g51
NtRp1432
(dp1433
g54
(dp1434
g81
g82
ssg63
g1423
sg56
(lp1435
S':'
asbag49
(g70
g51
NtRp1436
(dp1437
g54
(dp1438
sg63
g1423
sg56
(lp1439
g49
(g50
g51
NtRp1440
(dp1441
g54
(dp1442
g62
I4
ssg63
g1436
sg56
(lp1443
g726
asbasbasbag49
(g65
g51
NtRp1444
(dp1445
g54
(dp1446
sg63
g588
sg56
(lp1447
g49
(g70
g51
NtRp1448
(dp1449
g54
(dp1450
g74
g75
ssg63
g1444
sg56
(lp1451
S'wsgi_run_once'
p1452
asbag49
(g70
g51
NtRp1453
(dp1454
g54
(dp1455
g81
g82
ssg63
g1444
sg56
(lp1456
S':'
asbag49
(g70
g51
NtRp1457
(dp1458
g54
(dp1459
sg63
g1444
sg56
(lp1460
g49
(g50
g51
NtRp1461
(dp1462
g54
(dp1463
g62
I4
ssg63
g1457
sg56
(lp1464
g92
asbasbasbag49
(g65
g51
NtRp1465
(dp1466
g54
(dp1467
sg63
g588
sg56
(lp1468
g49
(g70
g51
NtRp1469
(dp1470
g54
(dp1471
g74
g75
ssg63
g1465
sg56
(lp1472
S'wsgi_url_scheme'
p1473
asbag49
(g70
g51
NtRp1474
(dp1475
g54
(dp1476
g81
g82
ssg63
g1465
sg56
(lp1477
S':'
asbag49
(g70
g51
NtRp1478
(dp1479
g54
(dp1480
sg63
g1465
sg56
(lp1481
g49
(g50
g51
NtRp1482
(dp1483
g54
(dp1484
g62
I4
ssg63
g1478
sg56
(lp1485
S'http'
p1486
asbasbasbag49
(g65
g51
NtRp1487
(dp1488
g54
(dp1489
sg63
g588
sg56
(lp1490
g49
(g70
g51
NtRp1491
(dp1492
g54
(dp1493
g74
g75
ssg63
g1487
sg56
(lp1494
S'wsgi_version'
p1495
asbag49
(g70
g51
NtRp1496
(dp1497
g54
(dp1498
g81
g82
ssg63
g1487
sg56
(lp1499
S':'
asbag49
(g70
g51
NtRp1500
(dp1501
g54
(dp1502
sg63
g1487
sg56
(lp1503
g49
(g50
g51
NtRp1504
(dp1505
g54
(dp1506
g62
I4
ssg63
g1500
sg56
(lp1507
g49
(g58
g51
NtRp1508
(dp1509
g54
(dp1510
g62
I3
ssg63
Nsg56
(lp1511
g49
(g65
g51
NtRp1512
(dp1513
g54
(dp1514
sg63
g1508
sg56
(lp1515
g49
(g70
g51
NtRp1516
(dp1517
g54
(dp1518
sg63
g1512
sg56
(lp1519
g49
(g50
g51
NtRp1520
(dp1521
g54
(dp1522
g62
I3
ssg63
g1516
sg56
(lp1523
S'1'
asbasbasbag49
(g65
g51
NtRp1524
(dp1525
g54
(dp1526
sg63
g1508
sg56
(lp1527
g49
(g70
g51
NtRp1528
(dp1529
g54
(dp1530
sg63
g1524
sg56
(lp1531
g49
(g50
g51
NtRp1532
(dp1533
g54
(dp1534
g62
I3
ssg63
g1528
sg56
(lp1535
S'0'
asbasbasbasbasbasbasbasbasbasbasbag49
(g65
g51
NtRp1536
(dp1537
g54
(dp1538
sg63
g59
sg56
(lp1539
g49
(g70
g51
NtRp1540
(dp1541
g54
(dp1542
g74
g75
ssg63
g1536
sg56
(lp1543
S'extension'
p1544
asbag49
(g70
g51
NtRp1545
(dp1546
g54
(dp1547
g81
g82
ssg63
g1536
sg56
(lp1548
S':'
asbag49
(g70
g51
NtRp1549
(dp1550
g54
(dp1551
sg63
g1536
sg56
(lp1552
g49
(g50
g51
NtRp1553
(dp1554
g54
(dp1555
g62
I5
ssg63
g1549
sg56
(lp1556
S'html'
p1557
asbasbasbag49
(g65
g51
NtRp1558
(dp1559
g54
(dp1560
sg63
g59
sg56
(lp1561
g49
(g70
g51
NtRp1562
(dp1563
g54
(dp1564
g74
g75
ssg63
g1558
sg56
(lp1565
S'folder'
p1566
asbag49
(g70
g51
NtRp1567
(dp1568
g54
(dp1569
g81
g82
ssg63
g1558
sg56
(lp1570
S':'
asbag49
(g70
g51
NtRp1571
(dp1572
g54
(dp1573
sg63
g1558
sg56
(lp1574
g49
(g50
g51
NtRp1575
(dp1576
g54
(dp1577
g62
I5
ssg63
g1571
sg56
(lp1578
S'C:\\Users\\Bussiere\\Dropbox\\Projets\\Yuki\\web2py\\applications\\init\\'
p1579
asbasbasbag49
(g65
g51
NtRp1580
(dp1581
g54
(dp1582
sg63
g59
sg56
(lp1583
g49
(g70
g51
NtRp1584
(dp1585
g54
(dp1586
g74
g75
ssg63
g1580
sg56
(lp1587
S'function'
p1588
asbag49
(g70
g51
NtRp1589
(dp1590
g54
(dp1591
g81
g82
ssg63
g1580
sg56
(lp1592
S':'
asbag49
(g70
g51
NtRp1593
(dp1594
g54
(dp1595
sg63
g1580
sg56
(lp1596
g49
(g50
g51
NtRp1597
(dp1598
g54
(dp1599
g62
I5
ssg63
g1593
sg56
(lp1600
S'index'
p1601
asbasbasbag49
(g65
g51
NtRp1602
(dp1603
g54
(dp1604
sg63
g59
sg56
(lp1605
g49
(g70
g51
NtRp1606
(dp1607
g54
(dp1608
g74
g75
ssg63
g1602
sg56
(lp1609
S'get_vars'
p1610
asbag49
(g70
g51
NtRp1611
(dp1612
g54
(dp1613
g81
g82
ssg63
g1602
sg56
(lp1614
S':'
asbag49
(g70
g51
NtRp1615
(dp1616
g54
(dp1617
sg63
g1602
sg56
(lp1618
g49
(g50
g51
NtRp1619
(dp1620
g54
(dp1621
g62
I5
ssg63
g1615
sg56
(lp1622
g49
(g58
g51
NtRp1623
(dp1624
g54
(dp1625
g62
I4
ssg63
Nsg56
(lp1626
sbasbasbasbag49
(g65
g51
NtRp1627
(dp1628
g54
(dp1629
sg63
g59
sg56
(lp1630
g49
(g70
g51
NtRp1631
(dp1632
g54
(dp1633
g74
g75
ssg63
g1627
sg56
(lp1634
S'global_settings'
p1635
asbag49
(g70
g51
NtRp1636
(dp1637
g54
(dp1638
g81
g82
ssg63
g1627
sg56
(lp1639
S':'
asbag49
(g70
g51
NtRp1640
(dp1641
g54
(dp1642
sg63
g1627
sg56
(lp1643
g49
(g50
g51
NtRp1644
(dp1645
g54
(dp1646
g62
I5
ssg63
g1640
sg56
(lp1647
g49
(g58
g51
NtRp1648
(dp1649
g54
(dp1650
g62
I4
ssg63
Nsg56
(lp1651
g49
(g65
g51
NtRp1652
(dp1653
g54
(dp1654
sg63
g1648
sg56
(lp1655
g49
(g70
g51
NtRp1656
(dp1657
g54
(dp1658
g74
g75
ssg63
g1652
sg56
(lp1659
g600
asbag49
(g70
g51
NtRp1660
(dp1661
g54
(dp1662
g81
g82
ssg63
g1652
sg56
(lp1663
S':'
asbag49
(g70
g51
NtRp1664
(dp1665
g54
(dp1666
sg63
g1652
sg56
(lp1667
g49
(g50
g51
NtRp1668
(dp1669
g54
(dp1670
g62
I4
ssg63
g1664
sg56
(lp1671
S"set(['C:\\\\Users\\\\Bussiere\\\\Dropbox\\\\Projets\\\\Yuki\\\\web2py\\\\applications\\\\init\\\\', 'C:\\\\Users\\\\Bussiere\\\\Dropbox\\\\Projets\\\\Yuki\\\\web2py\\\\applications\\\\admin\\\\'])"
p1672
asbasbasbag49
(g65
g51
NtRp1673
(dp1674
g54
(dp1675
sg63
g1648
sg56
(lp1676
g49
(g70
g51
NtRp1677
(dp1678
g54
(dp1679
g74
g75
ssg63
g1673
sg56
(lp1680
g622
asbag49
(g70
g51
NtRp1681
(dp1682
g54
(dp1683
g81
g82
ssg63
g1673
sg56
(lp1684
S':'
asbag49
(g70
g51
NtRp1685
(dp1686
g54
(dp1687
sg63
g1673
sg56
(lp1688
g49
(g50
g51
NtRp1689
(dp1690
g54
(dp1691
g62
I4
ssg63
g1685
sg56
(lp1692
g635
asbasbasbag49
(g65
g51
NtRp1693
(dp1694
g54
(dp1695
sg63
g1648
sg56
(lp1696
g49
(g70
g51
NtRp1697
(dp1698
g54
(dp1699
g74
g75
ssg63
g1693
sg56
(lp1700
g644
asbag49
(g70
g51
NtRp1701
(dp1702
g54
(dp1703
g81
g82
ssg63
g1693
sg56
(lp1704
S':'
asbag49
(g70
g51
NtRp1705
(dp1706
g54
(dp1707
sg63
g1693
sg56
(lp1708
g49
(g50
g51
NtRp1709
(dp1710
g54
(dp1711
g62
I4
ssg63
g1705
sg56
(lp1712
g49
(g58
g51
NtRp1713
(dp1714
g54
(dp1715
g62
I3
ssg63
Nsg56
(lp1716
sbasbasbasbag49
(g65
g51
NtRp1717
(dp1718
g54
(dp1719
sg63
g1648
sg56
(lp1720
g49
(g70
g51
NtRp1721
(dp1722
g54
(dp1723
g74
g75
ssg63
g1717
sg56
(lp1724
g669
asbag49
(g70
g51
NtRp1725
(dp1726
g54
(dp1727
g81
g82
ssg63
g1717
sg56
(lp1728
S':'
asbag49
(g70
g51
NtRp1729
(dp1730
g54
(dp1731
sg63
g1717
sg56
(lp1732
g49
(g50
g51
NtRp1733
(dp1734
g54
(dp1735
g62
I4
ssg63
g1729
sg56
(lp1736
S"<Values at 0x3c04f58: {'verbose': False, 'ip': '127.0.0.1', 'shutdown_timeout': 5, 'taskbar': False, 'nocron': False, 'pid_filename': 'httpserver.pid', 'maxthreads': None, 'softcron': False, 'server_name': 'Batou', 'bpython': False, 'nogui': False, 'port': 8000, 'extcron': False, 'debuglevel': 30, 'test': None, 'folder': 'C:\\\\Users\\\\Bussiere\\\\Dropbox\\\\Projets\\\\Yuki\\\\web2py', 'config': '', 'import_models': False, 'winservice': '', 'shell': None, 'run': '', 'log_filename': 'httpserver.log', 'args': [''], 'socket_timeout': 5, 'ssl_ca_certificate': None, 'scheduler': None, 'profiler_filename': None, 'ssl_private_key': '', 'password': '<ask>', 'request_queue_size': 5, 'ssl_certificate': '', 'cronjob': False, 'numthreads': None, 'quiet': False, 'interfaces': None, 'minthreads': None, 'timeout': 10, 'plain': False, 'nobanner': False}>"
p1737
asbasbasbag49
(g65
g51
NtRp1738
(dp1739
g54
(dp1740
sg63
g1648
sg56
(lp1741
g49
(g70
g51
NtRp1742
(dp1743
g54
(dp1744
g74
g75
ssg63
g1738
sg56
(lp1745
g691
asbag49
(g70
g51
NtRp1746
(dp1747
g54
(dp1748
g81
g82
ssg63
g1738
sg56
(lp1749
S':'
asbag49
(g70
g51
NtRp1750
(dp1751
g54
(dp1752
sg63
g1738
sg56
(lp1753
g49
(g50
g51
NtRp1754
(dp1755
g54
(dp1756
g62
I4
ssg63
g1750
sg56
(lp1757
S'set([])'
p1758
asbasbasbag49
(g65
g51
NtRp1759
(dp1760
g54
(dp1761
sg63
g1648
sg56
(lp1762
g49
(g70
g51
NtRp1763
(dp1764
g54
(dp1765
g74
g75
ssg63
g1759
sg56
(lp1766
g713
asbag49
(g70
g51
NtRp1767
(dp1768
g54
(dp1769
g81
g82
ssg63
g1759
sg56
(lp1770
S':'
asbag49
(g70
g51
NtRp1771
(dp1772
g54
(dp1773
sg63
g1759
sg56
(lp1774
g49
(g50
g51
NtRp1775
(dp1776
g54
(dp1777
g62
I4
ssg63
g1771
sg56
(lp1778
g726
asbasbasbag49
(g65
g51
NtRp1779
(dp1780
g54
(dp1781
sg63
g1648
sg56
(lp1782
g49
(g70
g51
NtRp1783
(dp1784
g54
(dp1785
g74
g75
ssg63
g1779
sg56
(lp1786
g735
asbag49
(g70
g51
NtRp1787
(dp1788
g54
(dp1789
g81
g82
ssg63
g1779
sg56
(lp1790
S':'
asbag49
(g70
g51
NtRp1791
(dp1792
g54
(dp1793
sg63
g1779
sg56
(lp1794
g49
(g50
g51
NtRp1795
(dp1796
g54
(dp1797
g62
I4
ssg63
g1791
sg56
(lp1798
g748
asbasbasbag49
(g65
g51
NtRp1799
(dp1800
g54
(dp1801
sg63
g1648
sg56
(lp1802
g49
(g70
g51
NtRp1803
(dp1804
g54
(dp1805
g74
g75
ssg63
g1799
sg56
(lp1806
g955
asbag49
(g70
g51
NtRp1807
(dp1808
g54
(dp1809
g81
g82
ssg63
g1799
sg56
(lp1810
S':'
asbag49
(g70
g51
NtRp1811
(dp1812
g54
(dp1813
sg63
g1799
sg56
(lp1814
g49
(g50
g51
NtRp1815
(dp1816
g54
(dp1817
g62
I4
ssg63
g1811
sg56
(lp1818
g92
asbasbasbag49
(g65
g51
NtRp1819
(dp1820
g54
(dp1821
sg63
g1648
sg56
(lp1822
g49
(g70
g51
NtRp1823
(dp1824
g54
(dp1825
g74
g75
ssg63
g1819
sg56
(lp1826
g976
asbag49
(g70
g51
NtRp1827
(dp1828
g54
(dp1829
g81
g82
ssg63
g1819
sg56
(lp1830
S':'
asbag49
(g70
g51
NtRp1831
(dp1832
g54
(dp1833
sg63
g1819
sg56
(lp1834
g49
(g50
g51
NtRp1835
(dp1836
g54
(dp1837
g62
I4
ssg63
g1831
sg56
(lp1838
g92
asbasbasbag49
(g65
g51
NtRp1839
(dp1840
g54
(dp1841
sg63
g1648
sg56
(lp1842
g49
(g70
g51
NtRp1843
(dp1844
g54
(dp1845
g74
g75
ssg63
g1839
sg56
(lp1846
g1213
asbag49
(g70
g51
NtRp1847
(dp1848
g54
(dp1849
g81
g82
ssg63
g1839
sg56
(lp1850
S':'
asbag49
(g70
g51
NtRp1851
(dp1852
g54
(dp1853
sg63
g1839
sg56
(lp1854
g49
(g50
g51
NtRp1855
(dp1856
g54
(dp1857
g62
I4
ssg63
g1851
sg56
(lp1858
g1226
asbasbasbag49
(g65
g51
NtRp1859
(dp1860
g54
(dp1861
sg63
g1648
sg56
(lp1862
g49
(g70
g51
NtRp1863
(dp1864
g54
(dp1865
g74
g75
ssg63
g1859
sg56
(lp1866
g1256
asbag49
(g70
g51
NtRp1867
(dp1868
g54
(dp1869
g81
g82
ssg63
g1859
sg56
(lp1870
S':'
asbag49
(g70
g51
NtRp1871
(dp1872
g54
(dp1873
sg63
g1859
sg56
(lp1874
g49
(g50
g51
NtRp1875
(dp1876
g54
(dp1877
g62
I4
ssg63
g1871
sg56
(lp1878
g49
(g58
g51
NtRp1879
(dp1880
g54
(dp1881
g62
I3
ssg63
Nsg56
(lp1882
g49
(g65
g51
NtRp1883
(dp1884
g54
(dp1885
sg63
g1879
sg56
(lp1886
g49
(g70
g51
NtRp1887
(dp1888
g54
(dp1889
sg63
g1883
sg56
(lp1890
g49
(g50
g51
NtRp1891
(dp1892
g54
(dp1893
g62
I3
ssg63
g1887
sg56
(lp1894
S'1'
asbasbasbag49
(g65
g51
NtRp1895
(dp1896
g54
(dp1897
sg63
g1879
sg56
(lp1898
g49
(g70
g51
NtRp1899
(dp1900
g54
(dp1901
sg63
g1895
sg56
(lp1902
g49
(g50
g51
NtRp1903
(dp1904
g54
(dp1905
g62
I3
ssg63
g1899
sg56
(lp1906
S'99'
p1907
asbasbasbag49
(g65
g51
NtRp1908
(dp1909
g54
(dp1910
sg63
g1879
sg56
(lp1911
g49
(g70
g51
NtRp1912
(dp1913
g54
(dp1914
sg63
g1908
sg56
(lp1915
g49
(g50
g51
NtRp1916
(dp1917
g54
(dp1918
g62
I3
ssg63
g1912
sg56
(lp1919
S'7'
asbasbasbag49
(g65
g51
NtRp1920
(dp1921
g54
(dp1922
sg63
g1879
sg56
(lp1923
g49
(g70
g51
NtRp1924
(dp1925
g54
(dp1926
sg63
g1920
sg56
(lp1927
g49
(g50
g51
NtRp1928
(dp1929
g54
(dp1930
g62
I3
ssg63
g1924
sg56
(lp1931
S'datetime.datetime(2012, 3, 4, 22, 12, 8)'
p1932
asbasbasbag49
(g65
g51
NtRp1933
(dp1934
g54
(dp1935
sg63
g1879
sg56
(lp1936
g49
(g70
g51
NtRp1937
(dp1938
g54
(dp1939
sg63
g1933
sg56
(lp1940
g49
(g50
g51
NtRp1941
(dp1942
g54
(dp1943
g62
I3
ssg63
g1937
sg56
(lp1944
g1335
asbasbasbasbasbasbasbasbasbasbasbag49
(g65
g51
NtRp1945
(dp1946
g54
(dp1947
sg63
g59
sg56
(lp1948
g49
(g70
g51
NtRp1949
(dp1950
g54
(dp1951
g74
g75
ssg63
g1945
sg56
(lp1952
S'is_https'
p1953
asbag49
(g70
g51
NtRp1954
(dp1955
g54
(dp1956
g81
g82
ssg63
g1945
sg56
(lp1957
S':'
asbag49
(g70
g51
NtRp1958
(dp1959
g54
(dp1960
sg63
g1945
sg56
(lp1961
g49
(g50
g51
NtRp1962
(dp1963
g54
(dp1964
g62
I5
ssg63
g1958
sg56
(lp1965
g92
asbasbasbag49
(g65
g51
NtRp1966
(dp1967
g54
(dp1968
sg63
g59
sg56
(lp1969
g49
(g70
g51
NtRp1970
(dp1971
g54
(dp1972
g74
g75
ssg63
g1966
sg56
(lp1973
S'is_local'
p1974
asbag49
(g70
g51
NtRp1975
(dp1976
g54
(dp1977
g81
g82
ssg63
g1966
sg56
(lp1978
S':'
asbag49
(g70
g51
NtRp1979
(dp1980
g54
(dp1981
sg63
g1966
sg56
(lp1982
g49
(g50
g51
NtRp1983
(dp1984
g54
(dp1985
g62
I5
ssg63
g1979
sg56
(lp1986
g726
asbasbasbag49
(g65
g51
NtRp1987
(dp1988
g54
(dp1989
sg63
g59
sg56
(lp1990
g49
(g70
g51
NtRp1991
(dp1992
g54
(dp1993
g74
g75
ssg63
g1987
sg56
(lp1994
S'is_restful'
p1995
asbag49
(g70
g51
NtRp1996
(dp1997
g54
(dp1998
g81
g82
ssg63
g1987
sg56
(lp1999
S':'
asbag49
(g70
g51
NtRp2000
(dp2001
g54
(dp2002
sg63
g1987
sg56
(lp2003
g49
(g50
g51
NtRp2004
(dp2005
g54
(dp2006
g62
I5
ssg63
g2000
sg56
(lp2007
g92
asbasbasbag49
(g65
g51
NtRp2008
(dp2009
g54
(dp2010
sg63
g59
sg56
(lp2011
g49
(g70
g51
NtRp2012
(dp2013
g54
(dp2014
g74
g75
ssg63
g2008
sg56
(lp2015
S'now'
p2016
asbag49
(g70
g51
NtRp2017
(dp2018
g54
(dp2019
g81
g82
ssg63
g2008
sg56
(lp2020
S':'
asbag49
(g70
g51
NtRp2021
(dp2022
g54
(dp2023
sg63
g2008
sg56
(lp2024
g49
(g50
g51
NtRp2025
(dp2026
g54
(dp2027
g62
I5
ssg63
g2021
sg56
(lp2028
S'datetime.datetime(2012, 3, 13, 6, 5, 11, 202000)'
p2029
asbasbasbag49
(g65
g51
NtRp2030
(dp2031
g54
(dp2032
sg63
g59
sg56
(lp2033
g49
(g70
g51
NtRp2034
(dp2035
g54
(dp2036
g74
g75
ssg63
g2030
sg56
(lp2037
S'post_vars'
p2038
asbag49
(g70
g51
NtRp2039
(dp2040
g54
(dp2041
g81
g82
ssg63
g2030
sg56
(lp2042
S':'
asbag49
(g70
g51
NtRp2043
(dp2044
g54
(dp2045
sg63
g2030
sg56
(lp2046
g49
(g50
g51
NtRp2047
(dp2048
g54
(dp2049
g62
I5
ssg63
g2043
sg56
(lp2050
g49
(g58
g51
NtRp2051
(dp2052
g54
(dp2053
g62
I4
ssg63
Nsg56
(lp2054
sbasbasbasbag49
(g65
g51
NtRp2055
(dp2056
g54
(dp2057
sg63
g59
sg56
(lp2058
g49
(g70
g51
NtRp2059
(dp2060
g54
(dp2061
g74
g75
ssg63
g2055
sg56
(lp2062
S'url'
p2063
asbag49
(g70
g51
NtRp2064
(dp2065
g54
(dp2066
g81
g82
ssg63
g2055
sg56
(lp2067
S':'
asbag49
(g70
g51
NtRp2068
(dp2069
g54
(dp2070
sg63
g2055
sg56
(lp2071
g49
(g50
g51
NtRp2072
(dp2073
g54
(dp2074
g62
I5
ssg63
g2068
sg56
(lp2075
S'/init/default/index'
p2076
asbasbasbag49
(g65
g51
NtRp2077
(dp2078
g54
(dp2079
sg63
g59
sg56
(lp2080
g49
(g70
g51
NtRp2081
(dp2082
g54
(dp2083
g74
g75
ssg63
g2077
sg56
(lp2084
S'utcnow'
p2085
asbag49
(g70
g51
NtRp2086
(dp2087
g54
(dp2088
g81
g82
ssg63
g2077
sg56
(lp2089
S':'
asbag49
(g70
g51
NtRp2090
(dp2091
g54
(dp2092
sg63
g2077
sg56
(lp2093
g49
(g50
g51
NtRp2094
(dp2095
g54
(dp2096
g62
I5
ssg63
g2090
sg56
(lp2097
S'datetime.datetime(2012, 3, 13, 5, 5, 11, 202000)'
p2098
asbasbasbag49
(g65
g51
NtRp2099
(dp2100
g54
(dp2101
sg63
g59
sg56
(lp2102
g49
(g70
g51
NtRp2103
(dp2104
g54
(dp2105
g74
g75
ssg63
g2099
sg56
(lp2106
S'uuid'
p2107
asbag49
(g70
g51
NtRp2108
(dp2109
g54
(dp2110
g81
g82
ssg63
g2099
sg56
(lp2111
S':'
asbag49
(g70
g51
NtRp2112
(dp2113
g54
(dp2114
sg63
g2099
sg56
(lp2115
g49
(g50
g51
NtRp2116
(dp2117
g54
(dp2118
g62
I5
ssg63
g2112
sg56
(lp2119
S'init/127.0.0.1.2012-03-13.06-05-11.0dff1f66-9436-47b8-ae0c-b00dd21ec478'
p2120
asbasbasbag49
(g65
g51
NtRp2121
(dp2122
g54
(dp2123
sg63
g59
sg56
(lp2124
g49
(g70
g51
NtRp2125
(dp2126
g54
(dp2127
g74
g75
ssg63
g2121
sg56
(lp2128
S'vars'
p2129
asbag49
(g70
g51
NtRp2130
(dp2131
g54
(dp2132
g81
g82
ssg63
g2121
sg56
(lp2133
S':'
asbag49
(g70
g51
NtRp2134
(dp2135
g54
(dp2136
sg63
g2121
sg56
(lp2137
g49
(g50
g51
NtRp2138
(dp2139
g54
(dp2140
g62
I5
ssg63
g2134
sg56
(lp2141
g49
(g58
g51
NtRp2142
(dp2143
g54
(dp2144
g62
I4
ssg63
Nsg56
(lp2145
sbasbasbasbag49
(g65
g51
NtRp2146
(dp2147
g54
(dp2148
sg63
g59
sg56
(lp2149
g49
(g70
g51
NtRp2150
(dp2151
g54
(dp2152
g74
g75
ssg63
g2146
sg56
(lp2153
S'wsgi'
p2154
asbag49
(g70
g51
NtRp2155
(dp2156
g54
(dp2157
g81
g82
ssg63
g2146
sg56
(lp2158
S':'
asbag49
(g70
g51
NtRp2159
(dp2160
g54
(dp2161
sg63
g2146
sg56
(lp2162
g49
(g50
g51
NtRp2163
(dp2164
g54
(dp2165
g62
I5
ssg63
g2159
sg56
(lp2166
g49
(g58
g51
NtRp2167
(dp2168
g54
(dp2169
g62
I4
ssg63
Nsg56
(lp2170
g49
(g65
g51
NtRp2171
(dp2172
g54
(dp2173
sg63
g2167
sg56
(lp2174
g49
(g70
g51
NtRp2175
(dp2176
g54
(dp2177
g74
g75
ssg63
g2171
sg56
(lp2178
S'environ'
p2179
asbag49
(g70
g51
NtRp2180
(dp2181
g54
(dp2182
g81
g82
ssg63
g2171
sg56
(lp2183
S':'
asbag49
(g70
g51
NtRp2184
(dp2185
g54
(dp2186
sg63
g2171
sg56
(lp2187
g49
(g50
g51
NtRp2188
(dp2189
g54
(dp2190
g62
I4
ssg63
g2184
sg56
(lp2191
g49
(g58
g51
NtRp2192
(dp2193
g54
(dp2194
g62
I3
ssg63
Nsg56
(lp2195
g49
(g65
g51
NtRp2196
(dp2197
g54
(dp2198
sg63
g2192
sg56
(lp2199
g49
(g70
g51
NtRp2200
(dp2201
g54
(dp2202
g74
g75
ssg63
g2196
sg56
(lp2203
S'HTTP_ACCEPT'
p2204
asbag49
(g70
g51
NtRp2205
(dp2206
g54
(dp2207
g81
g82
ssg63
g2196
sg56
(lp2208
S':'
asbag49
(g70
g51
NtRp2209
(dp2210
g54
(dp2211
sg63
g2196
sg56
(lp2212
g49
(g50
g51
NtRp2213
(dp2214
g54
(dp2215
g62
I3
ssg63
g2209
sg56
(lp2216
g770
asbasbasbag49
(g65
g51
NtRp2217
(dp2218
g54
(dp2219
sg63
g2192
sg56
(lp2220
g49
(g70
g51
NtRp2221
(dp2222
g54
(dp2223
g74
g75
ssg63
g2217
sg56
(lp2224
S'HTTP_ACCEPT_CHARSET'
p2225
asbag49
(g70
g51
NtRp2226
(dp2227
g54
(dp2228
g81
g82
ssg63
g2217
sg56
(lp2229
S':'
asbag49
(g70
g51
NtRp2230
(dp2231
g54
(dp2232
sg63
g2217
sg56
(lp2233
g49
(g50
g51
NtRp2234
(dp2235
g54
(dp2236
g62
I3
ssg63
g2230
sg56
(lp2237
g792
asbasbasbag49
(g65
g51
NtRp2238
(dp2239
g54
(dp2240
sg63
g2192
sg56
(lp2241
g49
(g70
g51
NtRp2242
(dp2243
g54
(dp2244
g74
g75
ssg63
g2238
sg56
(lp2245
S'HTTP_ACCEPT_ENCODING'
p2246
asbag49
(g70
g51
NtRp2247
(dp2248
g54
(dp2249
g81
g82
ssg63
g2238
sg56
(lp2250
S':'
asbag49
(g70
g51
NtRp2251
(dp2252
g54
(dp2253
sg63
g2238
sg56
(lp2254
g49
(g50
g51
NtRp2255
(dp2256
g54
(dp2257
g62
I3
ssg63
g2251
sg56
(lp2258
g814
asbasbasbag49
(g65
g51
NtRp2259
(dp2260
g54
(dp2261
sg63
g2192
sg56
(lp2262
g49
(g70
g51
NtRp2263
(dp2264
g54
(dp2265
g74
g75
ssg63
g2259
sg56
(lp2266
S'HTTP_ACCEPT_LANGUAGE'
p2267
asbag49
(g70
g51
NtRp2268
(dp2269
g54
(dp2270
g81
g82
ssg63
g2259
sg56
(lp2271
S':'
asbag49
(g70
g51
NtRp2272
(dp2273
g54
(dp2274
sg63
g2259
sg56
(lp2275
g49
(g50
g51
NtRp2276
(dp2277
g54
(dp2278
g62
I3
ssg63
g2272
sg56
(lp2279
g836
asbasbasbag49
(g65
g51
NtRp2280
(dp2281
g54
(dp2282
sg63
g2192
sg56
(lp2283
g49
(g70
g51
NtRp2284
(dp2285
g54
(dp2286
g74
g75
ssg63
g2280
sg56
(lp2287
S'HTTP_CACHE_CONTROL'
p2288
asbag49
(g70
g51
NtRp2289
(dp2290
g54
(dp2291
g81
g82
ssg63
g2280
sg56
(lp2292
S':'
asbag49
(g70
g51
NtRp2293
(dp2294
g54
(dp2295
sg63
g2280
sg56
(lp2296
g49
(g50
g51
NtRp2297
(dp2298
g54
(dp2299
g62
I3
ssg63
g2293
sg56
(lp2300
g858
asbasbasbag49
(g65
g51
NtRp2301
(dp2302
g54
(dp2303
sg63
g2192
sg56
(lp2304
g49
(g70
g51
NtRp2305
(dp2306
g54
(dp2307
g74
g75
ssg63
g2301
sg56
(lp2308
S'HTTP_CONNECTION'
p2309
asbag49
(g70
g51
NtRp2310
(dp2311
g54
(dp2312
g81
g82
ssg63
g2301
sg56
(lp2313
S':'
asbag49
(g70
g51
NtRp2314
(dp2315
g54
(dp2316
sg63
g2301
sg56
(lp2317
g49
(g50
g51
NtRp2318
(dp2319
g54
(dp2320
g62
I3
ssg63
g2314
sg56
(lp2321
g880
asbasbasbag49
(g65
g51
NtRp2322
(dp2323
g54
(dp2324
sg63
g2192
sg56
(lp2325
g49
(g70
g51
NtRp2326
(dp2327
g54
(dp2328
g74
g75
ssg63
g2322
sg56
(lp2329
S'HTTP_COOKIE'
p2330
asbag49
(g70
g51
NtRp2331
(dp2332
g54
(dp2333
g81
g82
ssg63
g2322
sg56
(lp2334
S':'
asbag49
(g70
g51
NtRp2335
(dp2336
g54
(dp2337
sg63
g2322
sg56
(lp2338
g49
(g50
g51
NtRp2339
(dp2340
g54
(dp2341
g62
I3
ssg63
g2335
sg56
(lp2342
g902
asbasbasbag49
(g65
g51
NtRp2343
(dp2344
g54
(dp2345
sg63
g2192
sg56
(lp2346
g49
(g70
g51
NtRp2347
(dp2348
g54
(dp2349
g74
g75
ssg63
g2343
sg56
(lp2350
S'HTTP_HOST'
p2351
asbag49
(g70
g51
NtRp2352
(dp2353
g54
(dp2354
g81
g82
ssg63
g2343
sg56
(lp2355
S':'
asbag49
(g70
g51
NtRp2356
(dp2357
g54
(dp2358
sg63
g2343
sg56
(lp2359
g49
(g50
g51
NtRp2360
(dp2361
g54
(dp2362
g62
I3
ssg63
g2356
sg56
(lp2363
g924
asbasbasbag49
(g65
g51
NtRp2364
(dp2365
g54
(dp2366
sg63
g2192
sg56
(lp2367
g49
(g70
g51
NtRp2368
(dp2369
g54
(dp2370
g74
g75
ssg63
g2364
sg56
(lp2371
S'HTTP_USER_AGENT'
p2372
asbag49
(g70
g51
NtRp2373
(dp2374
g54
(dp2375
g81
g82
ssg63
g2364
sg56
(lp2376
S':'
asbag49
(g70
g51
NtRp2377
(dp2378
g54
(dp2379
sg63
g2364
sg56
(lp2380
g49
(g50
g51
NtRp2381
(dp2382
g54
(dp2383
g62
I3
ssg63
g2377
sg56
(lp2384
g946
asbasbasbag49
(g65
g51
NtRp2385
(dp2386
g54
(dp2387
sg63
g2192
sg56
(lp2388
g49
(g70
g51
NtRp2389
(dp2390
g54
(dp2391
g74
g75
ssg63
g2385
sg56
(lp2392
S'PATH_INFO'
p2393
asbag49
(g70
g51
NtRp2394
(dp2395
g54
(dp2396
g81
g82
ssg63
g2385
sg56
(lp2397
S':'
asbag49
(g70
g51
NtRp2398
(dp2399
g54
(dp2400
sg63
g2385
sg56
(lp2401
g49
(g50
g51
NtRp2402
(dp2403
g54
(dp2404
g62
I3
ssg63
g2398
sg56
(lp2405
S'/'
asbasbasbag49
(g65
g51
NtRp2406
(dp2407
g54
(dp2408
sg63
g2192
sg56
(lp2409
g49
(g70
g51
NtRp2410
(dp2411
g54
(dp2412
g74
g75
ssg63
g2406
sg56
(lp2413
S'QUERY_STRING'
p2414
asbag49
(g70
g51
NtRp2415
(dp2416
g54
(dp2417
g81
g82
ssg63
g2406
sg56
(lp2418
S':'
asbag49
(g70
g51
NtRp2419
(dp2420
g54
(dp2421
sg63
g2406
sg56
(lp2422
g49
(g50
g51
NtRp2423
(dp2424
g54
(dp2425
g62
I3
ssg63
g2419
sg56
(lp2426
S''
asbasbasbag49
(g65
g51
NtRp2427
(dp2428
g54
(dp2429
sg63
g2192
sg56
(lp2430
g49
(g70
g51
NtRp2431
(dp2432
g54
(dp2433
g74
g75
ssg63
g2427
sg56
(lp2434
S'REMOTE_ADDR'
p2435
asbag49
(g70
g51
NtRp2436
(dp2437
g54
(dp2438
g81
g82
ssg63
g2427
sg56
(lp2439
S':'
asbag49
(g70
g51
NtRp2440
(dp2441
g54
(dp2442
sg63
g2427
sg56
(lp2443
g49
(g50
g51
NtRp2444
(dp2445
g54
(dp2446
g62
I3
ssg63
g2440
sg56
(lp2447
g182
asbasbasbag49
(g65
g51
NtRp2448
(dp2449
g54
(dp2450
sg63
g2192
sg56
(lp2451
g49
(g70
g51
NtRp2452
(dp2453
g54
(dp2454
g74
g75
ssg63
g2448
sg56
(lp2455
S'REMOTE_PORT'
p2456
asbag49
(g70
g51
NtRp2457
(dp2458
g54
(dp2459
g81
g82
ssg63
g2448
sg56
(lp2460
S':'
asbag49
(g70
g51
NtRp2461
(dp2462
g54
(dp2463
sg63
g2448
sg56
(lp2464
g49
(g50
g51
NtRp2465
(dp2466
g54
(dp2467
g62
I3
ssg63
g2461
sg56
(lp2468
g1073
asbasbasbag49
(g65
g51
NtRp2469
(dp2470
g54
(dp2471
sg63
g2192
sg56
(lp2472
g49
(g70
g51
NtRp2473
(dp2474
g54
(dp2475
g74
g75
ssg63
g2469
sg56
(lp2476
S'REQUEST_METHOD'
p2477
asbag49
(g70
g51
NtRp2478
(dp2479
g54
(dp2480
g81
g82
ssg63
g2469
sg56
(lp2481
S':'
asbag49
(g70
g51
NtRp2482
(dp2483
g54
(dp2484
sg63
g2469
sg56
(lp2485
g49
(g50
g51
NtRp2486
(dp2487
g54
(dp2488
g62
I3
ssg63
g2482
sg56
(lp2489
g1095
asbasbasbag49
(g65
g51
NtRp2490
(dp2491
g54
(dp2492
sg63
g2192
sg56
(lp2493
g49
(g70
g51
NtRp2494
(dp2495
g54
(dp2496
g74
g75
ssg63
g2490
sg56
(lp2497
S'SCRIPT_NAME'
p2498
asbag49
(g70
g51
NtRp2499
(dp2500
g54
(dp2501
g81
g82
ssg63
g2490
sg56
(lp2502
S':'
asbag49
(g70
g51
NtRp2503
(dp2504
g54
(dp2505
sg63
g2490
sg56
(lp2506
g49
(g50
g51
NtRp2507
(dp2508
g54
(dp2509
g62
I3
ssg63
g2503
sg56
(lp2510
S''
asbasbasbag49
(g65
g51
NtRp2511
(dp2512
g54
(dp2513
sg63
g2192
sg56
(lp2514
g49
(g70
g51
NtRp2515
(dp2516
g54
(dp2517
g74
g75
ssg63
g2511
sg56
(lp2518
S'SERVER_NAME'
p2519
asbag49
(g70
g51
NtRp2520
(dp2521
g54
(dp2522
g81
g82
ssg63
g2511
sg56
(lp2523
S':'
asbag49
(g70
g51
NtRp2524
(dp2525
g54
(dp2526
sg63
g2511
sg56
(lp2527
g49
(g50
g51
NtRp2528
(dp2529
g54
(dp2530
g62
I3
ssg63
g2524
sg56
(lp2531
g1138
asbasbasbag49
(g65
g51
NtRp2532
(dp2533
g54
(dp2534
sg63
g2192
sg56
(lp2535
g49
(g70
g51
NtRp2536
(dp2537
g54
(dp2538
g74
g75
ssg63
g2532
sg56
(lp2539
S'SERVER_PORT'
p2540
asbag49
(g70
g51
NtRp2541
(dp2542
g54
(dp2543
g81
g82
ssg63
g2532
sg56
(lp2544
S':'
asbag49
(g70
g51
NtRp2545
(dp2546
g54
(dp2547
sg63
g2532
sg56
(lp2548
g49
(g50
g51
NtRp2549
(dp2550
g54
(dp2551
g62
I3
ssg63
g2545
sg56
(lp2552
g1160
asbasbasbag49
(g65
g51
NtRp2553
(dp2554
g54
(dp2555
sg63
g2192
sg56
(lp2556
g49
(g70
g51
NtRp2557
(dp2558
g54
(dp2559
g74
g75
ssg63
g2553
sg56
(lp2560
S'SERVER_PROTOCOL'
p2561
asbag49
(g70
g51
NtRp2562
(dp2563
g54
(dp2564
g81
g82
ssg63
g2553
sg56
(lp2565
S':'
asbag49
(g70
g51
NtRp2566
(dp2567
g54
(dp2568
sg63
g2553
sg56
(lp2569
g49
(g50
g51
NtRp2570
(dp2571
g54
(dp2572
g62
I3
ssg63
g2566
sg56
(lp2573
g1182
asbasbasbag49
(g65
g51
NtRp2574
(dp2575
g54
(dp2576
sg63
g2192
sg56
(lp2577
g49
(g70
g51
NtRp2578
(dp2579
g54
(dp2580
g74
g75
ssg63
g2574
sg56
(lp2581
S'SERVER_SOFTWARE'
p2582
asbag49
(g70
g51
NtRp2583
(dp2584
g54
(dp2585
g81
g82
ssg63
g2574
sg56
(lp2586
S':'
asbag49
(g70
g51
NtRp2587
(dp2588
g54
(dp2589
sg63
g2574
sg56
(lp2590
g49
(g50
g51
NtRp2591
(dp2592
g54
(dp2593
g62
I3
ssg63
g2587
sg56
(lp2594
g1204
asbasbasbag49
(g65
g51
NtRp2595
(dp2596
g54
(dp2597
sg63
g2192
sg56
(lp2598
g49
(g70
g51
NtRp2599
(dp2600
g54
(dp2601
g74
g75
ssg63
g2595
sg56
(lp2602
S'wsgi.errors'
p2603
asbag49
(g70
g51
NtRp2604
(dp2605
g54
(dp2606
g81
g82
ssg63
g2595
sg56
(lp2607
S':'
asbag49
(g70
g51
NtRp2608
(dp2609
g54
(dp2610
sg63
g2595
sg56
(lp2611
g49
(g50
g51
NtRp2612
(dp2613
g54
(dp2614
g62
I3
ssg63
g2608
sg56
(lp2615
S"<open file '<stderr>', mode 'w' at 0x004200B0>"
p2616
asbasbasbag49
(g65
g51
NtRp2617
(dp2618
g54
(dp2619
sg63
g2192
sg56
(lp2620
g49
(g70
g51
NtRp2621
(dp2622
g54
(dp2623
g74
g75
ssg63
g2617
sg56
(lp2624
S'wsgi.file_wrapper'
p2625
asbag49
(g70
g51
NtRp2626
(dp2627
g54
(dp2628
g81
g82
ssg63
g2617
sg56
(lp2629
S':'
asbag49
(g70
g51
NtRp2630
(dp2631
g54
(dp2632
sg63
g2617
sg56
(lp2633
g49
(g50
g51
NtRp2634
(dp2635
g54
(dp2636
g62
I3
ssg63
g2630
sg56
(lp2637
S'<class wsgiref.util.FileWrapper at 0x02B168D0>'
p2638
asbasbasbag49
(g65
g51
NtRp2639
(dp2640
g54
(dp2641
sg63
g2192
sg56
(lp2642
g49
(g70
g51
NtRp2643
(dp2644
g54
(dp2645
g74
g75
ssg63
g2639
sg56
(lp2646
S'wsgi.input'
p2647
asbag49
(g70
g51
NtRp2648
(dp2649
g54
(dp2650
g81
g82
ssg63
g2639
sg56
(lp2651
S':'
asbag49
(g70
g51
NtRp2652
(dp2653
g54
(dp2654
sg63
g2639
sg56
(lp2655
g49
(g50
g51
NtRp2656
(dp2657
g54
(dp2658
g62
I3
ssg63
g2652
sg56
(lp2659
S'<cStringIO.StringO object at 0x0441AE80>'
p2660
asbasbasbag49
(g65
g51
NtRp2661
(dp2662
g54
(dp2663
sg63
g2192
sg56
(lp2664
g49
(g70
g51
NtRp2665
(dp2666
g54
(dp2667
g74
g75
ssg63
g2661
sg56
(lp2668
S'wsgi.multiprocess'
p2669
asbag49
(g70
g51
NtRp2670
(dp2671
g54
(dp2672
g81
g82
ssg63
g2661
sg56
(lp2673
S':'
asbag49
(g70
g51
NtRp2674
(dp2675
g54
(dp2676
sg63
g2661
sg56
(lp2677
g49
(g50
g51
NtRp2678
(dp2679
g54
(dp2680
g62
I3
ssg63
g2674
sg56
(lp2681
g92
asbasbasbag49
(g65
g51
NtRp2682
(dp2683
g54
(dp2684
sg63
g2192
sg56
(lp2685
g49
(g70
g51
NtRp2686
(dp2687
g54
(dp2688
g74
g75
ssg63
g2682
sg56
(lp2689
S'wsgi.multithread'
p2690
asbag49
(g70
g51
NtRp2691
(dp2692
g54
(dp2693
g81
g82
ssg63
g2682
sg56
(lp2694
S':'
asbag49
(g70
g51
NtRp2695
(dp2696
g54
(dp2697
sg63
g2682
sg56
(lp2698
g49
(g50
g51
NtRp2699
(dp2700
g54
(dp2701
g62
I3
ssg63
g2695
sg56
(lp2702
g726
asbasbasbag49
(g65
g51
NtRp2703
(dp2704
g54
(dp2705
sg63
g2192
sg56
(lp2706
g49
(g70
g51
NtRp2707
(dp2708
g54
(dp2709
g74
g75
ssg63
g2703
sg56
(lp2710
S'wsgi.run_once'
p2711
asbag49
(g70
g51
NtRp2712
(dp2713
g54
(dp2714
g81
g82
ssg63
g2703
sg56
(lp2715
S':'
asbag49
(g70
g51
NtRp2716
(dp2717
g54
(dp2718
sg63
g2703
sg56
(lp2719
g49
(g50
g51
NtRp2720
(dp2721
g54
(dp2722
g62
I3
ssg63
g2716
sg56
(lp2723
g92
asbasbasbag49
(g65
g51
NtRp2724
(dp2725
g54
(dp2726
sg63
g2192
sg56
(lp2727
g49
(g70
g51
NtRp2728
(dp2729
g54
(dp2730
g74
g75
ssg63
g2724
sg56
(lp2731
S'wsgi.url_scheme'
p2732
asbag49
(g70
g51
NtRp2733
(dp2734
g54
(dp2735
g81
g82
ssg63
g2724
sg56
(lp2736
S':'
asbag49
(g70
g51
NtRp2737
(dp2738
g54
(dp2739
sg63
g2724
sg56
(lp2740
g49
(g50
g51
NtRp2741
(dp2742
g54
(dp2743
g62
I3
ssg63
g2737
sg56
(lp2744
g1486
asbasbasbag49
(g65
g51
NtRp2745
(dp2746
g54
(dp2747
sg63
g2192
sg56
(lp2748
g49
(g70
g51
NtRp2749
(dp2750
g54
(dp2751
g74
g75
ssg63
g2745
sg56
(lp2752
S'wsgi.version'
p2753
asbag49
(g70
g51
NtRp2754
(dp2755
g54
(dp2756
g81
g82
ssg63
g2745
sg56
(lp2757
S':'
asbag49
(g70
g51
NtRp2758
(dp2759
g54
(dp2760
sg63
g2745
sg56
(lp2761
g49
(g50
g51
NtRp2762
(dp2763
g54
(dp2764
g62
I3
ssg63
g2758
sg56
(lp2765
S'1'
asbasbasbasbasbasbasbasbasbasbasbasbasbsS'frames'
p2766
(lp2767
(dp2768
S'file'
p2769
S'C:\\Users\\Bussiere\\Dropbox\\Projets\\Yuki\\web2py\\gluon\\restricted.py'
p2770
sS'dump'
p2771
(dp2772
sS'lnum'
p2773
I205
sS'lines'
p2774
(dp2775
I200
S'    try:'
p2776
sI201
S'        if type(code) == types.CodeType:'
p2777
sI202
S'            ccode = code'
p2778
sI203
S'        else:'
p2779
sI204
S'            ccode = compile2(code,layer)'
p2780
sI205
S'        exec ccode in environment'
p2781
sI206
S'    except HTTP:'
p2782
sI207
S'        raise'
p2783
sI208
S'    except RestrictedError:'
p2784
sI209
S'        # do not encapsulate (obfuscate) the original RestrictedError'
p2785
ssS'call'
p2786
S'(code=\'form\\nresponse.write(\\\'\\\\n\\\', escape=False)\\nform,tab...user/register">Register</a><br>\\\\n\\\', escape=False)\', environment={\'A\': <class \'gluon.html.A\'>, \'Auth\': <class \'gluon.tools.Auth\'>, \'B\': <class \'gluon.html.B\'>, \'BEAUTIFY\': <class \'gluon.html.BEAUTIFY\'>, \'BODY\': <class \'gluon.html.BODY\'>, \'BR\': <class \'gluon.html.BR\'>, \'BUTTON\': <class \'gluon.html.BUTTON\'>, \'CAT\': <class \'gluon.html.CAT\'>, \'CENTER\': <class \'gluon.html.CENTER\'>, \'CLEANUP\': <class \'gluon.validators.CLEANUP\'>, ...}, layer=r\'C:\\Users\\Bussiere\\Dropbox\\Projets\\Yuki\\web2py\\applications\\init\\views\\default/index.html\')'
p2787
sS'func'
p2788
S'restricted'
p2789
sa(dp2790
g2769
S'C:\\Users\\Bussiere\\Dropbox\\Projets\\Yuki\\web2py\\applications\\init\\views\\default\\index.html'
p2791
sg2771
(dp2792
sg2773
I3
sg2774
(dp2793
I1
S'form'
p2794
sI2
S"response.write('\\n', escape=False)"
p2795
sI3
S'form,table=curd.search(db.Barcodebase)'
p2796
sI4
S"response.write('\\n', escape=False)"
p2797
sI5
S'response.write(form)'
p2798
sI6
S"response.write('\\n', escape=False)"
p2799
sI7
S'response.write(table)'
p2800
sI8
S'response.write(\'\\n<a href="../init/default/user/login">login</a><br>\\n<a href="../init/default/user/register">Register</a><br>\\n\', escape=False)'
p2801
ssg2786
S'()'
p2802
sg2788
S'<module>'
p2803
sasS'pyver'
p2804
S'Python 2.5.4: C:\\Users\\Bussiere\\Dropbox\\Projets\\Yuki\\web2py\\web2py.exe'
p2805
sS'session'
p2806
g49
(g50
g51
NtRp2807
(dp2808
g54
(dp2809
sg56
(lp2810
g49
(g58
g51
NtRp2811
(dp2812
g54
(dp2813
g62
I5
ssg63
Nsg56
(lp2814
g49
(g65
g51
NtRp2815
(dp2816
g54
(dp2817
sg63
g2811
sg56
(lp2818
g49
(g70
g51
NtRp2819
(dp2820
g54
(dp2821
g74
g75
ssg63
g2815
sg56
(lp2822
S'auth'
p2823
asbag49
(g70
g51
NtRp2824
(dp2825
g54
(dp2826
g81
g82
ssg63
g2815
sg56
(lp2827
S':'
asbag49
(g70
g51
NtRp2828
(dp2829
g54
(dp2830
sg63
g2815
sg56
(lp2831
g49
(g50
g51
NtRp2832
(dp2833
g54
(dp2834
g62
I5
ssg63
g2828
sg56
(lp2835
g49
(g58
g51
NtRp2836
(dp2837
g54
(dp2838
g62
I4
ssg63
Nsg56
(lp2839
g49
(g65
g51
NtRp2840
(dp2841
g54
(dp2842
sg63
g2836
sg56
(lp2843
g49
(g70
g51
NtRp2844
(dp2845
g54
(dp2846
g74
g75
ssg63
g2840
sg56
(lp2847
S'expiration'
p2848
asbag49
(g70
g51
NtRp2849
(dp2850
g54
(dp2851
g81
g82
ssg63
g2840
sg56
(lp2852
S':'
asbag49
(g70
g51
NtRp2853
(dp2854
g54
(dp2855
sg63
g2840
sg56
(lp2856
g49
(g50
g51
NtRp2857
(dp2858
g54
(dp2859
g62
I4
ssg63
g2853
sg56
(lp2860
S'3600'
p2861
asbasbasbag49
(g65
g51
NtRp2862
(dp2863
g54
(dp2864
sg63
g2836
sg56
(lp2865
g49
(g70
g51
NtRp2866
(dp2867
g54
(dp2868
g74
g75
ssg63
g2862
sg56
(lp2869
S'hmac_key'
p2870
asbag49
(g70
g51
NtRp2871
(dp2872
g54
(dp2873
g81
g82
ssg63
g2862
sg56
(lp2874
S':'
asbag49
(g70
g51
NtRp2875
(dp2876
g54
(dp2877
sg63
g2862
sg56
(lp2878
g49
(g50
g51
NtRp2879
(dp2880
g54
(dp2881
g62
I4
ssg63
g2875
sg56
(lp2882
S'f0453de1-1e2e-46cc-9c91-d910efb6421a'
p2883
asbasbasbag49
(g65
g51
NtRp2884
(dp2885
g54
(dp2886
sg63
g2836
sg56
(lp2887
g49
(g70
g51
NtRp2888
(dp2889
g54
(dp2890
g74
g75
ssg63
g2884
sg56
(lp2891
S'last_visit'
p2892
asbag49
(g70
g51
NtRp2893
(dp2894
g54
(dp2895
g81
g82
ssg63
g2884
sg56
(lp2896
S':'
asbag49
(g70
g51
NtRp2897
(dp2898
g54
(dp2899
sg63
g2884
sg56
(lp2900
g49
(g50
g51
NtRp2901
(dp2902
g54
(dp2903
g62
I4
ssg63
g2897
sg56
(lp2904
S'datetime.datetime(2012, 3, 13, 6, 5, 11, 202000)'
p2905
asbasbasbag49
(g65
g51
NtRp2906
(dp2907
g54
(dp2908
sg63
g2836
sg56
(lp2909
g49
(g70
g51
NtRp2910
(dp2911
g54
(dp2912
g74
g75
ssg63
g2906
sg56
(lp2913
S'remember'
p2914
asbag49
(g70
g51
NtRp2915
(dp2916
g54
(dp2917
g81
g82
ssg63
g2906
sg56
(lp2918
S':'
asbag49
(g70
g51
NtRp2919
(dp2920
g54
(dp2921
sg63
g2906
sg56
(lp2922
g49
(g50
g51
NtRp2923
(dp2924
g54
(dp2925
g62
I4
ssg63
g2919
sg56
(lp2926
g92
asbasbasbag49
(g65
g51
NtRp2927
(dp2928
g54
(dp2929
sg63
g2836
sg56
(lp2930
g49
(g70
g51
NtRp2931
(dp2932
g54
(dp2933
g74
g75
ssg63
g2927
sg56
(lp2934
S'user'
p2935
asbag49
(g70
g51
NtRp2936
(dp2937
g54
(dp2938
g81
g82
ssg63
g2927
sg56
(lp2939
S':'
asbag49
(g70
g51
NtRp2940
(dp2941
g54
(dp2942
sg63
g2927
sg56
(lp2943
g49
(g50
g51
NtRp2944
(dp2945
g54
(dp2946
g62
I4
ssg63
g2940
sg56
(lp2947
g49
(g58
g51
NtRp2948
(dp2949
g54
(dp2950
g62
I3
ssg63
Nsg56
(lp2951
g49
(g65
g51
NtRp2952
(dp2953
g54
(dp2954
sg63
g2948
sg56
(lp2955
g49
(g70
g51
NtRp2956
(dp2957
g54
(dp2958
g74
g75
ssg63
g2952
sg56
(lp2959
S'email'
p2960
asbag49
(g70
g51
NtRp2961
(dp2962
g54
(dp2963
g81
g82
ssg63
g2952
sg56
(lp2964
S':'
asbag49
(g70
g51
NtRp2965
(dp2966
g54
(dp2967
sg63
g2952
sg56
(lp2968
g49
(g50
g51
NtRp2969
(dp2970
g54
(dp2971
g62
I3
ssg63
g2965
sg56
(lp2972
S'Bussiere@gmail.com'
p2973
asbasbasbag49
(g65
g51
NtRp2974
(dp2975
g54
(dp2976
sg63
g2948
sg56
(lp2977
g49
(g70
g51
NtRp2978
(dp2979
g54
(dp2980
g74
g75
ssg63
g2974
sg56
(lp2981
S'first_name'
p2982
asbag49
(g70
g51
NtRp2983
(dp2984
g54
(dp2985
g81
g82
ssg63
g2974
sg56
(lp2986
S':'
asbag49
(g70
g51
NtRp2987
(dp2988
g54
(dp2989
sg63
g2974
sg56
(lp2990
g49
(g50
g51
NtRp2991
(dp2992
g54
(dp2993
g62
I3
ssg63
g2987
sg56
(lp2994
S'bussiere'
p2995
asbasbasbag49
(g65
g51
NtRp2996
(dp2997
g54
(dp2998
sg63
g2948
sg56
(lp2999
g49
(g70
g51
NtRp3000
(dp3001
g54
(dp3002
g74
g75
ssg63
g2996
sg56
(lp3003
S'id'
p3004
asbag49
(g70
g51
NtRp3005
(dp3006
g54
(dp3007
g81
g82
ssg63
g2996
sg56
(lp3008
S':'
asbag49
(g70
g51
NtRp3009
(dp3010
g54
(dp3011
sg63
g2996
sg56
(lp3012
g49
(g50
g51
NtRp3013
(dp3014
g54
(dp3015
g62
I3
ssg63
g3009
sg56
(lp3016
S'1'
asbasbasbag49
(g65
g51
NtRp3017
(dp3018
g54
(dp3019
sg63
g2948
sg56
(lp3020
g49
(g70
g51
NtRp3021
(dp3022
g54
(dp3023
g74
g75
ssg63
g3017
sg56
(lp3024
S'last_name'
p3025
asbag49
(g70
g51
NtRp3026
(dp3027
g54
(dp3028
g81
g82
ssg63
g3017
sg56
(lp3029
S':'
asbag49
(g70
g51
NtRp3030
(dp3031
g54
(dp3032
sg63
g3017
sg56
(lp3033
g49
(g50
g51
NtRp3034
(dp3035
g54
(dp3036
g62
I3
ssg63
g3030
sg56
(lp3037
S'test'
p3038
asbasbasbag49
(g65
g51
NtRp3039
(dp3040
g54
(dp3041
sg63
g2948
sg56
(lp3042
g49
(g70
g51
NtRp3043
(dp3044
g54
(dp3045
g74
g75
ssg63
g3039
sg56
(lp3046
S'password'
p3047
asbag49
(g70
g51
NtRp3048
(dp3049
g54
(dp3050
g81
g82
ssg63
g3039
sg56
(lp3051
S':'
asbag49
(g70
g51
NtRp3052
(dp3053
g54
(dp3054
sg63
g3039
sg56
(lp3055
g49
(g50
g51
NtRp3056
(dp3057
g54
(dp3058
g62
I3
ssg63
g3052
sg56
(lp3059
S'12923092f4d9e86e56018b9cdd790947'
p3060
asbasbasbag49
(g65
g51
NtRp3061
(dp3062
g54
(dp3063
sg63
g2948
sg56
(lp3064
g49
(g70
g51
NtRp3065
(dp3066
g54
(dp3067
g74
g75
ssg63
g3061
sg56
(lp3068
S'registration_id'
p3069
asbag49
(g70
g51
NtRp3070
(dp3071
g54
(dp3072
g81
g82
ssg63
g3061
sg56
(lp3073
S':'
asbag49
(g70
g51
NtRp3074
(dp3075
g54
(dp3076
sg63
g3061
sg56
(lp3077
g49
(g50
g51
NtRp3078
(dp3079
g54
(dp3080
g62
I3
ssg63
g3074
sg56
(lp3081
S''
asbasbasbag49
(g65
g51
NtRp3082
(dp3083
g54
(dp3084
sg63
g2948
sg56
(lp3085
g49
(g70
g51
NtRp3086
(dp3087
g54
(dp3088
g74
g75
ssg63
g3082
sg56
(lp3089
S'registration_key'
p3090
asbag49
(g70
g51
NtRp3091
(dp3092
g54
(dp3093
g81
g82
ssg63
g3082
sg56
(lp3094
S':'
asbag49
(g70
g51
NtRp3095
(dp3096
g54
(dp3097
sg63
g3082
sg56
(lp3098
g49
(g50
g51
NtRp3099
(dp3100
g54
(dp3101
g62
I3
ssg63
g3095
sg56
(lp3102
S''
asbasbasbag49
(g65
g51
NtRp3103
(dp3104
g54
(dp3105
sg63
g2948
sg56
(lp3106
g49
(g70
g51
NtRp3107
(dp3108
g54
(dp3109
g74
g75
ssg63
g3103
sg56
(lp3110
S'reset_password_key'
p3111
asbag49
(g70
g51
NtRp3112
(dp3113
g54
(dp3114
g81
g82
ssg63
g3103
sg56
(lp3115
S':'
asbag49
(g70
g51
NtRp3116
(dp3117
g54
(dp3118
sg63
g3103
sg56
(lp3119
g49
(g50
g51
NtRp3120
(dp3121
g54
(dp3122
g62
I3
ssg63
g3116
sg56
(lp3123
S''
asbasbasbasbasbasbasbag49
(g65
g51
NtRp3124
(dp3125
g54
(dp3126
sg63
g2836
sg56
(lp3127
g49
(g70
g51
NtRp3128
(dp3129
g54
(dp3130
g74
g75
ssg63
g3124
sg56
(lp3131
S'user_groups'
p3132
asbag49
(g70
g51
NtRp3133
(dp3134
g54
(dp3135
g81
g82
ssg63
g3124
sg56
(lp3136
S':'
asbag49
(g70
g51
NtRp3137
(dp3138
g54
(dp3139
sg63
g3124
sg56
(lp3140
g49
(g50
g51
NtRp3141
(dp3142
g54
(dp3143
g62
I4
ssg63
g3137
sg56
(lp3144
g49
(g58
g51
NtRp3145
(dp3146
g54
(dp3147
g62
I3
ssg63
Nsg56
(lp3148
g49
(g65
g51
NtRp3149
(dp3150
g54
(dp3151
sg63
g3145
sg56
(lp3152
g49
(g70
g51
NtRp3153
(dp3154
g54
(dp3155
g74
g75
ssg63
g3149
sg56
(lp3156
S'1'
asbag49
(g70
g51
NtRp3157
(dp3158
g54
(dp3159
g81
g82
ssg63
g3149
sg56
(lp3160
S':'
asbag49
(g70
g51
NtRp3161
(dp3162
g54
(dp3163
sg63
g3149
sg56
(lp3164
g49
(g50
g51
NtRp3165
(dp3166
g54
(dp3167
g62
I3
ssg63
g3161
sg56
(lp3168
S'user_1'
p3169
asbasbasbasbasbasbasbasbasbasbasbasbasbsS'etype'
p3170
S"<type 'exceptions.NameError'>"
p3171
sS'date'
p3172
S'Tue Mar 13 06:05:11 2012'
p3173
sS'response'
p3174
g49
(g50
g51
NtRp3175
(dp3176
g54
(dp3177
sg56
(lp3178
g49
(g58
g51
NtRp3179
(dp3180
g54
(dp3181
g62
I5
ssg63
Nsg56
(lp3182
g49
(g65
g51
NtRp3183
(dp3184
g54
(dp3185
sg63
g3179
sg56
(lp3186
g49
(g70
g51
NtRp3187
(dp3188
g54
(dp3189
g74
g75
ssg63
g3183
sg56
(lp3190
g147
asbag49
(g70
g51
NtRp3191
(dp3192
g54
(dp3193
g81
g82
ssg63
g3183
sg56
(lp3194
S':'
asbag49
(g70
g51
NtRp3195
(dp3196
g54
(dp3197
sg63
g3183
sg56
(lp3198
g49
(g50
g51
NtRp3199
(dp3200
g54
(dp3201
g62
I5
ssg63
g3195
sg56
(lp3202
S'<cStringIO.StringO object at 0x0441AEE0>'
p3203
asbasbasbag49
(g65
g51
NtRp3204
(dp3205
g54
(dp3206
sg63
g3179
sg56
(lp3207
g49
(g70
g51
NtRp3208
(dp3209
g54
(dp3210
g74
g75
ssg63
g3204
sg56
(lp3211
g213
asbag49
(g70
g51
NtRp3212
(dp3213
g54
(dp3214
g81
g82
ssg63
g3204
sg56
(lp3215
S':'
asbag49
(g70
g51
NtRp3216
(dp3217
g54
(dp3218
sg63
g3204
sg56
(lp3219
g49
(g50
g51
NtRp3220
(dp3221
g54
(dp3222
g62
I5
ssg63
g3216
sg56
(lp3223
g49
(g58
g51
NtRp3224
(dp3225
g54
(dp3226
g62
I4
ssg63
Nsg56
(lp3227
g49
(g65
g51
NtRp3228
(dp3229
g54
(dp3230
sg63
g3224
sg56
(lp3231
g49
(g70
g51
NtRp3232
(dp3233
g54
(dp3234
g74
g75
ssg63
g3228
sg56
(lp3235
S'session_id_init'
p3236
asbag49
(g70
g51
NtRp3237
(dp3238
g54
(dp3239
g81
g82
ssg63
g3228
sg56
(lp3240
S':'
asbag49
(g70
g51
NtRp3241
(dp3242
g54
(dp3243
sg63
g3228
sg56
(lp3244
g49
(g50
g51
NtRp3245
(dp3246
g54
(dp3247
g62
I4
ssg63
g3241
sg56
(lp3248
g49
(g58
g51
NtRp3249
(dp3250
g54
(dp3251
g62
I3
ssg63
Nsg56
(lp3252
g49
(g65
g51
NtRp3253
(dp3254
g54
(dp3255
sg63
g3249
sg56
(lp3256
g49
(g70
g51
NtRp3257
(dp3258
g54
(dp3259
g74
g75
ssg63
g3253
sg56
(lp3260
g263
asbag49
(g70
g51
NtRp3261
(dp3262
g54
(dp3263
g81
g82
ssg63
g3253
sg56
(lp3264
S':'
asbag49
(g70
g51
NtRp3265
(dp3266
g54
(dp3267
sg63
g3253
sg56
(lp3268
g49
(g50
g51
NtRp3269
(dp3270
g54
(dp3271
g62
I3
ssg63
g3265
sg56
(lp3272
S''
asbasbasbag49
(g65
g51
NtRp3273
(dp3274
g54
(dp3275
sg63
g3249
sg56
(lp3276
g49
(g70
g51
NtRp3277
(dp3278
g54
(dp3279
g74
g75
ssg63
g3273
sg56
(lp3280
g284
asbag49
(g70
g51
NtRp3281
(dp3282
g54
(dp3283
g81
g82
ssg63
g3273
sg56
(lp3284
S':'
asbag49
(g70
g51
NtRp3285
(dp3286
g54
(dp3287
sg63
g3273
sg56
(lp3288
g49
(g50
g51
NtRp3289
(dp3290
g54
(dp3291
g62
I3
ssg63
g3285
sg56
(lp3292
S''
asbasbasbag49
(g65
g51
NtRp3293
(dp3294
g54
(dp3295
sg63
g3249
sg56
(lp3296
g49
(g70
g51
NtRp3297
(dp3298
g54
(dp3299
g74
g75
ssg63
g3293
sg56
(lp3300
g305
asbag49
(g70
g51
NtRp3301
(dp3302
g54
(dp3303
g81
g82
ssg63
g3293
sg56
(lp3304
S':'
asbag49
(g70
g51
NtRp3305
(dp3306
g54
(dp3307
sg63
g3293
sg56
(lp3308
g49
(g50
g51
NtRp3309
(dp3310
g54
(dp3311
g62
I3
ssg63
g3305
sg56
(lp3312
S''
asbasbasbag49
(g65
g51
NtRp3313
(dp3314
g54
(dp3315
sg63
g3249
sg56
(lp3316
g49
(g70
g51
NtRp3317
(dp3318
g54
(dp3319
g74
g75
ssg63
g3313
sg56
(lp3320
g326
asbag49
(g70
g51
NtRp3321
(dp3322
g54
(dp3323
g81
g82
ssg63
g3313
sg56
(lp3324
S':'
asbag49
(g70
g51
NtRp3325
(dp3326
g54
(dp3327
sg63
g3313
sg56
(lp3328
g49
(g50
g51
NtRp3329
(dp3330
g54
(dp3331
g62
I3
ssg63
g3325
sg56
(lp3332
S''
asbasbasbag49
(g65
g51
NtRp3333
(dp3334
g54
(dp3335
sg63
g3249
sg56
(lp3336
g49
(g70
g51
NtRp3337
(dp3338
g54
(dp3339
g74
g75
ssg63
g3333
sg56
(lp3340
g347
asbag49
(g70
g51
NtRp3341
(dp3342
g54
(dp3343
g81
g82
ssg63
g3333
sg56
(lp3344
S':'
asbag49
(g70
g51
NtRp3345
(dp3346
g54
(dp3347
sg63
g3333
sg56
(lp3348
g49
(g50
g51
NtRp3349
(dp3350
g54
(dp3351
g62
I3
ssg63
g3345
sg56
(lp3352
S'/'
asbasbasbag49
(g65
g51
NtRp3353
(dp3354
g54
(dp3355
sg63
g3249
sg56
(lp3356
g49
(g70
g51
NtRp3357
(dp3358
g54
(dp3359
g74
g75
ssg63
g3353
sg56
(lp3360
g368
asbag49
(g70
g51
NtRp3361
(dp3362
g54
(dp3363
g81
g82
ssg63
g3353
sg56
(lp3364
S':'
asbag49
(g70
g51
NtRp3365
(dp3366
g54
(dp3367
sg63
g3353
sg56
(lp3368
g49
(g50
g51
NtRp3369
(dp3370
g54
(dp3371
g62
I3
ssg63
g3365
sg56
(lp3372
S''
asbasbasbag49
(g65
g51
NtRp3373
(dp3374
g54
(dp3375
sg63
g3249
sg56
(lp3376
g49
(g70
g51
NtRp3377
(dp3378
g54
(dp3379
g74
g75
ssg63
g3373
sg56
(lp3380
g389
asbag49
(g70
g51
NtRp3381
(dp3382
g54
(dp3383
g81
g82
ssg63
g3373
sg56
(lp3384
S':'
asbag49
(g70
g51
NtRp3385
(dp3386
g54
(dp3387
sg63
g3373
sg56
(lp3388
g49
(g50
g51
NtRp3389
(dp3390
g54
(dp3391
g62
I3
ssg63
g3385
sg56
(lp3392
S''
asbasbasbasbasbasbasbasbasbasbasbag49
(g65
g51
NtRp3393
(dp3394
g54
(dp3395
sg63
g3179
sg56
(lp3396
g49
(g70
g51
NtRp3397
(dp3398
g54
(dp3399
g74
g75
ssg63
g3393
sg56
(lp3400
S'delimiters'
p3401
asbag49
(g70
g51
NtRp3402
(dp3403
g54
(dp3404
g81
g82
ssg63
g3393
sg56
(lp3405
S':'
asbag49
(g70
g51
NtRp3406
(dp3407
g54
(dp3408
sg63
g3393
sg56
(lp3409
g49
(g50
g51
NtRp3410
(dp3411
g54
(dp3412
g62
I5
ssg63
g3406
sg56
(lp3413
g49
(g58
g51
NtRp3414
(dp3415
g54
(dp3416
g62
I4
ssg63
Nsg56
(lp3417
g49
(g65
g51
NtRp3418
(dp3419
g54
(dp3420
sg63
g3414
sg56
(lp3421
g49
(g70
g51
NtRp3422
(dp3423
g54
(dp3424
sg63
g3418
sg56
(lp3425
g49
(g50
g51
NtRp3426
(dp3427
g54
(dp3428
g62
I4
ssg63
g3422
sg56
(lp3429
S'{{'
p3430
asbasbasbag49
(g65
g51
NtRp3431
(dp3432
g54
(dp3433
sg63
g3414
sg56
(lp3434
g49
(g70
g51
NtRp3435
(dp3436
g54
(dp3437
sg63
g3431
sg56
(lp3438
g49
(g50
g51
NtRp3439
(dp3440
g54
(dp3441
g62
I4
ssg63
g3435
sg56
(lp3442
S'}}'
p3443
asbasbasbasbasbasbasbag49
(g65
g51
NtRp3444
(dp3445
g54
(dp3446
sg63
g3179
sg56
(lp3447
g49
(g70
g51
NtRp3448
(dp3449
g54
(dp3450
g74
g75
ssg63
g3444
sg56
(lp3451
S'files'
p3452
asbag49
(g70
g51
NtRp3453
(dp3454
g54
(dp3455
g81
g82
ssg63
g3444
sg56
(lp3456
S':'
asbag49
(g70
g51
NtRp3457
(dp3458
g54
(dp3459
sg63
g3444
sg56
(lp3460
g49
(g50
g51
NtRp3461
(dp3462
g54
(dp3463
g62
I5
ssg63
g3457
sg56
(lp3464
g49
(g58
g51
NtRp3465
(dp3466
g54
(dp3467
g62
I4
ssg63
Nsg56
(lp3468
sbasbasbasbag49
(g65
g51
NtRp3469
(dp3470
g54
(dp3471
sg63
g3179
sg56
(lp3472
g49
(g70
g51
NtRp3473
(dp3474
g54
(dp3475
g74
g75
ssg63
g3469
sg56
(lp3476
S'flash'
p3477
asbag49
(g70
g51
NtRp3478
(dp3479
g54
(dp3480
g81
g82
ssg63
g3469
sg56
(lp3481
S':'
asbag49
(g70
g51
NtRp3482
(dp3483
g54
(dp3484
sg63
g3469
sg56
(lp3485
g49
(g50
g51
NtRp3486
(dp3487
g54
(dp3488
g62
I5
ssg63
g3482
sg56
(lp3489
S''
asbasbasbag49
(g65
g51
NtRp3490
(dp3491
g54
(dp3492
sg63
g3179
sg56
(lp3493
g49
(g70
g51
NtRp3494
(dp3495
g54
(dp3496
g74
g75
ssg63
g3490
sg56
(lp3497
S'generic_patterns'
p3498
asbag49
(g70
g51
NtRp3499
(dp3500
g54
(dp3501
g81
g82
ssg63
g3490
sg56
(lp3502
S':'
asbag49
(g70
g51
NtRp3503
(dp3504
g54
(dp3505
sg63
g3490
sg56
(lp3506
g49
(g50
g51
NtRp3507
(dp3508
g54
(dp3509
g62
I5
ssg63
g3503
sg56
(lp3510
g49
(g58
g51
NtRp3511
(dp3512
g54
(dp3513
g62
I4
ssg63
Nsg56
(lp3514
g49
(g65
g51
NtRp3515
(dp3516
g54
(dp3517
sg63
g3511
sg56
(lp3518
g49
(g70
g51
NtRp3519
(dp3520
g54
(dp3521
sg63
g3515
sg56
(lp3522
g49
(g50
g51
NtRp3523
(dp3524
g54
(dp3525
g62
I4
ssg63
g3519
sg56
(lp3526
S'*'
asbasbasbasbasbasbasbag49
(g65
g51
NtRp3527
(dp3528
g54
(dp3529
sg63
g3179
sg56
(lp3530
g49
(g70
g51
NtRp3531
(dp3532
g54
(dp3533
g74
g75
ssg63
g3527
sg56
(lp3534
S'headers'
p3535
asbag49
(g70
g51
NtRp3536
(dp3537
g54
(dp3538
g81
g82
ssg63
g3527
sg56
(lp3539
S':'
asbag49
(g70
g51
NtRp3540
(dp3541
g54
(dp3542
sg63
g3527
sg56
(lp3543
g49
(g50
g51
NtRp3544
(dp3545
g54
(dp3546
g62
I5
ssg63
g3540
sg56
(lp3547
g49
(g58
g51
NtRp3548
(dp3549
g54
(dp3550
g62
I4
ssg63
Nsg56
(lp3551
g49
(g65
g51
NtRp3552
(dp3553
g54
(dp3554
sg63
g3548
sg56
(lp3555
g49
(g70
g51
NtRp3556
(dp3557
g54
(dp3558
g74
g75
ssg63
g3552
sg56
(lp3559
S'Cache-Control'
p3560
asbag49
(g70
g51
NtRp3561
(dp3562
g54
(dp3563
g81
g82
ssg63
g3552
sg56
(lp3564
S':'
asbag49
(g70
g51
NtRp3565
(dp3566
g54
(dp3567
sg63
g3552
sg56
(lp3568
g49
(g50
g51
NtRp3569
(dp3570
g54
(dp3571
g62
I4
ssg63
g3565
sg56
(lp3572
S'no-store, no-cache, must-revalidate, post-check=0, pre-check=0'
p3573
asbasbasbag49
(g65
g51
NtRp3574
(dp3575
g54
(dp3576
sg63
g3548
sg56
(lp3577
g49
(g70
g51
NtRp3578
(dp3579
g54
(dp3580
g74
g75
ssg63
g3574
sg56
(lp3581
S'Content-Type'
p3582
asbag49
(g70
g51
NtRp3583
(dp3584
g54
(dp3585
g81
g82
ssg63
g3574
sg56
(lp3586
S':'
asbag49
(g70
g51
NtRp3587
(dp3588
g54
(dp3589
sg63
g3574
sg56
(lp3590
g49
(g50
g51
NtRp3591
(dp3592
g54
(dp3593
g62
I4
ssg63
g3587
sg56
(lp3594
S'text/html; charset=utf-8'
p3595
asbasbasbag49
(g65
g51
NtRp3596
(dp3597
g54
(dp3598
sg63
g3548
sg56
(lp3599
g49
(g70
g51
NtRp3600
(dp3601
g54
(dp3602
g74
g75
ssg63
g3596
sg56
(lp3603
S'Expires'
p3604
asbag49
(g70
g51
NtRp3605
(dp3606
g54
(dp3607
g81
g82
ssg63
g3596
sg56
(lp3608
S':'
asbag49
(g70
g51
NtRp3609
(dp3610
g54
(dp3611
sg63
g3596
sg56
(lp3612
g49
(g50
g51
NtRp3613
(dp3614
g54
(dp3615
g62
I4
ssg63
g3609
sg56
(lp3616
S'Tue, 13 Mar 2012 05:05:11 GMT'
p3617
asbasbasbag49
(g65
g51
NtRp3618
(dp3619
g54
(dp3620
sg63
g3548
sg56
(lp3621
g49
(g70
g51
NtRp3622
(dp3623
g54
(dp3624
g74
g75
ssg63
g3618
sg56
(lp3625
S'Pragma'
p3626
asbag49
(g70
g51
NtRp3627
(dp3628
g54
(dp3629
g81
g82
ssg63
g3618
sg56
(lp3630
S':'
asbag49
(g70
g51
NtRp3631
(dp3632
g54
(dp3633
sg63
g3618
sg56
(lp3634
g49
(g50
g51
NtRp3635
(dp3636
g54
(dp3637
g62
I4
ssg63
g3631
sg56
(lp3638
S'no-cache'
p3639
asbasbasbag49
(g65
g51
NtRp3640
(dp3641
g54
(dp3642
sg63
g3548
sg56
(lp3643
g49
(g70
g51
NtRp3644
(dp3645
g54
(dp3646
g74
g75
ssg63
g3640
sg56
(lp3647
S'X-Powered-By'
p3648
asbag49
(g70
g51
NtRp3649
(dp3650
g54
(dp3651
g81
g82
ssg63
g3640
sg56
(lp3652
S':'
asbag49
(g70
g51
NtRp3653
(dp3654
g54
(dp3655
sg63
g3640
sg56
(lp3656
g49
(g50
g51
NtRp3657
(dp3658
g54
(dp3659
g62
I4
ssg63
g3653
sg56
(lp3660
S'web2py'
p3661
asbasbasbasbasbasbasbag49
(g65
g51
NtRp3662
(dp3663
g54
(dp3664
sg63
g3179
sg56
(lp3665
g49
(g70
g51
NtRp3666
(dp3667
g54
(dp3668
g74
g75
ssg63
g3662
sg56
(lp3669
S'menu'
p3670
asbag49
(g70
g51
NtRp3671
(dp3672
g54
(dp3673
g81
g82
ssg63
g3662
sg56
(lp3674
S':'
asbag49
(g70
g51
NtRp3675
(dp3676
g54
(dp3677
sg63
g3662
sg56
(lp3678
g49
(g50
g51
NtRp3679
(dp3680
g54
(dp3681
g62
I5
ssg63
g3675
sg56
(lp3682
g49
(g58
g51
NtRp3683
(dp3684
g54
(dp3685
g62
I4
ssg63
Nsg56
(lp3686
g49
(g65
g51
NtRp3687
(dp3688
g54
(dp3689
sg63
g3683
sg56
(lp3690
g49
(g70
g51
NtRp3691
(dp3692
g54
(dp3693
sg63
g3687
sg56
(lp3694
g49
(g50
g51
NtRp3695
(dp3696
g54
(dp3697
g62
I4
ssg63
g3691
sg56
(lp3698
g49
(g58
g51
NtRp3699
(dp3700
g54
(dp3701
g62
I3
ssg63
Nsg56
(lp3702
g49
(g65
g51
NtRp3703
(dp3704
g54
(dp3705
sg63
g3699
sg56
(lp3706
g49
(g70
g51
NtRp3707
(dp3708
g54
(dp3709
sg63
g3703
sg56
(lp3710
g49
(g50
g51
NtRp3711
(dp3712
g54
(dp3713
g62
I3
ssg63
g3707
sg56
(lp3714
cgluon.languages
lazyT_unpickle
p3715
(S's\x04\x00\x00\x00Home'
tRp3716
asbasbasbag49
(g65
g51
NtRp3717
(dp3718
g54
(dp3719
sg63
g3699
sg56
(lp3720
g49
(g70
g51
NtRp3721
(dp3722
g54
(dp3723
sg63
g3717
sg56
(lp3724
g49
(g50
g51
NtRp3725
(dp3726
g54
(dp3727
g62
I3
ssg63
g3721
sg56
(lp3728
g92
asbasbasbag49
(g65
g51
NtRp3729
(dp3730
g54
(dp3731
sg63
g3699
sg56
(lp3732
g49
(g70
g51
NtRp3733
(dp3734
g54
(dp3735
sg63
g3729
sg56
(lp3736
g49
(g50
g51
NtRp3737
(dp3738
g54
(dp3739
g62
I3
ssg63
g3733
sg56
(lp3740
S'/init/default/index'
p3741
asbasbasbag49
(g65
g51
NtRp3742
(dp3743
g54
(dp3744
sg63
g3699
sg56
(lp3745
g49
(g70
g51
NtRp3746
(dp3747
g54
(dp3748
sg63
g3742
sg56
(lp3749
g49
(g50
g51
NtRp3750
(dp3751
g54
(dp3752
g62
I3
ssg63
g3746
sg56
(lp3753
g49
(g58
g51
NtRp3754
(dp3755
g54
(dp3756
g62
I2
ssg63
Nsg56
(lp3757
sbasbasbasbasbasbasbasbag49
(g65
g51
NtRp3758
(dp3759
g54
(dp3760
sg63
g3683
sg56
(lp3761
g49
(g70
g51
NtRp3762
(dp3763
g54
(dp3764
sg63
g3758
sg56
(lp3765
g49
(g50
g51
NtRp3766
(dp3767
g54
(dp3768
g62
I4
ssg63
g3762
sg56
(lp3769
g49
(g58
g51
NtRp3770
(dp3771
g54
(dp3772
g62
I3
ssg63
Nsg56
(lp3773
g49
(g65
g51
NtRp3774
(dp3775
g54
(dp3776
sg63
g3770
sg56
(lp3777
g49
(g70
g51
NtRp3778
(dp3779
g54
(dp3780
sg63
g3774
sg56
(lp3781
g49
(g50
g51
NtRp3782
(dp3783
g54
(dp3784
g62
I3
ssg63
g3778
sg56
(lp3785
g49
(cgluon.html
SPAN
p3786
g51
NtRp3787
(dp3788
g54
(dp3789
g74
S'color:yellow'
p3790
ssg63
Nsg56
(lp3791
g3661
asbasbasbasbag49
(g65
g51
NtRp3792
(dp3793
g54
(dp3794
sg63
g3770
sg56
(lp3795
g49
(g70
g51
NtRp3796
(dp3797
g54
(dp3798
sg63
g3792
sg56
(lp3799
g49
(g50
g51
NtRp3800
(dp3801
g54
(dp3802
g62
I3
ssg63
g3796
sg56
(lp3803
g92
asbasbasbag49
(g65
g51
NtRp3804
(dp3805
g54
(dp3806
sg63
g3770
sg56
(lp3807
g49
(g70
g51
NtRp3808
(dp3809
g54
(dp3810
sg63
g3804
sg56
(lp3811
g49
(g50
g51
NtRp3812
(dp3813
g54
(dp3814
g62
I3
ssg63
g3808
sg56
(lp3815
S'None'
p3816
asbasbasbag49
(g65
g51
NtRp3817
(dp3818
g54
(dp3819
sg63
g3770
sg56
(lp3820
g49
(g70
g51
NtRp3821
(dp3822
g54
(dp3823
sg63
g3817
sg56
(lp3824
g49
(g50
g51
NtRp3825
(dp3826
g54
(dp3827
g62
I3
ssg63
g3821
sg56
(lp3828
g49
(g58
g51
NtRp3829
(dp3830
g54
(dp3831
g62
I2
ssg63
Nsg56
(lp3832
g49
(g65
g51
NtRp3833
(dp3834
g54
(dp3835
sg63
g3829
sg56
(lp3836
g49
(g70
g51
NtRp3837
(dp3838
g54
(dp3839
sg63
g3833
sg56
(lp3840
g49
(g50
g51
NtRp3841
(dp3842
g54
(dp3843
g62
I2
ssg63
g3837
sg56
(lp3844
g49
(g58
g51
NtRp3845
(dp3846
g54
(dp3847
g62
I1
ssg63
Nsg56
(lp3848
g49
(g65
g51
NtRp3849
(dp3850
g54
(dp3851
sg63
g3845
sg56
(lp3852
g49
(g70
g51
NtRp3853
(dp3854
g54
(dp3855
sg63
g3849
sg56
(lp3856
g49
(g50
g51
NtRp3857
(dp3858
g54
(dp3859
g62
I1
ssg63
g3853
sg56
(lp3860
g3715
(S's\x08\x00\x00\x00My Sites'
tRp3861
asbasbasbag49
(g65
g51
NtRp3862
(dp3863
g54
(dp3864
sg63
g3845
sg56
(lp3865
g49
(g70
g51
NtRp3866
(dp3867
g54
(dp3868
sg63
g3862
sg56
(lp3869
g49
(g50
g51
NtRp3870
(dp3871
g54
(dp3872
g62
I1
ssg63
g3866
sg56
(lp3873
I00
asbasbasbag49
(g65
g51
NtRp3874
(dp3875
g54
(dp3876
sg63
g3845
sg56
(lp3877
g49
(g70
g51
NtRp3878
(dp3879
g54
(dp3880
sg63
g3874
sg56
(lp3881
g49
(g50
g51
NtRp3882
(dp3883
g54
(dp3884
g62
I1
ssg63
g3878
sg56
(lp3885
S'/admin/default/site'
p3886
asbasbasbasbasbasbasbag49
(g65
g51
NtRp3887
(dp3888
g54
(dp3889
sg63
g3829
sg56
(lp3890
g49
(g70
g51
NtRp3891
(dp3892
g54
(dp3893
sg63
g3887
sg56
(lp3894
g49
(g50
g51
NtRp3895
(dp3896
g54
(dp3897
g62
I2
ssg63
g3891
sg56
(lp3898
g49
(g58
g51
NtRp3899
(dp3900
g54
(dp3901
g62
I1
ssg63
Nsg56
(lp3902
g49
(g65
g51
NtRp3903
(dp3904
g54
(dp3905
sg63
g3899
sg56
(lp3906
g49
(g70
g51
NtRp3907
(dp3908
g54
(dp3909
sg63
g3903
sg56
(lp3910
g49
(g50
g51
NtRp3911
(dp3912
g54
(dp3913
g62
I1
ssg63
g3907
sg56
(lp3914
g3715
(S's\x08\x00\x00\x00This App'
tRp3915
asbasbasbag49
(g65
g51
NtRp3916
(dp3917
g54
(dp3918
sg63
g3899
sg56
(lp3919
g49
(g70
g51
NtRp3920
(dp3921
g54
(dp3922
sg63
g3916
sg56
(lp3923
g49
(g50
g51
NtRp3924
(dp3925
g54
(dp3926
g62
I1
ssg63
g3920
sg56
(lp3927
I00
asbasbasbag49
(g65
g51
NtRp3928
(dp3929
g54
(dp3930
sg63
g3899
sg56
(lp3931
g49
(g70
g51
NtRp3932
(dp3933
g54
(dp3934
sg63
g3928
sg56
(lp3935
g49
(g50
g51
NtRp3936
(dp3937
g54
(dp3938
g62
I1
ssg63
g3932
sg56
(lp3939
S'/admin/default/design/init'
p3940
asbasbasbag49
(g65
g51
NtRp3941
(dp3942
g54
(dp3943
sg63
g3899
sg56
(lp3944
g49
(g70
g51
NtRp3945
(dp3946
g54
(dp3947
sg63
g3941
sg56
(lp3948
g49
(g50
g51
NtRp3949
(dp3950
g54
(dp3951
g62
I1
ssg63
g3945
sg56
(lp3952
(lp3953
(g3715
(S's\n\x00\x00\x00Controller'
tRp3954
I00
S'/admin/default/edit/init/controllers/default.py'
tp3955
a(g3715
(S's\x04\x00\x00\x00View'
tRp3956
I00
S'/admin/default/edit/init/views/default/index.html'
tp3957
a(g3715
(S's\x06\x00\x00\x00Layout'
tRp3958
I00
S'/admin/default/edit/init/views/layout.html'
tp3959
a(g3715
(S's\n\x00\x00\x00Stylesheet'
tRp3960
I00
S'/admin/default/edit/init/static/css/web2py.css'
tp3961
a(g3715
(S's\x08\x00\x00\x00DB Model'
tRp3962
I00
S'/admin/default/edit/init/models/db.py'
tp3963
a(g3715
(S's\n\x00\x00\x00Menu Model'
tRp3964
I00
S'/admin/default/edit/init/models/menu.py'
tp3965
a(g3715
(S's\x08\x00\x00\x00Database'
tRp3966
I00
S'/init/appadmin/index'
tp3967
a(g3715
(S's\x06\x00\x00\x00Errors'
tRp3968
I00
S'/admin/default/errors/init'
tp3969
a(g3715
(S's\x05\x00\x00\x00About'
tRp3970
I00
S'/admin/default/about/init'
tp3971
aasbasbasbasbasbasbasbag49
(g65
g51
NtRp3972
(dp3973
g54
(dp3974
sg63
g3829
sg56
(lp3975
g49
(g70
g51
NtRp3976
(dp3977
g54
(dp3978
sg63
g3972
sg56
(lp3979
g49
(g50
g51
NtRp3980
(dp3981
g54
(dp3982
g62
I2
ssg63
g3976
sg56
(lp3983
g49
(g58
g51
NtRp3984
(dp3985
g54
(dp3986
g62
I1
ssg63
Nsg56
(lp3987
g49
(g65
g51
NtRp3988
(dp3989
g54
(dp3990
sg63
g3984
sg56
(lp3991
g49
(g70
g51
NtRp3992
(dp3993
g54
(dp3994
sg63
g3988
sg56
(lp3995
g49
(g50
g51
NtRp3996
(dp3997
g54
(dp3998
g62
I1
ssg63
g3992
sg56
(lp3999
S'web2py.com'
p4000
asbasbasbag49
(g65
g51
NtRp4001
(dp4002
g54
(dp4003
sg63
g3984
sg56
(lp4004
g49
(g70
g51
NtRp4005
(dp4006
g54
(dp4007
sg63
g4001
sg56
(lp4008
g49
(g50
g51
NtRp4009
(dp4010
g54
(dp4011
g62
I1
ssg63
g4005
sg56
(lp4012
I00
asbasbasbag49
(g65
g51
NtRp4013
(dp4014
g54
(dp4015
sg63
g3984
sg56
(lp4016
g49
(g70
g51
NtRp4017
(dp4018
g54
(dp4019
sg63
g4013
sg56
(lp4020
g49
(g50
g51
NtRp4021
(dp4022
g54
(dp4023
g62
I1
ssg63
g4017
sg56
(lp4024
S'http://www.web2py.com'
p4025
asbasbasbag49
(g65
g51
NtRp4026
(dp4027
g54
(dp4028
sg63
g3984
sg56
(lp4029
g49
(g70
g51
NtRp4030
(dp4031
g54
(dp4032
sg63
g4026
sg56
(lp4033
g49
(g50
g51
NtRp4034
(dp4035
g54
(dp4036
g62
I1
ssg63
g4030
sg56
(lp4037
(lp4038
(g3715
(S's\x08\x00\x00\x00Download'
tRp4039
I00
S'http://www.web2py.com/examples/default/download'
p4040
tp4041
a(g3715
(S's\x07\x00\x00\x00Support'
tRp4042
I00
S'http://www.web2py.com/examples/default/support'
p4043
tp4044
a(g3715
(S's\x04\x00\x00\x00Demo'
tRp4045
I00
S'http://web2py.com/demo_admin'
p4046
tp4047
a(g3715
(S's\x0e\x00\x00\x00Quick Examples'
tRp4048
I00
S'http://web2py.com/examples/default/examples'
p4049
tp4050
a(g3715
(S's\x03\x00\x00\x00FAQ'
tRp4051
I00
S'http://web2py.com/AlterEgo'
p4052
tp4053
a(g3715
(S's\x06\x00\x00\x00Videos'
tRp4054
I00
S'http://www.web2py.com/examples/default/videos/'
p4055
tp4056
a(g3715
(S's\x11\x00\x00\x00Free Applications'
tRp4057
I00
S'http://web2py.com/appliances'
p4058
tp4059
a(g3715
(S's\x07\x00\x00\x00Plugins'
tRp4060
I00
S'http://web2py.com/plugins'
p4061
tp4062
a(g3715
(S's\x07\x00\x00\x00Layouts'
tRp4063
I00
S'http://web2py.com/layouts'
p4064
tp4065
a(g3715
(S's\x07\x00\x00\x00Recipes'
tRp4066
I00
S'http://web2pyslices.com/'
p4067
tp4068
a(g3715
(S's\x08\x00\x00\x00Semantic'
tRp4069
I00
S'http://web2py.com/semantic'
p4070
tp4071
aasbasbasbasbasbasbasbag49
(g65
g51
NtRp4072
(dp4073
g54
(dp4074
sg63
g3829
sg56
(lp4075
g49
(g70
g51
NtRp4076
(dp4077
g54
(dp4078
sg63
g4072
sg56
(lp4079
g49
(g50
g51
NtRp4080
(dp4081
g54
(dp4082
g62
I2
ssg63
g4076
sg56
(lp4083
g49
(g58
g51
NtRp4084
(dp4085
g54
(dp4086
g62
I1
ssg63
Nsg56
(lp4087
g49
(g65
g51
NtRp4088
(dp4089
g54
(dp4090
sg63
g4084
sg56
(lp4091
g49
(g70
g51
NtRp4092
(dp4093
g54
(dp4094
sg63
g4088
sg56
(lp4095
g49
(g50
g51
NtRp4096
(dp4097
g54
(dp4098
g62
I1
ssg63
g4092
sg56
(lp4099
g3715
(S's\r\x00\x00\x00Documentation'
tRp4100
asbasbasbag49
(g65
g51
NtRp4101
(dp4102
g54
(dp4103
sg63
g4084
sg56
(lp4104
g49
(g70
g51
NtRp4105
(dp4106
g54
(dp4107
sg63
g4101
sg56
(lp4108
g49
(g50
g51
NtRp4109
(dp4110
g54
(dp4111
g62
I1
ssg63
g4105
sg56
(lp4112
I00
asbasbasbag49
(g65
g51
NtRp4113
(dp4114
g54
(dp4115
sg63
g4084
sg56
(lp4116
g49
(g70
g51
NtRp4117
(dp4118
g54
(dp4119
sg63
g4113
sg56
(lp4120
g49
(g50
g51
NtRp4121
(dp4122
g54
(dp4123
g62
I1
ssg63
g4117
sg56
(lp4124
S'http://www.web2py.com/book'
p4125
asbasbasbag49
(g65
g51
NtRp4126
(dp4127
g54
(dp4128
sg63
g4084
sg56
(lp4129
g49
(g70
g51
NtRp4130
(dp4131
g54
(dp4132
sg63
g4126
sg56
(lp4133
g49
(g50
g51
NtRp4134
(dp4135
g54
(dp4136
g62
I1
ssg63
g4130
sg56
(lp4137
(lp4138
(g3715
(S's\x07\x00\x00\x00Preface'
tRp4139
I00
S'http://www.web2py.com/book/default/chapter/00'
p4140
tp4141
a(g3715
(S's\x0c\x00\x00\x00Introduction'
tRp4142
I00
S'http://www.web2py.com/book/default/chapter/01'
p4143
tp4144
a(g3715
(S's\x06\x00\x00\x00Python'
tRp4145
I00
S'http://www.web2py.com/book/default/chapter/02'
p4146
tp4147
a(g3715
(S's\x08\x00\x00\x00Overview'
tRp4148
I00
S'http://www.web2py.com/book/default/chapter/03'
p4149
tp4150
a(g3715
(S's\x08\x00\x00\x00The Core'
tRp4151
I00
S'http://www.web2py.com/book/default/chapter/04'
p4152
tp4153
a(g3715
(S's\t\x00\x00\x00The Views'
tRp4154
I00
S'http://www.web2py.com/book/default/chapter/05'
p4155
tp4156
a(g3715
(S's\x08\x00\x00\x00Database'
tRp4157
I00
S'http://www.web2py.com/book/default/chapter/06'
p4158
tp4159
a(g3715
(S's\x14\x00\x00\x00Forms and Validators'
tRp4160
I00
S'http://www.web2py.com/book/default/chapter/07'
p4161
tp4162
a(g3715
(S's\r\x00\x00\x00Email and SMS'
tRp4163
I00
S'http://www.web2py.com/book/default/chapter/08'
p4164
tp4165
a(g3715
(S's\x0e\x00\x00\x00Access Control'
tRp4166
I00
S'http://www.web2py.com/book/default/chapter/09'
p4167
tp4168
a(g3715
(S's\x08\x00\x00\x00Services'
tRp4169
I00
S'http://www.web2py.com/book/default/chapter/10'
p4170
tp4171
a(g3715
(S's\x0c\x00\x00\x00Ajax Recipes'
tRp4172
I00
S'http://www.web2py.com/book/default/chapter/11'
p4173
tp4174
a(g3715
(S's\x16\x00\x00\x00Components and Plugins'
tRp4175
I00
S'http://www.web2py.com/book/default/chapter/12'
p4176
tp4177
a(g3715
(S's\x12\x00\x00\x00Deployment Recipes'
tRp4178
I00
S'http://www.web2py.com/book/default/chapter/13'
p4179
tp4180
a(g3715
(S's\r\x00\x00\x00Other Recipes'
tRp4181
I00
S'http://www.web2py.com/book/default/chapter/14'
p4182
tp4183
a(g3715
(S's\r\x00\x00\x00Buy this book'
tRp4184
I00
S'http://stores.lulu.com/web2py'
p4185
tp4186
aasbasbasbasbasbasbasbag49
(g65
g51
NtRp4187
(dp4188
g54
(dp4189
sg63
g3829
sg56
(lp4190
g49
(g70
g51
NtRp4191
(dp4192
g54
(dp4193
sg63
g4187
sg56
(lp4194
g49
(g50
g51
NtRp4195
(dp4196
g54
(dp4197
g62
I2
ssg63
g4191
sg56
(lp4198
g49
(g58
g51
NtRp4199
(dp4200
g54
(dp4201
g62
I1
ssg63
Nsg56
(lp4202
g49
(g65
g51
NtRp4203
(dp4204
g54
(dp4205
sg63
g4199
sg56
(lp4206
g49
(g70
g51
NtRp4207
(dp4208
g54
(dp4209
sg63
g4203
sg56
(lp4210
g49
(g50
g51
NtRp4211
(dp4212
g54
(dp4213
g62
I1
ssg63
g4207
sg56
(lp4214
g3715
(S's\t\x00\x00\x00Community'
tRp4215
asbasbasbag49
(g65
g51
NtRp4216
(dp4217
g54
(dp4218
sg63
g4199
sg56
(lp4219
g49
(g70
g51
NtRp4220
(dp4221
g54
(dp4222
sg63
g4216
sg56
(lp4223
g49
(g50
g51
NtRp4224
(dp4225
g54
(dp4226
g62
I1
ssg63
g4220
sg56
(lp4227
I00
asbasbasbag49
(g65
g51
NtRp4228
(dp4229
g54
(dp4230
sg63
g4199
sg56
(lp4231
g49
(g70
g51
NtRp4232
(dp4233
g54
(dp4234
sg63
g4228
sg56
(lp4235
g49
(g50
g51
NtRp4236
(dp4237
g54
(dp4238
g62
I1
ssg63
g4232
sg56
(lp4239
Nasbasbasbag49
(g65
g51
NtRp4240
(dp4241
g54
(dp4242
sg63
g4199
sg56
(lp4243
g49
(g70
g51
NtRp4244
(dp4245
g54
(dp4246
sg63
g4240
sg56
(lp4247
g49
(g50
g51
NtRp4248
(dp4249
g54
(dp4250
g62
I1
ssg63
g4244
sg56
(lp4251
(lp4252
(g3715
(S's\x06\x00\x00\x00Groups'
tRp4253
I00
S'http://www.web2py.com/examples/default/usergroups'
p4254
tp4255
a(g3715
(S's\x07\x00\x00\x00Twitter'
tRp4256
I00
S'http://twitter.com/web2py'
p4257
tp4258
a(g3715
(S's\t\x00\x00\x00Live Chat'
tRp4259
I00
S'http://webchat.freenode.net/?channels=web2py'
p4260
tp4261
aasbasbasbasbasbasbasbag49
(g65
g51
NtRp4262
(dp4263
g54
(dp4264
sg63
g3829
sg56
(lp4265
g49
(g70
g51
NtRp4266
(dp4267
g54
(dp4268
sg63
g4262
sg56
(lp4269
g49
(g50
g51
NtRp4270
(dp4271
g54
(dp4272
g62
I2
ssg63
g4266
sg56
(lp4273
g49
(g58
g51
NtRp4274
(dp4275
g54
(dp4276
g62
I1
ssg63
Nsg56
(lp4277
g49
(g65
g51
NtRp4278
(dp4279
g54
(dp4280
sg63
g4274
sg56
(lp4281
g49
(g70
g51
NtRp4282
(dp4283
g54
(dp4284
sg63
g4278
sg56
(lp4285
g49
(g50
g51
NtRp4286
(dp4287
g54
(dp4288
g62
I1
ssg63
g4282
sg56
(lp4289
g3715
(S's\x07\x00\x00\x00Plugins'
tRp4290
asbasbasbag49
(g65
g51
NtRp4291
(dp4292
g54
(dp4293
sg63
g4274
sg56
(lp4294
g49
(g70
g51
NtRp4295
(dp4296
g54
(dp4297
sg63
g4291
sg56
(lp4298
g49
(g50
g51
NtRp4299
(dp4300
g54
(dp4301
g62
I1
ssg63
g4295
sg56
(lp4302
I00
asbasbasbag49
(g65
g51
NtRp4303
(dp4304
g54
(dp4305
sg63
g4274
sg56
(lp4306
g49
(g70
g51
NtRp4307
(dp4308
g54
(dp4309
sg63
g4303
sg56
(lp4310
g49
(g50
g51
NtRp4311
(dp4312
g54
(dp4313
g62
I1
ssg63
g4307
sg56
(lp4314
Nasbasbasbag49
(g65
g51
NtRp4315
(dp4316
g54
(dp4317
sg63
g4274
sg56
(lp4318
g49
(g70
g51
NtRp4319
(dp4320
g54
(dp4321
sg63
g4315
sg56
(lp4322
g49
(g50
g51
NtRp4323
(dp4324
g54
(dp4325
g62
I1
ssg63
g4319
sg56
(lp4326
(lp4327
(S'plugin_wiki'
p4328
I00
S'http://web2py.com/examples/default/download'
p4329
tp4330
a(g3715
(S's\r\x00\x00\x00Other Plugins'
tRp4331
I00
g4061
tp4332
a(g3715
(S's\x0e\x00\x00\x00Layout Plugins'
tRp4333
I00
g4064
tp4334
aasbasbasbasbasbasbasbasbasbasbasbasbasbasbasbasbasbasbasbag49
(g65
g51
NtRp4335
(dp4336
g54
(dp4337
sg63
g3179
sg56
(lp4338
g49
(g70
g51
NtRp4339
(dp4340
g54
(dp4341
g74
g75
ssg63
g4335
sg56
(lp4342
S'meta'
p4343
asbag49
(g70
g51
NtRp4344
(dp4345
g54
(dp4346
g81
g82
ssg63
g4335
sg56
(lp4347
S':'
asbag49
(g70
g51
NtRp4348
(dp4349
g54
(dp4350
sg63
g4335
sg56
(lp4351
g49
(g50
g51
NtRp4352
(dp4353
g54
(dp4354
g62
I5
ssg63
g4348
sg56
(lp4355
g49
(g58
g51
NtRp4356
(dp4357
g54
(dp4358
g62
I4
ssg63
Nsg56
(lp4359
g49
(g65
g51
NtRp4360
(dp4361
g54
(dp4362
sg63
g4356
sg56
(lp4363
g49
(g70
g51
NtRp4364
(dp4365
g54
(dp4366
g74
g75
ssg63
g4360
sg56
(lp4367
S'author'
p4368
asbag49
(g70
g51
NtRp4369
(dp4370
g54
(dp4371
g81
g82
ssg63
g4360
sg56
(lp4372
S':'
asbag49
(g70
g51
NtRp4373
(dp4374
g54
(dp4375
sg63
g4360
sg56
(lp4376
g49
(g50
g51
NtRp4377
(dp4378
g54
(dp4379
g62
I4
ssg63
g4373
sg56
(lp4380
S'Your Name <you@example.com>'
p4381
asbasbasbag49
(g65
g51
NtRp4382
(dp4383
g54
(dp4384
sg63
g4356
sg56
(lp4385
g49
(g70
g51
NtRp4386
(dp4387
g54
(dp4388
g74
g75
ssg63
g4382
sg56
(lp4389
S'copyright'
p4390
asbag49
(g70
g51
NtRp4391
(dp4392
g54
(dp4393
g81
g82
ssg63
g4382
sg56
(lp4394
S':'
asbag49
(g70
g51
NtRp4395
(dp4396
g54
(dp4397
sg63
g4382
sg56
(lp4398
g49
(g50
g51
NtRp4399
(dp4400
g54
(dp4401
g62
I4
ssg63
g4395
sg56
(lp4402
S'Copyright 2011'
p4403
asbasbasbag49
(g65
g51
NtRp4404
(dp4405
g54
(dp4406
sg63
g4356
sg56
(lp4407
g49
(g70
g51
NtRp4408
(dp4409
g54
(dp4410
g74
g75
ssg63
g4404
sg56
(lp4411
S'description'
p4412
asbag49
(g70
g51
NtRp4413
(dp4414
g54
(dp4415
g81
g82
ssg63
g4404
sg56
(lp4416
S':'
asbag49
(g70
g51
NtRp4417
(dp4418
g54
(dp4419
sg63
g4404
sg56
(lp4420
g49
(g50
g51
NtRp4421
(dp4422
g54
(dp4423
g62
I4
ssg63
g4417
sg56
(lp4424
S'a cool new app'
p4425
asbasbasbag49
(g65
g51
NtRp4426
(dp4427
g54
(dp4428
sg63
g4356
sg56
(lp4429
g49
(g70
g51
NtRp4430
(dp4431
g54
(dp4432
g74
g75
ssg63
g4426
sg56
(lp4433
S'generator'
p4434
asbag49
(g70
g51
NtRp4435
(dp4436
g54
(dp4437
g81
g82
ssg63
g4426
sg56
(lp4438
S':'
asbag49
(g70
g51
NtRp4439
(dp4440
g54
(dp4441
sg63
g4426
sg56
(lp4442
g49
(g50
g51
NtRp4443
(dp4444
g54
(dp4445
g62
I4
ssg63
g4439
sg56
(lp4446
S'Web2py Web Framework'
p4447
asbasbasbag49
(g65
g51
NtRp4448
(dp4449
g54
(dp4450
sg63
g4356
sg56
(lp4451
g49
(g70
g51
NtRp4452
(dp4453
g54
(dp4454
g74
g75
ssg63
g4448
sg56
(lp4455
S'keywords'
p4456
asbag49
(g70
g51
NtRp4457
(dp4458
g54
(dp4459
g81
g82
ssg63
g4448
sg56
(lp4460
S':'
asbag49
(g70
g51
NtRp4461
(dp4462
g54
(dp4463
sg63
g4448
sg56
(lp4464
g49
(g50
g51
NtRp4465
(dp4466
g54
(dp4467
g62
I4
ssg63
g4461
sg56
(lp4468
S'web2py, python, framework'
p4469
asbasbasbasbasbasbasbag49
(g65
g51
NtRp4470
(dp4471
g54
(dp4472
sg63
g3179
sg56
(lp4473
g49
(g70
g51
NtRp4474
(dp4475
g54
(dp4476
g74
g75
ssg63
g4470
sg56
(lp4477
S'postprocessing'
p4478
asbag49
(g70
g51
NtRp4479
(dp4480
g54
(dp4481
g81
g82
ssg63
g4470
sg56
(lp4482
S':'
asbag49
(g70
g51
NtRp4483
(dp4484
g54
(dp4485
sg63
g4470
sg56
(lp4486
g49
(g50
g51
NtRp4487
(dp4488
g54
(dp4489
g62
I5
ssg63
g4483
sg56
(lp4490
g49
(g58
g51
NtRp4491
(dp4492
g54
(dp4493
g62
I4
ssg63
Nsg56
(lp4494
sbasbasbasbag49
(g65
g51
NtRp4495
(dp4496
g54
(dp4497
sg63
g3179
sg56
(lp4498
g49
(g70
g51
NtRp4499
(dp4500
g54
(dp4501
g74
g75
ssg63
g4495
sg56
(lp4502
S'session_file'
p4503
asbag49
(g70
g51
NtRp4504
(dp4505
g54
(dp4506
g81
g82
ssg63
g4495
sg56
(lp4507
S':'
asbag49
(g70
g51
NtRp4508
(dp4509
g54
(dp4510
sg63
g4495
sg56
(lp4511
g49
(g50
g51
NtRp4512
(dp4513
g54
(dp4514
g62
I5
ssg63
g4508
sg56
(lp4515
S"<open file 'C:\\Users\\Bussiere\\Dropbox\\Projets\\Yuki\\web2py\\applications\\init\\sessions\\127.0.0.1-e491f18b-7b0c-472f-8228-a18d6ec769aa', mode 'rb+' at 0x046F1D58>"
p4516
asbasbasbag49
(g65
g51
NtRp4517
(dp4518
g54
(dp4519
sg63
g3179
sg56
(lp4520
g49
(g70
g51
NtRp4521
(dp4522
g54
(dp4523
g74
g75
ssg63
g4517
sg56
(lp4524
S'session_filename'
p4525
asbag49
(g70
g51
NtRp4526
(dp4527
g54
(dp4528
g81
g82
ssg63
g4517
sg56
(lp4529
S':'
asbag49
(g70
g51
NtRp4530
(dp4531
g54
(dp4532
sg63
g4517
sg56
(lp4533
g49
(g50
g51
NtRp4534
(dp4535
g54
(dp4536
g62
I5
ssg63
g4530
sg56
(lp4537
S'C:\\Users\\Bussiere\\Dropbox\\Projets\\Yuki\\web2py\\applications\\init\\sessions\\127.0.0.1-e491f18b-7b0c-472f-8228-a18d6ec769aa'
p4538
asbasbasbag49
(g65
g51
NtRp4539
(dp4540
g54
(dp4541
sg63
g3179
sg56
(lp4542
g49
(g70
g51
NtRp4543
(dp4544
g54
(dp4545
g74
g75
ssg63
g4539
sg56
(lp4546
S'session_id'
p4547
asbag49
(g70
g51
NtRp4548
(dp4549
g54
(dp4550
g81
g82
ssg63
g4539
sg56
(lp4551
S':'
asbag49
(g70
g51
NtRp4552
(dp4553
g54
(dp4554
sg63
g4539
sg56
(lp4555
g49
(g50
g51
NtRp4556
(dp4557
g54
(dp4558
g62
I5
ssg63
g4552
sg56
(lp4559
S'127.0.0.1-e491f18b-7b0c-472f-8228-a18d6ec769aa'
p4560
asbasbasbag49
(g65
g51
NtRp4561
(dp4562
g54
(dp4563
sg63
g3179
sg56
(lp4564
g49
(g70
g51
NtRp4565
(dp4566
g54
(dp4567
g74
g75
ssg63
g4561
sg56
(lp4568
S'session_id_name'
p4569
asbag49
(g70
g51
NtRp4570
(dp4571
g54
(dp4572
g81
g82
ssg63
g4561
sg56
(lp4573
S':'
asbag49
(g70
g51
NtRp4574
(dp4575
g54
(dp4576
sg63
g4561
sg56
(lp4577
g49
(g50
g51
NtRp4578
(dp4579
g54
(dp4580
g62
I5
ssg63
g4574
sg56
(lp4581
g3236
asbasbasbag49
(g65
g51
NtRp4582
(dp4583
g54
(dp4584
sg63
g3179
sg56
(lp4585
g49
(g70
g51
NtRp4586
(dp4587
g54
(dp4588
g74
g75
ssg63
g4582
sg56
(lp4589
S'session_locked'
p4590
asbag49
(g70
g51
NtRp4591
(dp4592
g54
(dp4593
g81
g82
ssg63
g4582
sg56
(lp4594
S':'
asbag49
(g70
g51
NtRp4595
(dp4596
g54
(dp4597
sg63
g4582
sg56
(lp4598
g49
(g50
g51
NtRp4599
(dp4600
g54
(dp4601
g62
I5
ssg63
g4595
sg56
(lp4602
g726
asbasbasbag49
(g65
g51
NtRp4603
(dp4604
g54
(dp4605
sg63
g3179
sg56
(lp4606
g49
(g70
g51
NtRp4607
(dp4608
g54
(dp4609
g74
g75
ssg63
g4603
sg56
(lp4610
S'session_new'
p4611
asbag49
(g70
g51
NtRp4612
(dp4613
g54
(dp4614
g81
g82
ssg63
g4603
sg56
(lp4615
S':'
asbag49
(g70
g51
NtRp4616
(dp4617
g54
(dp4618
sg63
g4603
sg56
(lp4619
g49
(g50
g51
NtRp4620
(dp4621
g54
(dp4622
g62
I5
ssg63
g4616
sg56
(lp4623
g92
asbasbasbag49
(g65
g51
NtRp4624
(dp4625
g54
(dp4626
sg63
g3179
sg56
(lp4627
g49
(g70
g51
NtRp4628
(dp4629
g54
(dp4630
g74
g75
ssg63
g4624
sg56
(lp4631
S'status'
p4632
asbag49
(g70
g51
NtRp4633
(dp4634
g54
(dp4635
g81
g82
ssg63
g4624
sg56
(lp4636
S':'
asbag49
(g70
g51
NtRp4637
(dp4638
g54
(dp4639
sg63
g4624
sg56
(lp4640
g49
(g50
g51
NtRp4641
(dp4642
g54
(dp4643
g62
I5
ssg63
g4637
sg56
(lp4644
S'200'
p4645
asbasbasbag49
(g65
g51
NtRp4646
(dp4647
g54
(dp4648
sg63
g3179
sg56
(lp4649
g49
(g70
g51
NtRp4650
(dp4651
g54
(dp4652
g74
g75
ssg63
g4646
sg56
(lp4653
S'subtitle'
p4654
asbag49
(g70
g51
NtRp4655
(dp4656
g54
(dp4657
g81
g82
ssg63
g4646
sg56
(lp4658
S':'
asbag49
(g70
g51
NtRp4659
(dp4660
g54
(dp4661
sg63
g4646
sg56
(lp4662
g49
(g50
g51
NtRp4663
(dp4664
g54
(dp4665
g62
I5
ssg63
g4659
sg56
(lp4666
g3715
(S's\r\x00\x00\x00customize me!'
tRp4667
asbasbasbag49
(g65
g51
NtRp4668
(dp4669
g54
(dp4670
sg63
g3179
sg56
(lp4671
g49
(g70
g51
NtRp4672
(dp4673
g54
(dp4674
g74
g75
ssg63
g4668
sg56
(lp4675
S'title'
p4676
asbag49
(g70
g51
NtRp4677
(dp4678
g54
(dp4679
g81
g82
ssg63
g4668
sg56
(lp4680
S':'
asbag49
(g70
g51
NtRp4681
(dp4682
g54
(dp4683
sg63
g4668
sg56
(lp4684
g49
(g50
g51
NtRp4685
(dp4686
g54
(dp4687
g62
I5
ssg63
g4681
sg56
(lp4688
S'Init'
p4689
asbasbasbag49
(g65
g51
NtRp4690
(dp4691
g54
(dp4692
sg63
g3179
sg56
(lp4693
g49
(g70
g51
NtRp4694
(dp4695
g54
(dp4696
g74
g75
ssg63
g4690
sg56
(lp4697
g2107
asbag49
(g70
g51
NtRp4698
(dp4699
g54
(dp4700
g81
g82
ssg63
g4690
sg56
(lp4701
S':'
asbag49
(g70
g51
NtRp4702
(dp4703
g54
(dp4704
sg63
g4690
sg56
(lp4705
g49
(g50
g51
NtRp4706
(dp4707
g54
(dp4708
g62
I5
ssg63
g4702
sg56
(lp4709
g2120
asbasbasbag49
(g65
g51
NtRp4710
(dp4711
g54
(dp4712
sg63
g3179
sg56
(lp4713
g49
(g70
g51
NtRp4714
(dp4715
g54
(dp4716
g74
g75
ssg63
g4710
sg56
(lp4717
S'view'
p4718
asbag49
(g70
g51
NtRp4719
(dp4720
g54
(dp4721
g81
g82
ssg63
g4710
sg56
(lp4722
S':'
asbag49
(g70
g51
NtRp4723
(dp4724
g54
(dp4725
sg63
g4710
sg56
(lp4726
g49
(g50
g51
NtRp4727
(dp4728
g54
(dp4729
g62
I5
ssg63
g4723
sg56
(lp4730
S'default/index.html'
p4731
asbasbasbasbasbsS'locals'
p4732
(dp4733
S'Service'
p4734
S"<class 'gluon.tools.Service'>"
p4735
sS'OBJECT'
p4736
S"<class 'gluon.html.OBJECT'>"
p4737
sS'SQLDB'
p4738
S"<class 'gluon.dal.DAL'>"
p4739
sg2806
S"<Storage {'_Session__hash': '\\xa1\\xa4;\\xf6\\xe2+\\...: {'version': '18.0.1011.0', 'name': 'Chrome'}}}>"
p4740
sS'LINK'
p4741
S"<class 'gluon.html.LINK'>"
p4742
sS'BR'
p4743
S"<class 'gluon.html.BR'>"
p4744
sS'local_import'
p4745
S'<function <lambda> at 0x03E68570>'
p4746
sS'OPTGROUP'
p4747
S"<class 'gluon.html.OPTGROUP'>"
p4748
sS'PRE'
p4749
S"<class 'gluon.html.PRE'>"
p4750
sS'IS_INT_IN_RANGE'
p4751
S"<class 'gluon.validators.IS_INT_IN_RANGE'>"
p4752
sS'IS_LOWER'
p4753
S"<class 'gluon.validators.IS_LOWER'>"
p4754
sS'IS_STRONG'
p4755
S"<class 'gluon.validators.IS_STRONG'>"
p4756
sS'cache'
p4757
S'<gluon.cache.Cache object at 0x03DE8830>'
p4758
sS'IS_IN_DB'
p4759
S"<class 'gluon.validators.IS_IN_DB'>"
p4760
sS'TAG'
p4761
S'<gluon.html.__TAG__ object at 0x022A2E70>'
p4762
sS'SQLField'
p4763
S"<class 'gluon.dal.Field'>"
p4764
sS'mail'
p4765
S'<gluon.tools.Mail object at 0x03E69D50>'
p4766
sS'BODY'
p4767
S"<class 'gluon.html.BODY'>"
p4768
sS'IS_DATE_IN_RANGE'
p4769
S"<class 'gluon.validators.IS_DATE_IN_RANGE'>"
p4770
sS'TH'
p4771
S"<class 'gluon.html.TH'>"
p4772
sS'URL'
p4773
S'<function URL at 0x02302DF0>'
p4774
sS'__file__'
p4775
S"r'C:\\Users\\Bussiere\\Dropbox\\Projets\\Yuki\\web2py\\applications\\init\\views\\default/index.html'"
p4776
sS'db'
p4777
S"<DAL {'comment': <Table {'body': <gluon.dal.Fiel...d object at 0x03E99DD0>, '_singular': 'Price'}>}>"
p4778
sS'auth'
p4779
S'<gluon.tools.Auth object at 0x03E69EF0>'
p4780
sS'P'
S"<class 'gluon.html.P'>"
p4781
sS'TFOOT'
p4782
S"<class 'gluon.html.TFOOT'>"
p4783
sS'XHTML'
p4784
S"<class 'gluon.html.XHTML'>"
p4785
sS'ON'
p4786
g726
sS'OL'
p4787
S"<class 'gluon.html.OL'>"
p4788
sS'TEXTAREA'
p4789
S"<class 'gluon.html.TEXTAREA'>"
p4790
sS'MENU'
p4791
S"<class 'gluon.html.MENU'>"
p4792
sS'LOAD'
p4793
S'<function LOAD at 0x027B16F0>'
p4794
sS'CODE'
p4795
S"<class 'gluon.html.CODE'>"
p4796
sS'HTTP'
p4797
S"<class 'gluon.http.HTTP'>"
p4798
sS'HR'
p4799
S"<class 'gluon.html.HR'>"
p4800
sS'IS_DATETIME'
p4801
S"<class 'gluon.validators.IS_DATETIME'>"
p4802
sS'HEAD'
p4803
S"<class 'gluon.html.HEAD'>"
p4804
sS'LABEL'
p4805
S"<class 'gluon.html.LABEL'>"
p4806
sS'CLEANUP'
p4807
S"<class 'gluon.validators.CLEANUP'>"
p4808
sS'plugins'
p4809
S'<gluon.tools.PluginManager object at 0x040CD0D0>'
p4810
sS'SELECT'
p4811
S"<class 'gluon.html.SELECT'>"
p4812
sS'use_janrain'
p4813
S'<function use_janrain at 0x03B46BF0>'
p4814
sS'CENTER'
p4815
S"<class 'gluon.html.CENTER'>"
p4816
sS'prettydate'
p4817
S'<function prettydate at 0x02D79F70>'
p4818
sS'Crud'
p4819
S"<class 'gluon.tools.Crud'>"
p4820
sS'Auth'
p4821
S"<class 'gluon.tools.Auth'>"
p4822
sS'__builtins__'
p4823
S"{'ArithmeticError': <type 'exceptions.ArithmeticError'>, 'AssertionError': <type 'exceptions.AssertionError'>, 'AttributeError': <type 'exceptions.AttributeError'>, 'BaseException': <type 'exceptions.BaseException'>, 'DeprecationWarning': <type 'exceptions.DeprecationWarning'>, 'EOFError': <type 'exceptions.EOFError'>, 'Ellipsis': Ellipsis, 'EnvironmentError': <type 'exceptions.EnvironmentError'>, 'Exception': <type 'exceptions.Exception'>, 'False': False, ...}"
p4824
sS'HTML'
p4825
S"<class 'gluon.html.HTML'>"
p4826
sS'SQLFORM'
p4827
S"<class 'gluon.sqlhtml.SQLFORM'>"
p4828
sS'EM'
p4829
S"<class 'gluon.html.EM'>"
p4830
sS'redirect'
p4831
S'<function redirect at 0x02014AB0>'
p4832
sS'FIELDSET'
p4833
S"<class 'gluon.html.FIELDSET'>"
p4834
sS'IS_EQUAL_TO'
p4835
S"<class 'gluon.validators.IS_EQUAL_TO'>"
p4836
sS'embed64'
p4837
S'<function embed64 at 0x0230F930>'
p4838
sS'IS_LIST_OF'
p4839
S"<class 'gluon.validators.IS_LIST_OF'>"
p4840
sS'__name__'
p4841
S"'__restricted__'"
p4842
sS'EMBED'
p4843
S"<class 'gluon.html.EMBED'>"
p4844
sS'_'
S'<function _ at 0x0717ACB0>'
p4845
sS'FORM'
p4846
S"<class 'gluon.html.FORM'>"
p4847
sS'H2'
p4848
S"<class 'gluon.html.H2'>"
p4849
sS'H3'
p4850
S"<class 'gluon.html.H3'>"
p4851
sS'BUTTON'
p4852
S"<class 'gluon.html.BUTTON'>"
p4853
sS'H1'
p4854
S"<class 'gluon.html.H1'>"
p4855
sS'H6'
p4856
S"<class 'gluon.html.H6'>"
p4857
sS'H4'
p4858
S"<class 'gluon.html.H4'>"
p4859
sS'H5'
p4860
S"<class 'gluon.html.H5'>"
p4861
sS'UL'
p4862
S"<class 'gluon.html.UL'>"
p4863
sS'IS_UPPER'
p4864
S"<class 'gluon.validators.IS_UPPER'>"
p4865
sS'xmlescape'
p4866
S'<function xmlescape at 0x02302D70>'
p4867
sS'IS_TIME'
p4868
S"<class 'gluon.validators.IS_TIME'>"
p4869
sS'OPTION'
p4870
S"<class 'gluon.html.OPTION'>"
p4871
sS'TITLE'
p4872
S"<class 'gluon.html.TITLE'>"
p4873
sS'CRYPT'
p4874
S"<class 'gluon.validators.CRYPT'>"
p4875
sS'IS_EMPTY_OR'
p4876
S"<class 'gluon.validators.IS_EMPTY_OR'>"
p4877
sS'MARKMIN'
p4878
S"<class 'gluon.html.MARKMIN'>"
p4879
sS'INPUT'
p4880
S"<class 'gluon.html.INPUT'>"
p4881
sS'COL'
p4882
S"<class 'gluon.html.COL'>"
p4883
sS'service'
p4884
S'<gluon.tools.Service object at 0x03E697D0>'
p4885
sS'SCRIPT'
p4886
S"<class 'gluon.html.SCRIPT'>"
p4887
sS'TABLE'
p4888
S"<class 'gluon.html.TABLE'>"
p4889
sS'IS_IPV4'
p4890
S"<class 'gluon.validators.IS_IPV4'>"
p4891
sS'IS_LENGTH'
p4892
S"<class 'gluon.validators.IS_LENGTH'>"
p4893
sS'XML'
p4894
S"<class 'gluon.html.XML'>"
p4895
sS'B'
S"<class 'gluon.html.B'>"
p4896
sS'form'
p4897
S'(<gluon.html.FORM object at 0x043EBEF0>, [])'
p4898
sS'SQLTABLE'
p4899
S"<class 'gluon.sqlhtml.SQLTABLE'>"
p4900
sS'IS_MATCH'
p4901
S"<class 'gluon.validators.IS_MATCH'>"
p4902
sS'IS_ALPHANUMERIC'
p4903
S"<class 'gluon.validators.IS_ALPHANUMERIC'>"
p4904
sS'SPAN'
p4905
S"<class 'gluon.html.SPAN'>"
p4906
sS'IS_SLUG'
p4907
S"<class 'gluon.validators.IS_SLUG'>"
p4908
sS'BEAUTIFY'
p4909
S"<class 'gluon.html.BEAUTIFY'>"
p4910
sS'META'
p4911
S"<class 'gluon.html.META'>"
p4912
sS'IS_DATE'
p4913
S"<class 'gluon.validators.IS_DATE'>"
p4914
sS'IS_EMAIL'
p4915
S"<class 'gluon.validators.IS_EMAIL'>"
p4916
sS'IS_NOT_EMPTY'
p4917
S"<class 'gluon.validators.IS_NOT_EMPTY'>"
p4918
sS'IS_FLOAT_IN_RANGE'
p4919
S"<class 'gluon.validators.IS_FLOAT_IN_RANGE'>"
p4920
sS'TBODY'
p4921
S"<class 'gluon.html.TBODY'>"
p4922
sS'CAT'
p4923
S"<class 'gluon.html.CAT'>"
p4924
sS'Field'
p4925
S"<class 'gluon.dal.Field'>"
p4926
sS'DIV'
p4927
S"<class 'gluon.html.DIV'>"
p4928
sS'LEGEND'
p4929
S"<class 'gluon.html.LEGEND'>"
p4930
sS'IMG'
p4931
S"<class 'gluon.html.IMG'>"
p4932
sS'COLGROUP'
p4933
S"<class 'gluon.html.COLGROUP'>"
p4934
sS'DAL'
p4935
S"<class 'gluon.dal.DAL'>"
p4936
sS'TT'
p4937
S"<class 'gluon.html.TT'>"
p4938
sS'TR'
p4939
S"<class 'gluon.html.TR'>"
p4940
sS'LI'
p4941
S"<class 'gluon.html.LI'>"
p4942
sS'IFRAME'
p4943
S"<class 'gluon.html.IFRAME'>"
p4944
sS'TD'
p4945
S"<class 'gluon.html.TD'>"
p4946
sS'PluginManager'
p4947
S"<class 'gluon.tools.PluginManager'>"
p4948
sS'IS_URL'
p4949
S"<class 'gluon.validators.IS_URL'>"
p4950
sS'A'
S"<class 'gluon.html.A'>"
p4951
sS'STYLE'
p4952
S"<class 'gluon.html.STYLE'>"
p4953
sS'IS_DATETIME_IN_RANGE'
p4954
S"<class 'gluon.validators.IS_DATETIME_IN_RANGE'>"
p4955
sS'IS_IMAGE'
p4956
S"<class 'gluon.validators.IS_IMAGE'>"
p4957
sS'I'
S"<class 'gluon.html.I'>"
p4958
sS'crud'
p4959
S'<gluon.tools.Crud object at 0x03E696D0>'
p4960
sS'IS_NOT_IN_DB'
p4961
S"<class 'gluon.validators.IS_NOT_IN_DB'>"
p4962
sg3174
S"<Storage {'body': <cStringIO.StringO object at 0...a> at 0x046F31B0>, 'view': 'default/index.html'}>"
p4963
sS'THEAD'
p4964
S"<class 'gluon.html.THEAD'>"
p4965
sS'IS_NULL_OR'
p4966
S"<class 'gluon.validators.IS_EMPTY_OR'>"
p4967
sg48
S"<Storage {'body': <cStringIO.StringO object at 0..._vars': <Storage {}>, 'post_vars': <Storage {}>}>"
p4968
sS'IS_EXPR'
p4969
S"<class 'gluon.validators.IS_EXPR'>"
p4970
sS'T'
S'<gluon.languages.translator object at 0x03C1D6D0>'
p4971
sS'IS_IN_SET'
p4972
S"<class 'gluon.validators.IS_IN_SET'>"
p4973
sS'IS_UPLOAD_FILENAME'
p4974
S"<class 'gluon.validators.IS_UPLOAD_FILENAME'>"
p4975
sS'IS_DECIMAL_IN_RANGE'
p4976
S"<class 'gluon.validators.IS_DECIMAL_IN_RANGE'>"
p4977
sssS'traceback'
p4978
S'Traceback (most recent call last):\n  File "gluon/restricted.py", line 205, in restricted\n  File "C:\\Users\\Bussiere\\Dropbox\\Projets\\Yuki\\web2py\\applications\\init\\views\\default/index.html", line 3, in <module>\nNameError: name \'curd\' is not defined\n'
p4979
s.