(dp1
S'output'
p2
S"<type 'exceptions.KeyError'> 'auth_user'"
p3
sS'layer'
p4
S'C:\\Users\\Bussiere\\Dropbox\\Projets\\Yuki\\web2py\\applications\\init\\models\\db.py'
p5
sS'code'
p6
S"# -*- coding: utf-8 -*-\n\n#########################################################################\n## This scaffolding model makes your app work on Google App Engine too\n## File is released under public domain and you can use without limitations\n#########################################################################\n\n## if SSL/HTTPS is properly configured and you want all HTTP requests to\n## be redirected to HTTPS, uncomment the line below:\n# request.requires_https()\n\nif not request.env.web2py_runtime_gae:\n    ## if NOT running on Google App Engine use SQLite or other DB\n    db = DAL('sqlite://storage.sqlite')\nelse:\n    ## connect to Google BigTable (optional 'google:datastore://namespace')\n    db = DAL('google:datastore')\n    ## store sessions and tickets there\n    session.connect(request, response, db = db)\n    ## or store session in Memcache, Redis, etc.\n    ## from gluon.contrib.memdb import MEMDB\n    ## from google.appengine.api.memcache import Client\n    ## session.connect(request, response, db = MEMDB(Client()))\n\ndb.define_table('Barcode',\n   Field('Barcode', unique=True),\n   Field('auth_user','list:reference auth_user'),\n   Field('Comment','list:reference Comment'),\n   Field('Seller','list:reference Seller'),\n   Field('Livre','list:reference Livre'),\n   Field('Musique','list:reference Musique'),\n   Field('Video','list:reference Video'),\n   Field('Figur','list:reference Figur'),\n   Field('Goodie','list:reference Goodie'),\n   Field('VideoGame','list:reference VideoGame'),\n   format = '%(Barcodee)s')\n   \ndb.define_table('Comment',\n   Field('Name', unique=True),\n   Field('Texte'),\n   Field('Vote', 'integer'),\n   Field('auth_user',db.auth_user),\n   format = '%(Name)s')\n\n\ndb.define_table('Convention',\n   Field('Nom', unique=True),\n   Field('Localisation','list:reference Localisation'),\n   Field('auth_user','list:reference auth_user'),\n   Field('Comment','list:reference Comment'),\n   Field('Seller','list:reference Seller'),\n   Field('Livre','list:reference Livre'),\n   Field('Musique','list:reference Musique'),\n   Field('Video','list:reference Video'),\n   Field('Figur','list:reference Figur'),\n   Field('Goodie','list:reference Goodie'),\n   Field('Link','list:reference Link'),\n   Field('Tag','list:reference Tag'),\n\n   format = '%(Nom)s')\n\ndb.define_table('auth_useror',\n   Field('Nom', unique=True),\n   Field('Tag','list:reference Tag'),\n   format = '%(Nom)s')\n\ndb.define_table('Character',\n   Field('Nom', unique=True),\n   Field('Tag','list:reference Tag'),\n   format = '%(Nom)s')\n\ndb.define_table('Figur',\n   Field('Name', unique=True),\n   Field('Date'),\n   Field('Characters','list:reference Character'),\n   Field('auth_userors','list:reference auth_useror'),\n   Field('Tag','list:reference Tag'),\n   Field('Price','list:reference Price'),\n   Field('Seller','list:reference Seller'),\n   Field('Convention','list:reference Convention'),\n   Field('Vote','list:reference Vote'),\n   Field('BarCode','list:reference BarCode'),\n   Field('Comment','list:reference Comment'),\n   Field('Link','list:reference Link'),\n   format = '%(Nom)s')\n   \ndb.define_table('TypeMusic',\n   Field('Nom', unique=True),\n   format = '%(Nom)s')\n\n\ndb.define_table('Music',\n   Field('Name', unique=True),\n   Field('Date'),\n   Field('auth_userors','list:reference auth_useror'),\n   Field('Tag','list:reference Tag'),\n   Field('Price','list:reference Price'),\n   Field('Seller','list:reference Seller'),\n   Field('Convention','list:reference Convention'),\n   Field('Vote','list:reference Vote'),\n   Field('BarCode','list:reference BarCode'),\n   Field('Comment','list:reference Comment'),\n   Field('Link','list:reference Link'),\n   format = '%(Nom)s')\n\n\ndb.define_table('TypeVideo',\n   Field('Nom', unique=True),\n   format = '%(Nom)s')\n\n\ndb.define_table('Video',\n   Field('Name', unique=True),\n   Field('Date'),\n   Field('auth_userors','list:reference auth_useror'),\n   Field('Tag','list:reference Tag'),\n   Field('Price','list:reference Price'),\n   Field('Seller','list:reference Seller'),\n   Field('Convention','list:reference Convention'),\n   Field('Vote','list:reference Vote'),\n   Field('BarCode','list:reference BarCode'),\n   Field('Comment','list:reference Comment'),\n   Field('Link','list:reference Link'),  \n   format = '%(Nom)s')\n\ndb.define_table('TypeVideoGame',\n   Field('Nom', unique=True),\n   format = '%(Nom)s')\n\n\ndb.define_table('VideoGame',\n   Field('Name', unique=True),\n   Field('Date'),\n   Field('auth_userors','list:reference auth_useror'),\n   Field('Tag','list:reference Tag'),\n   Field('Price','list:reference Price'),\n   Field('Seller','list:reference Seller'),\n   Field('Convention','list:reference Convention'),\n   Field('Vote','list:reference Vote'),\n   Field('BarCode','list:reference BarCode'),\n   Field('Comment','list:reference Comment'),\n   Field('Link','list:reference Link'),\n   format = '%(Nom)s')\n\ndb.define_table('TypeBook',\n   Field('Nom', unique=True),\n   format = '%(Nom)s')\n\n\ndb.define_table('Book',\n   Field('Name', unique=True),\n   Field('Date'),\n   Field('auth_userors','list:reference auth_useror'),\n   Field('Tag','list:reference Tag'),\n   Field('Price','list:reference Price'),\n   Field('Seller','list:reference Seller'),\n   Field('Convention','list:reference Convention'),\n   Field('Vote','list:reference Vote'),\n   Field('BarCode','list:reference BarCode'),\n   Field('Comment','list:reference Comment'),\n   Field('Link','list:reference Link'),\n   format = '%(Nom)s')\n\n\ndb.define_table('TypeGoodie',\n   Field('Nom', unique=True),\n   format = '%(Nom)s')\n\n\ndb.define_table('Goodie',\n   Field('Name', unique=True),\n   Field('Date'),\n   Field('auth_userors','list:reference auth_useror'),\n   Field('Tag','list:reference Tag'),\n   Field('Price','list:reference Price'),\n   Field('Seller','list:reference Seller'),\n   Field('Convention','list:reference Convention'),\n   Field('Vote','list:reference Vote'),\n   Field('BarCode','list:reference BarCode'),\n   Field('Comment','list:reference Comment'),\n   Field('Link','list:reference Link'),\n   format = '%(Nom)s')\n\n\n\ndb.define_table('GPS',\n   Field('GPS', unique=True),\n   Field('Tag','list:reference Tag'),\n   format = '%(GPS)s')\n\ndb.define_table('GeoHash',\n   Field('GeoHash', unique=True),\n   Field('Tag','list:reference Tag'),\n   format = '%(GeoHash)s')\n\ndb.define_table('OpenStreetMap',\n   Field('OpenStreetMap', unique=True),\n   Field('Tag','list:reference Tag'),\n   format = '%(OpenStreetMap)s')\n\ndb.define_table('Country',\n   Field('Name', unique=True),\n   Field('Link','list:reference Link'),\n   Field('GPS','list:reference GPS'),\n   Field('GeoHash','list:reference GeoHash'),\n   Field('OpenStreetMap','list:reference OpenStreetMap'),\n   format = '%(Name)s')\n   \ndb.define_table('State',\n   Field('Name', unique=True),\n   Field('Link','list:reference Link'),\n   Field('GPS','list:reference GPS'),\n   Field('GeoHash','list:reference GeoHash'),\n   Field('OpenStreetMap','list:reference OpenStreetMap'),\n   format = '%(Name)s')\n   \n\ndb.define_table('Region',\n   Field('Name', unique=True),\n   Field('Link','list:reference Link'),\n   Field('GPS','list:reference GPS'),\n   Field('GeoHash','list:reference GeoHash'),\n   Field('OpenStreetMap','list:reference OpenStreetMap'),\n   format = '%(Name)s')\n   \n \ndb.define_table('City',\n   Field('Name', unique=True),\n   Field('Link','list:reference Link'),\n   Field('GPS','list:reference GPS'),\n   Field('GeoHash','list:reference GeoHash'),\n   Field('OpenStreetMap','list:reference OpenStreetMap'),\n   format = '%(Name)s')\n\ndb.define_table('Adress',\n   Field('Name', unique=True),\n   Field('Number', unique=True),\n   Field('Link','list:reference Link'),\n   Field('GPS','list:reference GPS'),\n   Field('GeoHash','list:reference GeoHash'),\n   Field('OpenStreetMap','list:reference OpenStreetMap'),\n   format = '%(Name)s')\n   \ndb.define_table('PostalCode',\n   Field('Name', unique=True),\n   Field('Number', unique=True),\n   Field('Link','list:reference Link'),\n   Field('GPS','list:reference GPS'),\n   Field('GeoHash','list:reference GeoHash'),\n   Field('OpenStreetMap','list:reference OpenStreetMap'),\n   format = '%(Name)s')\n   \ndb.define_table('Subway',\n   Field('Name', unique=True),\n   Field('Number', unique=True),\n   format = '%(Name)s')\n  \n\ndb.define_table('SubwayStation',\n   Field('Name', unique=True),\n   Field('Subway','list:reference Subway'),\n   format = '%(Name)s')\n\n\ndb.define_table('Bus',\n   Field('Name', unique=True),\n   Field('Number', unique=True),\n   format = '%(Name)s')\n  \n\ndb.define_table('BusStation',\n   Field('Name', unique=True),\n   Field('Subway','list:reference Subway'),\n   format = '%(Name)s')\n\ndb.define_table('Localisation',\n   Field('Name', unique=True),\n   Field('Link','list:reference Link'),\n   Field('GPS','list:reference GPS'),\n   Field('GeoHash','list:reference GeoHash'),\n   Field('OpenStreetMap','list:reference OpenStreetMap'),\n   Field('Country','list:reference Country'),\n   Field('State','list:reference State'),\n   Field('Region','list:reference Region'),\n   Field('City','list:reference City'),\n   Field('Adress','list:reference Adress'),\n   Field('PostalCode','list:reference PostalCode'),\n   Field('SubwayStation','list:reference SubwayStation'),\n   Field('BusStation','list:reference BusStation'),\n   format = '%(Name)s')\n   \n\ndb.define_table('image',\n   Field('title', unique=True),\n   Field('file', 'upload'),\n   format = '%(title)s')\n\n\ndb.define_table('Cour',\n    Field('Price', Float),\n    format = '%(Price)s')\n\ndb.define_table('Currency',\n   Field('Name', unique=True),\n   Field('Cour', db.Cour),\n   format = '%(Name)s')\n   \n   \ndb.define_table('Price',\n   Field('Currency', db.Currency),\n   Field('Price', Float),\n   format = '%(Price,Currency)s')\n   \ndb.define_table('Seller',\n   Field('Name', unique=True),\n   Field('Date'),\n   Field('Localisation','list:reference Localisation'),\n   Field('Tag','list:reference Tag'),\n   Field('Comment','list:reference Comment'),\n   Field('Link','list:reference Link'),\n   format = '%(Nom)s')   \n\ndb.define_table('FamilleTag',\n   Field('Name', unique=True),\n   Field('Tag','list:reference Tag'),\n   format = '%(Name)s')\n   \ndb.define_table('Tag',\n   Field('Name', unique=True),\n   format = '%(Name)s')\n   \ndb.define_table('AssoTag',\n   Field('Name', unique=True),\n   Field('Tag','list:reference Tag'),\n   Field('FamilleTag','list:reference FamilleTag'),\n   format = '%(Name)s')\n   \ndb.define_table('VoteHK',\n   Field('auth_user', db.auth_user),\n   format = '%(auth_user)s')\n   \ndb.define_table('VoteNonHK',\n   Field('auth_user', db.auth_user),\n   format = '%(auth_user)s')\n\ndb.define_table('VoteAskHK',\n   Field('auth_user', db.auth_user),\n   format = '%(auth_user)s')\n## by default give a view/generic.extension to all actions from localhost\n## none otherwise. a pattern can be 'controller/function.extension'\nresponse.generic_patterns = ['*'] if request.is_local else []\n## (optional) optimize handling of static files\n# response.optimize_css = 'concat,minify,inline'\n# response.optimize_js = 'concat,minify,inline'\n\n#########################################################################\n## Here is sample code if you need for\n## - email capabilities\n## - auth_userentication (registration, login, logout, ... )\n## - auth_userorization (role based auth_userorization)\n## - services (xml, csv, json, xmlrpc, jsonrpc, amf, rss)\n## - old style crud actions\n## (more options discussed in gluon/tools.py)\n#########################################################################\n\nfrom gluon.tools import auth_user, Crud, Service, PluginManager, prettydate\nauth_user = auth_user(db, hmac_key=auth_user.get_or_create_key())\ncrud, service, plugins = Crud(db), Service(), PluginManager()\n\n## create all tables needed by auth_user if not custom tables\nauth_user.define_tables()\n\n## configure email\nmail=auth_user.settings.mailer\nmail.settings.server = 'logging' or 'smtp.gmail.com:587'\nmail.settings.sender = 'you@gmail.com'\nmail.settings.login = 'auth_username:password'\n\n## configure auth_user policy\nauth_user.settings.registration_requires_verification = False\nauth_user.settings.registration_requires_approval = False\nauth_user.settings.reset_password_requires_verification = True\n\n## if you need to use OpenID, Facebook, MySpace, Twitter, Linkedin, etc.\n## register with janrain.com, write your domain:api_key in private/janrain.key\nfrom gluon.contrib.login_methods.rpx_account import use_janrain\nuse_janrain(auth_user,filename='private/janrain.key')\n\n#########################################################################\n## Define your tables below (or better in another model file) for example\n##\n## >>> db.define_table('mytable',Field('myfield','string'))\n##\n## Fields can be 'string','text','password',''integer'','double','boolean'\n##       'date','time','datetime','blob','upload', 'reference TABLENAME'\n## There is an implicit 'id 'integer' autoincrement' field\n## Consult manual for more options, validators, etc.\n##\n## More API examples for controllers:\n##\n## >>> db.mytable.insert(myfield='value')\n## >>> rows=db(db.mytable.myfield=='value').select(db.mytable.ALL)\n## >>> for row in rows: print row.id, row.myfield\n#########################################################################\n"
p7
sS'snapshot'
p8
(dp9
S'exception'
p10
(dp11
S'__hash__'
p12
S"<method-wrapper '__hash__' of exceptions.KeyError object at 0x03EFC210>"
p13
sS'__setattr__'
p14
S"<method-wrapper '__setattr__' of exceptions.KeyError object at 0x03EFC210>"
p15
sS'__reduce_ex__'
p16
S'<built-in method __reduce_ex__ of exceptions.KeyError object at 0x03EFC210>'
p17
sS'__getslice__'
p18
S"<method-wrapper '__getslice__' of exceptions.KeyError object at 0x03EFC210>"
p19
sS'__getitem__'
p20
S"<method-wrapper '__getitem__' of exceptions.KeyError object at 0x03EFC210>"
p21
sS'__setstate__'
p22
S'<built-in method __setstate__ of exceptions.KeyError object at 0x03EFC210>'
p23
sS'__reduce__'
p24
S'<built-in method __reduce__ of exceptions.KeyError object at 0x03EFC210>'
p25
sS'__str__'
p26
S"<method-wrapper '__str__' of exceptions.KeyError object at 0x03EFC210>"
p27
sS'args'
p28
S"('auth_user',)"
p29
sS'__getattribute__'
p30
S"<method-wrapper '__getattribute__' of exceptions.KeyError object at 0x03EFC210>"
p31
sS'__class__'
p32
S"<type 'exceptions.KeyError'>"
p33
sS'__delattr__'
p34
S"<method-wrapper '__delattr__' of exceptions.KeyError object at 0x03EFC210>"
p35
sS'__repr__'
p36
S"<method-wrapper '__repr__' of exceptions.KeyError object at 0x03EFC210>"
p37
sS'__dict__'
p38
S'{}'
p39
sS'__doc__'
p40
S"'Mapping key not found.'"
p41
sS'__init__'
p42
S"<method-wrapper '__init__' of exceptions.KeyError object at 0x03EFC210>"
p43
sS'__new__'
p44
S'<built-in method __new__ of type object at 0x1E1CDFB8>'
p45
ssS'evalue'
p46
S"'auth_user'"
p47
sS'request'
p48
ccopy_reg
_reconstructor
p49
(cgluon.html
BEAUTIFY
p50
c__builtin__
object
p51
NtRp52
(dp53
S'attributes'
p54
(dp55
sS'components'
p56
(lp57
g49
(cgluon.html
TABLE
p58
g51
NtRp59
(dp60
g54
(dp61
S'level'
p62
I5
ssS'parent'
p63
Nsg56
(lp64
g49
(cgluon.html
TR
p65
g51
NtRp66
(dp67
g54
(dp68
sg63
g59
sg56
(lp69
g49
(cgluon.html
TD
p70
g51
NtRp71
(dp72
g54
(dp73
S'_style'
p74
S'font-weight:bold;vertical-align:top'
p75
ssg63
g66
sg56
(lp76
S'ajax'
p77
asbag49
(g70
g51
NtRp78
(dp79
g54
(dp80
S'_valign'
p81
S'top'
p82
ssg63
g66
sg56
(lp83
S':'
asbag49
(g70
g51
NtRp84
(dp85
g54
(dp86
sg63
g66
sg56
(lp87
g49
(g50
g51
NtRp88
(dp89
g54
(dp90
g62
I5
ssg63
g84
sg56
(lp91
S'False'
p92
asbasbasbag49
(g65
g51
NtRp93
(dp94
g54
(dp95
sg63
g59
sg56
(lp96
g49
(g70
g51
NtRp97
(dp98
g54
(dp99
g74
g75
ssg63
g93
sg56
(lp100
S'application'
p101
asbag49
(g70
g51
NtRp102
(dp103
g54
(dp104
g81
g82
ssg63
g93
sg56
(lp105
S':'
asbag49
(g70
g51
NtRp106
(dp107
g54
(dp108
sg63
g93
sg56
(lp109
g49
(g50
g51
NtRp110
(dp111
g54
(dp112
g62
I5
ssg63
g106
sg56
(lp113
S'init'
p114
asbasbasbag49
(g65
g51
NtRp115
(dp116
g54
(dp117
sg63
g59
sg56
(lp118
g49
(g70
g51
NtRp119
(dp120
g54
(dp121
g74
g75
ssg63
g115
sg56
(lp122
g28
asbag49
(g70
g51
NtRp123
(dp124
g54
(dp125
g81
g82
ssg63
g115
sg56
(lp126
S':'
asbag49
(g70
g51
NtRp127
(dp128
g54
(dp129
sg63
g115
sg56
(lp130
g49
(g50
g51
NtRp131
(dp132
g54
(dp133
g62
I5
ssg63
g127
sg56
(lp134
g49
(g58
g51
NtRp135
(dp136
g54
(dp137
g62
I4
ssg63
Nsg56
(lp138
sbasbasbasbag49
(g65
g51
NtRp139
(dp140
g54
(dp141
sg63
g59
sg56
(lp142
g49
(g70
g51
NtRp143
(dp144
g54
(dp145
g74
g75
ssg63
g139
sg56
(lp146
S'body'
p147
asbag49
(g70
g51
NtRp148
(dp149
g54
(dp150
g81
g82
ssg63
g139
sg56
(lp151
S':'
asbag49
(g70
g51
NtRp152
(dp153
g54
(dp154
sg63
g139
sg56
(lp155
g49
(g50
g51
NtRp156
(dp157
g54
(dp158
g62
I5
ssg63
g152
sg56
(lp159
S'<cStringIO.StringO object at 0x03EF7EA0>'
p160
asbasbasbag49
(g65
g51
NtRp161
(dp162
g54
(dp163
sg63
g59
sg56
(lp164
g49
(g70
g51
NtRp165
(dp166
g54
(dp167
g74
g75
ssg63
g161
sg56
(lp168
S'client'
p169
asbag49
(g70
g51
NtRp170
(dp171
g54
(dp172
g81
g82
ssg63
g161
sg56
(lp173
S':'
asbag49
(g70
g51
NtRp174
(dp175
g54
(dp176
sg63
g161
sg56
(lp177
g49
(g50
g51
NtRp178
(dp179
g54
(dp180
g62
I5
ssg63
g174
sg56
(lp181
S'127.0.0.1'
p182
asbasbasbag49
(g65
g51
NtRp183
(dp184
g54
(dp185
sg63
g59
sg56
(lp186
g49
(g70
g51
NtRp187
(dp188
g54
(dp189
g74
g75
ssg63
g183
sg56
(lp190
S'controller'
p191
asbag49
(g70
g51
NtRp192
(dp193
g54
(dp194
g81
g82
ssg63
g183
sg56
(lp195
S':'
asbag49
(g70
g51
NtRp196
(dp197
g54
(dp198
sg63
g183
sg56
(lp199
g49
(g50
g51
NtRp200
(dp201
g54
(dp202
g62
I5
ssg63
g196
sg56
(lp203
S'default'
p204
asbasbasbag49
(g65
g51
NtRp205
(dp206
g54
(dp207
sg63
g59
sg56
(lp208
g49
(g70
g51
NtRp209
(dp210
g54
(dp211
g74
g75
ssg63
g205
sg56
(lp212
S'cookies'
p213
asbag49
(g70
g51
NtRp214
(dp215
g54
(dp216
g81
g82
ssg63
g205
sg56
(lp217
S':'
asbag49
(g70
g51
NtRp218
(dp219
g54
(dp220
sg63
g205
sg56
(lp221
g49
(g50
g51
NtRp222
(dp223
g54
(dp224
g62
I5
ssg63
g218
sg56
(lp225
g49
(g58
g51
NtRp226
(dp227
g54
(dp228
g62
I4
ssg63
Nsg56
(lp229
g49
(g65
g51
NtRp230
(dp231
g54
(dp232
sg63
g226
sg56
(lp233
g49
(g70
g51
NtRp234
(dp235
g54
(dp236
g74
g75
ssg63
g230
sg56
(lp237
S'session_id_admin'
p238
asbag49
(g70
g51
NtRp239
(dp240
g54
(dp241
g81
g82
ssg63
g230
sg56
(lp242
S':'
asbag49
(g70
g51
NtRp243
(dp244
g54
(dp245
sg63
g230
sg56
(lp246
g49
(g50
g51
NtRp247
(dp248
g54
(dp249
g62
I4
ssg63
g243
sg56
(lp250
g49
(g58
g51
NtRp251
(dp252
g54
(dp253
g62
I3
ssg63
Nsg56
(lp254
g49
(g65
g51
NtRp255
(dp256
g54
(dp257
sg63
g251
sg56
(lp258
g49
(g70
g51
NtRp259
(dp260
g54
(dp261
g74
g75
ssg63
g255
sg56
(lp262
S'comment'
p263
asbag49
(g70
g51
NtRp264
(dp265
g54
(dp266
g81
g82
ssg63
g255
sg56
(lp267
S':'
asbag49
(g70
g51
NtRp268
(dp269
g54
(dp270
sg63
g255
sg56
(lp271
g49
(g50
g51
NtRp272
(dp273
g54
(dp274
g62
I3
ssg63
g268
sg56
(lp275
S''
asbasbasbag49
(g65
g51
NtRp276
(dp277
g54
(dp278
sg63
g251
sg56
(lp279
g49
(g70
g51
NtRp280
(dp281
g54
(dp282
g74
g75
ssg63
g276
sg56
(lp283
S'domain'
p284
asbag49
(g70
g51
NtRp285
(dp286
g54
(dp287
g81
g82
ssg63
g276
sg56
(lp288
S':'
asbag49
(g70
g51
NtRp289
(dp290
g54
(dp291
sg63
g276
sg56
(lp292
g49
(g50
g51
NtRp293
(dp294
g54
(dp295
g62
I3
ssg63
g289
sg56
(lp296
S''
asbasbasbag49
(g65
g51
NtRp297
(dp298
g54
(dp299
sg63
g251
sg56
(lp300
g49
(g70
g51
NtRp301
(dp302
g54
(dp303
g74
g75
ssg63
g297
sg56
(lp304
S'expires'
p305
asbag49
(g70
g51
NtRp306
(dp307
g54
(dp308
g81
g82
ssg63
g297
sg56
(lp309
S':'
asbag49
(g70
g51
NtRp310
(dp311
g54
(dp312
sg63
g297
sg56
(lp313
g49
(g50
g51
NtRp314
(dp315
g54
(dp316
g62
I3
ssg63
g310
sg56
(lp317
S''
asbasbasbag49
(g65
g51
NtRp318
(dp319
g54
(dp320
sg63
g251
sg56
(lp321
g49
(g70
g51
NtRp322
(dp323
g54
(dp324
g74
g75
ssg63
g318
sg56
(lp325
S'max-age'
p326
asbag49
(g70
g51
NtRp327
(dp328
g54
(dp329
g81
g82
ssg63
g318
sg56
(lp330
S':'
asbag49
(g70
g51
NtRp331
(dp332
g54
(dp333
sg63
g318
sg56
(lp334
g49
(g50
g51
NtRp335
(dp336
g54
(dp337
g62
I3
ssg63
g331
sg56
(lp338
S''
asbasbasbag49
(g65
g51
NtRp339
(dp340
g54
(dp341
sg63
g251
sg56
(lp342
g49
(g70
g51
NtRp343
(dp344
g54
(dp345
g74
g75
ssg63
g339
sg56
(lp346
S'path'
p347
asbag49
(g70
g51
NtRp348
(dp349
g54
(dp350
g81
g82
ssg63
g339
sg56
(lp351
S':'
asbag49
(g70
g51
NtRp352
(dp353
g54
(dp354
sg63
g339
sg56
(lp355
g49
(g50
g51
NtRp356
(dp357
g54
(dp358
g62
I3
ssg63
g352
sg56
(lp359
S''
asbasbasbag49
(g65
g51
NtRp360
(dp361
g54
(dp362
sg63
g251
sg56
(lp363
g49
(g70
g51
NtRp364
(dp365
g54
(dp366
g74
g75
ssg63
g360
sg56
(lp367
S'secure'
p368
asbag49
(g70
g51
NtRp369
(dp370
g54
(dp371
g81
g82
ssg63
g360
sg56
(lp372
S':'
asbag49
(g70
g51
NtRp373
(dp374
g54
(dp375
sg63
g360
sg56
(lp376
g49
(g50
g51
NtRp377
(dp378
g54
(dp379
g62
I3
ssg63
g373
sg56
(lp380
S''
asbasbasbag49
(g65
g51
NtRp381
(dp382
g54
(dp383
sg63
g251
sg56
(lp384
g49
(g70
g51
NtRp385
(dp386
g54
(dp387
g74
g75
ssg63
g381
sg56
(lp388
S'version'
p389
asbag49
(g70
g51
NtRp390
(dp391
g54
(dp392
g81
g82
ssg63
g381
sg56
(lp393
S':'
asbag49
(g70
g51
NtRp394
(dp395
g54
(dp396
sg63
g381
sg56
(lp397
g49
(g50
g51
NtRp398
(dp399
g54
(dp400
g62
I3
ssg63
g394
sg56
(lp401
S''
asbasbasbasbasbasbasbasbasbasbasbag49
(g65
g51
NtRp402
(dp403
g54
(dp404
sg63
g59
sg56
(lp405
g49
(g70
g51
NtRp406
(dp407
g54
(dp408
g74
g75
ssg63
g402
sg56
(lp409
S'env'
p410
asbag49
(g70
g51
NtRp411
(dp412
g54
(dp413
g81
g82
ssg63
g402
sg56
(lp414
S':'
asbag49
(g70
g51
NtRp415
(dp416
g54
(dp417
sg63
g402
sg56
(lp418
g49
(g50
g51
NtRp419
(dp420
g54
(dp421
g62
I5
ssg63
g415
sg56
(lp422
g49
(g58
g51
NtRp423
(dp424
g54
(dp425
g62
I4
ssg63
Nsg56
(lp426
g49
(g65
g51
NtRp427
(dp428
g54
(dp429
sg63
g423
sg56
(lp430
g49
(g70
g51
NtRp431
(dp432
g54
(dp433
g74
g75
ssg63
g427
sg56
(lp434
S'app_folders'
p435
asbag49
(g70
g51
NtRp436
(dp437
g54
(dp438
g81
g82
ssg63
g427
sg56
(lp439
S':'
asbag49
(g70
g51
NtRp440
(dp441
g54
(dp442
sg63
g427
sg56
(lp443
g49
(g50
g51
NtRp444
(dp445
g54
(dp446
g62
I4
ssg63
g440
sg56
(lp447
S"set(['C:\\\\Users\\\\Bussiere\\\\Dropbox\\\\Projets\\\\Yuki\\\\web2py\\\\applications\\\\init\\\\', 'C:\\\\Users\\\\Bussiere\\\\Dropbox\\\\Projets\\\\Yuki\\\\web2py\\\\applications\\\\admin\\\\'])"
p448
asbasbasbag49
(g65
g51
NtRp449
(dp450
g54
(dp451
sg63
g423
sg56
(lp452
g49
(g70
g51
NtRp453
(dp454
g54
(dp455
g74
g75
ssg63
g449
sg56
(lp456
S'applications_parent'
p457
asbag49
(g70
g51
NtRp458
(dp459
g54
(dp460
g81
g82
ssg63
g449
sg56
(lp461
S':'
asbag49
(g70
g51
NtRp462
(dp463
g54
(dp464
sg63
g449
sg56
(lp465
g49
(g50
g51
NtRp466
(dp467
g54
(dp468
g62
I4
ssg63
g462
sg56
(lp469
S'C:\\Users\\Bussiere\\Dropbox\\Projets\\Yuki\\web2py'
p470
asbasbasbag49
(g65
g51
NtRp471
(dp472
g54
(dp473
sg63
g423
sg56
(lp474
g49
(g70
g51
NtRp475
(dp476
g54
(dp477
g74
g75
ssg63
g471
sg56
(lp478
S'cmd_args'
p479
asbag49
(g70
g51
NtRp480
(dp481
g54
(dp482
g81
g82
ssg63
g471
sg56
(lp483
S':'
asbag49
(g70
g51
NtRp484
(dp485
g54
(dp486
sg63
g471
sg56
(lp487
g49
(g50
g51
NtRp488
(dp489
g54
(dp490
g62
I4
ssg63
g484
sg56
(lp491
g49
(g58
g51
NtRp492
(dp493
g54
(dp494
g62
I3
ssg63
Nsg56
(lp495
sbasbasbasbag49
(g65
g51
NtRp496
(dp497
g54
(dp498
sg63
g423
sg56
(lp499
g49
(g70
g51
NtRp500
(dp501
g54
(dp502
g74
g75
ssg63
g496
sg56
(lp503
S'cmd_options'
p504
asbag49
(g70
g51
NtRp505
(dp506
g54
(dp507
g81
g82
ssg63
g496
sg56
(lp508
S':'
asbag49
(g70
g51
NtRp509
(dp510
g54
(dp511
sg63
g496
sg56
(lp512
g49
(g50
g51
NtRp513
(dp514
g54
(dp515
g62
I4
ssg63
g509
sg56
(lp516
S"<Values at 0x3b54f58: {'verbose': False, 'ip': '127.0.0.1', 'shutdown_timeout': 5, 'taskbar': False, 'nocron': False, 'pid_filename': 'httpserver.pid', 'maxthreads': None, 'softcron': False, 'server_name': 'Batou', 'bpython': False, 'nogui': False, 'port': 8000, 'extcron': False, 'debuglevel': 30, 'test': None, 'folder': 'C:\\\\Users\\\\Bussiere\\\\Dropbox\\\\Projets\\\\Yuki\\\\web2py', 'config': '', 'import_models': False, 'winservice': '', 'shell': None, 'run': '', 'log_filename': 'httpserver.log', 'args': [''], 'socket_timeout': 5, 'ssl_ca_certificate': None, 'scheduler': None, 'profiler_filename': None, 'ssl_private_key': '', 'password': '<ask>', 'request_queue_size': 5, 'ssl_certificate': '', 'cronjob': False, 'numthreads': None, 'quiet': False, 'interfaces': None, 'minthreads': None, 'timeout': 10, 'plain': False, 'nobanner': False}>"
p517
asbasbasbag49
(g65
g51
NtRp518
(dp519
g54
(dp520
sg63
g423
sg56
(lp521
g49
(g70
g51
NtRp522
(dp523
g54
(dp524
g74
g75
ssg63
g518
sg56
(lp525
S'db_sessions'
p526
asbag49
(g70
g51
NtRp527
(dp528
g54
(dp529
g81
g82
ssg63
g518
sg56
(lp530
S':'
asbag49
(g70
g51
NtRp531
(dp532
g54
(dp533
sg63
g518
sg56
(lp534
g49
(g50
g51
NtRp535
(dp536
g54
(dp537
g62
I4
ssg63
g531
sg56
(lp538
S'set([])'
p539
asbasbasbag49
(g65
g51
NtRp540
(dp541
g54
(dp542
sg63
g423
sg56
(lp543
g49
(g70
g51
NtRp544
(dp545
g54
(dp546
g74
g75
ssg63
g540
sg56
(lp547
S'debugging'
p548
asbag49
(g70
g51
NtRp549
(dp550
g54
(dp551
g81
g82
ssg63
g540
sg56
(lp552
S':'
asbag49
(g70
g51
NtRp553
(dp554
g54
(dp555
sg63
g540
sg56
(lp556
g49
(g50
g51
NtRp557
(dp558
g54
(dp559
g62
I4
ssg63
g553
sg56
(lp560
S'True'
p561
asbasbasbag49
(g65
g51
NtRp562
(dp563
g54
(dp564
sg63
g423
sg56
(lp565
g49
(g70
g51
NtRp566
(dp567
g54
(dp568
g74
g75
ssg63
g562
sg56
(lp569
S'gluon_parent'
p570
asbag49
(g70
g51
NtRp571
(dp572
g54
(dp573
g81
g82
ssg63
g562
sg56
(lp574
S':'
asbag49
(g70
g51
NtRp575
(dp576
g54
(dp577
sg63
g562
sg56
(lp578
g49
(g50
g51
NtRp579
(dp580
g54
(dp581
g62
I4
ssg63
g575
sg56
(lp582
S'C:\\Users\\Bussiere\\Dropbox\\Projets\\Yuki\\web2py'
p583
asbasbasbag49
(g65
g51
NtRp584
(dp585
g54
(dp586
sg63
g423
sg56
(lp587
g49
(g70
g51
NtRp588
(dp589
g54
(dp590
g74
g75
ssg63
g584
sg56
(lp591
S'http_accept'
p592
asbag49
(g70
g51
NtRp593
(dp594
g54
(dp595
g81
g82
ssg63
g584
sg56
(lp596
S':'
asbag49
(g70
g51
NtRp597
(dp598
g54
(dp599
sg63
g584
sg56
(lp600
g49
(g50
g51
NtRp601
(dp602
g54
(dp603
g62
I4
ssg63
g597
sg56
(lp604
S'text/html,application/xhtml+xml,application/xml;q=0.9,*/*;q=0.8'
p605
asbasbasbag49
(g65
g51
NtRp606
(dp607
g54
(dp608
sg63
g423
sg56
(lp609
g49
(g70
g51
NtRp610
(dp611
g54
(dp612
g74
g75
ssg63
g606
sg56
(lp613
S'http_accept_charset'
p614
asbag49
(g70
g51
NtRp615
(dp616
g54
(dp617
g81
g82
ssg63
g606
sg56
(lp618
S':'
asbag49
(g70
g51
NtRp619
(dp620
g54
(dp621
sg63
g606
sg56
(lp622
g49
(g50
g51
NtRp623
(dp624
g54
(dp625
g62
I4
ssg63
g619
sg56
(lp626
S'ISO-8859-1,utf-8;q=0.7,*;q=0.3'
p627
asbasbasbag49
(g65
g51
NtRp628
(dp629
g54
(dp630
sg63
g423
sg56
(lp631
g49
(g70
g51
NtRp632
(dp633
g54
(dp634
g74
g75
ssg63
g628
sg56
(lp635
S'http_accept_encoding'
p636
asbag49
(g70
g51
NtRp637
(dp638
g54
(dp639
g81
g82
ssg63
g628
sg56
(lp640
S':'
asbag49
(g70
g51
NtRp641
(dp642
g54
(dp643
sg63
g628
sg56
(lp644
g49
(g50
g51
NtRp645
(dp646
g54
(dp647
g62
I4
ssg63
g641
sg56
(lp648
S'gzip,deflate,sdch'
p649
asbasbasbag49
(g65
g51
NtRp650
(dp651
g54
(dp652
sg63
g423
sg56
(lp653
g49
(g70
g51
NtRp654
(dp655
g54
(dp656
g74
g75
ssg63
g650
sg56
(lp657
S'http_accept_language'
p658
asbag49
(g70
g51
NtRp659
(dp660
g54
(dp661
g81
g82
ssg63
g650
sg56
(lp662
S':'
asbag49
(g70
g51
NtRp663
(dp664
g54
(dp665
sg63
g650
sg56
(lp666
g49
(g50
g51
NtRp667
(dp668
g54
(dp669
g62
I4
ssg63
g663
sg56
(lp670
S'en-US,en;q=0.8'
p671
asbasbasbag49
(g65
g51
NtRp672
(dp673
g54
(dp674
sg63
g423
sg56
(lp675
g49
(g70
g51
NtRp676
(dp677
g54
(dp678
g74
g75
ssg63
g672
sg56
(lp679
S'http_connection'
p680
asbag49
(g70
g51
NtRp681
(dp682
g54
(dp683
g81
g82
ssg63
g672
sg56
(lp684
S':'
asbag49
(g70
g51
NtRp685
(dp686
g54
(dp687
sg63
g672
sg56
(lp688
g49
(g50
g51
NtRp689
(dp690
g54
(dp691
g62
I4
ssg63
g685
sg56
(lp692
S'keep-alive'
p693
asbasbasbag49
(g65
g51
NtRp694
(dp695
g54
(dp696
sg63
g423
sg56
(lp697
g49
(g70
g51
NtRp698
(dp699
g54
(dp700
g74
g75
ssg63
g694
sg56
(lp701
S'http_cookie'
p702
asbag49
(g70
g51
NtRp703
(dp704
g54
(dp705
g81
g82
ssg63
g694
sg56
(lp706
S':'
asbag49
(g70
g51
NtRp707
(dp708
g54
(dp709
sg63
g694
sg56
(lp710
g49
(g50
g51
NtRp711
(dp712
g54
(dp713
g62
I4
ssg63
g707
sg56
(lp714
S'session_id_admin=127.0.0.1-997621fc-e27b-401d-818b-abcbd99a27ff'
p715
asbasbasbag49
(g65
g51
NtRp716
(dp717
g54
(dp718
sg63
g423
sg56
(lp719
g49
(g70
g51
NtRp720
(dp721
g54
(dp722
g74
g75
ssg63
g716
sg56
(lp723
S'http_host'
p724
asbag49
(g70
g51
NtRp725
(dp726
g54
(dp727
g81
g82
ssg63
g716
sg56
(lp728
S':'
asbag49
(g70
g51
NtRp729
(dp730
g54
(dp731
sg63
g716
sg56
(lp732
g49
(g50
g51
NtRp733
(dp734
g54
(dp735
g62
I4
ssg63
g729
sg56
(lp736
S'127.0.0.1:8000'
p737
asbasbasbag49
(g65
g51
NtRp738
(dp739
g54
(dp740
sg63
g423
sg56
(lp741
g49
(g70
g51
NtRp742
(dp743
g54
(dp744
g74
g75
ssg63
g738
sg56
(lp745
S'http_user_agent'
p746
asbag49
(g70
g51
NtRp747
(dp748
g54
(dp749
g81
g82
ssg63
g738
sg56
(lp750
S':'
asbag49
(g70
g51
NtRp751
(dp752
g54
(dp753
sg63
g738
sg56
(lp754
g49
(g50
g51
NtRp755
(dp756
g54
(dp757
g62
I4
ssg63
g751
sg56
(lp758
S'Mozilla/5.0 (Windows NT 6.1; WOW64) AppleWebKit/535.18 (KHTML, like Gecko) Chrome/18.0.1011.0 Safari/535.18'
p759
asbasbasbag49
(g65
g51
NtRp760
(dp761
g54
(dp762
sg63
g423
sg56
(lp763
g49
(g70
g51
NtRp764
(dp765
g54
(dp766
g74
g75
ssg63
g760
sg56
(lp767
S'is_jython'
p768
asbag49
(g70
g51
NtRp769
(dp770
g54
(dp771
g81
g82
ssg63
g760
sg56
(lp772
S':'
asbag49
(g70
g51
NtRp773
(dp774
g54
(dp775
sg63
g760
sg56
(lp776
g49
(g50
g51
NtRp777
(dp778
g54
(dp779
g62
I4
ssg63
g773
sg56
(lp780
g92
asbasbasbag49
(g65
g51
NtRp781
(dp782
g54
(dp783
sg63
g423
sg56
(lp784
g49
(g70
g51
NtRp785
(dp786
g54
(dp787
g74
g75
ssg63
g781
sg56
(lp788
S'is_pypy'
p789
asbag49
(g70
g51
NtRp790
(dp791
g54
(dp792
g81
g82
ssg63
g781
sg56
(lp793
S':'
asbag49
(g70
g51
NtRp794
(dp795
g54
(dp796
sg63
g781
sg56
(lp797
g49
(g50
g51
NtRp798
(dp799
g54
(dp800
g62
I4
ssg63
g794
sg56
(lp801
g92
asbasbasbag49
(g65
g51
NtRp802
(dp803
g54
(dp804
sg63
g423
sg56
(lp805
g49
(g70
g51
NtRp806
(dp807
g54
(dp808
g74
g75
ssg63
g802
sg56
(lp809
S'path_info'
p810
asbag49
(g70
g51
NtRp811
(dp812
g54
(dp813
g81
g82
ssg63
g802
sg56
(lp814
S':'
asbag49
(g70
g51
NtRp815
(dp816
g54
(dp817
sg63
g802
sg56
(lp818
g49
(g50
g51
NtRp819
(dp820
g54
(dp821
g62
I4
ssg63
g815
sg56
(lp822
S'/'
asbasbasbag49
(g65
g51
NtRp823
(dp824
g54
(dp825
sg63
g423
sg56
(lp826
g49
(g70
g51
NtRp827
(dp828
g54
(dp829
g74
g75
ssg63
g823
sg56
(lp830
S'query_string'
p831
asbag49
(g70
g51
NtRp832
(dp833
g54
(dp834
g81
g82
ssg63
g823
sg56
(lp835
S':'
asbag49
(g70
g51
NtRp836
(dp837
g54
(dp838
sg63
g823
sg56
(lp839
g49
(g50
g51
NtRp840
(dp841
g54
(dp842
g62
I4
ssg63
g836
sg56
(lp843
S''
asbasbasbag49
(g65
g51
NtRp844
(dp845
g54
(dp846
sg63
g423
sg56
(lp847
g49
(g70
g51
NtRp848
(dp849
g54
(dp850
g74
g75
ssg63
g844
sg56
(lp851
S'remote_addr'
p852
asbag49
(g70
g51
NtRp853
(dp854
g54
(dp855
g81
g82
ssg63
g844
sg56
(lp856
S':'
asbag49
(g70
g51
NtRp857
(dp858
g54
(dp859
sg63
g844
sg56
(lp860
g49
(g50
g51
NtRp861
(dp862
g54
(dp863
g62
I4
ssg63
g857
sg56
(lp864
g182
asbasbasbag49
(g65
g51
NtRp865
(dp866
g54
(dp867
sg63
g423
sg56
(lp868
g49
(g70
g51
NtRp869
(dp870
g54
(dp871
g74
g75
ssg63
g865
sg56
(lp872
S'remote_port'
p873
asbag49
(g70
g51
NtRp874
(dp875
g54
(dp876
g81
g82
ssg63
g865
sg56
(lp877
S':'
asbag49
(g70
g51
NtRp878
(dp879
g54
(dp880
sg63
g865
sg56
(lp881
g49
(g50
g51
NtRp882
(dp883
g54
(dp884
g62
I4
ssg63
g878
sg56
(lp885
S'49399'
p886
asbasbasbag49
(g65
g51
NtRp887
(dp888
g54
(dp889
sg63
g423
sg56
(lp890
g49
(g70
g51
NtRp891
(dp892
g54
(dp893
g74
g75
ssg63
g887
sg56
(lp894
S'request_method'
p895
asbag49
(g70
g51
NtRp896
(dp897
g54
(dp898
g81
g82
ssg63
g887
sg56
(lp899
S':'
asbag49
(g70
g51
NtRp900
(dp901
g54
(dp902
sg63
g887
sg56
(lp903
g49
(g50
g51
NtRp904
(dp905
g54
(dp906
g62
I4
ssg63
g900
sg56
(lp907
S'GET'
p908
asbasbasbag49
(g65
g51
NtRp909
(dp910
g54
(dp911
sg63
g423
sg56
(lp912
g49
(g70
g51
NtRp913
(dp914
g54
(dp915
g74
g75
ssg63
g909
sg56
(lp916
S'script_name'
p917
asbag49
(g70
g51
NtRp918
(dp919
g54
(dp920
g81
g82
ssg63
g909
sg56
(lp921
S':'
asbag49
(g70
g51
NtRp922
(dp923
g54
(dp924
sg63
g909
sg56
(lp925
g49
(g50
g51
NtRp926
(dp927
g54
(dp928
g62
I4
ssg63
g922
sg56
(lp929
S''
asbasbasbag49
(g65
g51
NtRp930
(dp931
g54
(dp932
sg63
g423
sg56
(lp933
g49
(g70
g51
NtRp934
(dp935
g54
(dp936
g74
g75
ssg63
g930
sg56
(lp937
S'server_name'
p938
asbag49
(g70
g51
NtRp939
(dp940
g54
(dp941
g81
g82
ssg63
g930
sg56
(lp942
S':'
asbag49
(g70
g51
NtRp943
(dp944
g54
(dp945
sg63
g930
sg56
(lp946
g49
(g50
g51
NtRp947
(dp948
g54
(dp949
g62
I4
ssg63
g943
sg56
(lp950
S'Batou'
p951
asbasbasbag49
(g65
g51
NtRp952
(dp953
g54
(dp954
sg63
g423
sg56
(lp955
g49
(g70
g51
NtRp956
(dp957
g54
(dp958
g74
g75
ssg63
g952
sg56
(lp959
S'server_port'
p960
asbag49
(g70
g51
NtRp961
(dp962
g54
(dp963
g81
g82
ssg63
g952
sg56
(lp964
S':'
asbag49
(g70
g51
NtRp965
(dp966
g54
(dp967
sg63
g952
sg56
(lp968
g49
(g50
g51
NtRp969
(dp970
g54
(dp971
g62
I4
ssg63
g965
sg56
(lp972
S'8000'
p973
asbasbasbag49
(g65
g51
NtRp974
(dp975
g54
(dp976
sg63
g423
sg56
(lp977
g49
(g70
g51
NtRp978
(dp979
g54
(dp980
g74
g75
ssg63
g974
sg56
(lp981
S'server_protocol'
p982
asbag49
(g70
g51
NtRp983
(dp984
g54
(dp985
g81
g82
ssg63
g974
sg56
(lp986
S':'
asbag49
(g70
g51
NtRp987
(dp988
g54
(dp989
sg63
g974
sg56
(lp990
g49
(g50
g51
NtRp991
(dp992
g54
(dp993
g62
I4
ssg63
g987
sg56
(lp994
S'HTTP/1.1'
p995
asbasbasbag49
(g65
g51
NtRp996
(dp997
g54
(dp998
sg63
g423
sg56
(lp999
g49
(g70
g51
NtRp1000
(dp1001
g54
(dp1002
g74
g75
ssg63
g996
sg56
(lp1003
S'server_software'
p1004
asbag49
(g70
g51
NtRp1005
(dp1006
g54
(dp1007
g81
g82
ssg63
g996
sg56
(lp1008
S':'
asbag49
(g70
g51
NtRp1009
(dp1010
g54
(dp1011
sg63
g996
sg56
(lp1012
g49
(g50
g51
NtRp1013
(dp1014
g54
(dp1015
g62
I4
ssg63
g1009
sg56
(lp1016
S'Rocket 1.2.4'
p1017
asbasbasbag49
(g65
g51
NtRp1018
(dp1019
g54
(dp1020
sg63
g423
sg56
(lp1021
g49
(g70
g51
NtRp1022
(dp1023
g54
(dp1024
g74
g75
ssg63
g1018
sg56
(lp1025
S'web2py_crontype'
p1026
asbag49
(g70
g51
NtRp1027
(dp1028
g54
(dp1029
g81
g82
ssg63
g1018
sg56
(lp1030
S':'
asbag49
(g70
g51
NtRp1031
(dp1032
g54
(dp1033
sg63
g1018
sg56
(lp1034
g49
(g50
g51
NtRp1035
(dp1036
g54
(dp1037
g62
I4
ssg63
g1031
sg56
(lp1038
S'hard'
p1039
asbasbasbag49
(g65
g51
NtRp1040
(dp1041
g54
(dp1042
sg63
g423
sg56
(lp1043
g49
(g70
g51
NtRp1044
(dp1045
g54
(dp1046
g74
g75
ssg63
g1040
sg56
(lp1047
S'web2py_path'
p1048
asbag49
(g70
g51
NtRp1049
(dp1050
g54
(dp1051
g81
g82
ssg63
g1040
sg56
(lp1052
S':'
asbag49
(g70
g51
NtRp1053
(dp1054
g54
(dp1055
sg63
g1040
sg56
(lp1056
g49
(g50
g51
NtRp1057
(dp1058
g54
(dp1059
g62
I4
ssg63
g1053
sg56
(lp1060
g470
asbasbasbag49
(g65
g51
NtRp1061
(dp1062
g54
(dp1063
sg63
g423
sg56
(lp1064
g49
(g70
g51
NtRp1065
(dp1066
g54
(dp1067
g74
g75
ssg63
g1061
sg56
(lp1068
S'web2py_version'
p1069
asbag49
(g70
g51
NtRp1070
(dp1071
g54
(dp1072
g81
g82
ssg63
g1061
sg56
(lp1073
S':'
asbag49
(g70
g51
NtRp1074
(dp1075
g54
(dp1076
sg63
g1061
sg56
(lp1077
g49
(g50
g51
NtRp1078
(dp1079
g54
(dp1080
g62
I4
ssg63
g1074
sg56
(lp1081
g49
(g58
g51
NtRp1082
(dp1083
g54
(dp1084
g62
I3
ssg63
Nsg56
(lp1085
g49
(g65
g51
NtRp1086
(dp1087
g54
(dp1088
sg63
g1082
sg56
(lp1089
g49
(g70
g51
NtRp1090
(dp1091
g54
(dp1092
sg63
g1086
sg56
(lp1093
g49
(g50
g51
NtRp1094
(dp1095
g54
(dp1096
g62
I3
ssg63
g1090
sg56
(lp1097
S'1'
asbasbasbag49
(g65
g51
NtRp1098
(dp1099
g54
(dp1100
sg63
g1082
sg56
(lp1101
g49
(g70
g51
NtRp1102
(dp1103
g54
(dp1104
sg63
g1098
sg56
(lp1105
g49
(g50
g51
NtRp1106
(dp1107
g54
(dp1108
g62
I3
ssg63
g1102
sg56
(lp1109
S'99'
p1110
asbasbasbag49
(g65
g51
NtRp1111
(dp1112
g54
(dp1113
sg63
g1082
sg56
(lp1114
g49
(g70
g51
NtRp1115
(dp1116
g54
(dp1117
sg63
g1111
sg56
(lp1118
g49
(g50
g51
NtRp1119
(dp1120
g54
(dp1121
g62
I3
ssg63
g1115
sg56
(lp1122
S'7'
asbasbasbag49
(g65
g51
NtRp1123
(dp1124
g54
(dp1125
sg63
g1082
sg56
(lp1126
g49
(g70
g51
NtRp1127
(dp1128
g54
(dp1129
sg63
g1123
sg56
(lp1130
g49
(g50
g51
NtRp1131
(dp1132
g54
(dp1133
g62
I3
ssg63
g1127
sg56
(lp1134
S'datetime.datetime(2012, 3, 4, 22, 12, 8)'
p1135
asbasbasbag49
(g65
g51
NtRp1136
(dp1137
g54
(dp1138
sg63
g1082
sg56
(lp1139
g49
(g70
g51
NtRp1140
(dp1141
g54
(dp1142
sg63
g1136
sg56
(lp1143
g49
(g50
g51
NtRp1144
(dp1145
g54
(dp1146
g62
I3
ssg63
g1140
sg56
(lp1147
S'stable'
p1148
asbasbasbasbasbasbasbag49
(g65
g51
NtRp1149
(dp1150
g54
(dp1151
sg63
g423
sg56
(lp1152
g49
(g70
g51
NtRp1153
(dp1154
g54
(dp1155
g74
g75
ssg63
g1149
sg56
(lp1156
S'wsgi_errors'
p1157
asbag49
(g70
g51
NtRp1158
(dp1159
g54
(dp1160
g81
g82
ssg63
g1149
sg56
(lp1161
S':'
asbag49
(g70
g51
NtRp1162
(dp1163
g54
(dp1164
sg63
g1149
sg56
(lp1165
g49
(g50
g51
NtRp1166
(dp1167
g54
(dp1168
g62
I4
ssg63
g1162
sg56
(lp1169
S"<open file '<stderr>', mode 'w' at 0x006500B0>"
p1170
asbasbasbag49
(g65
g51
NtRp1171
(dp1172
g54
(dp1173
sg63
g423
sg56
(lp1174
g49
(g70
g51
NtRp1175
(dp1176
g54
(dp1177
g74
g75
ssg63
g1171
sg56
(lp1178
S'wsgi_file_wrapper'
p1179
asbag49
(g70
g51
NtRp1180
(dp1181
g54
(dp1182
g81
g82
ssg63
g1171
sg56
(lp1183
S':'
asbag49
(g70
g51
NtRp1184
(dp1185
g54
(dp1186
sg63
g1171
sg56
(lp1187
g49
(g50
g51
NtRp1188
(dp1189
g54
(dp1190
g62
I4
ssg63
g1184
sg56
(lp1191
S'<class wsgiref.util.FileWrapper at 0x02BF68D0>'
p1192
asbasbasbag49
(g65
g51
NtRp1193
(dp1194
g54
(dp1195
sg63
g423
sg56
(lp1196
g49
(g70
g51
NtRp1197
(dp1198
g54
(dp1199
g74
g75
ssg63
g1193
sg56
(lp1200
S'wsgi_input'
p1201
asbag49
(g70
g51
NtRp1202
(dp1203
g54
(dp1204
g81
g82
ssg63
g1193
sg56
(lp1205
S':'
asbag49
(g70
g51
NtRp1206
(dp1207
g54
(dp1208
sg63
g1193
sg56
(lp1209
g49
(g50
g51
NtRp1210
(dp1211
g54
(dp1212
g62
I4
ssg63
g1206
sg56
(lp1213
S'<socket._fileobject object at 0x03ECCE70>'
p1214
asbasbasbag49
(g65
g51
NtRp1215
(dp1216
g54
(dp1217
sg63
g423
sg56
(lp1218
g49
(g70
g51
NtRp1219
(dp1220
g54
(dp1221
g74
g75
ssg63
g1215
sg56
(lp1222
S'wsgi_multiprocess'
p1223
asbag49
(g70
g51
NtRp1224
(dp1225
g54
(dp1226
g81
g82
ssg63
g1215
sg56
(lp1227
S':'
asbag49
(g70
g51
NtRp1228
(dp1229
g54
(dp1230
sg63
g1215
sg56
(lp1231
g49
(g50
g51
NtRp1232
(dp1233
g54
(dp1234
g62
I4
ssg63
g1228
sg56
(lp1235
g92
asbasbasbag49
(g65
g51
NtRp1236
(dp1237
g54
(dp1238
sg63
g423
sg56
(lp1239
g49
(g70
g51
NtRp1240
(dp1241
g54
(dp1242
g74
g75
ssg63
g1236
sg56
(lp1243
S'wsgi_multithread'
p1244
asbag49
(g70
g51
NtRp1245
(dp1246
g54
(dp1247
g81
g82
ssg63
g1236
sg56
(lp1248
S':'
asbag49
(g70
g51
NtRp1249
(dp1250
g54
(dp1251
sg63
g1236
sg56
(lp1252
g49
(g50
g51
NtRp1253
(dp1254
g54
(dp1255
g62
I4
ssg63
g1249
sg56
(lp1256
g561
asbasbasbag49
(g65
g51
NtRp1257
(dp1258
g54
(dp1259
sg63
g423
sg56
(lp1260
g49
(g70
g51
NtRp1261
(dp1262
g54
(dp1263
g74
g75
ssg63
g1257
sg56
(lp1264
S'wsgi_run_once'
p1265
asbag49
(g70
g51
NtRp1266
(dp1267
g54
(dp1268
g81
g82
ssg63
g1257
sg56
(lp1269
S':'
asbag49
(g70
g51
NtRp1270
(dp1271
g54
(dp1272
sg63
g1257
sg56
(lp1273
g49
(g50
g51
NtRp1274
(dp1275
g54
(dp1276
g62
I4
ssg63
g1270
sg56
(lp1277
g92
asbasbasbag49
(g65
g51
NtRp1278
(dp1279
g54
(dp1280
sg63
g423
sg56
(lp1281
g49
(g70
g51
NtRp1282
(dp1283
g54
(dp1284
g74
g75
ssg63
g1278
sg56
(lp1285
S'wsgi_url_scheme'
p1286
asbag49
(g70
g51
NtRp1287
(dp1288
g54
(dp1289
g81
g82
ssg63
g1278
sg56
(lp1290
S':'
asbag49
(g70
g51
NtRp1291
(dp1292
g54
(dp1293
sg63
g1278
sg56
(lp1294
g49
(g50
g51
NtRp1295
(dp1296
g54
(dp1297
g62
I4
ssg63
g1291
sg56
(lp1298
S'http'
p1299
asbasbasbag49
(g65
g51
NtRp1300
(dp1301
g54
(dp1302
sg63
g423
sg56
(lp1303
g49
(g70
g51
NtRp1304
(dp1305
g54
(dp1306
g74
g75
ssg63
g1300
sg56
(lp1307
S'wsgi_version'
p1308
asbag49
(g70
g51
NtRp1309
(dp1310
g54
(dp1311
g81
g82
ssg63
g1300
sg56
(lp1312
S':'
asbag49
(g70
g51
NtRp1313
(dp1314
g54
(dp1315
sg63
g1300
sg56
(lp1316
g49
(g50
g51
NtRp1317
(dp1318
g54
(dp1319
g62
I4
ssg63
g1313
sg56
(lp1320
g49
(g58
g51
NtRp1321
(dp1322
g54
(dp1323
g62
I3
ssg63
Nsg56
(lp1324
g49
(g65
g51
NtRp1325
(dp1326
g54
(dp1327
sg63
g1321
sg56
(lp1328
g49
(g70
g51
NtRp1329
(dp1330
g54
(dp1331
sg63
g1325
sg56
(lp1332
g49
(g50
g51
NtRp1333
(dp1334
g54
(dp1335
g62
I3
ssg63
g1329
sg56
(lp1336
S'1'
asbasbasbag49
(g65
g51
NtRp1337
(dp1338
g54
(dp1339
sg63
g1321
sg56
(lp1340
g49
(g70
g51
NtRp1341
(dp1342
g54
(dp1343
sg63
g1337
sg56
(lp1344
g49
(g50
g51
NtRp1345
(dp1346
g54
(dp1347
g62
I3
ssg63
g1341
sg56
(lp1348
S'0'
asbasbasbasbasbasbasbasbasbasbasbag49
(g65
g51
NtRp1349
(dp1350
g54
(dp1351
sg63
g59
sg56
(lp1352
g49
(g70
g51
NtRp1353
(dp1354
g54
(dp1355
g74
g75
ssg63
g1349
sg56
(lp1356
S'extension'
p1357
asbag49
(g70
g51
NtRp1358
(dp1359
g54
(dp1360
g81
g82
ssg63
g1349
sg56
(lp1361
S':'
asbag49
(g70
g51
NtRp1362
(dp1363
g54
(dp1364
sg63
g1349
sg56
(lp1365
g49
(g50
g51
NtRp1366
(dp1367
g54
(dp1368
g62
I5
ssg63
g1362
sg56
(lp1369
S'html'
p1370
asbasbasbag49
(g65
g51
NtRp1371
(dp1372
g54
(dp1373
sg63
g59
sg56
(lp1374
g49
(g70
g51
NtRp1375
(dp1376
g54
(dp1377
g74
g75
ssg63
g1371
sg56
(lp1378
S'folder'
p1379
asbag49
(g70
g51
NtRp1380
(dp1381
g54
(dp1382
g81
g82
ssg63
g1371
sg56
(lp1383
S':'
asbag49
(g70
g51
NtRp1384
(dp1385
g54
(dp1386
sg63
g1371
sg56
(lp1387
g49
(g50
g51
NtRp1388
(dp1389
g54
(dp1390
g62
I5
ssg63
g1384
sg56
(lp1391
S'C:\\Users\\Bussiere\\Dropbox\\Projets\\Yuki\\web2py\\applications\\init\\'
p1392
asbasbasbag49
(g65
g51
NtRp1393
(dp1394
g54
(dp1395
sg63
g59
sg56
(lp1396
g49
(g70
g51
NtRp1397
(dp1398
g54
(dp1399
g74
g75
ssg63
g1393
sg56
(lp1400
S'function'
p1401
asbag49
(g70
g51
NtRp1402
(dp1403
g54
(dp1404
g81
g82
ssg63
g1393
sg56
(lp1405
S':'
asbag49
(g70
g51
NtRp1406
(dp1407
g54
(dp1408
sg63
g1393
sg56
(lp1409
g49
(g50
g51
NtRp1410
(dp1411
g54
(dp1412
g62
I5
ssg63
g1406
sg56
(lp1413
S'index'
p1414
asbasbasbag49
(g65
g51
NtRp1415
(dp1416
g54
(dp1417
sg63
g59
sg56
(lp1418
g49
(g70
g51
NtRp1419
(dp1420
g54
(dp1421
g74
g75
ssg63
g1415
sg56
(lp1422
S'get_vars'
p1423
asbag49
(g70
g51
NtRp1424
(dp1425
g54
(dp1426
g81
g82
ssg63
g1415
sg56
(lp1427
S':'
asbag49
(g70
g51
NtRp1428
(dp1429
g54
(dp1430
sg63
g1415
sg56
(lp1431
g49
(g50
g51
NtRp1432
(dp1433
g54
(dp1434
g62
I5
ssg63
g1428
sg56
(lp1435
g49
(g58
g51
NtRp1436
(dp1437
g54
(dp1438
g62
I4
ssg63
Nsg56
(lp1439
sbasbasbasbag49
(g65
g51
NtRp1440
(dp1441
g54
(dp1442
sg63
g59
sg56
(lp1443
g49
(g70
g51
NtRp1444
(dp1445
g54
(dp1446
g74
g75
ssg63
g1440
sg56
(lp1447
S'global_settings'
p1448
asbag49
(g70
g51
NtRp1449
(dp1450
g54
(dp1451
g81
g82
ssg63
g1440
sg56
(lp1452
S':'
asbag49
(g70
g51
NtRp1453
(dp1454
g54
(dp1455
sg63
g1440
sg56
(lp1456
g49
(g50
g51
NtRp1457
(dp1458
g54
(dp1459
g62
I5
ssg63
g1453
sg56
(lp1460
g49
(g58
g51
NtRp1461
(dp1462
g54
(dp1463
g62
I4
ssg63
Nsg56
(lp1464
g49
(g65
g51
NtRp1465
(dp1466
g54
(dp1467
sg63
g1461
sg56
(lp1468
g49
(g70
g51
NtRp1469
(dp1470
g54
(dp1471
g74
g75
ssg63
g1465
sg56
(lp1472
g435
asbag49
(g70
g51
NtRp1473
(dp1474
g54
(dp1475
g81
g82
ssg63
g1465
sg56
(lp1476
S':'
asbag49
(g70
g51
NtRp1477
(dp1478
g54
(dp1479
sg63
g1465
sg56
(lp1480
g49
(g50
g51
NtRp1481
(dp1482
g54
(dp1483
g62
I4
ssg63
g1477
sg56
(lp1484
S"set(['C:\\\\Users\\\\Bussiere\\\\Dropbox\\\\Projets\\\\Yuki\\\\web2py\\\\applications\\\\init\\\\', 'C:\\\\Users\\\\Bussiere\\\\Dropbox\\\\Projets\\\\Yuki\\\\web2py\\\\applications\\\\admin\\\\'])"
p1485
asbasbasbag49
(g65
g51
NtRp1486
(dp1487
g54
(dp1488
sg63
g1461
sg56
(lp1489
g49
(g70
g51
NtRp1490
(dp1491
g54
(dp1492
g74
g75
ssg63
g1486
sg56
(lp1493
g457
asbag49
(g70
g51
NtRp1494
(dp1495
g54
(dp1496
g81
g82
ssg63
g1486
sg56
(lp1497
S':'
asbag49
(g70
g51
NtRp1498
(dp1499
g54
(dp1500
sg63
g1486
sg56
(lp1501
g49
(g50
g51
NtRp1502
(dp1503
g54
(dp1504
g62
I4
ssg63
g1498
sg56
(lp1505
g470
asbasbasbag49
(g65
g51
NtRp1506
(dp1507
g54
(dp1508
sg63
g1461
sg56
(lp1509
g49
(g70
g51
NtRp1510
(dp1511
g54
(dp1512
g74
g75
ssg63
g1506
sg56
(lp1513
g479
asbag49
(g70
g51
NtRp1514
(dp1515
g54
(dp1516
g81
g82
ssg63
g1506
sg56
(lp1517
S':'
asbag49
(g70
g51
NtRp1518
(dp1519
g54
(dp1520
sg63
g1506
sg56
(lp1521
g49
(g50
g51
NtRp1522
(dp1523
g54
(dp1524
g62
I4
ssg63
g1518
sg56
(lp1525
g49
(g58
g51
NtRp1526
(dp1527
g54
(dp1528
g62
I3
ssg63
Nsg56
(lp1529
sbasbasbasbag49
(g65
g51
NtRp1530
(dp1531
g54
(dp1532
sg63
g1461
sg56
(lp1533
g49
(g70
g51
NtRp1534
(dp1535
g54
(dp1536
g74
g75
ssg63
g1530
sg56
(lp1537
g504
asbag49
(g70
g51
NtRp1538
(dp1539
g54
(dp1540
g81
g82
ssg63
g1530
sg56
(lp1541
S':'
asbag49
(g70
g51
NtRp1542
(dp1543
g54
(dp1544
sg63
g1530
sg56
(lp1545
g49
(g50
g51
NtRp1546
(dp1547
g54
(dp1548
g62
I4
ssg63
g1542
sg56
(lp1549
S"<Values at 0x3b54f58: {'verbose': False, 'ip': '127.0.0.1', 'shutdown_timeout': 5, 'taskbar': False, 'nocron': False, 'pid_filename': 'httpserver.pid', 'maxthreads': None, 'softcron': False, 'server_name': 'Batou', 'bpython': False, 'nogui': False, 'port': 8000, 'extcron': False, 'debuglevel': 30, 'test': None, 'folder': 'C:\\\\Users\\\\Bussiere\\\\Dropbox\\\\Projets\\\\Yuki\\\\web2py', 'config': '', 'import_models': False, 'winservice': '', 'shell': None, 'run': '', 'log_filename': 'httpserver.log', 'args': [''], 'socket_timeout': 5, 'ssl_ca_certificate': None, 'scheduler': None, 'profiler_filename': None, 'ssl_private_key': '', 'password': '<ask>', 'request_queue_size': 5, 'ssl_certificate': '', 'cronjob': False, 'numthreads': None, 'quiet': False, 'interfaces': None, 'minthreads': None, 'timeout': 10, 'plain': False, 'nobanner': False}>"
p1550
asbasbasbag49
(g65
g51
NtRp1551
(dp1552
g54
(dp1553
sg63
g1461
sg56
(lp1554
g49
(g70
g51
NtRp1555
(dp1556
g54
(dp1557
g74
g75
ssg63
g1551
sg56
(lp1558
g526
asbag49
(g70
g51
NtRp1559
(dp1560
g54
(dp1561
g81
g82
ssg63
g1551
sg56
(lp1562
S':'
asbag49
(g70
g51
NtRp1563
(dp1564
g54
(dp1565
sg63
g1551
sg56
(lp1566
g49
(g50
g51
NtRp1567
(dp1568
g54
(dp1569
g62
I4
ssg63
g1563
sg56
(lp1570
S'set([])'
p1571
asbasbasbag49
(g65
g51
NtRp1572
(dp1573
g54
(dp1574
sg63
g1461
sg56
(lp1575
g49
(g70
g51
NtRp1576
(dp1577
g54
(dp1578
g74
g75
ssg63
g1572
sg56
(lp1579
g548
asbag49
(g70
g51
NtRp1580
(dp1581
g54
(dp1582
g81
g82
ssg63
g1572
sg56
(lp1583
S':'
asbag49
(g70
g51
NtRp1584
(dp1585
g54
(dp1586
sg63
g1572
sg56
(lp1587
g49
(g50
g51
NtRp1588
(dp1589
g54
(dp1590
g62
I4
ssg63
g1584
sg56
(lp1591
g561
asbasbasbag49
(g65
g51
NtRp1592
(dp1593
g54
(dp1594
sg63
g1461
sg56
(lp1595
g49
(g70
g51
NtRp1596
(dp1597
g54
(dp1598
g74
g75
ssg63
g1592
sg56
(lp1599
g570
asbag49
(g70
g51
NtRp1600
(dp1601
g54
(dp1602
g81
g82
ssg63
g1592
sg56
(lp1603
S':'
asbag49
(g70
g51
NtRp1604
(dp1605
g54
(dp1606
sg63
g1592
sg56
(lp1607
g49
(g50
g51
NtRp1608
(dp1609
g54
(dp1610
g62
I4
ssg63
g1604
sg56
(lp1611
g583
asbasbasbag49
(g65
g51
NtRp1612
(dp1613
g54
(dp1614
sg63
g1461
sg56
(lp1615
g49
(g70
g51
NtRp1616
(dp1617
g54
(dp1618
g74
g75
ssg63
g1612
sg56
(lp1619
g768
asbag49
(g70
g51
NtRp1620
(dp1621
g54
(dp1622
g81
g82
ssg63
g1612
sg56
(lp1623
S':'
asbag49
(g70
g51
NtRp1624
(dp1625
g54
(dp1626
sg63
g1612
sg56
(lp1627
g49
(g50
g51
NtRp1628
(dp1629
g54
(dp1630
g62
I4
ssg63
g1624
sg56
(lp1631
g92
asbasbasbag49
(g65
g51
NtRp1632
(dp1633
g54
(dp1634
sg63
g1461
sg56
(lp1635
g49
(g70
g51
NtRp1636
(dp1637
g54
(dp1638
g74
g75
ssg63
g1632
sg56
(lp1639
g789
asbag49
(g70
g51
NtRp1640
(dp1641
g54
(dp1642
g81
g82
ssg63
g1632
sg56
(lp1643
S':'
asbag49
(g70
g51
NtRp1644
(dp1645
g54
(dp1646
sg63
g1632
sg56
(lp1647
g49
(g50
g51
NtRp1648
(dp1649
g54
(dp1650
g62
I4
ssg63
g1644
sg56
(lp1651
g92
asbasbasbag49
(g65
g51
NtRp1652
(dp1653
g54
(dp1654
sg63
g1461
sg56
(lp1655
g49
(g70
g51
NtRp1656
(dp1657
g54
(dp1658
g74
g75
ssg63
g1652
sg56
(lp1659
g1026
asbag49
(g70
g51
NtRp1660
(dp1661
g54
(dp1662
g81
g82
ssg63
g1652
sg56
(lp1663
S':'
asbag49
(g70
g51
NtRp1664
(dp1665
g54
(dp1666
sg63
g1652
sg56
(lp1667
g49
(g50
g51
NtRp1668
(dp1669
g54
(dp1670
g62
I4
ssg63
g1664
sg56
(lp1671
g1039
asbasbasbag49
(g65
g51
NtRp1672
(dp1673
g54
(dp1674
sg63
g1461
sg56
(lp1675
g49
(g70
g51
NtRp1676
(dp1677
g54
(dp1678
g74
g75
ssg63
g1672
sg56
(lp1679
g1069
asbag49
(g70
g51
NtRp1680
(dp1681
g54
(dp1682
g81
g82
ssg63
g1672
sg56
(lp1683
S':'
asbag49
(g70
g51
NtRp1684
(dp1685
g54
(dp1686
sg63
g1672
sg56
(lp1687
g49
(g50
g51
NtRp1688
(dp1689
g54
(dp1690
g62
I4
ssg63
g1684
sg56
(lp1691
g49
(g58
g51
NtRp1692
(dp1693
g54
(dp1694
g62
I3
ssg63
Nsg56
(lp1695
g49
(g65
g51
NtRp1696
(dp1697
g54
(dp1698
sg63
g1692
sg56
(lp1699
g49
(g70
g51
NtRp1700
(dp1701
g54
(dp1702
sg63
g1696
sg56
(lp1703
g49
(g50
g51
NtRp1704
(dp1705
g54
(dp1706
g62
I3
ssg63
g1700
sg56
(lp1707
S'1'
asbasbasbag49
(g65
g51
NtRp1708
(dp1709
g54
(dp1710
sg63
g1692
sg56
(lp1711
g49
(g70
g51
NtRp1712
(dp1713
g54
(dp1714
sg63
g1708
sg56
(lp1715
g49
(g50
g51
NtRp1716
(dp1717
g54
(dp1718
g62
I3
ssg63
g1712
sg56
(lp1719
S'99'
p1720
asbasbasbag49
(g65
g51
NtRp1721
(dp1722
g54
(dp1723
sg63
g1692
sg56
(lp1724
g49
(g70
g51
NtRp1725
(dp1726
g54
(dp1727
sg63
g1721
sg56
(lp1728
g49
(g50
g51
NtRp1729
(dp1730
g54
(dp1731
g62
I3
ssg63
g1725
sg56
(lp1732
S'7'
asbasbasbag49
(g65
g51
NtRp1733
(dp1734
g54
(dp1735
sg63
g1692
sg56
(lp1736
g49
(g70
g51
NtRp1737
(dp1738
g54
(dp1739
sg63
g1733
sg56
(lp1740
g49
(g50
g51
NtRp1741
(dp1742
g54
(dp1743
g62
I3
ssg63
g1737
sg56
(lp1744
S'datetime.datetime(2012, 3, 4, 22, 12, 8)'
p1745
asbasbasbag49
(g65
g51
NtRp1746
(dp1747
g54
(dp1748
sg63
g1692
sg56
(lp1749
g49
(g70
g51
NtRp1750
(dp1751
g54
(dp1752
sg63
g1746
sg56
(lp1753
g49
(g50
g51
NtRp1754
(dp1755
g54
(dp1756
g62
I3
ssg63
g1750
sg56
(lp1757
g1148
asbasbasbasbasbasbasbasbasbasbasbag49
(g65
g51
NtRp1758
(dp1759
g54
(dp1760
sg63
g59
sg56
(lp1761
g49
(g70
g51
NtRp1762
(dp1763
g54
(dp1764
g74
g75
ssg63
g1758
sg56
(lp1765
S'is_https'
p1766
asbag49
(g70
g51
NtRp1767
(dp1768
g54
(dp1769
g81
g82
ssg63
g1758
sg56
(lp1770
S':'
asbag49
(g70
g51
NtRp1771
(dp1772
g54
(dp1773
sg63
g1758
sg56
(lp1774
g49
(g50
g51
NtRp1775
(dp1776
g54
(dp1777
g62
I5
ssg63
g1771
sg56
(lp1778
g92
asbasbasbag49
(g65
g51
NtRp1779
(dp1780
g54
(dp1781
sg63
g59
sg56
(lp1782
g49
(g70
g51
NtRp1783
(dp1784
g54
(dp1785
g74
g75
ssg63
g1779
sg56
(lp1786
S'is_local'
p1787
asbag49
(g70
g51
NtRp1788
(dp1789
g54
(dp1790
g81
g82
ssg63
g1779
sg56
(lp1791
S':'
asbag49
(g70
g51
NtRp1792
(dp1793
g54
(dp1794
sg63
g1779
sg56
(lp1795
g49
(g50
g51
NtRp1796
(dp1797
g54
(dp1798
g62
I5
ssg63
g1792
sg56
(lp1799
g561
asbasbasbag49
(g65
g51
NtRp1800
(dp1801
g54
(dp1802
sg63
g59
sg56
(lp1803
g49
(g70
g51
NtRp1804
(dp1805
g54
(dp1806
g74
g75
ssg63
g1800
sg56
(lp1807
S'is_restful'
p1808
asbag49
(g70
g51
NtRp1809
(dp1810
g54
(dp1811
g81
g82
ssg63
g1800
sg56
(lp1812
S':'
asbag49
(g70
g51
NtRp1813
(dp1814
g54
(dp1815
sg63
g1800
sg56
(lp1816
g49
(g50
g51
NtRp1817
(dp1818
g54
(dp1819
g62
I5
ssg63
g1813
sg56
(lp1820
g92
asbasbasbag49
(g65
g51
NtRp1821
(dp1822
g54
(dp1823
sg63
g59
sg56
(lp1824
g49
(g70
g51
NtRp1825
(dp1826
g54
(dp1827
g74
g75
ssg63
g1821
sg56
(lp1828
S'now'
p1829
asbag49
(g70
g51
NtRp1830
(dp1831
g54
(dp1832
g81
g82
ssg63
g1821
sg56
(lp1833
S':'
asbag49
(g70
g51
NtRp1834
(dp1835
g54
(dp1836
sg63
g1821
sg56
(lp1837
g49
(g50
g51
NtRp1838
(dp1839
g54
(dp1840
g62
I5
ssg63
g1834
sg56
(lp1841
S'datetime.datetime(2012, 3, 11, 9, 55, 26, 687000)'
p1842
asbasbasbag49
(g65
g51
NtRp1843
(dp1844
g54
(dp1845
sg63
g59
sg56
(lp1846
g49
(g70
g51
NtRp1847
(dp1848
g54
(dp1849
g74
g75
ssg63
g1843
sg56
(lp1850
S'post_vars'
p1851
asbag49
(g70
g51
NtRp1852
(dp1853
g54
(dp1854
g81
g82
ssg63
g1843
sg56
(lp1855
S':'
asbag49
(g70
g51
NtRp1856
(dp1857
g54
(dp1858
sg63
g1843
sg56
(lp1859
g49
(g50
g51
NtRp1860
(dp1861
g54
(dp1862
g62
I5
ssg63
g1856
sg56
(lp1863
g49
(g58
g51
NtRp1864
(dp1865
g54
(dp1866
g62
I4
ssg63
Nsg56
(lp1867
sbasbasbasbag49
(g65
g51
NtRp1868
(dp1869
g54
(dp1870
sg63
g59
sg56
(lp1871
g49
(g70
g51
NtRp1872
(dp1873
g54
(dp1874
g74
g75
ssg63
g1868
sg56
(lp1875
S'url'
p1876
asbag49
(g70
g51
NtRp1877
(dp1878
g54
(dp1879
g81
g82
ssg63
g1868
sg56
(lp1880
S':'
asbag49
(g70
g51
NtRp1881
(dp1882
g54
(dp1883
sg63
g1868
sg56
(lp1884
g49
(g50
g51
NtRp1885
(dp1886
g54
(dp1887
g62
I5
ssg63
g1881
sg56
(lp1888
S'/init/default/index'
p1889
asbasbasbag49
(g65
g51
NtRp1890
(dp1891
g54
(dp1892
sg63
g59
sg56
(lp1893
g49
(g70
g51
NtRp1894
(dp1895
g54
(dp1896
g74
g75
ssg63
g1890
sg56
(lp1897
S'utcnow'
p1898
asbag49
(g70
g51
NtRp1899
(dp1900
g54
(dp1901
g81
g82
ssg63
g1890
sg56
(lp1902
S':'
asbag49
(g70
g51
NtRp1903
(dp1904
g54
(dp1905
sg63
g1890
sg56
(lp1906
g49
(g50
g51
NtRp1907
(dp1908
g54
(dp1909
g62
I5
ssg63
g1903
sg56
(lp1910
S'datetime.datetime(2012, 3, 11, 8, 55, 26, 687000)'
p1911
asbasbasbag49
(g65
g51
NtRp1912
(dp1913
g54
(dp1914
sg63
g59
sg56
(lp1915
g49
(g70
g51
NtRp1916
(dp1917
g54
(dp1918
g74
g75
ssg63
g1912
sg56
(lp1919
S'uuid'
p1920
asbag49
(g70
g51
NtRp1921
(dp1922
g54
(dp1923
g81
g82
ssg63
g1912
sg56
(lp1924
S':'
asbag49
(g70
g51
NtRp1925
(dp1926
g54
(dp1927
sg63
g1912
sg56
(lp1928
g49
(g50
g51
NtRp1929
(dp1930
g54
(dp1931
g62
I5
ssg63
g1925
sg56
(lp1932
S'init/127.0.0.1.2012-03-11.09-55-26.6690084a-31d3-47d9-820a-ad5a6d64247e'
p1933
asbasbasbag49
(g65
g51
NtRp1934
(dp1935
g54
(dp1936
sg63
g59
sg56
(lp1937
g49
(g70
g51
NtRp1938
(dp1939
g54
(dp1940
g74
g75
ssg63
g1934
sg56
(lp1941
S'vars'
p1942
asbag49
(g70
g51
NtRp1943
(dp1944
g54
(dp1945
g81
g82
ssg63
g1934
sg56
(lp1946
S':'
asbag49
(g70
g51
NtRp1947
(dp1948
g54
(dp1949
sg63
g1934
sg56
(lp1950
g49
(g50
g51
NtRp1951
(dp1952
g54
(dp1953
g62
I5
ssg63
g1947
sg56
(lp1954
g49
(g58
g51
NtRp1955
(dp1956
g54
(dp1957
g62
I4
ssg63
Nsg56
(lp1958
sbasbasbasbag49
(g65
g51
NtRp1959
(dp1960
g54
(dp1961
sg63
g59
sg56
(lp1962
g49
(g70
g51
NtRp1963
(dp1964
g54
(dp1965
g74
g75
ssg63
g1959
sg56
(lp1966
S'wsgi'
p1967
asbag49
(g70
g51
NtRp1968
(dp1969
g54
(dp1970
g81
g82
ssg63
g1959
sg56
(lp1971
S':'
asbag49
(g70
g51
NtRp1972
(dp1973
g54
(dp1974
sg63
g1959
sg56
(lp1975
g49
(g50
g51
NtRp1976
(dp1977
g54
(dp1978
g62
I5
ssg63
g1972
sg56
(lp1979
g49
(g58
g51
NtRp1980
(dp1981
g54
(dp1982
g62
I4
ssg63
Nsg56
(lp1983
g49
(g65
g51
NtRp1984
(dp1985
g54
(dp1986
sg63
g1980
sg56
(lp1987
g49
(g70
g51
NtRp1988
(dp1989
g54
(dp1990
g74
g75
ssg63
g1984
sg56
(lp1991
S'environ'
p1992
asbag49
(g70
g51
NtRp1993
(dp1994
g54
(dp1995
g81
g82
ssg63
g1984
sg56
(lp1996
S':'
asbag49
(g70
g51
NtRp1997
(dp1998
g54
(dp1999
sg63
g1984
sg56
(lp2000
g49
(g50
g51
NtRp2001
(dp2002
g54
(dp2003
g62
I4
ssg63
g1997
sg56
(lp2004
g49
(g58
g51
NtRp2005
(dp2006
g54
(dp2007
g62
I3
ssg63
Nsg56
(lp2008
g49
(g65
g51
NtRp2009
(dp2010
g54
(dp2011
sg63
g2005
sg56
(lp2012
g49
(g70
g51
NtRp2013
(dp2014
g54
(dp2015
g74
g75
ssg63
g2009
sg56
(lp2016
S'HTTP_ACCEPT'
p2017
asbag49
(g70
g51
NtRp2018
(dp2019
g54
(dp2020
g81
g82
ssg63
g2009
sg56
(lp2021
S':'
asbag49
(g70
g51
NtRp2022
(dp2023
g54
(dp2024
sg63
g2009
sg56
(lp2025
g49
(g50
g51
NtRp2026
(dp2027
g54
(dp2028
g62
I3
ssg63
g2022
sg56
(lp2029
g605
asbasbasbag49
(g65
g51
NtRp2030
(dp2031
g54
(dp2032
sg63
g2005
sg56
(lp2033
g49
(g70
g51
NtRp2034
(dp2035
g54
(dp2036
g74
g75
ssg63
g2030
sg56
(lp2037
S'HTTP_ACCEPT_CHARSET'
p2038
asbag49
(g70
g51
NtRp2039
(dp2040
g54
(dp2041
g81
g82
ssg63
g2030
sg56
(lp2042
S':'
asbag49
(g70
g51
NtRp2043
(dp2044
g54
(dp2045
sg63
g2030
sg56
(lp2046
g49
(g50
g51
NtRp2047
(dp2048
g54
(dp2049
g62
I3
ssg63
g2043
sg56
(lp2050
g627
asbasbasbag49
(g65
g51
NtRp2051
(dp2052
g54
(dp2053
sg63
g2005
sg56
(lp2054
g49
(g70
g51
NtRp2055
(dp2056
g54
(dp2057
g74
g75
ssg63
g2051
sg56
(lp2058
S'HTTP_ACCEPT_ENCODING'
p2059
asbag49
(g70
g51
NtRp2060
(dp2061
g54
(dp2062
g81
g82
ssg63
g2051
sg56
(lp2063
S':'
asbag49
(g70
g51
NtRp2064
(dp2065
g54
(dp2066
sg63
g2051
sg56
(lp2067
g49
(g50
g51
NtRp2068
(dp2069
g54
(dp2070
g62
I3
ssg63
g2064
sg56
(lp2071
g649
asbasbasbag49
(g65
g51
NtRp2072
(dp2073
g54
(dp2074
sg63
g2005
sg56
(lp2075
g49
(g70
g51
NtRp2076
(dp2077
g54
(dp2078
g74
g75
ssg63
g2072
sg56
(lp2079
S'HTTP_ACCEPT_LANGUAGE'
p2080
asbag49
(g70
g51
NtRp2081
(dp2082
g54
(dp2083
g81
g82
ssg63
g2072
sg56
(lp2084
S':'
asbag49
(g70
g51
NtRp2085
(dp2086
g54
(dp2087
sg63
g2072
sg56
(lp2088
g49
(g50
g51
NtRp2089
(dp2090
g54
(dp2091
g62
I3
ssg63
g2085
sg56
(lp2092
g671
asbasbasbag49
(g65
g51
NtRp2093
(dp2094
g54
(dp2095
sg63
g2005
sg56
(lp2096
g49
(g70
g51
NtRp2097
(dp2098
g54
(dp2099
g74
g75
ssg63
g2093
sg56
(lp2100
S'HTTP_CONNECTION'
p2101
asbag49
(g70
g51
NtRp2102
(dp2103
g54
(dp2104
g81
g82
ssg63
g2093
sg56
(lp2105
S':'
asbag49
(g70
g51
NtRp2106
(dp2107
g54
(dp2108
sg63
g2093
sg56
(lp2109
g49
(g50
g51
NtRp2110
(dp2111
g54
(dp2112
g62
I3
ssg63
g2106
sg56
(lp2113
g693
asbasbasbag49
(g65
g51
NtRp2114
(dp2115
g54
(dp2116
sg63
g2005
sg56
(lp2117
g49
(g70
g51
NtRp2118
(dp2119
g54
(dp2120
g74
g75
ssg63
g2114
sg56
(lp2121
S'HTTP_COOKIE'
p2122
asbag49
(g70
g51
NtRp2123
(dp2124
g54
(dp2125
g81
g82
ssg63
g2114
sg56
(lp2126
S':'
asbag49
(g70
g51
NtRp2127
(dp2128
g54
(dp2129
sg63
g2114
sg56
(lp2130
g49
(g50
g51
NtRp2131
(dp2132
g54
(dp2133
g62
I3
ssg63
g2127
sg56
(lp2134
g715
asbasbasbag49
(g65
g51
NtRp2135
(dp2136
g54
(dp2137
sg63
g2005
sg56
(lp2138
g49
(g70
g51
NtRp2139
(dp2140
g54
(dp2141
g74
g75
ssg63
g2135
sg56
(lp2142
S'HTTP_HOST'
p2143
asbag49
(g70
g51
NtRp2144
(dp2145
g54
(dp2146
g81
g82
ssg63
g2135
sg56
(lp2147
S':'
asbag49
(g70
g51
NtRp2148
(dp2149
g54
(dp2150
sg63
g2135
sg56
(lp2151
g49
(g50
g51
NtRp2152
(dp2153
g54
(dp2154
g62
I3
ssg63
g2148
sg56
(lp2155
g737
asbasbasbag49
(g65
g51
NtRp2156
(dp2157
g54
(dp2158
sg63
g2005
sg56
(lp2159
g49
(g70
g51
NtRp2160
(dp2161
g54
(dp2162
g74
g75
ssg63
g2156
sg56
(lp2163
S'HTTP_USER_AGENT'
p2164
asbag49
(g70
g51
NtRp2165
(dp2166
g54
(dp2167
g81
g82
ssg63
g2156
sg56
(lp2168
S':'
asbag49
(g70
g51
NtRp2169
(dp2170
g54
(dp2171
sg63
g2156
sg56
(lp2172
g49
(g50
g51
NtRp2173
(dp2174
g54
(dp2175
g62
I3
ssg63
g2169
sg56
(lp2176
g759
asbasbasbag49
(g65
g51
NtRp2177
(dp2178
g54
(dp2179
sg63
g2005
sg56
(lp2180
g49
(g70
g51
NtRp2181
(dp2182
g54
(dp2183
g74
g75
ssg63
g2177
sg56
(lp2184
S'PATH_INFO'
p2185
asbag49
(g70
g51
NtRp2186
(dp2187
g54
(dp2188
g81
g82
ssg63
g2177
sg56
(lp2189
S':'
asbag49
(g70
g51
NtRp2190
(dp2191
g54
(dp2192
sg63
g2177
sg56
(lp2193
g49
(g50
g51
NtRp2194
(dp2195
g54
(dp2196
g62
I3
ssg63
g2190
sg56
(lp2197
S'/'
asbasbasbag49
(g65
g51
NtRp2198
(dp2199
g54
(dp2200
sg63
g2005
sg56
(lp2201
g49
(g70
g51
NtRp2202
(dp2203
g54
(dp2204
g74
g75
ssg63
g2198
sg56
(lp2205
S'QUERY_STRING'
p2206
asbag49
(g70
g51
NtRp2207
(dp2208
g54
(dp2209
g81
g82
ssg63
g2198
sg56
(lp2210
S':'
asbag49
(g70
g51
NtRp2211
(dp2212
g54
(dp2213
sg63
g2198
sg56
(lp2214
g49
(g50
g51
NtRp2215
(dp2216
g54
(dp2217
g62
I3
ssg63
g2211
sg56
(lp2218
S''
asbasbasbag49
(g65
g51
NtRp2219
(dp2220
g54
(dp2221
sg63
g2005
sg56
(lp2222
g49
(g70
g51
NtRp2223
(dp2224
g54
(dp2225
g74
g75
ssg63
g2219
sg56
(lp2226
S'REMOTE_ADDR'
p2227
asbag49
(g70
g51
NtRp2228
(dp2229
g54
(dp2230
g81
g82
ssg63
g2219
sg56
(lp2231
S':'
asbag49
(g70
g51
NtRp2232
(dp2233
g54
(dp2234
sg63
g2219
sg56
(lp2235
g49
(g50
g51
NtRp2236
(dp2237
g54
(dp2238
g62
I3
ssg63
g2232
sg56
(lp2239
g182
asbasbasbag49
(g65
g51
NtRp2240
(dp2241
g54
(dp2242
sg63
g2005
sg56
(lp2243
g49
(g70
g51
NtRp2244
(dp2245
g54
(dp2246
g74
g75
ssg63
g2240
sg56
(lp2247
S'REMOTE_PORT'
p2248
asbag49
(g70
g51
NtRp2249
(dp2250
g54
(dp2251
g81
g82
ssg63
g2240
sg56
(lp2252
S':'
asbag49
(g70
g51
NtRp2253
(dp2254
g54
(dp2255
sg63
g2240
sg56
(lp2256
g49
(g50
g51
NtRp2257
(dp2258
g54
(dp2259
g62
I3
ssg63
g2253
sg56
(lp2260
g886
asbasbasbag49
(g65
g51
NtRp2261
(dp2262
g54
(dp2263
sg63
g2005
sg56
(lp2264
g49
(g70
g51
NtRp2265
(dp2266
g54
(dp2267
g74
g75
ssg63
g2261
sg56
(lp2268
S'REQUEST_METHOD'
p2269
asbag49
(g70
g51
NtRp2270
(dp2271
g54
(dp2272
g81
g82
ssg63
g2261
sg56
(lp2273
S':'
asbag49
(g70
g51
NtRp2274
(dp2275
g54
(dp2276
sg63
g2261
sg56
(lp2277
g49
(g50
g51
NtRp2278
(dp2279
g54
(dp2280
g62
I3
ssg63
g2274
sg56
(lp2281
g908
asbasbasbag49
(g65
g51
NtRp2282
(dp2283
g54
(dp2284
sg63
g2005
sg56
(lp2285
g49
(g70
g51
NtRp2286
(dp2287
g54
(dp2288
g74
g75
ssg63
g2282
sg56
(lp2289
S'SCRIPT_NAME'
p2290
asbag49
(g70
g51
NtRp2291
(dp2292
g54
(dp2293
g81
g82
ssg63
g2282
sg56
(lp2294
S':'
asbag49
(g70
g51
NtRp2295
(dp2296
g54
(dp2297
sg63
g2282
sg56
(lp2298
g49
(g50
g51
NtRp2299
(dp2300
g54
(dp2301
g62
I3
ssg63
g2295
sg56
(lp2302
S''
asbasbasbag49
(g65
g51
NtRp2303
(dp2304
g54
(dp2305
sg63
g2005
sg56
(lp2306
g49
(g70
g51
NtRp2307
(dp2308
g54
(dp2309
g74
g75
ssg63
g2303
sg56
(lp2310
S'SERVER_NAME'
p2311
asbag49
(g70
g51
NtRp2312
(dp2313
g54
(dp2314
g81
g82
ssg63
g2303
sg56
(lp2315
S':'
asbag49
(g70
g51
NtRp2316
(dp2317
g54
(dp2318
sg63
g2303
sg56
(lp2319
g49
(g50
g51
NtRp2320
(dp2321
g54
(dp2322
g62
I3
ssg63
g2316
sg56
(lp2323
g951
asbasbasbag49
(g65
g51
NtRp2324
(dp2325
g54
(dp2326
sg63
g2005
sg56
(lp2327
g49
(g70
g51
NtRp2328
(dp2329
g54
(dp2330
g74
g75
ssg63
g2324
sg56
(lp2331
S'SERVER_PORT'
p2332
asbag49
(g70
g51
NtRp2333
(dp2334
g54
(dp2335
g81
g82
ssg63
g2324
sg56
(lp2336
S':'
asbag49
(g70
g51
NtRp2337
(dp2338
g54
(dp2339
sg63
g2324
sg56
(lp2340
g49
(g50
g51
NtRp2341
(dp2342
g54
(dp2343
g62
I3
ssg63
g2337
sg56
(lp2344
g973
asbasbasbag49
(g65
g51
NtRp2345
(dp2346
g54
(dp2347
sg63
g2005
sg56
(lp2348
g49
(g70
g51
NtRp2349
(dp2350
g54
(dp2351
g74
g75
ssg63
g2345
sg56
(lp2352
S'SERVER_PROTOCOL'
p2353
asbag49
(g70
g51
NtRp2354
(dp2355
g54
(dp2356
g81
g82
ssg63
g2345
sg56
(lp2357
S':'
asbag49
(g70
g51
NtRp2358
(dp2359
g54
(dp2360
sg63
g2345
sg56
(lp2361
g49
(g50
g51
NtRp2362
(dp2363
g54
(dp2364
g62
I3
ssg63
g2358
sg56
(lp2365
g995
asbasbasbag49
(g65
g51
NtRp2366
(dp2367
g54
(dp2368
sg63
g2005
sg56
(lp2369
g49
(g70
g51
NtRp2370
(dp2371
g54
(dp2372
g74
g75
ssg63
g2366
sg56
(lp2373
S'SERVER_SOFTWARE'
p2374
asbag49
(g70
g51
NtRp2375
(dp2376
g54
(dp2377
g81
g82
ssg63
g2366
sg56
(lp2378
S':'
asbag49
(g70
g51
NtRp2379
(dp2380
g54
(dp2381
sg63
g2366
sg56
(lp2382
g49
(g50
g51
NtRp2383
(dp2384
g54
(dp2385
g62
I3
ssg63
g2379
sg56
(lp2386
g1017
asbasbasbag49
(g65
g51
NtRp2387
(dp2388
g54
(dp2389
sg63
g2005
sg56
(lp2390
g49
(g70
g51
NtRp2391
(dp2392
g54
(dp2393
g74
g75
ssg63
g2387
sg56
(lp2394
S'wsgi.errors'
p2395
asbag49
(g70
g51
NtRp2396
(dp2397
g54
(dp2398
g81
g82
ssg63
g2387
sg56
(lp2399
S':'
asbag49
(g70
g51
NtRp2400
(dp2401
g54
(dp2402
sg63
g2387
sg56
(lp2403
g49
(g50
g51
NtRp2404
(dp2405
g54
(dp2406
g62
I3
ssg63
g2400
sg56
(lp2407
S"<open file '<stderr>', mode 'w' at 0x006500B0>"
p2408
asbasbasbag49
(g65
g51
NtRp2409
(dp2410
g54
(dp2411
sg63
g2005
sg56
(lp2412
g49
(g70
g51
NtRp2413
(dp2414
g54
(dp2415
g74
g75
ssg63
g2409
sg56
(lp2416
S'wsgi.file_wrapper'
p2417
asbag49
(g70
g51
NtRp2418
(dp2419
g54
(dp2420
g81
g82
ssg63
g2409
sg56
(lp2421
S':'
asbag49
(g70
g51
NtRp2422
(dp2423
g54
(dp2424
sg63
g2409
sg56
(lp2425
g49
(g50
g51
NtRp2426
(dp2427
g54
(dp2428
g62
I3
ssg63
g2422
sg56
(lp2429
S'<class wsgiref.util.FileWrapper at 0x02BF68D0>'
p2430
asbasbasbag49
(g65
g51
NtRp2431
(dp2432
g54
(dp2433
sg63
g2005
sg56
(lp2434
g49
(g70
g51
NtRp2435
(dp2436
g54
(dp2437
g74
g75
ssg63
g2431
sg56
(lp2438
S'wsgi.input'
p2439
asbag49
(g70
g51
NtRp2440
(dp2441
g54
(dp2442
g81
g82
ssg63
g2431
sg56
(lp2443
S':'
asbag49
(g70
g51
NtRp2444
(dp2445
g54
(dp2446
sg63
g2431
sg56
(lp2447
g49
(g50
g51
NtRp2448
(dp2449
g54
(dp2450
g62
I3
ssg63
g2444
sg56
(lp2451
S'<cStringIO.StringO object at 0x03EF7EA0>'
p2452
asbasbasbag49
(g65
g51
NtRp2453
(dp2454
g54
(dp2455
sg63
g2005
sg56
(lp2456
g49
(g70
g51
NtRp2457
(dp2458
g54
(dp2459
g74
g75
ssg63
g2453
sg56
(lp2460
S'wsgi.multiprocess'
p2461
asbag49
(g70
g51
NtRp2462
(dp2463
g54
(dp2464
g81
g82
ssg63
g2453
sg56
(lp2465
S':'
asbag49
(g70
g51
NtRp2466
(dp2467
g54
(dp2468
sg63
g2453
sg56
(lp2469
g49
(g50
g51
NtRp2470
(dp2471
g54
(dp2472
g62
I3
ssg63
g2466
sg56
(lp2473
g92
asbasbasbag49
(g65
g51
NtRp2474
(dp2475
g54
(dp2476
sg63
g2005
sg56
(lp2477
g49
(g70
g51
NtRp2478
(dp2479
g54
(dp2480
g74
g75
ssg63
g2474
sg56
(lp2481
S'wsgi.multithread'
p2482
asbag49
(g70
g51
NtRp2483
(dp2484
g54
(dp2485
g81
g82
ssg63
g2474
sg56
(lp2486
S':'
asbag49
(g70
g51
NtRp2487
(dp2488
g54
(dp2489
sg63
g2474
sg56
(lp2490
g49
(g50
g51
NtRp2491
(dp2492
g54
(dp2493
g62
I3
ssg63
g2487
sg56
(lp2494
g561
asbasbasbag49
(g65
g51
NtRp2495
(dp2496
g54
(dp2497
sg63
g2005
sg56
(lp2498
g49
(g70
g51
NtRp2499
(dp2500
g54
(dp2501
g74
g75
ssg63
g2495
sg56
(lp2502
S'wsgi.run_once'
p2503
asbag49
(g70
g51
NtRp2504
(dp2505
g54
(dp2506
g81
g82
ssg63
g2495
sg56
(lp2507
S':'
asbag49
(g70
g51
NtRp2508
(dp2509
g54
(dp2510
sg63
g2495
sg56
(lp2511
g49
(g50
g51
NtRp2512
(dp2513
g54
(dp2514
g62
I3
ssg63
g2508
sg56
(lp2515
g92
asbasbasbag49
(g65
g51
NtRp2516
(dp2517
g54
(dp2518
sg63
g2005
sg56
(lp2519
g49
(g70
g51
NtRp2520
(dp2521
g54
(dp2522
g74
g75
ssg63
g2516
sg56
(lp2523
S'wsgi.url_scheme'
p2524
asbag49
(g70
g51
NtRp2525
(dp2526
g54
(dp2527
g81
g82
ssg63
g2516
sg56
(lp2528
S':'
asbag49
(g70
g51
NtRp2529
(dp2530
g54
(dp2531
sg63
g2516
sg56
(lp2532
g49
(g50
g51
NtRp2533
(dp2534
g54
(dp2535
g62
I3
ssg63
g2529
sg56
(lp2536
g1299
asbasbasbag49
(g65
g51
NtRp2537
(dp2538
g54
(dp2539
sg63
g2005
sg56
(lp2540
g49
(g70
g51
NtRp2541
(dp2542
g54
(dp2543
g74
g75
ssg63
g2537
sg56
(lp2544
S'wsgi.version'
p2545
asbag49
(g70
g51
NtRp2546
(dp2547
g54
(dp2548
g81
g82
ssg63
g2537
sg56
(lp2549
S':'
asbag49
(g70
g51
NtRp2550
(dp2551
g54
(dp2552
sg63
g2537
sg56
(lp2553
g49
(g50
g51
NtRp2554
(dp2555
g54
(dp2556
g62
I3
ssg63
g2550
sg56
(lp2557
S'1'
asbasbasbasbasbasbasbasbasbasbasbasbasbsS'frames'
p2558
(lp2559
(dp2560
S'file'
p2561
S'C:\\Users\\Bussiere\\Dropbox\\Projets\\Yuki\\web2py\\gluon\\restricted.py'
p2562
sS'dump'
p2563
(dp2564
sS'lnum'
p2565
I205
sS'lines'
p2566
(dp2567
I200
S'    try:'
p2568
sI201
S'        if type(code) == types.CodeType:'
p2569
sI202
S'            ccode = code'
p2570
sI203
S'        else:'
p2571
sI204
S'            ccode = compile2(code,layer)'
p2572
sI205
S'        exec ccode in environment'
p2573
sI206
S'    except HTTP:'
p2574
sI207
S'        raise'
p2575
sI208
S'    except RestrictedError:'
p2576
sI209
S'        # do not encapsulate (obfuscate) the original RestrictedError'
p2577
ssS'call'
p2578
S"(code='# -*- coding: utf-8 -*-\\n\\n#######################...################################################\\n', environment={'A': <class 'gluon.html.A'>, 'B': <class 'gluon.html.B'>, 'BEAUTIFY': <class 'gluon.html.BEAUTIFY'>, 'BODY': <class 'gluon.html.BODY'>, 'BR': <class 'gluon.html.BR'>, 'BUTTON': <class 'gluon.html.BUTTON'>, 'CAT': <class 'gluon.html.CAT'>, 'CENTER': <class 'gluon.html.CENTER'>, 'CLEANUP': <class 'gluon.validators.CLEANUP'>, 'CODE': <class 'gluon.html.CODE'>, ...}, layer=r'C:\\Users\\Bussiere\\Dropbox\\Projets\\Yuki\\web2py\\applications\\init\\models\\db.py')"
p2579
sS'func'
p2580
S'restricted'
p2581
sa(dp2582
g2561
S'C:\\Users\\Bussiere\\Dropbox\\Projets\\Yuki\\web2py\\applications\\init\\models\\db.py'
p2583
sg2563
(dp2584
sg2565
I42
sg2566
(dp2585
I37
S''
sI38
S"db.define_table('Comment',"
p2586
sI39
S"   Field('Name', unique=True),"
p2587
sI40
S"   Field('Texte'),"
p2588
sI41
S"   Field('Vote', 'integer'),"
p2589
sI42
S"   Field('auth_user',db.auth_user),"
p2590
sI43
S"   format = '%(Name)s')"
p2591
sI44
S''
sI45
S''
sI46
S"db.define_table('Convention',"
p2592
ssg2578
S'()'
p2593
sg2580
S'<module>'
p2594
sa(dp2595
g2561
S'C:\\Users\\Bussiere\\Dropbox\\Projets\\Yuki\\web2py\\gluon\\dal.py'
p2596
sg2563
(dp2597
sg2565
I6343
sg2566
(dp2598
I6338
S''
sI6339
S'    def __setitem__(self, key, value):'
p2599
sI6340
S'        dict.__setitem__(self, str(key), value)'
p2600
sI6341
S''
sI6342
S'    def __getattr__(self, key):'
p2601
sI6343
S'        return self[key]'
p2602
sI6344
S''
sI6345
S'    def __setattr__(self, key, value):'
p2603
sI6346
S"        if key[:1]!='_' and key in self:"
p2604
sI6347
S'            raise SyntaxError, \\'
p2605
ssg2578
S"(self=<DAL {'_migrate_enabled': True, '_lastsql': 'ALT...'_uri_hash': 'c8b669d15150d7109e5f7ab36744a5b7'}>, key='auth_user')"
p2606
sg2580
S'__getattr__'
p2607
sa(dp2608
g2561
S'C:\\Users\\Bussiere\\Dropbox\\Projets\\Yuki\\web2py\\gluon\\dal.py'
p2609
sg2563
(dp2610
sg2565
I6337
sg2566
(dp2611
I6336
S'    def __getitem__(self, key):'
p2612
sI6337
S'        return dict.__getitem__(self, str(key))'
p2613
sI6338
S''
sI6339
S'    def __setitem__(self, key, value):'
p2614
sI6340
S'        dict.__setitem__(self, str(key), value)'
p2615
sI6341
S''
sI6332
S'    def __iter__(self):'
p2616
sI6333
S'        for tablename in self.tables:'
p2617
sI6334
S'            yield self[tablename]'
p2618
sI6335
S''
ssg2578
S"(self=<DAL {'_migrate_enabled': True, '_lastsql': 'ALT...'_uri_hash': 'c8b669d15150d7109e5f7ab36744a5b7'}>, key='auth_user')"
p2619
sg2580
g20
sasS'pyver'
p2620
S'Python 2.5.4: C:\\Users\\Bussiere\\Dropbox\\Projets\\Yuki\\web2py\\web2py.exe'
p2621
sS'session'
p2622
g49
(g50
g51
NtRp2623
(dp2624
g54
(dp2625
sg56
(lp2626
g49
(g58
g51
NtRp2627
(dp2628
g54
(dp2629
g62
I5
ssg63
Nsg56
(lp2630
sbasbsS'etype'
p2631
S"<type 'exceptions.KeyError'>"
p2632
sS'date'
p2633
S'Sun Mar 11 09:55:26 2012'
p2634
sS'response'
p2635
g49
(g50
g51
NtRp2636
(dp2637
g54
(dp2638
sg56
(lp2639
g49
(g58
g51
NtRp2640
(dp2641
g54
(dp2642
g62
I5
ssg63
Nsg56
(lp2643
g49
(g65
g51
NtRp2644
(dp2645
g54
(dp2646
sg63
g2640
sg56
(lp2647
g49
(g70
g51
NtRp2648
(dp2649
g54
(dp2650
g74
g75
ssg63
g2644
sg56
(lp2651
g147
asbag49
(g70
g51
NtRp2652
(dp2653
g54
(dp2654
g81
g82
ssg63
g2644
sg56
(lp2655
S':'
asbag49
(g70
g51
NtRp2656
(dp2657
g54
(dp2658
sg63
g2644
sg56
(lp2659
g49
(g50
g51
NtRp2660
(dp2661
g54
(dp2662
g62
I5
ssg63
g2656
sg56
(lp2663
S'<cStringIO.StringO object at 0x03FB0680>'
p2664
asbasbasbag49
(g65
g51
NtRp2665
(dp2666
g54
(dp2667
sg63
g2640
sg56
(lp2668
g49
(g70
g51
NtRp2669
(dp2670
g54
(dp2671
g74
g75
ssg63
g2665
sg56
(lp2672
g213
asbag49
(g70
g51
NtRp2673
(dp2674
g54
(dp2675
g81
g82
ssg63
g2665
sg56
(lp2676
S':'
asbag49
(g70
g51
NtRp2677
(dp2678
g54
(dp2679
sg63
g2665
sg56
(lp2680
g49
(g50
g51
NtRp2681
(dp2682
g54
(dp2683
g62
I5
ssg63
g2677
sg56
(lp2684
g49
(g58
g51
NtRp2685
(dp2686
g54
(dp2687
g62
I4
ssg63
Nsg56
(lp2688
g49
(g65
g51
NtRp2689
(dp2690
g54
(dp2691
sg63
g2685
sg56
(lp2692
g49
(g70
g51
NtRp2693
(dp2694
g54
(dp2695
g74
g75
ssg63
g2689
sg56
(lp2696
S'session_id_init'
p2697
asbag49
(g70
g51
NtRp2698
(dp2699
g54
(dp2700
g81
g82
ssg63
g2689
sg56
(lp2701
S':'
asbag49
(g70
g51
NtRp2702
(dp2703
g54
(dp2704
sg63
g2689
sg56
(lp2705
g49
(g50
g51
NtRp2706
(dp2707
g54
(dp2708
g62
I4
ssg63
g2702
sg56
(lp2709
g49
(g58
g51
NtRp2710
(dp2711
g54
(dp2712
g62
I3
ssg63
Nsg56
(lp2713
g49
(g65
g51
NtRp2714
(dp2715
g54
(dp2716
sg63
g2710
sg56
(lp2717
g49
(g70
g51
NtRp2718
(dp2719
g54
(dp2720
g74
g75
ssg63
g2714
sg56
(lp2721
g263
asbag49
(g70
g51
NtRp2722
(dp2723
g54
(dp2724
g81
g82
ssg63
g2714
sg56
(lp2725
S':'
asbag49
(g70
g51
NtRp2726
(dp2727
g54
(dp2728
sg63
g2714
sg56
(lp2729
g49
(g50
g51
NtRp2730
(dp2731
g54
(dp2732
g62
I3
ssg63
g2726
sg56
(lp2733
S''
asbasbasbag49
(g65
g51
NtRp2734
(dp2735
g54
(dp2736
sg63
g2710
sg56
(lp2737
g49
(g70
g51
NtRp2738
(dp2739
g54
(dp2740
g74
g75
ssg63
g2734
sg56
(lp2741
g284
asbag49
(g70
g51
NtRp2742
(dp2743
g54
(dp2744
g81
g82
ssg63
g2734
sg56
(lp2745
S':'
asbag49
(g70
g51
NtRp2746
(dp2747
g54
(dp2748
sg63
g2734
sg56
(lp2749
g49
(g50
g51
NtRp2750
(dp2751
g54
(dp2752
g62
I3
ssg63
g2746
sg56
(lp2753
S''
asbasbasbag49
(g65
g51
NtRp2754
(dp2755
g54
(dp2756
sg63
g2710
sg56
(lp2757
g49
(g70
g51
NtRp2758
(dp2759
g54
(dp2760
g74
g75
ssg63
g2754
sg56
(lp2761
g305
asbag49
(g70
g51
NtRp2762
(dp2763
g54
(dp2764
g81
g82
ssg63
g2754
sg56
(lp2765
S':'
asbag49
(g70
g51
NtRp2766
(dp2767
g54
(dp2768
sg63
g2754
sg56
(lp2769
g49
(g50
g51
NtRp2770
(dp2771
g54
(dp2772
g62
I3
ssg63
g2766
sg56
(lp2773
S''
asbasbasbag49
(g65
g51
NtRp2774
(dp2775
g54
(dp2776
sg63
g2710
sg56
(lp2777
g49
(g70
g51
NtRp2778
(dp2779
g54
(dp2780
g74
g75
ssg63
g2774
sg56
(lp2781
g326
asbag49
(g70
g51
NtRp2782
(dp2783
g54
(dp2784
g81
g82
ssg63
g2774
sg56
(lp2785
S':'
asbag49
(g70
g51
NtRp2786
(dp2787
g54
(dp2788
sg63
g2774
sg56
(lp2789
g49
(g50
g51
NtRp2790
(dp2791
g54
(dp2792
g62
I3
ssg63
g2786
sg56
(lp2793
S''
asbasbasbag49
(g65
g51
NtRp2794
(dp2795
g54
(dp2796
sg63
g2710
sg56
(lp2797
g49
(g70
g51
NtRp2798
(dp2799
g54
(dp2800
g74
g75
ssg63
g2794
sg56
(lp2801
g347
asbag49
(g70
g51
NtRp2802
(dp2803
g54
(dp2804
g81
g82
ssg63
g2794
sg56
(lp2805
S':'
asbag49
(g70
g51
NtRp2806
(dp2807
g54
(dp2808
sg63
g2794
sg56
(lp2809
g49
(g50
g51
NtRp2810
(dp2811
g54
(dp2812
g62
I3
ssg63
g2806
sg56
(lp2813
S'/'
asbasbasbag49
(g65
g51
NtRp2814
(dp2815
g54
(dp2816
sg63
g2710
sg56
(lp2817
g49
(g70
g51
NtRp2818
(dp2819
g54
(dp2820
g74
g75
ssg63
g2814
sg56
(lp2821
g368
asbag49
(g70
g51
NtRp2822
(dp2823
g54
(dp2824
g81
g82
ssg63
g2814
sg56
(lp2825
S':'
asbag49
(g70
g51
NtRp2826
(dp2827
g54
(dp2828
sg63
g2814
sg56
(lp2829
g49
(g50
g51
NtRp2830
(dp2831
g54
(dp2832
g62
I3
ssg63
g2826
sg56
(lp2833
S''
asbasbasbag49
(g65
g51
NtRp2834
(dp2835
g54
(dp2836
sg63
g2710
sg56
(lp2837
g49
(g70
g51
NtRp2838
(dp2839
g54
(dp2840
g74
g75
ssg63
g2834
sg56
(lp2841
g389
asbag49
(g70
g51
NtRp2842
(dp2843
g54
(dp2844
g81
g82
ssg63
g2834
sg56
(lp2845
S':'
asbag49
(g70
g51
NtRp2846
(dp2847
g54
(dp2848
sg63
g2834
sg56
(lp2849
g49
(g50
g51
NtRp2850
(dp2851
g54
(dp2852
g62
I3
ssg63
g2846
sg56
(lp2853
S''
asbasbasbasbasbasbasbasbasbasbasbag49
(g65
g51
NtRp2854
(dp2855
g54
(dp2856
sg63
g2640
sg56
(lp2857
g49
(g70
g51
NtRp2858
(dp2859
g54
(dp2860
g74
g75
ssg63
g2854
sg56
(lp2861
S'delimiters'
p2862
asbag49
(g70
g51
NtRp2863
(dp2864
g54
(dp2865
g81
g82
ssg63
g2854
sg56
(lp2866
S':'
asbag49
(g70
g51
NtRp2867
(dp2868
g54
(dp2869
sg63
g2854
sg56
(lp2870
g49
(g50
g51
NtRp2871
(dp2872
g54
(dp2873
g62
I5
ssg63
g2867
sg56
(lp2874
g49
(g58
g51
NtRp2875
(dp2876
g54
(dp2877
g62
I4
ssg63
Nsg56
(lp2878
g49
(g65
g51
NtRp2879
(dp2880
g54
(dp2881
sg63
g2875
sg56
(lp2882
g49
(g70
g51
NtRp2883
(dp2884
g54
(dp2885
sg63
g2879
sg56
(lp2886
g49
(g50
g51
NtRp2887
(dp2888
g54
(dp2889
g62
I4
ssg63
g2883
sg56
(lp2890
S'{{'
p2891
asbasbasbag49
(g65
g51
NtRp2892
(dp2893
g54
(dp2894
sg63
g2875
sg56
(lp2895
g49
(g70
g51
NtRp2896
(dp2897
g54
(dp2898
sg63
g2892
sg56
(lp2899
g49
(g50
g51
NtRp2900
(dp2901
g54
(dp2902
g62
I4
ssg63
g2896
sg56
(lp2903
S'}}'
p2904
asbasbasbasbasbasbasbag49
(g65
g51
NtRp2905
(dp2906
g54
(dp2907
sg63
g2640
sg56
(lp2908
g49
(g70
g51
NtRp2909
(dp2910
g54
(dp2911
g74
g75
ssg63
g2905
sg56
(lp2912
S'files'
p2913
asbag49
(g70
g51
NtRp2914
(dp2915
g54
(dp2916
g81
g82
ssg63
g2905
sg56
(lp2917
S':'
asbag49
(g70
g51
NtRp2918
(dp2919
g54
(dp2920
sg63
g2905
sg56
(lp2921
g49
(g50
g51
NtRp2922
(dp2923
g54
(dp2924
g62
I5
ssg63
g2918
sg56
(lp2925
g49
(g58
g51
NtRp2926
(dp2927
g54
(dp2928
g62
I4
ssg63
Nsg56
(lp2929
sbasbasbasbag49
(g65
g51
NtRp2930
(dp2931
g54
(dp2932
sg63
g2640
sg56
(lp2933
g49
(g70
g51
NtRp2934
(dp2935
g54
(dp2936
g74
g75
ssg63
g2930
sg56
(lp2937
S'flash'
p2938
asbag49
(g70
g51
NtRp2939
(dp2940
g54
(dp2941
g81
g82
ssg63
g2930
sg56
(lp2942
S':'
asbag49
(g70
g51
NtRp2943
(dp2944
g54
(dp2945
sg63
g2930
sg56
(lp2946
g49
(g50
g51
NtRp2947
(dp2948
g54
(dp2949
g62
I5
ssg63
g2943
sg56
(lp2950
S''
asbasbasbag49
(g65
g51
NtRp2951
(dp2952
g54
(dp2953
sg63
g2640
sg56
(lp2954
g49
(g70
g51
NtRp2955
(dp2956
g54
(dp2957
g74
g75
ssg63
g2951
sg56
(lp2958
S'generic_patterns'
p2959
asbag49
(g70
g51
NtRp2960
(dp2961
g54
(dp2962
g81
g82
ssg63
g2951
sg56
(lp2963
S':'
asbag49
(g70
g51
NtRp2964
(dp2965
g54
(dp2966
sg63
g2951
sg56
(lp2967
g49
(g50
g51
NtRp2968
(dp2969
g54
(dp2970
g62
I5
ssg63
g2964
sg56
(lp2971
g49
(g58
g51
NtRp2972
(dp2973
g54
(dp2974
g62
I4
ssg63
Nsg56
(lp2975
sbasbasbasbag49
(g65
g51
NtRp2976
(dp2977
g54
(dp2978
sg63
g2640
sg56
(lp2979
g49
(g70
g51
NtRp2980
(dp2981
g54
(dp2982
g74
g75
ssg63
g2976
sg56
(lp2983
S'headers'
p2984
asbag49
(g70
g51
NtRp2985
(dp2986
g54
(dp2987
g81
g82
ssg63
g2976
sg56
(lp2988
S':'
asbag49
(g70
g51
NtRp2989
(dp2990
g54
(dp2991
sg63
g2976
sg56
(lp2992
g49
(g50
g51
NtRp2993
(dp2994
g54
(dp2995
g62
I5
ssg63
g2989
sg56
(lp2996
g49
(g58
g51
NtRp2997
(dp2998
g54
(dp2999
g62
I4
ssg63
Nsg56
(lp3000
g49
(g65
g51
NtRp3001
(dp3002
g54
(dp3003
sg63
g2997
sg56
(lp3004
g49
(g70
g51
NtRp3005
(dp3006
g54
(dp3007
g74
g75
ssg63
g3001
sg56
(lp3008
S'Cache-Control'
p3009
asbag49
(g70
g51
NtRp3010
(dp3011
g54
(dp3012
g81
g82
ssg63
g3001
sg56
(lp3013
S':'
asbag49
(g70
g51
NtRp3014
(dp3015
g54
(dp3016
sg63
g3001
sg56
(lp3017
g49
(g50
g51
NtRp3018
(dp3019
g54
(dp3020
g62
I4
ssg63
g3014
sg56
(lp3021
S'no-store, no-cache, must-revalidate, post-check=0, pre-check=0'
p3022
asbasbasbag49
(g65
g51
NtRp3023
(dp3024
g54
(dp3025
sg63
g2997
sg56
(lp3026
g49
(g70
g51
NtRp3027
(dp3028
g54
(dp3029
g74
g75
ssg63
g3023
sg56
(lp3030
S'Content-Type'
p3031
asbag49
(g70
g51
NtRp3032
(dp3033
g54
(dp3034
g81
g82
ssg63
g3023
sg56
(lp3035
S':'
asbag49
(g70
g51
NtRp3036
(dp3037
g54
(dp3038
sg63
g3023
sg56
(lp3039
g49
(g50
g51
NtRp3040
(dp3041
g54
(dp3042
g62
I4
ssg63
g3036
sg56
(lp3043
S'text/html; charset=utf-8'
p3044
asbasbasbag49
(g65
g51
NtRp3045
(dp3046
g54
(dp3047
sg63
g2997
sg56
(lp3048
g49
(g70
g51
NtRp3049
(dp3050
g54
(dp3051
g74
g75
ssg63
g3045
sg56
(lp3052
S'Expires'
p3053
asbag49
(g70
g51
NtRp3054
(dp3055
g54
(dp3056
g81
g82
ssg63
g3045
sg56
(lp3057
S':'
asbag49
(g70
g51
NtRp3058
(dp3059
g54
(dp3060
sg63
g3045
sg56
(lp3061
g49
(g50
g51
NtRp3062
(dp3063
g54
(dp3064
g62
I4
ssg63
g3058
sg56
(lp3065
S'Sun, 11 Mar 2012 08:55:26 GMT'
p3066
asbasbasbag49
(g65
g51
NtRp3067
(dp3068
g54
(dp3069
sg63
g2997
sg56
(lp3070
g49
(g70
g51
NtRp3071
(dp3072
g54
(dp3073
g74
g75
ssg63
g3067
sg56
(lp3074
S'Pragma'
p3075
asbag49
(g70
g51
NtRp3076
(dp3077
g54
(dp3078
g81
g82
ssg63
g3067
sg56
(lp3079
S':'
asbag49
(g70
g51
NtRp3080
(dp3081
g54
(dp3082
sg63
g3067
sg56
(lp3083
g49
(g50
g51
NtRp3084
(dp3085
g54
(dp3086
g62
I4
ssg63
g3080
sg56
(lp3087
S'no-cache'
p3088
asbasbasbag49
(g65
g51
NtRp3089
(dp3090
g54
(dp3091
sg63
g2997
sg56
(lp3092
g49
(g70
g51
NtRp3093
(dp3094
g54
(dp3095
g74
g75
ssg63
g3089
sg56
(lp3096
S'X-Powered-By'
p3097
asbag49
(g70
g51
NtRp3098
(dp3099
g54
(dp3100
g81
g82
ssg63
g3089
sg56
(lp3101
S':'
asbag49
(g70
g51
NtRp3102
(dp3103
g54
(dp3104
sg63
g3089
sg56
(lp3105
g49
(g50
g51
NtRp3106
(dp3107
g54
(dp3108
g62
I4
ssg63
g3102
sg56
(lp3109
S'web2py'
p3110
asbasbasbasbasbasbasbag49
(g65
g51
NtRp3111
(dp3112
g54
(dp3113
sg63
g2640
sg56
(lp3114
g49
(g70
g51
NtRp3115
(dp3116
g54
(dp3117
g74
g75
ssg63
g3111
sg56
(lp3118
S'menu'
p3119
asbag49
(g70
g51
NtRp3120
(dp3121
g54
(dp3122
g81
g82
ssg63
g3111
sg56
(lp3123
S':'
asbag49
(g70
g51
NtRp3124
(dp3125
g54
(dp3126
sg63
g3111
sg56
(lp3127
g49
(g50
g51
NtRp3128
(dp3129
g54
(dp3130
g62
I5
ssg63
g3124
sg56
(lp3131
g49
(g58
g51
NtRp3132
(dp3133
g54
(dp3134
g62
I4
ssg63
Nsg56
(lp3135
sbasbasbasbag49
(g65
g51
NtRp3136
(dp3137
g54
(dp3138
sg63
g2640
sg56
(lp3139
g49
(g70
g51
NtRp3140
(dp3141
g54
(dp3142
g74
g75
ssg63
g3136
sg56
(lp3143
S'meta'
p3144
asbag49
(g70
g51
NtRp3145
(dp3146
g54
(dp3147
g81
g82
ssg63
g3136
sg56
(lp3148
S':'
asbag49
(g70
g51
NtRp3149
(dp3150
g54
(dp3151
sg63
g3136
sg56
(lp3152
g49
(g50
g51
NtRp3153
(dp3154
g54
(dp3155
g62
I5
ssg63
g3149
sg56
(lp3156
g49
(g58
g51
NtRp3157
(dp3158
g54
(dp3159
g62
I4
ssg63
Nsg56
(lp3160
sbasbasbasbag49
(g65
g51
NtRp3161
(dp3162
g54
(dp3163
sg63
g2640
sg56
(lp3164
g49
(g70
g51
NtRp3165
(dp3166
g54
(dp3167
g74
g75
ssg63
g3161
sg56
(lp3168
S'postprocessing'
p3169
asbag49
(g70
g51
NtRp3170
(dp3171
g54
(dp3172
g81
g82
ssg63
g3161
sg56
(lp3173
S':'
asbag49
(g70
g51
NtRp3174
(dp3175
g54
(dp3176
sg63
g3161
sg56
(lp3177
g49
(g50
g51
NtRp3178
(dp3179
g54
(dp3180
g62
I5
ssg63
g3174
sg56
(lp3181
g49
(g58
g51
NtRp3182
(dp3183
g54
(dp3184
g62
I4
ssg63
Nsg56
(lp3185
sbasbasbasbag49
(g65
g51
NtRp3186
(dp3187
g54
(dp3188
sg63
g2640
sg56
(lp3189
g49
(g70
g51
NtRp3190
(dp3191
g54
(dp3192
g74
g75
ssg63
g3186
sg56
(lp3193
S'session_filename'
p3194
asbag49
(g70
g51
NtRp3195
(dp3196
g54
(dp3197
g81
g82
ssg63
g3186
sg56
(lp3198
S':'
asbag49
(g70
g51
NtRp3199
(dp3200
g54
(dp3201
sg63
g3186
sg56
(lp3202
g49
(g50
g51
NtRp3203
(dp3204
g54
(dp3205
g62
I5
ssg63
g3199
sg56
(lp3206
S'C:\\Users\\Bussiere\\Dropbox\\Projets\\Yuki\\web2py\\applications\\init\\sessions\\127.0.0.1-58a4dadc-da29-4dd2-bea0-5e402bfb8b4c'
p3207
asbasbasbag49
(g65
g51
NtRp3208
(dp3209
g54
(dp3210
sg63
g2640
sg56
(lp3211
g49
(g70
g51
NtRp3212
(dp3213
g54
(dp3214
g74
g75
ssg63
g3208
sg56
(lp3215
S'session_id'
p3216
asbag49
(g70
g51
NtRp3217
(dp3218
g54
(dp3219
g81
g82
ssg63
g3208
sg56
(lp3220
S':'
asbag49
(g70
g51
NtRp3221
(dp3222
g54
(dp3223
sg63
g3208
sg56
(lp3224
g49
(g50
g51
NtRp3225
(dp3226
g54
(dp3227
g62
I5
ssg63
g3221
sg56
(lp3228
S'127.0.0.1-58a4dadc-da29-4dd2-bea0-5e402bfb8b4c'
p3229
asbasbasbag49
(g65
g51
NtRp3230
(dp3231
g54
(dp3232
sg63
g2640
sg56
(lp3233
g49
(g70
g51
NtRp3234
(dp3235
g54
(dp3236
g74
g75
ssg63
g3230
sg56
(lp3237
S'session_id_name'
p3238
asbag49
(g70
g51
NtRp3239
(dp3240
g54
(dp3241
g81
g82
ssg63
g3230
sg56
(lp3242
S':'
asbag49
(g70
g51
NtRp3243
(dp3244
g54
(dp3245
sg63
g3230
sg56
(lp3246
g49
(g50
g51
NtRp3247
(dp3248
g54
(dp3249
g62
I5
ssg63
g3243
sg56
(lp3250
g2697
asbasbasbag49
(g65
g51
NtRp3251
(dp3252
g54
(dp3253
sg63
g2640
sg56
(lp3254
g49
(g70
g51
NtRp3255
(dp3256
g54
(dp3257
g74
g75
ssg63
g3251
sg56
(lp3258
S'session_new'
p3259
asbag49
(g70
g51
NtRp3260
(dp3261
g54
(dp3262
g81
g82
ssg63
g3251
sg56
(lp3263
S':'
asbag49
(g70
g51
NtRp3264
(dp3265
g54
(dp3266
sg63
g3251
sg56
(lp3267
g49
(g50
g51
NtRp3268
(dp3269
g54
(dp3270
g62
I5
ssg63
g3264
sg56
(lp3271
g561
asbasbasbag49
(g65
g51
NtRp3272
(dp3273
g54
(dp3274
sg63
g2640
sg56
(lp3275
g49
(g70
g51
NtRp3276
(dp3277
g54
(dp3278
g74
g75
ssg63
g3272
sg56
(lp3279
S'status'
p3280
asbag49
(g70
g51
NtRp3281
(dp3282
g54
(dp3283
g81
g82
ssg63
g3272
sg56
(lp3284
S':'
asbag49
(g70
g51
NtRp3285
(dp3286
g54
(dp3287
sg63
g3272
sg56
(lp3288
g49
(g50
g51
NtRp3289
(dp3290
g54
(dp3291
g62
I5
ssg63
g3285
sg56
(lp3292
S'200'
p3293
asbasbasbag49
(g65
g51
NtRp3294
(dp3295
g54
(dp3296
sg63
g2640
sg56
(lp3297
g49
(g70
g51
NtRp3298
(dp3299
g54
(dp3300
g74
g75
ssg63
g3294
sg56
(lp3301
g1920
asbag49
(g70
g51
NtRp3302
(dp3303
g54
(dp3304
g81
g82
ssg63
g3294
sg56
(lp3305
S':'
asbag49
(g70
g51
NtRp3306
(dp3307
g54
(dp3308
sg63
g3294
sg56
(lp3309
g49
(g50
g51
NtRp3310
(dp3311
g54
(dp3312
g62
I5
ssg63
g3306
sg56
(lp3313
g1933
asbasbasbag49
(g65
g51
NtRp3314
(dp3315
g54
(dp3316
sg63
g2640
sg56
(lp3317
g49
(g70
g51
NtRp3318
(dp3319
g54
(dp3320
g74
g75
ssg63
g3314
sg56
(lp3321
S'view'
p3322
asbag49
(g70
g51
NtRp3323
(dp3324
g54
(dp3325
g81
g82
ssg63
g3314
sg56
(lp3326
S':'
asbag49
(g70
g51
NtRp3327
(dp3328
g54
(dp3329
sg63
g3314
sg56
(lp3330
g49
(g50
g51
NtRp3331
(dp3332
g54
(dp3333
g62
I5
ssg63
g3327
sg56
(lp3334
S'default/index.html'
p3335
asbasbasbasbasbsS'locals'
p3336
(dp3337
S'self'
p3338
S"<DAL {'_migrate_enabled': True, '_lastsql': 'ALT...'_uri_hash': 'c8b669d15150d7109e5f7ab36744a5b7'}>"
p3339
sS'key'
p3340
S"'auth_user'"
p3341
sssS'traceback'
p3342
S'Traceback (most recent call last):\n  File "gluon/restricted.py", line 205, in restricted\n  File "C:\\Users\\Bussiere\\Dropbox\\Projets\\Yuki\\web2py\\applications\\init\\models\\db.py", line 42, in <module>\n  File "gluon/dal.py", line 6343, in __getattr__\n  File "gluon/dal.py", line 6337, in __getitem__\nKeyError: \'auth_user\'\n'
p3343
s.