(dp1
S'output'
p2
S"<type 'exceptions.NameError'> global name 'ignore_rw' is not defined"
p3
sS'layer'
p4
S'C:\\Users\\Bussiere\\Dropbox\\Projets\\Yuki\\web2py\\applications\\init\\controllers/default.py'
p5
sS'code'
p6
S'# -*- coding: utf-8 -*-\n# this file is released under public domain and you can use without limitations\n\n#########################################################################\n## This is a samples controller\n## - index is the default action of any application\n## - user is required for authentication and authorization\n## - download is for downloading files uploaded in the db (does streaming)\n## - call exposes all registered services (none by default)\n#########################################################################\n\ndef index():\n    """\n    example action using the internationalization operator T and flash\n    rendered by views/default/index.html or views/generic.html\n    """\n    response.flash = "Welcome to web2py!"\n    return dict(message=T(\'Hello World\'))\n\ndef user():\n    """\n    exposes:\n    http://..../[app]/default/user/login\n    http://..../[app]/default/user/logout\n    http://..../[app]/default/user/register\n    http://..../[app]/default/user/profile\n    http://..../[app]/default/user/retrieve_password\n    http://..../[app]/default/user/change_password\n    use @auth.requires_login()\n        @auth.requires_membership(\'group name\')\n        @auth.requires_permission(\'read\',\'table name\',record_id)\n    to decorate functions that need access control\n    """\n    return dict(form=auth())\n\ndef SearchBarcode():\n    image = db.Barcode(request.args(0)) or redirect(URL(\'index\'))\n    db.comment.Barcode_id.default = Barcode.id\n    form = crud.create(db.comment,\n                       message=\'your comment is posted\',\n            next=URL(args=Barcode.id))\n    comments = db(db.comment.Barcode_id==Barcode.id).select()\n    return dict(image=image, comments=comments, form=form)\n\n\ndef showBarcode():\n    image = db.Barcode(request.args(0)) or redirect(URL(\'index\'))\n    db.comment.Barcode_id.default = Barcode.id\n    form = crud.create(db.comment,\n                       message=\'your comment is posted\',\n            next=URL(args=Barcode.id))\n    comments = db(db.comment.Barcode_id==Barcode.id).select()\n    return dict(image=image, comments=comments, form=form)\n\ndef addBarcode():\n    form = SQLFORM(db.Barcode, ignore_rw=ignore_rw)\n    if form.accepts(request.vars, session):\n        response.flash = T(\'new record inserted\')\n    return dict(form=form,table=db[table])\n\n\ndef download():\n    """\n    allows downloading of uploaded files\n    http://..../[app]/default/download/[filename]\n    """\n    return response.download(request,db)\n\n\ndef call():\n    """\n    exposes services. for example:\n    http://..../[app]/default/call/jsonrpc\n    decorate with @services.jsonrpc the functions to expose\n    supports xml, json, xmlrpc, jsonrpc, amfrpc, rss, csv\n    """\n    return service()\n\n\n@auth.requires_signature()\ndef data():\n    """\n    http://..../[app]/default/data/tables\n    http://..../[app]/default/data/create/[table]\n    http://..../[app]/default/data/read/[table]/[id]\n    http://..../[app]/default/data/update/[table]/[id]\n    http://..../[app]/default/data/delete/[table]/[id]\n    http://..../[app]/default/data/select/[table]\n    http://..../[app]/default/data/search/[table]\n    but URLs must be signed, i.e. linked with\n      A(\'table\',_href=URL(\'data/tables\',user_signature=True))\n    or with the signed load operator\n      LOAD(\'default\',\'data.load\',args=\'tables\',ajax=True,user_signature=True)\n    """\n    return dict(form=crud())\n\n\nresponse._vars=response._caller(addBarcode)\n'
p7
sS'snapshot'
p8
(dp9
S'exception'
p10
(dp11
S'__hash__'
p12
S"<method-wrapper '__hash__' of exceptions.NameError object at 0x077EB198>"
p13
sS'__setattr__'
p14
S"<method-wrapper '__setattr__' of exceptions.NameError object at 0x077EB198>"
p15
sS'__reduce_ex__'
p16
S'<built-in method __reduce_ex__ of exceptions.NameError object at 0x077EB198>'
p17
sS'__getslice__'
p18
S"<method-wrapper '__getslice__' of exceptions.NameError object at 0x077EB198>"
p19
sS'__getitem__'
p20
S"<method-wrapper '__getitem__' of exceptions.NameError object at 0x077EB198>"
p21
sS'__setstate__'
p22
S'<built-in method __setstate__ of exceptions.NameError object at 0x077EB198>'
p23
sS'__reduce__'
p24
S'<built-in method __reduce__ of exceptions.NameError object at 0x077EB198>'
p25
sS'__str__'
p26
S"<method-wrapper '__str__' of exceptions.NameError object at 0x077EB198>"
p27
sS'args'
p28
S'("global name \'ignore_rw\' is not defined",)'
p29
sS'__getattribute__'
p30
S"<method-wrapper '__getattribute__' of exceptions.NameError object at 0x077EB198>"
p31
sS'__class__'
p32
S"<type 'exceptions.NameError'>"
p33
sS'__delattr__'
p34
S"<method-wrapper '__delattr__' of exceptions.NameError object at 0x077EB198>"
p35
sS'__repr__'
p36
S"<method-wrapper '__repr__' of exceptions.NameError object at 0x077EB198>"
p37
sS'__dict__'
p38
S'{}'
p39
sS'__doc__'
p40
S"'Name not found globally.'"
p41
sS'__init__'
p42
S"<method-wrapper '__init__' of exceptions.NameError object at 0x077EB198>"
p43
sS'__new__'
p44
S'<built-in method __new__ of type object at 0x1E1CD8D8>'
p45
ssS'evalue'
p46
S"global name 'ignore_rw' is not defined"
p47
sS'request'
p48
ccopy_reg
_reconstructor
p49
(cgluon.html
BEAUTIFY
p50
c__builtin__
object
p51
NtRp52
(dp53
S'attributes'
p54
(dp55
sS'components'
p56
(lp57
g49
(cgluon.html
TABLE
p58
g51
NtRp59
(dp60
g54
(dp61
S'level'
p62
I5
ssS'parent'
p63
Nsg56
(lp64
g49
(cgluon.html
TR
p65
g51
NtRp66
(dp67
g54
(dp68
sg63
g59
sg56
(lp69
g49
(cgluon.html
TD
p70
g51
NtRp71
(dp72
g54
(dp73
S'_style'
p74
S'font-weight:bold;vertical-align:top'
p75
ssg63
g66
sg56
(lp76
S'ajax'
p77
asbag49
(g70
g51
NtRp78
(dp79
g54
(dp80
S'_valign'
p81
S'top'
p82
ssg63
g66
sg56
(lp83
S':'
asbag49
(g70
g51
NtRp84
(dp85
g54
(dp86
sg63
g66
sg56
(lp87
g49
(g50
g51
NtRp88
(dp89
g54
(dp90
g62
I5
ssg63
g84
sg56
(lp91
S'False'
p92
asbasbasbag49
(g65
g51
NtRp93
(dp94
g54
(dp95
sg63
g59
sg56
(lp96
g49
(g70
g51
NtRp97
(dp98
g54
(dp99
g74
g75
ssg63
g93
sg56
(lp100
S'application'
p101
asbag49
(g70
g51
NtRp102
(dp103
g54
(dp104
g81
g82
ssg63
g93
sg56
(lp105
S':'
asbag49
(g70
g51
NtRp106
(dp107
g54
(dp108
sg63
g93
sg56
(lp109
g49
(g50
g51
NtRp110
(dp111
g54
(dp112
g62
I5
ssg63
g106
sg56
(lp113
S'init'
p114
asbasbasbag49
(g65
g51
NtRp115
(dp116
g54
(dp117
sg63
g59
sg56
(lp118
g49
(g70
g51
NtRp119
(dp120
g54
(dp121
g74
g75
ssg63
g115
sg56
(lp122
g28
asbag49
(g70
g51
NtRp123
(dp124
g54
(dp125
g81
g82
ssg63
g115
sg56
(lp126
S':'
asbag49
(g70
g51
NtRp127
(dp128
g54
(dp129
sg63
g115
sg56
(lp130
g49
(g50
g51
NtRp131
(dp132
g54
(dp133
g62
I5
ssg63
g127
sg56
(lp134
g49
(g58
g51
NtRp135
(dp136
g54
(dp137
g62
I4
ssg63
Nsg56
(lp138
sbasbasbasbag49
(g65
g51
NtRp139
(dp140
g54
(dp141
sg63
g59
sg56
(lp142
g49
(g70
g51
NtRp143
(dp144
g54
(dp145
g74
g75
ssg63
g139
sg56
(lp146
S'body'
p147
asbag49
(g70
g51
NtRp148
(dp149
g54
(dp150
g81
g82
ssg63
g139
sg56
(lp151
S':'
asbag49
(g70
g51
NtRp152
(dp153
g54
(dp154
sg63
g139
sg56
(lp155
g49
(g50
g51
NtRp156
(dp157
g54
(dp158
g62
I5
ssg63
g152
sg56
(lp159
S'<cStringIO.StringO object at 0x077CAB20>'
p160
asbasbasbag49
(g65
g51
NtRp161
(dp162
g54
(dp163
sg63
g59
sg56
(lp164
g49
(g70
g51
NtRp165
(dp166
g54
(dp167
g74
g75
ssg63
g161
sg56
(lp168
S'client'
p169
asbag49
(g70
g51
NtRp170
(dp171
g54
(dp172
g81
g82
ssg63
g161
sg56
(lp173
S':'
asbag49
(g70
g51
NtRp174
(dp175
g54
(dp176
sg63
g161
sg56
(lp177
g49
(g50
g51
NtRp178
(dp179
g54
(dp180
g62
I5
ssg63
g174
sg56
(lp181
S'127.0.0.1'
p182
asbasbasbag49
(g65
g51
NtRp183
(dp184
g54
(dp185
sg63
g59
sg56
(lp186
g49
(g70
g51
NtRp187
(dp188
g54
(dp189
g74
g75
ssg63
g183
sg56
(lp190
S'controller'
p191
asbag49
(g70
g51
NtRp192
(dp193
g54
(dp194
g81
g82
ssg63
g183
sg56
(lp195
S':'
asbag49
(g70
g51
NtRp196
(dp197
g54
(dp198
sg63
g183
sg56
(lp199
g49
(g50
g51
NtRp200
(dp201
g54
(dp202
g62
I5
ssg63
g196
sg56
(lp203
S'default'
p204
asbasbasbag49
(g65
g51
NtRp205
(dp206
g54
(dp207
sg63
g59
sg56
(lp208
g49
(g70
g51
NtRp209
(dp210
g54
(dp211
g74
g75
ssg63
g205
sg56
(lp212
S'cookies'
p213
asbag49
(g70
g51
NtRp214
(dp215
g54
(dp216
g81
g82
ssg63
g205
sg56
(lp217
S':'
asbag49
(g70
g51
NtRp218
(dp219
g54
(dp220
sg63
g205
sg56
(lp221
g49
(g50
g51
NtRp222
(dp223
g54
(dp224
g62
I5
ssg63
g218
sg56
(lp225
g49
(g58
g51
NtRp226
(dp227
g54
(dp228
g62
I4
ssg63
Nsg56
(lp229
g49
(g65
g51
NtRp230
(dp231
g54
(dp232
sg63
g226
sg56
(lp233
g49
(g70
g51
NtRp234
(dp235
g54
(dp236
g74
g75
ssg63
g230
sg56
(lp237
S'session_id_admin'
p238
asbag49
(g70
g51
NtRp239
(dp240
g54
(dp241
g81
g82
ssg63
g230
sg56
(lp242
S':'
asbag49
(g70
g51
NtRp243
(dp244
g54
(dp245
sg63
g230
sg56
(lp246
g49
(g50
g51
NtRp247
(dp248
g54
(dp249
g62
I4
ssg63
g243
sg56
(lp250
g49
(g58
g51
NtRp251
(dp252
g54
(dp253
g62
I3
ssg63
Nsg56
(lp254
g49
(g65
g51
NtRp255
(dp256
g54
(dp257
sg63
g251
sg56
(lp258
g49
(g70
g51
NtRp259
(dp260
g54
(dp261
g74
g75
ssg63
g255
sg56
(lp262
S'comment'
p263
asbag49
(g70
g51
NtRp264
(dp265
g54
(dp266
g81
g82
ssg63
g255
sg56
(lp267
S':'
asbag49
(g70
g51
NtRp268
(dp269
g54
(dp270
sg63
g255
sg56
(lp271
g49
(g50
g51
NtRp272
(dp273
g54
(dp274
g62
I3
ssg63
g268
sg56
(lp275
S''
asbasbasbag49
(g65
g51
NtRp276
(dp277
g54
(dp278
sg63
g251
sg56
(lp279
g49
(g70
g51
NtRp280
(dp281
g54
(dp282
g74
g75
ssg63
g276
sg56
(lp283
S'domain'
p284
asbag49
(g70
g51
NtRp285
(dp286
g54
(dp287
g81
g82
ssg63
g276
sg56
(lp288
S':'
asbag49
(g70
g51
NtRp289
(dp290
g54
(dp291
sg63
g276
sg56
(lp292
g49
(g50
g51
NtRp293
(dp294
g54
(dp295
g62
I3
ssg63
g289
sg56
(lp296
S''
asbasbasbag49
(g65
g51
NtRp297
(dp298
g54
(dp299
sg63
g251
sg56
(lp300
g49
(g70
g51
NtRp301
(dp302
g54
(dp303
g74
g75
ssg63
g297
sg56
(lp304
S'expires'
p305
asbag49
(g70
g51
NtRp306
(dp307
g54
(dp308
g81
g82
ssg63
g297
sg56
(lp309
S':'
asbag49
(g70
g51
NtRp310
(dp311
g54
(dp312
sg63
g297
sg56
(lp313
g49
(g50
g51
NtRp314
(dp315
g54
(dp316
g62
I3
ssg63
g310
sg56
(lp317
S''
asbasbasbag49
(g65
g51
NtRp318
(dp319
g54
(dp320
sg63
g251
sg56
(lp321
g49
(g70
g51
NtRp322
(dp323
g54
(dp324
g74
g75
ssg63
g318
sg56
(lp325
S'max-age'
p326
asbag49
(g70
g51
NtRp327
(dp328
g54
(dp329
g81
g82
ssg63
g318
sg56
(lp330
S':'
asbag49
(g70
g51
NtRp331
(dp332
g54
(dp333
sg63
g318
sg56
(lp334
g49
(g50
g51
NtRp335
(dp336
g54
(dp337
g62
I3
ssg63
g331
sg56
(lp338
S''
asbasbasbag49
(g65
g51
NtRp339
(dp340
g54
(dp341
sg63
g251
sg56
(lp342
g49
(g70
g51
NtRp343
(dp344
g54
(dp345
g74
g75
ssg63
g339
sg56
(lp346
S'path'
p347
asbag49
(g70
g51
NtRp348
(dp349
g54
(dp350
g81
g82
ssg63
g339
sg56
(lp351
S':'
asbag49
(g70
g51
NtRp352
(dp353
g54
(dp354
sg63
g339
sg56
(lp355
g49
(g50
g51
NtRp356
(dp357
g54
(dp358
g62
I3
ssg63
g352
sg56
(lp359
S''
asbasbasbag49
(g65
g51
NtRp360
(dp361
g54
(dp362
sg63
g251
sg56
(lp363
g49
(g70
g51
NtRp364
(dp365
g54
(dp366
g74
g75
ssg63
g360
sg56
(lp367
S'secure'
p368
asbag49
(g70
g51
NtRp369
(dp370
g54
(dp371
g81
g82
ssg63
g360
sg56
(lp372
S':'
asbag49
(g70
g51
NtRp373
(dp374
g54
(dp375
sg63
g360
sg56
(lp376
g49
(g50
g51
NtRp377
(dp378
g54
(dp379
g62
I3
ssg63
g373
sg56
(lp380
S''
asbasbasbag49
(g65
g51
NtRp381
(dp382
g54
(dp383
sg63
g251
sg56
(lp384
g49
(g70
g51
NtRp385
(dp386
g54
(dp387
g74
g75
ssg63
g381
sg56
(lp388
S'version'
p389
asbag49
(g70
g51
NtRp390
(dp391
g54
(dp392
g81
g82
ssg63
g381
sg56
(lp393
S':'
asbag49
(g70
g51
NtRp394
(dp395
g54
(dp396
sg63
g381
sg56
(lp397
g49
(g50
g51
NtRp398
(dp399
g54
(dp400
g62
I3
ssg63
g394
sg56
(lp401
S''
asbasbasbasbasbasbasbag49
(g65
g51
NtRp402
(dp403
g54
(dp404
sg63
g226
sg56
(lp405
g49
(g70
g51
NtRp406
(dp407
g54
(dp408
g74
g75
ssg63
g402
sg56
(lp409
S'session_id_init'
p410
asbag49
(g70
g51
NtRp411
(dp412
g54
(dp413
g81
g82
ssg63
g402
sg56
(lp414
S':'
asbag49
(g70
g51
NtRp415
(dp416
g54
(dp417
sg63
g402
sg56
(lp418
g49
(g50
g51
NtRp419
(dp420
g54
(dp421
g62
I4
ssg63
g415
sg56
(lp422
g49
(g58
g51
NtRp423
(dp424
g54
(dp425
g62
I3
ssg63
Nsg56
(lp426
g49
(g65
g51
NtRp427
(dp428
g54
(dp429
sg63
g423
sg56
(lp430
g49
(g70
g51
NtRp431
(dp432
g54
(dp433
g74
g75
ssg63
g427
sg56
(lp434
g263
asbag49
(g70
g51
NtRp435
(dp436
g54
(dp437
g81
g82
ssg63
g427
sg56
(lp438
S':'
asbag49
(g70
g51
NtRp439
(dp440
g54
(dp441
sg63
g427
sg56
(lp442
g49
(g50
g51
NtRp443
(dp444
g54
(dp445
g62
I3
ssg63
g439
sg56
(lp446
S''
asbasbasbag49
(g65
g51
NtRp447
(dp448
g54
(dp449
sg63
g423
sg56
(lp450
g49
(g70
g51
NtRp451
(dp452
g54
(dp453
g74
g75
ssg63
g447
sg56
(lp454
g284
asbag49
(g70
g51
NtRp455
(dp456
g54
(dp457
g81
g82
ssg63
g447
sg56
(lp458
S':'
asbag49
(g70
g51
NtRp459
(dp460
g54
(dp461
sg63
g447
sg56
(lp462
g49
(g50
g51
NtRp463
(dp464
g54
(dp465
g62
I3
ssg63
g459
sg56
(lp466
S''
asbasbasbag49
(g65
g51
NtRp467
(dp468
g54
(dp469
sg63
g423
sg56
(lp470
g49
(g70
g51
NtRp471
(dp472
g54
(dp473
g74
g75
ssg63
g467
sg56
(lp474
g305
asbag49
(g70
g51
NtRp475
(dp476
g54
(dp477
g81
g82
ssg63
g467
sg56
(lp478
S':'
asbag49
(g70
g51
NtRp479
(dp480
g54
(dp481
sg63
g467
sg56
(lp482
g49
(g50
g51
NtRp483
(dp484
g54
(dp485
g62
I3
ssg63
g479
sg56
(lp486
S''
asbasbasbag49
(g65
g51
NtRp487
(dp488
g54
(dp489
sg63
g423
sg56
(lp490
g49
(g70
g51
NtRp491
(dp492
g54
(dp493
g74
g75
ssg63
g487
sg56
(lp494
g326
asbag49
(g70
g51
NtRp495
(dp496
g54
(dp497
g81
g82
ssg63
g487
sg56
(lp498
S':'
asbag49
(g70
g51
NtRp499
(dp500
g54
(dp501
sg63
g487
sg56
(lp502
g49
(g50
g51
NtRp503
(dp504
g54
(dp505
g62
I3
ssg63
g499
sg56
(lp506
S''
asbasbasbag49
(g65
g51
NtRp507
(dp508
g54
(dp509
sg63
g423
sg56
(lp510
g49
(g70
g51
NtRp511
(dp512
g54
(dp513
g74
g75
ssg63
g507
sg56
(lp514
g347
asbag49
(g70
g51
NtRp515
(dp516
g54
(dp517
g81
g82
ssg63
g507
sg56
(lp518
S':'
asbag49
(g70
g51
NtRp519
(dp520
g54
(dp521
sg63
g507
sg56
(lp522
g49
(g50
g51
NtRp523
(dp524
g54
(dp525
g62
I3
ssg63
g519
sg56
(lp526
S''
asbasbasbag49
(g65
g51
NtRp527
(dp528
g54
(dp529
sg63
g423
sg56
(lp530
g49
(g70
g51
NtRp531
(dp532
g54
(dp533
g74
g75
ssg63
g527
sg56
(lp534
g368
asbag49
(g70
g51
NtRp535
(dp536
g54
(dp537
g81
g82
ssg63
g527
sg56
(lp538
S':'
asbag49
(g70
g51
NtRp539
(dp540
g54
(dp541
sg63
g527
sg56
(lp542
g49
(g50
g51
NtRp543
(dp544
g54
(dp545
g62
I3
ssg63
g539
sg56
(lp546
S''
asbasbasbag49
(g65
g51
NtRp547
(dp548
g54
(dp549
sg63
g423
sg56
(lp550
g49
(g70
g51
NtRp551
(dp552
g54
(dp553
g74
g75
ssg63
g547
sg56
(lp554
g389
asbag49
(g70
g51
NtRp555
(dp556
g54
(dp557
g81
g82
ssg63
g547
sg56
(lp558
S':'
asbag49
(g70
g51
NtRp559
(dp560
g54
(dp561
sg63
g547
sg56
(lp562
g49
(g50
g51
NtRp563
(dp564
g54
(dp565
g62
I3
ssg63
g559
sg56
(lp566
S''
asbasbasbasbasbasbasbasbasbasbasbag49
(g65
g51
NtRp567
(dp568
g54
(dp569
sg63
g59
sg56
(lp570
g49
(g70
g51
NtRp571
(dp572
g54
(dp573
g74
g75
ssg63
g567
sg56
(lp574
S'env'
p575
asbag49
(g70
g51
NtRp576
(dp577
g54
(dp578
g81
g82
ssg63
g567
sg56
(lp579
S':'
asbag49
(g70
g51
NtRp580
(dp581
g54
(dp582
sg63
g567
sg56
(lp583
g49
(g50
g51
NtRp584
(dp585
g54
(dp586
g62
I5
ssg63
g580
sg56
(lp587
g49
(g58
g51
NtRp588
(dp589
g54
(dp590
g62
I4
ssg63
Nsg56
(lp591
g49
(g65
g51
NtRp592
(dp593
g54
(dp594
sg63
g588
sg56
(lp595
g49
(g70
g51
NtRp596
(dp597
g54
(dp598
g74
g75
ssg63
g592
sg56
(lp599
S'app_folders'
p600
asbag49
(g70
g51
NtRp601
(dp602
g54
(dp603
g81
g82
ssg63
g592
sg56
(lp604
S':'
asbag49
(g70
g51
NtRp605
(dp606
g54
(dp607
sg63
g592
sg56
(lp608
g49
(g50
g51
NtRp609
(dp610
g54
(dp611
g62
I4
ssg63
g605
sg56
(lp612
S"set(['C:\\\\Users\\\\Bussiere\\\\Dropbox\\\\Projets\\\\Yuki\\\\web2py\\\\applications\\\\init\\\\', 'C:\\\\Users\\\\Bussiere\\\\Dropbox\\\\Projets\\\\Yuki\\\\web2py\\\\applications\\\\admin\\\\'])"
p613
asbasbasbag49
(g65
g51
NtRp614
(dp615
g54
(dp616
sg63
g588
sg56
(lp617
g49
(g70
g51
NtRp618
(dp619
g54
(dp620
g74
g75
ssg63
g614
sg56
(lp621
S'applications_parent'
p622
asbag49
(g70
g51
NtRp623
(dp624
g54
(dp625
g81
g82
ssg63
g614
sg56
(lp626
S':'
asbag49
(g70
g51
NtRp627
(dp628
g54
(dp629
sg63
g614
sg56
(lp630
g49
(g50
g51
NtRp631
(dp632
g54
(dp633
g62
I4
ssg63
g627
sg56
(lp634
S'C:\\Users\\Bussiere\\Dropbox\\Projets\\Yuki\\web2py'
p635
asbasbasbag49
(g65
g51
NtRp636
(dp637
g54
(dp638
sg63
g588
sg56
(lp639
g49
(g70
g51
NtRp640
(dp641
g54
(dp642
g74
g75
ssg63
g636
sg56
(lp643
S'cmd_args'
p644
asbag49
(g70
g51
NtRp645
(dp646
g54
(dp647
g81
g82
ssg63
g636
sg56
(lp648
S':'
asbag49
(g70
g51
NtRp649
(dp650
g54
(dp651
sg63
g636
sg56
(lp652
g49
(g50
g51
NtRp653
(dp654
g54
(dp655
g62
I4
ssg63
g649
sg56
(lp656
g49
(g58
g51
NtRp657
(dp658
g54
(dp659
g62
I3
ssg63
Nsg56
(lp660
sbasbasbasbag49
(g65
g51
NtRp661
(dp662
g54
(dp663
sg63
g588
sg56
(lp664
g49
(g70
g51
NtRp665
(dp666
g54
(dp667
g74
g75
ssg63
g661
sg56
(lp668
S'cmd_options'
p669
asbag49
(g70
g51
NtRp670
(dp671
g54
(dp672
g81
g82
ssg63
g661
sg56
(lp673
S':'
asbag49
(g70
g51
NtRp674
(dp675
g54
(dp676
sg63
g661
sg56
(lp677
g49
(g50
g51
NtRp678
(dp679
g54
(dp680
g62
I4
ssg63
g674
sg56
(lp681
S"<Values at 0x3a74f58: {'verbose': False, 'ip': '127.0.0.1', 'shutdown_timeout': 5, 'taskbar': False, 'nocron': False, 'pid_filename': 'httpserver.pid', 'maxthreads': None, 'softcron': False, 'server_name': 'Batou', 'bpython': False, 'nogui': False, 'port': 8000, 'extcron': False, 'debuglevel': 30, 'test': None, 'folder': 'C:\\\\Users\\\\Bussiere\\\\Dropbox\\\\Projets\\\\Yuki\\\\web2py', 'config': '', 'import_models': False, 'winservice': '', 'shell': None, 'run': '', 'log_filename': 'httpserver.log', 'args': [''], 'socket_timeout': 5, 'ssl_ca_certificate': None, 'scheduler': None, 'profiler_filename': None, 'ssl_private_key': '', 'password': '<ask>', 'request_queue_size': 5, 'ssl_certificate': '', 'cronjob': False, 'numthreads': None, 'quiet': False, 'interfaces': None, 'minthreads': None, 'timeout': 10, 'plain': False, 'nobanner': False}>"
p682
asbasbasbag49
(g65
g51
NtRp683
(dp684
g54
(dp685
sg63
g588
sg56
(lp686
g49
(g70
g51
NtRp687
(dp688
g54
(dp689
g74
g75
ssg63
g683
sg56
(lp690
S'db_sessions'
p691
asbag49
(g70
g51
NtRp692
(dp693
g54
(dp694
g81
g82
ssg63
g683
sg56
(lp695
S':'
asbag49
(g70
g51
NtRp696
(dp697
g54
(dp698
sg63
g683
sg56
(lp699
g49
(g50
g51
NtRp700
(dp701
g54
(dp702
g62
I4
ssg63
g696
sg56
(lp703
S'set([])'
p704
asbasbasbag49
(g65
g51
NtRp705
(dp706
g54
(dp707
sg63
g588
sg56
(lp708
g49
(g70
g51
NtRp709
(dp710
g54
(dp711
g74
g75
ssg63
g705
sg56
(lp712
S'debugging'
p713
asbag49
(g70
g51
NtRp714
(dp715
g54
(dp716
g81
g82
ssg63
g705
sg56
(lp717
S':'
asbag49
(g70
g51
NtRp718
(dp719
g54
(dp720
sg63
g705
sg56
(lp721
g49
(g50
g51
NtRp722
(dp723
g54
(dp724
g62
I4
ssg63
g718
sg56
(lp725
S'True'
p726
asbasbasbag49
(g65
g51
NtRp727
(dp728
g54
(dp729
sg63
g588
sg56
(lp730
g49
(g70
g51
NtRp731
(dp732
g54
(dp733
g74
g75
ssg63
g727
sg56
(lp734
S'gluon_parent'
p735
asbag49
(g70
g51
NtRp736
(dp737
g54
(dp738
g81
g82
ssg63
g727
sg56
(lp739
S':'
asbag49
(g70
g51
NtRp740
(dp741
g54
(dp742
sg63
g727
sg56
(lp743
g49
(g50
g51
NtRp744
(dp745
g54
(dp746
g62
I4
ssg63
g740
sg56
(lp747
S'C:\\Users\\Bussiere\\Dropbox\\Projets\\Yuki\\web2py'
p748
asbasbasbag49
(g65
g51
NtRp749
(dp750
g54
(dp751
sg63
g588
sg56
(lp752
g49
(g70
g51
NtRp753
(dp754
g54
(dp755
g74
g75
ssg63
g749
sg56
(lp756
S'http_accept'
p757
asbag49
(g70
g51
NtRp758
(dp759
g54
(dp760
g81
g82
ssg63
g749
sg56
(lp761
S':'
asbag49
(g70
g51
NtRp762
(dp763
g54
(dp764
sg63
g749
sg56
(lp765
g49
(g50
g51
NtRp766
(dp767
g54
(dp768
g62
I4
ssg63
g762
sg56
(lp769
S'text/html,application/xhtml+xml,application/xml;q=0.9,*/*;q=0.8'
p770
asbasbasbag49
(g65
g51
NtRp771
(dp772
g54
(dp773
sg63
g588
sg56
(lp774
g49
(g70
g51
NtRp775
(dp776
g54
(dp777
g74
g75
ssg63
g771
sg56
(lp778
S'http_accept_charset'
p779
asbag49
(g70
g51
NtRp780
(dp781
g54
(dp782
g81
g82
ssg63
g771
sg56
(lp783
S':'
asbag49
(g70
g51
NtRp784
(dp785
g54
(dp786
sg63
g771
sg56
(lp787
g49
(g50
g51
NtRp788
(dp789
g54
(dp790
g62
I4
ssg63
g784
sg56
(lp791
S'ISO-8859-1,utf-8;q=0.7,*;q=0.3'
p792
asbasbasbag49
(g65
g51
NtRp793
(dp794
g54
(dp795
sg63
g588
sg56
(lp796
g49
(g70
g51
NtRp797
(dp798
g54
(dp799
g74
g75
ssg63
g793
sg56
(lp800
S'http_accept_encoding'
p801
asbag49
(g70
g51
NtRp802
(dp803
g54
(dp804
g81
g82
ssg63
g793
sg56
(lp805
S':'
asbag49
(g70
g51
NtRp806
(dp807
g54
(dp808
sg63
g793
sg56
(lp809
g49
(g50
g51
NtRp810
(dp811
g54
(dp812
g62
I4
ssg63
g806
sg56
(lp813
S'gzip,deflate,sdch'
p814
asbasbasbag49
(g65
g51
NtRp815
(dp816
g54
(dp817
sg63
g588
sg56
(lp818
g49
(g70
g51
NtRp819
(dp820
g54
(dp821
g74
g75
ssg63
g815
sg56
(lp822
S'http_accept_language'
p823
asbag49
(g70
g51
NtRp824
(dp825
g54
(dp826
g81
g82
ssg63
g815
sg56
(lp827
S':'
asbag49
(g70
g51
NtRp828
(dp829
g54
(dp830
sg63
g815
sg56
(lp831
g49
(g50
g51
NtRp832
(dp833
g54
(dp834
g62
I4
ssg63
g828
sg56
(lp835
S'fr-FR,fr;q=0.8,en-US;q=0.6,en;q=0.4'
p836
asbasbasbag49
(g65
g51
NtRp837
(dp838
g54
(dp839
sg63
g588
sg56
(lp840
g49
(g70
g51
NtRp841
(dp842
g54
(dp843
g74
g75
ssg63
g837
sg56
(lp844
S'http_connection'
p845
asbag49
(g70
g51
NtRp846
(dp847
g54
(dp848
g81
g82
ssg63
g837
sg56
(lp849
S':'
asbag49
(g70
g51
NtRp850
(dp851
g54
(dp852
sg63
g837
sg56
(lp853
g49
(g50
g51
NtRp854
(dp855
g54
(dp856
g62
I4
ssg63
g850
sg56
(lp857
S'keep-alive'
p858
asbasbasbag49
(g65
g51
NtRp859
(dp860
g54
(dp861
sg63
g588
sg56
(lp862
g49
(g70
g51
NtRp863
(dp864
g54
(dp865
g74
g75
ssg63
g859
sg56
(lp866
S'http_cookie'
p867
asbag49
(g70
g51
NtRp868
(dp869
g54
(dp870
g81
g82
ssg63
g859
sg56
(lp871
S':'
asbag49
(g70
g51
NtRp872
(dp873
g54
(dp874
sg63
g859
sg56
(lp875
g49
(g50
g51
NtRp876
(dp877
g54
(dp878
g62
I4
ssg63
g872
sg56
(lp879
S'session_id_admin=127.0.0.1-5f1365f2-4e7f-48eb-a6f6-e5163dfe27ea; session_id_init=127.0.0.1-05546599-82c3-44a9-b36b-68629a143195'
p880
asbasbasbag49
(g65
g51
NtRp881
(dp882
g54
(dp883
sg63
g588
sg56
(lp884
g49
(g70
g51
NtRp885
(dp886
g54
(dp887
g74
g75
ssg63
g881
sg56
(lp888
S'http_host'
p889
asbag49
(g70
g51
NtRp890
(dp891
g54
(dp892
g81
g82
ssg63
g881
sg56
(lp893
S':'
asbag49
(g70
g51
NtRp894
(dp895
g54
(dp896
sg63
g881
sg56
(lp897
g49
(g50
g51
NtRp898
(dp899
g54
(dp900
g62
I4
ssg63
g894
sg56
(lp901
S'127.0.0.1:8000'
p902
asbasbasbag49
(g65
g51
NtRp903
(dp904
g54
(dp905
sg63
g588
sg56
(lp906
g49
(g70
g51
NtRp907
(dp908
g54
(dp909
g74
g75
ssg63
g903
sg56
(lp910
S'http_user_agent'
p911
asbag49
(g70
g51
NtRp912
(dp913
g54
(dp914
g81
g82
ssg63
g903
sg56
(lp915
S':'
asbag49
(g70
g51
NtRp916
(dp917
g54
(dp918
sg63
g903
sg56
(lp919
g49
(g50
g51
NtRp920
(dp921
g54
(dp922
g62
I4
ssg63
g916
sg56
(lp923
S'Mozilla/5.0 (Windows NT 6.1; WOW64) AppleWebKit/535.2 (KHTML, like Gecko) Chrome/15.0.874.120 Safari/535.2'
p924
asbasbasbag49
(g65
g51
NtRp925
(dp926
g54
(dp927
sg63
g588
sg56
(lp928
g49
(g70
g51
NtRp929
(dp930
g54
(dp931
g74
g75
ssg63
g925
sg56
(lp932
S'is_jython'
p933
asbag49
(g70
g51
NtRp934
(dp935
g54
(dp936
g81
g82
ssg63
g925
sg56
(lp937
S':'
asbag49
(g70
g51
NtRp938
(dp939
g54
(dp940
sg63
g925
sg56
(lp941
g49
(g50
g51
NtRp942
(dp943
g54
(dp944
g62
I4
ssg63
g938
sg56
(lp945
g92
asbasbasbag49
(g65
g51
NtRp946
(dp947
g54
(dp948
sg63
g588
sg56
(lp949
g49
(g70
g51
NtRp950
(dp951
g54
(dp952
g74
g75
ssg63
g946
sg56
(lp953
S'is_pypy'
p954
asbag49
(g70
g51
NtRp955
(dp956
g54
(dp957
g81
g82
ssg63
g946
sg56
(lp958
S':'
asbag49
(g70
g51
NtRp959
(dp960
g54
(dp961
sg63
g946
sg56
(lp962
g49
(g50
g51
NtRp963
(dp964
g54
(dp965
g62
I4
ssg63
g959
sg56
(lp966
g92
asbasbasbag49
(g65
g51
NtRp967
(dp968
g54
(dp969
sg63
g588
sg56
(lp970
g49
(g70
g51
NtRp971
(dp972
g54
(dp973
g74
g75
ssg63
g967
sg56
(lp974
S'path_info'
p975
asbag49
(g70
g51
NtRp976
(dp977
g54
(dp978
g81
g82
ssg63
g967
sg56
(lp979
S':'
asbag49
(g70
g51
NtRp980
(dp981
g54
(dp982
sg63
g967
sg56
(lp983
g49
(g50
g51
NtRp984
(dp985
g54
(dp986
g62
I4
ssg63
g980
sg56
(lp987
S'/init/default/addBarcode/'
p988
asbasbasbag49
(g65
g51
NtRp989
(dp990
g54
(dp991
sg63
g588
sg56
(lp992
g49
(g70
g51
NtRp993
(dp994
g54
(dp995
g74
g75
ssg63
g989
sg56
(lp996
S'query_string'
p997
asbag49
(g70
g51
NtRp998
(dp999
g54
(dp1000
g81
g82
ssg63
g989
sg56
(lp1001
S':'
asbag49
(g70
g51
NtRp1002
(dp1003
g54
(dp1004
sg63
g989
sg56
(lp1005
g49
(g50
g51
NtRp1006
(dp1007
g54
(dp1008
g62
I4
ssg63
g1002
sg56
(lp1009
S''
asbasbasbag49
(g65
g51
NtRp1010
(dp1011
g54
(dp1012
sg63
g588
sg56
(lp1013
g49
(g70
g51
NtRp1014
(dp1015
g54
(dp1016
g74
g75
ssg63
g1010
sg56
(lp1017
S'remote_addr'
p1018
asbag49
(g70
g51
NtRp1019
(dp1020
g54
(dp1021
g81
g82
ssg63
g1010
sg56
(lp1022
S':'
asbag49
(g70
g51
NtRp1023
(dp1024
g54
(dp1025
sg63
g1010
sg56
(lp1026
g49
(g50
g51
NtRp1027
(dp1028
g54
(dp1029
g62
I4
ssg63
g1023
sg56
(lp1030
g182
asbasbasbag49
(g65
g51
NtRp1031
(dp1032
g54
(dp1033
sg63
g588
sg56
(lp1034
g49
(g70
g51
NtRp1035
(dp1036
g54
(dp1037
g74
g75
ssg63
g1031
sg56
(lp1038
S'remote_port'
p1039
asbag49
(g70
g51
NtRp1040
(dp1041
g54
(dp1042
g81
g82
ssg63
g1031
sg56
(lp1043
S':'
asbag49
(g70
g51
NtRp1044
(dp1045
g54
(dp1046
sg63
g1031
sg56
(lp1047
g49
(g50
g51
NtRp1048
(dp1049
g54
(dp1050
g62
I4
ssg63
g1044
sg56
(lp1051
S'59014'
p1052
asbasbasbag49
(g65
g51
NtRp1053
(dp1054
g54
(dp1055
sg63
g588
sg56
(lp1056
g49
(g70
g51
NtRp1057
(dp1058
g54
(dp1059
g74
g75
ssg63
g1053
sg56
(lp1060
S'request_method'
p1061
asbag49
(g70
g51
NtRp1062
(dp1063
g54
(dp1064
g81
g82
ssg63
g1053
sg56
(lp1065
S':'
asbag49
(g70
g51
NtRp1066
(dp1067
g54
(dp1068
sg63
g1053
sg56
(lp1069
g49
(g50
g51
NtRp1070
(dp1071
g54
(dp1072
g62
I4
ssg63
g1066
sg56
(lp1073
S'GET'
p1074
asbasbasbag49
(g65
g51
NtRp1075
(dp1076
g54
(dp1077
sg63
g588
sg56
(lp1078
g49
(g70
g51
NtRp1079
(dp1080
g54
(dp1081
g74
g75
ssg63
g1075
sg56
(lp1082
S'script_name'
p1083
asbag49
(g70
g51
NtRp1084
(dp1085
g54
(dp1086
g81
g82
ssg63
g1075
sg56
(lp1087
S':'
asbag49
(g70
g51
NtRp1088
(dp1089
g54
(dp1090
sg63
g1075
sg56
(lp1091
g49
(g50
g51
NtRp1092
(dp1093
g54
(dp1094
g62
I4
ssg63
g1088
sg56
(lp1095
S''
asbasbasbag49
(g65
g51
NtRp1096
(dp1097
g54
(dp1098
sg63
g588
sg56
(lp1099
g49
(g70
g51
NtRp1100
(dp1101
g54
(dp1102
g74
g75
ssg63
g1096
sg56
(lp1103
S'server_name'
p1104
asbag49
(g70
g51
NtRp1105
(dp1106
g54
(dp1107
g81
g82
ssg63
g1096
sg56
(lp1108
S':'
asbag49
(g70
g51
NtRp1109
(dp1110
g54
(dp1111
sg63
g1096
sg56
(lp1112
g49
(g50
g51
NtRp1113
(dp1114
g54
(dp1115
g62
I4
ssg63
g1109
sg56
(lp1116
S'Batou'
p1117
asbasbasbag49
(g65
g51
NtRp1118
(dp1119
g54
(dp1120
sg63
g588
sg56
(lp1121
g49
(g70
g51
NtRp1122
(dp1123
g54
(dp1124
g74
g75
ssg63
g1118
sg56
(lp1125
S'server_port'
p1126
asbag49
(g70
g51
NtRp1127
(dp1128
g54
(dp1129
g81
g82
ssg63
g1118
sg56
(lp1130
S':'
asbag49
(g70
g51
NtRp1131
(dp1132
g54
(dp1133
sg63
g1118
sg56
(lp1134
g49
(g50
g51
NtRp1135
(dp1136
g54
(dp1137
g62
I4
ssg63
g1131
sg56
(lp1138
S'8000'
p1139
asbasbasbag49
(g65
g51
NtRp1140
(dp1141
g54
(dp1142
sg63
g588
sg56
(lp1143
g49
(g70
g51
NtRp1144
(dp1145
g54
(dp1146
g74
g75
ssg63
g1140
sg56
(lp1147
S'server_protocol'
p1148
asbag49
(g70
g51
NtRp1149
(dp1150
g54
(dp1151
g81
g82
ssg63
g1140
sg56
(lp1152
S':'
asbag49
(g70
g51
NtRp1153
(dp1154
g54
(dp1155
sg63
g1140
sg56
(lp1156
g49
(g50
g51
NtRp1157
(dp1158
g54
(dp1159
g62
I4
ssg63
g1153
sg56
(lp1160
S'HTTP/1.1'
p1161
asbasbasbag49
(g65
g51
NtRp1162
(dp1163
g54
(dp1164
sg63
g588
sg56
(lp1165
g49
(g70
g51
NtRp1166
(dp1167
g54
(dp1168
g74
g75
ssg63
g1162
sg56
(lp1169
S'server_software'
p1170
asbag49
(g70
g51
NtRp1171
(dp1172
g54
(dp1173
g81
g82
ssg63
g1162
sg56
(lp1174
S':'
asbag49
(g70
g51
NtRp1175
(dp1176
g54
(dp1177
sg63
g1162
sg56
(lp1178
g49
(g50
g51
NtRp1179
(dp1180
g54
(dp1181
g62
I4
ssg63
g1175
sg56
(lp1182
S'Rocket 1.2.4'
p1183
asbasbasbag49
(g65
g51
NtRp1184
(dp1185
g54
(dp1186
sg63
g588
sg56
(lp1187
g49
(g70
g51
NtRp1188
(dp1189
g54
(dp1190
g74
g75
ssg63
g1184
sg56
(lp1191
S'web2py_crontype'
p1192
asbag49
(g70
g51
NtRp1193
(dp1194
g54
(dp1195
g81
g82
ssg63
g1184
sg56
(lp1196
S':'
asbag49
(g70
g51
NtRp1197
(dp1198
g54
(dp1199
sg63
g1184
sg56
(lp1200
g49
(g50
g51
NtRp1201
(dp1202
g54
(dp1203
g62
I4
ssg63
g1197
sg56
(lp1204
S'hard'
p1205
asbasbasbag49
(g65
g51
NtRp1206
(dp1207
g54
(dp1208
sg63
g588
sg56
(lp1209
g49
(g70
g51
NtRp1210
(dp1211
g54
(dp1212
g74
g75
ssg63
g1206
sg56
(lp1213
S'web2py_path'
p1214
asbag49
(g70
g51
NtRp1215
(dp1216
g54
(dp1217
g81
g82
ssg63
g1206
sg56
(lp1218
S':'
asbag49
(g70
g51
NtRp1219
(dp1220
g54
(dp1221
sg63
g1206
sg56
(lp1222
g49
(g50
g51
NtRp1223
(dp1224
g54
(dp1225
g62
I4
ssg63
g1219
sg56
(lp1226
g635
asbasbasbag49
(g65
g51
NtRp1227
(dp1228
g54
(dp1229
sg63
g588
sg56
(lp1230
g49
(g70
g51
NtRp1231
(dp1232
g54
(dp1233
g74
g75
ssg63
g1227
sg56
(lp1234
S'web2py_version'
p1235
asbag49
(g70
g51
NtRp1236
(dp1237
g54
(dp1238
g81
g82
ssg63
g1227
sg56
(lp1239
S':'
asbag49
(g70
g51
NtRp1240
(dp1241
g54
(dp1242
sg63
g1227
sg56
(lp1243
g49
(g50
g51
NtRp1244
(dp1245
g54
(dp1246
g62
I4
ssg63
g1240
sg56
(lp1247
g49
(g58
g51
NtRp1248
(dp1249
g54
(dp1250
g62
I3
ssg63
Nsg56
(lp1251
g49
(g65
g51
NtRp1252
(dp1253
g54
(dp1254
sg63
g1248
sg56
(lp1255
g49
(g70
g51
NtRp1256
(dp1257
g54
(dp1258
sg63
g1252
sg56
(lp1259
g49
(g50
g51
NtRp1260
(dp1261
g54
(dp1262
g62
I3
ssg63
g1256
sg56
(lp1263
S'1'
asbasbasbag49
(g65
g51
NtRp1264
(dp1265
g54
(dp1266
sg63
g1248
sg56
(lp1267
g49
(g70
g51
NtRp1268
(dp1269
g54
(dp1270
sg63
g1264
sg56
(lp1271
g49
(g50
g51
NtRp1272
(dp1273
g54
(dp1274
g62
I3
ssg63
g1268
sg56
(lp1275
S'99'
p1276
asbasbasbag49
(g65
g51
NtRp1277
(dp1278
g54
(dp1279
sg63
g1248
sg56
(lp1280
g49
(g70
g51
NtRp1281
(dp1282
g54
(dp1283
sg63
g1277
sg56
(lp1284
g49
(g50
g51
NtRp1285
(dp1286
g54
(dp1287
g62
I3
ssg63
g1281
sg56
(lp1288
S'7'
asbasbasbag49
(g65
g51
NtRp1289
(dp1290
g54
(dp1291
sg63
g1248
sg56
(lp1292
g49
(g70
g51
NtRp1293
(dp1294
g54
(dp1295
sg63
g1289
sg56
(lp1296
g49
(g50
g51
NtRp1297
(dp1298
g54
(dp1299
g62
I3
ssg63
g1293
sg56
(lp1300
S'datetime.datetime(2012, 3, 4, 22, 12, 8)'
p1301
asbasbasbag49
(g65
g51
NtRp1302
(dp1303
g54
(dp1304
sg63
g1248
sg56
(lp1305
g49
(g70
g51
NtRp1306
(dp1307
g54
(dp1308
sg63
g1302
sg56
(lp1309
g49
(g50
g51
NtRp1310
(dp1311
g54
(dp1312
g62
I3
ssg63
g1306
sg56
(lp1313
S'stable'
p1314
asbasbasbasbasbasbasbag49
(g65
g51
NtRp1315
(dp1316
g54
(dp1317
sg63
g588
sg56
(lp1318
g49
(g70
g51
NtRp1319
(dp1320
g54
(dp1321
g74
g75
ssg63
g1315
sg56
(lp1322
S'wsgi_errors'
p1323
asbag49
(g70
g51
NtRp1324
(dp1325
g54
(dp1326
g81
g82
ssg63
g1315
sg56
(lp1327
S':'
asbag49
(g70
g51
NtRp1328
(dp1329
g54
(dp1330
sg63
g1315
sg56
(lp1331
g49
(g50
g51
NtRp1332
(dp1333
g54
(dp1334
g62
I4
ssg63
g1328
sg56
(lp1335
S"<open file '<stderr>', mode 'w' at 0x020200B0>"
p1336
asbasbasbag49
(g65
g51
NtRp1337
(dp1338
g54
(dp1339
sg63
g588
sg56
(lp1340
g49
(g70
g51
NtRp1341
(dp1342
g54
(dp1343
g74
g75
ssg63
g1337
sg56
(lp1344
S'wsgi_file_wrapper'
p1345
asbag49
(g70
g51
NtRp1346
(dp1347
g54
(dp1348
g81
g82
ssg63
g1337
sg56
(lp1349
S':'
asbag49
(g70
g51
NtRp1350
(dp1351
g54
(dp1352
sg63
g1337
sg56
(lp1353
g49
(g50
g51
NtRp1354
(dp1355
g54
(dp1356
g62
I4
ssg63
g1350
sg56
(lp1357
S'<class wsgiref.util.FileWrapper at 0x02BF68D0>'
p1358
asbasbasbag49
(g65
g51
NtRp1359
(dp1360
g54
(dp1361
sg63
g588
sg56
(lp1362
g49
(g70
g51
NtRp1363
(dp1364
g54
(dp1365
g74
g75
ssg63
g1359
sg56
(lp1366
S'wsgi_input'
p1367
asbag49
(g70
g51
NtRp1368
(dp1369
g54
(dp1370
g81
g82
ssg63
g1359
sg56
(lp1371
S':'
asbag49
(g70
g51
NtRp1372
(dp1373
g54
(dp1374
sg63
g1359
sg56
(lp1375
g49
(g50
g51
NtRp1376
(dp1377
g54
(dp1378
g62
I4
ssg63
g1372
sg56
(lp1379
S'<socket._fileobject object at 0x042D97F0>'
p1380
asbasbasbag49
(g65
g51
NtRp1381
(dp1382
g54
(dp1383
sg63
g588
sg56
(lp1384
g49
(g70
g51
NtRp1385
(dp1386
g54
(dp1387
g74
g75
ssg63
g1381
sg56
(lp1388
S'wsgi_multiprocess'
p1389
asbag49
(g70
g51
NtRp1390
(dp1391
g54
(dp1392
g81
g82
ssg63
g1381
sg56
(lp1393
S':'
asbag49
(g70
g51
NtRp1394
(dp1395
g54
(dp1396
sg63
g1381
sg56
(lp1397
g49
(g50
g51
NtRp1398
(dp1399
g54
(dp1400
g62
I4
ssg63
g1394
sg56
(lp1401
g92
asbasbasbag49
(g65
g51
NtRp1402
(dp1403
g54
(dp1404
sg63
g588
sg56
(lp1405
g49
(g70
g51
NtRp1406
(dp1407
g54
(dp1408
g74
g75
ssg63
g1402
sg56
(lp1409
S'wsgi_multithread'
p1410
asbag49
(g70
g51
NtRp1411
(dp1412
g54
(dp1413
g81
g82
ssg63
g1402
sg56
(lp1414
S':'
asbag49
(g70
g51
NtRp1415
(dp1416
g54
(dp1417
sg63
g1402
sg56
(lp1418
g49
(g50
g51
NtRp1419
(dp1420
g54
(dp1421
g62
I4
ssg63
g1415
sg56
(lp1422
g726
asbasbasbag49
(g65
g51
NtRp1423
(dp1424
g54
(dp1425
sg63
g588
sg56
(lp1426
g49
(g70
g51
NtRp1427
(dp1428
g54
(dp1429
g74
g75
ssg63
g1423
sg56
(lp1430
S'wsgi_run_once'
p1431
asbag49
(g70
g51
NtRp1432
(dp1433
g54
(dp1434
g81
g82
ssg63
g1423
sg56
(lp1435
S':'
asbag49
(g70
g51
NtRp1436
(dp1437
g54
(dp1438
sg63
g1423
sg56
(lp1439
g49
(g50
g51
NtRp1440
(dp1441
g54
(dp1442
g62
I4
ssg63
g1436
sg56
(lp1443
g92
asbasbasbag49
(g65
g51
NtRp1444
(dp1445
g54
(dp1446
sg63
g588
sg56
(lp1447
g49
(g70
g51
NtRp1448
(dp1449
g54
(dp1450
g74
g75
ssg63
g1444
sg56
(lp1451
S'wsgi_url_scheme'
p1452
asbag49
(g70
g51
NtRp1453
(dp1454
g54
(dp1455
g81
g82
ssg63
g1444
sg56
(lp1456
S':'
asbag49
(g70
g51
NtRp1457
(dp1458
g54
(dp1459
sg63
g1444
sg56
(lp1460
g49
(g50
g51
NtRp1461
(dp1462
g54
(dp1463
g62
I4
ssg63
g1457
sg56
(lp1464
S'http'
p1465
asbasbasbag49
(g65
g51
NtRp1466
(dp1467
g54
(dp1468
sg63
g588
sg56
(lp1469
g49
(g70
g51
NtRp1470
(dp1471
g54
(dp1472
g74
g75
ssg63
g1466
sg56
(lp1473
S'wsgi_version'
p1474
asbag49
(g70
g51
NtRp1475
(dp1476
g54
(dp1477
g81
g82
ssg63
g1466
sg56
(lp1478
S':'
asbag49
(g70
g51
NtRp1479
(dp1480
g54
(dp1481
sg63
g1466
sg56
(lp1482
g49
(g50
g51
NtRp1483
(dp1484
g54
(dp1485
g62
I4
ssg63
g1479
sg56
(lp1486
g49
(g58
g51
NtRp1487
(dp1488
g54
(dp1489
g62
I3
ssg63
Nsg56
(lp1490
g49
(g65
g51
NtRp1491
(dp1492
g54
(dp1493
sg63
g1487
sg56
(lp1494
g49
(g70
g51
NtRp1495
(dp1496
g54
(dp1497
sg63
g1491
sg56
(lp1498
g49
(g50
g51
NtRp1499
(dp1500
g54
(dp1501
g62
I3
ssg63
g1495
sg56
(lp1502
S'1'
asbasbasbag49
(g65
g51
NtRp1503
(dp1504
g54
(dp1505
sg63
g1487
sg56
(lp1506
g49
(g70
g51
NtRp1507
(dp1508
g54
(dp1509
sg63
g1503
sg56
(lp1510
g49
(g50
g51
NtRp1511
(dp1512
g54
(dp1513
g62
I3
ssg63
g1507
sg56
(lp1514
S'0'
asbasbasbasbasbasbasbasbasbasbasbag49
(g65
g51
NtRp1515
(dp1516
g54
(dp1517
sg63
g59
sg56
(lp1518
g49
(g70
g51
NtRp1519
(dp1520
g54
(dp1521
g74
g75
ssg63
g1515
sg56
(lp1522
S'extension'
p1523
asbag49
(g70
g51
NtRp1524
(dp1525
g54
(dp1526
g81
g82
ssg63
g1515
sg56
(lp1527
S':'
asbag49
(g70
g51
NtRp1528
(dp1529
g54
(dp1530
sg63
g1515
sg56
(lp1531
g49
(g50
g51
NtRp1532
(dp1533
g54
(dp1534
g62
I5
ssg63
g1528
sg56
(lp1535
S'html'
p1536
asbasbasbag49
(g65
g51
NtRp1537
(dp1538
g54
(dp1539
sg63
g59
sg56
(lp1540
g49
(g70
g51
NtRp1541
(dp1542
g54
(dp1543
g74
g75
ssg63
g1537
sg56
(lp1544
S'folder'
p1545
asbag49
(g70
g51
NtRp1546
(dp1547
g54
(dp1548
g81
g82
ssg63
g1537
sg56
(lp1549
S':'
asbag49
(g70
g51
NtRp1550
(dp1551
g54
(dp1552
sg63
g1537
sg56
(lp1553
g49
(g50
g51
NtRp1554
(dp1555
g54
(dp1556
g62
I5
ssg63
g1550
sg56
(lp1557
S'C:\\Users\\Bussiere\\Dropbox\\Projets\\Yuki\\web2py\\applications\\init\\'
p1558
asbasbasbag49
(g65
g51
NtRp1559
(dp1560
g54
(dp1561
sg63
g59
sg56
(lp1562
g49
(g70
g51
NtRp1563
(dp1564
g54
(dp1565
g74
g75
ssg63
g1559
sg56
(lp1566
S'function'
p1567
asbag49
(g70
g51
NtRp1568
(dp1569
g54
(dp1570
g81
g82
ssg63
g1559
sg56
(lp1571
S':'
asbag49
(g70
g51
NtRp1572
(dp1573
g54
(dp1574
sg63
g1559
sg56
(lp1575
g49
(g50
g51
NtRp1576
(dp1577
g54
(dp1578
g62
I5
ssg63
g1572
sg56
(lp1579
S'addBarcode'
p1580
asbasbasbag49
(g65
g51
NtRp1581
(dp1582
g54
(dp1583
sg63
g59
sg56
(lp1584
g49
(g70
g51
NtRp1585
(dp1586
g54
(dp1587
g74
g75
ssg63
g1581
sg56
(lp1588
S'get_vars'
p1589
asbag49
(g70
g51
NtRp1590
(dp1591
g54
(dp1592
g81
g82
ssg63
g1581
sg56
(lp1593
S':'
asbag49
(g70
g51
NtRp1594
(dp1595
g54
(dp1596
sg63
g1581
sg56
(lp1597
g49
(g50
g51
NtRp1598
(dp1599
g54
(dp1600
g62
I5
ssg63
g1594
sg56
(lp1601
g49
(g58
g51
NtRp1602
(dp1603
g54
(dp1604
g62
I4
ssg63
Nsg56
(lp1605
sbasbasbasbag49
(g65
g51
NtRp1606
(dp1607
g54
(dp1608
sg63
g59
sg56
(lp1609
g49
(g70
g51
NtRp1610
(dp1611
g54
(dp1612
g74
g75
ssg63
g1606
sg56
(lp1613
S'global_settings'
p1614
asbag49
(g70
g51
NtRp1615
(dp1616
g54
(dp1617
g81
g82
ssg63
g1606
sg56
(lp1618
S':'
asbag49
(g70
g51
NtRp1619
(dp1620
g54
(dp1621
sg63
g1606
sg56
(lp1622
g49
(g50
g51
NtRp1623
(dp1624
g54
(dp1625
g62
I5
ssg63
g1619
sg56
(lp1626
g49
(g58
g51
NtRp1627
(dp1628
g54
(dp1629
g62
I4
ssg63
Nsg56
(lp1630
g49
(g65
g51
NtRp1631
(dp1632
g54
(dp1633
sg63
g1627
sg56
(lp1634
g49
(g70
g51
NtRp1635
(dp1636
g54
(dp1637
g74
g75
ssg63
g1631
sg56
(lp1638
g600
asbag49
(g70
g51
NtRp1639
(dp1640
g54
(dp1641
g81
g82
ssg63
g1631
sg56
(lp1642
S':'
asbag49
(g70
g51
NtRp1643
(dp1644
g54
(dp1645
sg63
g1631
sg56
(lp1646
g49
(g50
g51
NtRp1647
(dp1648
g54
(dp1649
g62
I4
ssg63
g1643
sg56
(lp1650
S"set(['C:\\\\Users\\\\Bussiere\\\\Dropbox\\\\Projets\\\\Yuki\\\\web2py\\\\applications\\\\init\\\\', 'C:\\\\Users\\\\Bussiere\\\\Dropbox\\\\Projets\\\\Yuki\\\\web2py\\\\applications\\\\admin\\\\'])"
p1651
asbasbasbag49
(g65
g51
NtRp1652
(dp1653
g54
(dp1654
sg63
g1627
sg56
(lp1655
g49
(g70
g51
NtRp1656
(dp1657
g54
(dp1658
g74
g75
ssg63
g1652
sg56
(lp1659
g622
asbag49
(g70
g51
NtRp1660
(dp1661
g54
(dp1662
g81
g82
ssg63
g1652
sg56
(lp1663
S':'
asbag49
(g70
g51
NtRp1664
(dp1665
g54
(dp1666
sg63
g1652
sg56
(lp1667
g49
(g50
g51
NtRp1668
(dp1669
g54
(dp1670
g62
I4
ssg63
g1664
sg56
(lp1671
g635
asbasbasbag49
(g65
g51
NtRp1672
(dp1673
g54
(dp1674
sg63
g1627
sg56
(lp1675
g49
(g70
g51
NtRp1676
(dp1677
g54
(dp1678
g74
g75
ssg63
g1672
sg56
(lp1679
g644
asbag49
(g70
g51
NtRp1680
(dp1681
g54
(dp1682
g81
g82
ssg63
g1672
sg56
(lp1683
S':'
asbag49
(g70
g51
NtRp1684
(dp1685
g54
(dp1686
sg63
g1672
sg56
(lp1687
g49
(g50
g51
NtRp1688
(dp1689
g54
(dp1690
g62
I4
ssg63
g1684
sg56
(lp1691
g49
(g58
g51
NtRp1692
(dp1693
g54
(dp1694
g62
I3
ssg63
Nsg56
(lp1695
sbasbasbasbag49
(g65
g51
NtRp1696
(dp1697
g54
(dp1698
sg63
g1627
sg56
(lp1699
g49
(g70
g51
NtRp1700
(dp1701
g54
(dp1702
g74
g75
ssg63
g1696
sg56
(lp1703
g669
asbag49
(g70
g51
NtRp1704
(dp1705
g54
(dp1706
g81
g82
ssg63
g1696
sg56
(lp1707
S':'
asbag49
(g70
g51
NtRp1708
(dp1709
g54
(dp1710
sg63
g1696
sg56
(lp1711
g49
(g50
g51
NtRp1712
(dp1713
g54
(dp1714
g62
I4
ssg63
g1708
sg56
(lp1715
S"<Values at 0x3a74f58: {'verbose': False, 'ip': '127.0.0.1', 'shutdown_timeout': 5, 'taskbar': False, 'nocron': False, 'pid_filename': 'httpserver.pid', 'maxthreads': None, 'softcron': False, 'server_name': 'Batou', 'bpython': False, 'nogui': False, 'port': 8000, 'extcron': False, 'debuglevel': 30, 'test': None, 'folder': 'C:\\\\Users\\\\Bussiere\\\\Dropbox\\\\Projets\\\\Yuki\\\\web2py', 'config': '', 'import_models': False, 'winservice': '', 'shell': None, 'run': '', 'log_filename': 'httpserver.log', 'args': [''], 'socket_timeout': 5, 'ssl_ca_certificate': None, 'scheduler': None, 'profiler_filename': None, 'ssl_private_key': '', 'password': '<ask>', 'request_queue_size': 5, 'ssl_certificate': '', 'cronjob': False, 'numthreads': None, 'quiet': False, 'interfaces': None, 'minthreads': None, 'timeout': 10, 'plain': False, 'nobanner': False}>"
p1716
asbasbasbag49
(g65
g51
NtRp1717
(dp1718
g54
(dp1719
sg63
g1627
sg56
(lp1720
g49
(g70
g51
NtRp1721
(dp1722
g54
(dp1723
g74
g75
ssg63
g1717
sg56
(lp1724
g691
asbag49
(g70
g51
NtRp1725
(dp1726
g54
(dp1727
g81
g82
ssg63
g1717
sg56
(lp1728
S':'
asbag49
(g70
g51
NtRp1729
(dp1730
g54
(dp1731
sg63
g1717
sg56
(lp1732
g49
(g50
g51
NtRp1733
(dp1734
g54
(dp1735
g62
I4
ssg63
g1729
sg56
(lp1736
S'set([])'
p1737
asbasbasbag49
(g65
g51
NtRp1738
(dp1739
g54
(dp1740
sg63
g1627
sg56
(lp1741
g49
(g70
g51
NtRp1742
(dp1743
g54
(dp1744
g74
g75
ssg63
g1738
sg56
(lp1745
g713
asbag49
(g70
g51
NtRp1746
(dp1747
g54
(dp1748
g81
g82
ssg63
g1738
sg56
(lp1749
S':'
asbag49
(g70
g51
NtRp1750
(dp1751
g54
(dp1752
sg63
g1738
sg56
(lp1753
g49
(g50
g51
NtRp1754
(dp1755
g54
(dp1756
g62
I4
ssg63
g1750
sg56
(lp1757
g726
asbasbasbag49
(g65
g51
NtRp1758
(dp1759
g54
(dp1760
sg63
g1627
sg56
(lp1761
g49
(g70
g51
NtRp1762
(dp1763
g54
(dp1764
g74
g75
ssg63
g1758
sg56
(lp1765
g735
asbag49
(g70
g51
NtRp1766
(dp1767
g54
(dp1768
g81
g82
ssg63
g1758
sg56
(lp1769
S':'
asbag49
(g70
g51
NtRp1770
(dp1771
g54
(dp1772
sg63
g1758
sg56
(lp1773
g49
(g50
g51
NtRp1774
(dp1775
g54
(dp1776
g62
I4
ssg63
g1770
sg56
(lp1777
g748
asbasbasbag49
(g65
g51
NtRp1778
(dp1779
g54
(dp1780
sg63
g1627
sg56
(lp1781
g49
(g70
g51
NtRp1782
(dp1783
g54
(dp1784
g74
g75
ssg63
g1778
sg56
(lp1785
g933
asbag49
(g70
g51
NtRp1786
(dp1787
g54
(dp1788
g81
g82
ssg63
g1778
sg56
(lp1789
S':'
asbag49
(g70
g51
NtRp1790
(dp1791
g54
(dp1792
sg63
g1778
sg56
(lp1793
g49
(g50
g51
NtRp1794
(dp1795
g54
(dp1796
g62
I4
ssg63
g1790
sg56
(lp1797
g92
asbasbasbag49
(g65
g51
NtRp1798
(dp1799
g54
(dp1800
sg63
g1627
sg56
(lp1801
g49
(g70
g51
NtRp1802
(dp1803
g54
(dp1804
g74
g75
ssg63
g1798
sg56
(lp1805
g954
asbag49
(g70
g51
NtRp1806
(dp1807
g54
(dp1808
g81
g82
ssg63
g1798
sg56
(lp1809
S':'
asbag49
(g70
g51
NtRp1810
(dp1811
g54
(dp1812
sg63
g1798
sg56
(lp1813
g49
(g50
g51
NtRp1814
(dp1815
g54
(dp1816
g62
I4
ssg63
g1810
sg56
(lp1817
g92
asbasbasbag49
(g65
g51
NtRp1818
(dp1819
g54
(dp1820
sg63
g1627
sg56
(lp1821
g49
(g70
g51
NtRp1822
(dp1823
g54
(dp1824
g74
g75
ssg63
g1818
sg56
(lp1825
g1192
asbag49
(g70
g51
NtRp1826
(dp1827
g54
(dp1828
g81
g82
ssg63
g1818
sg56
(lp1829
S':'
asbag49
(g70
g51
NtRp1830
(dp1831
g54
(dp1832
sg63
g1818
sg56
(lp1833
g49
(g50
g51
NtRp1834
(dp1835
g54
(dp1836
g62
I4
ssg63
g1830
sg56
(lp1837
g1205
asbasbasbag49
(g65
g51
NtRp1838
(dp1839
g54
(dp1840
sg63
g1627
sg56
(lp1841
g49
(g70
g51
NtRp1842
(dp1843
g54
(dp1844
g74
g75
ssg63
g1838
sg56
(lp1845
g1235
asbag49
(g70
g51
NtRp1846
(dp1847
g54
(dp1848
g81
g82
ssg63
g1838
sg56
(lp1849
S':'
asbag49
(g70
g51
NtRp1850
(dp1851
g54
(dp1852
sg63
g1838
sg56
(lp1853
g49
(g50
g51
NtRp1854
(dp1855
g54
(dp1856
g62
I4
ssg63
g1850
sg56
(lp1857
g49
(g58
g51
NtRp1858
(dp1859
g54
(dp1860
g62
I3
ssg63
Nsg56
(lp1861
g49
(g65
g51
NtRp1862
(dp1863
g54
(dp1864
sg63
g1858
sg56
(lp1865
g49
(g70
g51
NtRp1866
(dp1867
g54
(dp1868
sg63
g1862
sg56
(lp1869
g49
(g50
g51
NtRp1870
(dp1871
g54
(dp1872
g62
I3
ssg63
g1866
sg56
(lp1873
S'1'
asbasbasbag49
(g65
g51
NtRp1874
(dp1875
g54
(dp1876
sg63
g1858
sg56
(lp1877
g49
(g70
g51
NtRp1878
(dp1879
g54
(dp1880
sg63
g1874
sg56
(lp1881
g49
(g50
g51
NtRp1882
(dp1883
g54
(dp1884
g62
I3
ssg63
g1878
sg56
(lp1885
S'99'
p1886
asbasbasbag49
(g65
g51
NtRp1887
(dp1888
g54
(dp1889
sg63
g1858
sg56
(lp1890
g49
(g70
g51
NtRp1891
(dp1892
g54
(dp1893
sg63
g1887
sg56
(lp1894
g49
(g50
g51
NtRp1895
(dp1896
g54
(dp1897
g62
I3
ssg63
g1891
sg56
(lp1898
S'7'
asbasbasbag49
(g65
g51
NtRp1899
(dp1900
g54
(dp1901
sg63
g1858
sg56
(lp1902
g49
(g70
g51
NtRp1903
(dp1904
g54
(dp1905
sg63
g1899
sg56
(lp1906
g49
(g50
g51
NtRp1907
(dp1908
g54
(dp1909
g62
I3
ssg63
g1903
sg56
(lp1910
S'datetime.datetime(2012, 3, 4, 22, 12, 8)'
p1911
asbasbasbag49
(g65
g51
NtRp1912
(dp1913
g54
(dp1914
sg63
g1858
sg56
(lp1915
g49
(g70
g51
NtRp1916
(dp1917
g54
(dp1918
sg63
g1912
sg56
(lp1919
g49
(g50
g51
NtRp1920
(dp1921
g54
(dp1922
g62
I3
ssg63
g1916
sg56
(lp1923
g1314
asbasbasbasbasbasbasbasbasbasbasbag49
(g65
g51
NtRp1924
(dp1925
g54
(dp1926
sg63
g59
sg56
(lp1927
g49
(g70
g51
NtRp1928
(dp1929
g54
(dp1930
g74
g75
ssg63
g1924
sg56
(lp1931
S'is_https'
p1932
asbag49
(g70
g51
NtRp1933
(dp1934
g54
(dp1935
g81
g82
ssg63
g1924
sg56
(lp1936
S':'
asbag49
(g70
g51
NtRp1937
(dp1938
g54
(dp1939
sg63
g1924
sg56
(lp1940
g49
(g50
g51
NtRp1941
(dp1942
g54
(dp1943
g62
I5
ssg63
g1937
sg56
(lp1944
g92
asbasbasbag49
(g65
g51
NtRp1945
(dp1946
g54
(dp1947
sg63
g59
sg56
(lp1948
g49
(g70
g51
NtRp1949
(dp1950
g54
(dp1951
g74
g75
ssg63
g1945
sg56
(lp1952
S'is_local'
p1953
asbag49
(g70
g51
NtRp1954
(dp1955
g54
(dp1956
g81
g82
ssg63
g1945
sg56
(lp1957
S':'
asbag49
(g70
g51
NtRp1958
(dp1959
g54
(dp1960
sg63
g1945
sg56
(lp1961
g49
(g50
g51
NtRp1962
(dp1963
g54
(dp1964
g62
I5
ssg63
g1958
sg56
(lp1965
g726
asbasbasbag49
(g65
g51
NtRp1966
(dp1967
g54
(dp1968
sg63
g59
sg56
(lp1969
g49
(g70
g51
NtRp1970
(dp1971
g54
(dp1972
g74
g75
ssg63
g1966
sg56
(lp1973
S'is_restful'
p1974
asbag49
(g70
g51
NtRp1975
(dp1976
g54
(dp1977
g81
g82
ssg63
g1966
sg56
(lp1978
S':'
asbag49
(g70
g51
NtRp1979
(dp1980
g54
(dp1981
sg63
g1966
sg56
(lp1982
g49
(g50
g51
NtRp1983
(dp1984
g54
(dp1985
g62
I5
ssg63
g1979
sg56
(lp1986
g92
asbasbasbag49
(g65
g51
NtRp1987
(dp1988
g54
(dp1989
sg63
g59
sg56
(lp1990
g49
(g70
g51
NtRp1991
(dp1992
g54
(dp1993
g74
g75
ssg63
g1987
sg56
(lp1994
S'now'
p1995
asbag49
(g70
g51
NtRp1996
(dp1997
g54
(dp1998
g81
g82
ssg63
g1987
sg56
(lp1999
S':'
asbag49
(g70
g51
NtRp2000
(dp2001
g54
(dp2002
sg63
g1987
sg56
(lp2003
g49
(g50
g51
NtRp2004
(dp2005
g54
(dp2006
g62
I5
ssg63
g2000
sg56
(lp2007
S'datetime.datetime(2012, 3, 11, 18, 5, 35, 28000)'
p2008
asbasbasbag49
(g65
g51
NtRp2009
(dp2010
g54
(dp2011
sg63
g59
sg56
(lp2012
g49
(g70
g51
NtRp2013
(dp2014
g54
(dp2015
g74
g75
ssg63
g2009
sg56
(lp2016
S'post_vars'
p2017
asbag49
(g70
g51
NtRp2018
(dp2019
g54
(dp2020
g81
g82
ssg63
g2009
sg56
(lp2021
S':'
asbag49
(g70
g51
NtRp2022
(dp2023
g54
(dp2024
sg63
g2009
sg56
(lp2025
g49
(g50
g51
NtRp2026
(dp2027
g54
(dp2028
g62
I5
ssg63
g2022
sg56
(lp2029
g49
(g58
g51
NtRp2030
(dp2031
g54
(dp2032
g62
I4
ssg63
Nsg56
(lp2033
sbasbasbasbag49
(g65
g51
NtRp2034
(dp2035
g54
(dp2036
sg63
g59
sg56
(lp2037
g49
(g70
g51
NtRp2038
(dp2039
g54
(dp2040
g74
g75
ssg63
g2034
sg56
(lp2041
S'raw_args'
p2042
asbag49
(g70
g51
NtRp2043
(dp2044
g54
(dp2045
g81
g82
ssg63
g2034
sg56
(lp2046
S':'
asbag49
(g70
g51
NtRp2047
(dp2048
g54
(dp2049
sg63
g2034
sg56
(lp2050
g49
(g50
g51
NtRp2051
(dp2052
g54
(dp2053
g62
I5
ssg63
g2047
sg56
(lp2054
S''
asbasbasbag49
(g65
g51
NtRp2055
(dp2056
g54
(dp2057
sg63
g59
sg56
(lp2058
g49
(g70
g51
NtRp2059
(dp2060
g54
(dp2061
g74
g75
ssg63
g2055
sg56
(lp2062
S'url'
p2063
asbag49
(g70
g51
NtRp2064
(dp2065
g54
(dp2066
g81
g82
ssg63
g2055
sg56
(lp2067
S':'
asbag49
(g70
g51
NtRp2068
(dp2069
g54
(dp2070
sg63
g2055
sg56
(lp2071
g49
(g50
g51
NtRp2072
(dp2073
g54
(dp2074
g62
I5
ssg63
g2068
sg56
(lp2075
S'/init/default/addBarcode'
p2076
asbasbasbag49
(g65
g51
NtRp2077
(dp2078
g54
(dp2079
sg63
g59
sg56
(lp2080
g49
(g70
g51
NtRp2081
(dp2082
g54
(dp2083
g74
g75
ssg63
g2077
sg56
(lp2084
S'utcnow'
p2085
asbag49
(g70
g51
NtRp2086
(dp2087
g54
(dp2088
g81
g82
ssg63
g2077
sg56
(lp2089
S':'
asbag49
(g70
g51
NtRp2090
(dp2091
g54
(dp2092
sg63
g2077
sg56
(lp2093
g49
(g50
g51
NtRp2094
(dp2095
g54
(dp2096
g62
I5
ssg63
g2090
sg56
(lp2097
S'datetime.datetime(2012, 3, 11, 17, 5, 35, 29000)'
p2098
asbasbasbag49
(g65
g51
NtRp2099
(dp2100
g54
(dp2101
sg63
g59
sg56
(lp2102
g49
(g70
g51
NtRp2103
(dp2104
g54
(dp2105
g74
g75
ssg63
g2099
sg56
(lp2106
S'uuid'
p2107
asbag49
(g70
g51
NtRp2108
(dp2109
g54
(dp2110
g81
g82
ssg63
g2099
sg56
(lp2111
S':'
asbag49
(g70
g51
NtRp2112
(dp2113
g54
(dp2114
sg63
g2099
sg56
(lp2115
g49
(g50
g51
NtRp2116
(dp2117
g54
(dp2118
g62
I5
ssg63
g2112
sg56
(lp2119
S'init/127.0.0.1.2012-03-11.18-05-35.b9f50eca-55e6-4e25-880d-03d65752c567'
p2120
asbasbasbag49
(g65
g51
NtRp2121
(dp2122
g54
(dp2123
sg63
g59
sg56
(lp2124
g49
(g70
g51
NtRp2125
(dp2126
g54
(dp2127
g74
g75
ssg63
g2121
sg56
(lp2128
S'vars'
p2129
asbag49
(g70
g51
NtRp2130
(dp2131
g54
(dp2132
g81
g82
ssg63
g2121
sg56
(lp2133
S':'
asbag49
(g70
g51
NtRp2134
(dp2135
g54
(dp2136
sg63
g2121
sg56
(lp2137
g49
(g50
g51
NtRp2138
(dp2139
g54
(dp2140
g62
I5
ssg63
g2134
sg56
(lp2141
g49
(g58
g51
NtRp2142
(dp2143
g54
(dp2144
g62
I4
ssg63
Nsg56
(lp2145
sbasbasbasbag49
(g65
g51
NtRp2146
(dp2147
g54
(dp2148
sg63
g59
sg56
(lp2149
g49
(g70
g51
NtRp2150
(dp2151
g54
(dp2152
g74
g75
ssg63
g2146
sg56
(lp2153
S'wsgi'
p2154
asbag49
(g70
g51
NtRp2155
(dp2156
g54
(dp2157
g81
g82
ssg63
g2146
sg56
(lp2158
S':'
asbag49
(g70
g51
NtRp2159
(dp2160
g54
(dp2161
sg63
g2146
sg56
(lp2162
g49
(g50
g51
NtRp2163
(dp2164
g54
(dp2165
g62
I5
ssg63
g2159
sg56
(lp2166
g49
(g58
g51
NtRp2167
(dp2168
g54
(dp2169
g62
I4
ssg63
Nsg56
(lp2170
g49
(g65
g51
NtRp2171
(dp2172
g54
(dp2173
sg63
g2167
sg56
(lp2174
g49
(g70
g51
NtRp2175
(dp2176
g54
(dp2177
g74
g75
ssg63
g2171
sg56
(lp2178
S'environ'
p2179
asbag49
(g70
g51
NtRp2180
(dp2181
g54
(dp2182
g81
g82
ssg63
g2171
sg56
(lp2183
S':'
asbag49
(g70
g51
NtRp2184
(dp2185
g54
(dp2186
sg63
g2171
sg56
(lp2187
g49
(g50
g51
NtRp2188
(dp2189
g54
(dp2190
g62
I4
ssg63
g2184
sg56
(lp2191
g49
(g58
g51
NtRp2192
(dp2193
g54
(dp2194
g62
I3
ssg63
Nsg56
(lp2195
g49
(g65
g51
NtRp2196
(dp2197
g54
(dp2198
sg63
g2192
sg56
(lp2199
g49
(g70
g51
NtRp2200
(dp2201
g54
(dp2202
g74
g75
ssg63
g2196
sg56
(lp2203
S'HTTP_ACCEPT'
p2204
asbag49
(g70
g51
NtRp2205
(dp2206
g54
(dp2207
g81
g82
ssg63
g2196
sg56
(lp2208
S':'
asbag49
(g70
g51
NtRp2209
(dp2210
g54
(dp2211
sg63
g2196
sg56
(lp2212
g49
(g50
g51
NtRp2213
(dp2214
g54
(dp2215
g62
I3
ssg63
g2209
sg56
(lp2216
g770
asbasbasbag49
(g65
g51
NtRp2217
(dp2218
g54
(dp2219
sg63
g2192
sg56
(lp2220
g49
(g70
g51
NtRp2221
(dp2222
g54
(dp2223
g74
g75
ssg63
g2217
sg56
(lp2224
S'HTTP_ACCEPT_CHARSET'
p2225
asbag49
(g70
g51
NtRp2226
(dp2227
g54
(dp2228
g81
g82
ssg63
g2217
sg56
(lp2229
S':'
asbag49
(g70
g51
NtRp2230
(dp2231
g54
(dp2232
sg63
g2217
sg56
(lp2233
g49
(g50
g51
NtRp2234
(dp2235
g54
(dp2236
g62
I3
ssg63
g2230
sg56
(lp2237
g792
asbasbasbag49
(g65
g51
NtRp2238
(dp2239
g54
(dp2240
sg63
g2192
sg56
(lp2241
g49
(g70
g51
NtRp2242
(dp2243
g54
(dp2244
g74
g75
ssg63
g2238
sg56
(lp2245
S'HTTP_ACCEPT_ENCODING'
p2246
asbag49
(g70
g51
NtRp2247
(dp2248
g54
(dp2249
g81
g82
ssg63
g2238
sg56
(lp2250
S':'
asbag49
(g70
g51
NtRp2251
(dp2252
g54
(dp2253
sg63
g2238
sg56
(lp2254
g49
(g50
g51
NtRp2255
(dp2256
g54
(dp2257
g62
I3
ssg63
g2251
sg56
(lp2258
g814
asbasbasbag49
(g65
g51
NtRp2259
(dp2260
g54
(dp2261
sg63
g2192
sg56
(lp2262
g49
(g70
g51
NtRp2263
(dp2264
g54
(dp2265
g74
g75
ssg63
g2259
sg56
(lp2266
S'HTTP_ACCEPT_LANGUAGE'
p2267
asbag49
(g70
g51
NtRp2268
(dp2269
g54
(dp2270
g81
g82
ssg63
g2259
sg56
(lp2271
S':'
asbag49
(g70
g51
NtRp2272
(dp2273
g54
(dp2274
sg63
g2259
sg56
(lp2275
g49
(g50
g51
NtRp2276
(dp2277
g54
(dp2278
g62
I3
ssg63
g2272
sg56
(lp2279
g836
asbasbasbag49
(g65
g51
NtRp2280
(dp2281
g54
(dp2282
sg63
g2192
sg56
(lp2283
g49
(g70
g51
NtRp2284
(dp2285
g54
(dp2286
g74
g75
ssg63
g2280
sg56
(lp2287
S'HTTP_CONNECTION'
p2288
asbag49
(g70
g51
NtRp2289
(dp2290
g54
(dp2291
g81
g82
ssg63
g2280
sg56
(lp2292
S':'
asbag49
(g70
g51
NtRp2293
(dp2294
g54
(dp2295
sg63
g2280
sg56
(lp2296
g49
(g50
g51
NtRp2297
(dp2298
g54
(dp2299
g62
I3
ssg63
g2293
sg56
(lp2300
g858
asbasbasbag49
(g65
g51
NtRp2301
(dp2302
g54
(dp2303
sg63
g2192
sg56
(lp2304
g49
(g70
g51
NtRp2305
(dp2306
g54
(dp2307
g74
g75
ssg63
g2301
sg56
(lp2308
S'HTTP_COOKIE'
p2309
asbag49
(g70
g51
NtRp2310
(dp2311
g54
(dp2312
g81
g82
ssg63
g2301
sg56
(lp2313
S':'
asbag49
(g70
g51
NtRp2314
(dp2315
g54
(dp2316
sg63
g2301
sg56
(lp2317
g49
(g50
g51
NtRp2318
(dp2319
g54
(dp2320
g62
I3
ssg63
g2314
sg56
(lp2321
g880
asbasbasbag49
(g65
g51
NtRp2322
(dp2323
g54
(dp2324
sg63
g2192
sg56
(lp2325
g49
(g70
g51
NtRp2326
(dp2327
g54
(dp2328
g74
g75
ssg63
g2322
sg56
(lp2329
S'HTTP_HOST'
p2330
asbag49
(g70
g51
NtRp2331
(dp2332
g54
(dp2333
g81
g82
ssg63
g2322
sg56
(lp2334
S':'
asbag49
(g70
g51
NtRp2335
(dp2336
g54
(dp2337
sg63
g2322
sg56
(lp2338
g49
(g50
g51
NtRp2339
(dp2340
g54
(dp2341
g62
I3
ssg63
g2335
sg56
(lp2342
g902
asbasbasbag49
(g65
g51
NtRp2343
(dp2344
g54
(dp2345
sg63
g2192
sg56
(lp2346
g49
(g70
g51
NtRp2347
(dp2348
g54
(dp2349
g74
g75
ssg63
g2343
sg56
(lp2350
S'HTTP_USER_AGENT'
p2351
asbag49
(g70
g51
NtRp2352
(dp2353
g54
(dp2354
g81
g82
ssg63
g2343
sg56
(lp2355
S':'
asbag49
(g70
g51
NtRp2356
(dp2357
g54
(dp2358
sg63
g2343
sg56
(lp2359
g49
(g50
g51
NtRp2360
(dp2361
g54
(dp2362
g62
I3
ssg63
g2356
sg56
(lp2363
g924
asbasbasbag49
(g65
g51
NtRp2364
(dp2365
g54
(dp2366
sg63
g2192
sg56
(lp2367
g49
(g70
g51
NtRp2368
(dp2369
g54
(dp2370
g74
g75
ssg63
g2364
sg56
(lp2371
S'PATH_INFO'
p2372
asbag49
(g70
g51
NtRp2373
(dp2374
g54
(dp2375
g81
g82
ssg63
g2364
sg56
(lp2376
S':'
asbag49
(g70
g51
NtRp2377
(dp2378
g54
(dp2379
sg63
g2364
sg56
(lp2380
g49
(g50
g51
NtRp2381
(dp2382
g54
(dp2383
g62
I3
ssg63
g2377
sg56
(lp2384
g988
asbasbasbag49
(g65
g51
NtRp2385
(dp2386
g54
(dp2387
sg63
g2192
sg56
(lp2388
g49
(g70
g51
NtRp2389
(dp2390
g54
(dp2391
g74
g75
ssg63
g2385
sg56
(lp2392
S'QUERY_STRING'
p2393
asbag49
(g70
g51
NtRp2394
(dp2395
g54
(dp2396
g81
g82
ssg63
g2385
sg56
(lp2397
S':'
asbag49
(g70
g51
NtRp2398
(dp2399
g54
(dp2400
sg63
g2385
sg56
(lp2401
g49
(g50
g51
NtRp2402
(dp2403
g54
(dp2404
g62
I3
ssg63
g2398
sg56
(lp2405
S''
asbasbasbag49
(g65
g51
NtRp2406
(dp2407
g54
(dp2408
sg63
g2192
sg56
(lp2409
g49
(g70
g51
NtRp2410
(dp2411
g54
(dp2412
g74
g75
ssg63
g2406
sg56
(lp2413
S'REMOTE_ADDR'
p2414
asbag49
(g70
g51
NtRp2415
(dp2416
g54
(dp2417
g81
g82
ssg63
g2406
sg56
(lp2418
S':'
asbag49
(g70
g51
NtRp2419
(dp2420
g54
(dp2421
sg63
g2406
sg56
(lp2422
g49
(g50
g51
NtRp2423
(dp2424
g54
(dp2425
g62
I3
ssg63
g2419
sg56
(lp2426
g182
asbasbasbag49
(g65
g51
NtRp2427
(dp2428
g54
(dp2429
sg63
g2192
sg56
(lp2430
g49
(g70
g51
NtRp2431
(dp2432
g54
(dp2433
g74
g75
ssg63
g2427
sg56
(lp2434
S'REMOTE_PORT'
p2435
asbag49
(g70
g51
NtRp2436
(dp2437
g54
(dp2438
g81
g82
ssg63
g2427
sg56
(lp2439
S':'
asbag49
(g70
g51
NtRp2440
(dp2441
g54
(dp2442
sg63
g2427
sg56
(lp2443
g49
(g50
g51
NtRp2444
(dp2445
g54
(dp2446
g62
I3
ssg63
g2440
sg56
(lp2447
g1052
asbasbasbag49
(g65
g51
NtRp2448
(dp2449
g54
(dp2450
sg63
g2192
sg56
(lp2451
g49
(g70
g51
NtRp2452
(dp2453
g54
(dp2454
g74
g75
ssg63
g2448
sg56
(lp2455
S'REQUEST_METHOD'
p2456
asbag49
(g70
g51
NtRp2457
(dp2458
g54
(dp2459
g81
g82
ssg63
g2448
sg56
(lp2460
S':'
asbag49
(g70
g51
NtRp2461
(dp2462
g54
(dp2463
sg63
g2448
sg56
(lp2464
g49
(g50
g51
NtRp2465
(dp2466
g54
(dp2467
g62
I3
ssg63
g2461
sg56
(lp2468
g1074
asbasbasbag49
(g65
g51
NtRp2469
(dp2470
g54
(dp2471
sg63
g2192
sg56
(lp2472
g49
(g70
g51
NtRp2473
(dp2474
g54
(dp2475
g74
g75
ssg63
g2469
sg56
(lp2476
S'SCRIPT_NAME'
p2477
asbag49
(g70
g51
NtRp2478
(dp2479
g54
(dp2480
g81
g82
ssg63
g2469
sg56
(lp2481
S':'
asbag49
(g70
g51
NtRp2482
(dp2483
g54
(dp2484
sg63
g2469
sg56
(lp2485
g49
(g50
g51
NtRp2486
(dp2487
g54
(dp2488
g62
I3
ssg63
g2482
sg56
(lp2489
S''
asbasbasbag49
(g65
g51
NtRp2490
(dp2491
g54
(dp2492
sg63
g2192
sg56
(lp2493
g49
(g70
g51
NtRp2494
(dp2495
g54
(dp2496
g74
g75
ssg63
g2490
sg56
(lp2497
S'SERVER_NAME'
p2498
asbag49
(g70
g51
NtRp2499
(dp2500
g54
(dp2501
g81
g82
ssg63
g2490
sg56
(lp2502
S':'
asbag49
(g70
g51
NtRp2503
(dp2504
g54
(dp2505
sg63
g2490
sg56
(lp2506
g49
(g50
g51
NtRp2507
(dp2508
g54
(dp2509
g62
I3
ssg63
g2503
sg56
(lp2510
g1117
asbasbasbag49
(g65
g51
NtRp2511
(dp2512
g54
(dp2513
sg63
g2192
sg56
(lp2514
g49
(g70
g51
NtRp2515
(dp2516
g54
(dp2517
g74
g75
ssg63
g2511
sg56
(lp2518
S'SERVER_PORT'
p2519
asbag49
(g70
g51
NtRp2520
(dp2521
g54
(dp2522
g81
g82
ssg63
g2511
sg56
(lp2523
S':'
asbag49
(g70
g51
NtRp2524
(dp2525
g54
(dp2526
sg63
g2511
sg56
(lp2527
g49
(g50
g51
NtRp2528
(dp2529
g54
(dp2530
g62
I3
ssg63
g2524
sg56
(lp2531
g1139
asbasbasbag49
(g65
g51
NtRp2532
(dp2533
g54
(dp2534
sg63
g2192
sg56
(lp2535
g49
(g70
g51
NtRp2536
(dp2537
g54
(dp2538
g74
g75
ssg63
g2532
sg56
(lp2539
S'SERVER_PROTOCOL'
p2540
asbag49
(g70
g51
NtRp2541
(dp2542
g54
(dp2543
g81
g82
ssg63
g2532
sg56
(lp2544
S':'
asbag49
(g70
g51
NtRp2545
(dp2546
g54
(dp2547
sg63
g2532
sg56
(lp2548
g49
(g50
g51
NtRp2549
(dp2550
g54
(dp2551
g62
I3
ssg63
g2545
sg56
(lp2552
g1161
asbasbasbag49
(g65
g51
NtRp2553
(dp2554
g54
(dp2555
sg63
g2192
sg56
(lp2556
g49
(g70
g51
NtRp2557
(dp2558
g54
(dp2559
g74
g75
ssg63
g2553
sg56
(lp2560
S'SERVER_SOFTWARE'
p2561
asbag49
(g70
g51
NtRp2562
(dp2563
g54
(dp2564
g81
g82
ssg63
g2553
sg56
(lp2565
S':'
asbag49
(g70
g51
NtRp2566
(dp2567
g54
(dp2568
sg63
g2553
sg56
(lp2569
g49
(g50
g51
NtRp2570
(dp2571
g54
(dp2572
g62
I3
ssg63
g2566
sg56
(lp2573
g1183
asbasbasbag49
(g65
g51
NtRp2574
(dp2575
g54
(dp2576
sg63
g2192
sg56
(lp2577
g49
(g70
g51
NtRp2578
(dp2579
g54
(dp2580
g74
g75
ssg63
g2574
sg56
(lp2581
S'wsgi.errors'
p2582
asbag49
(g70
g51
NtRp2583
(dp2584
g54
(dp2585
g81
g82
ssg63
g2574
sg56
(lp2586
S':'
asbag49
(g70
g51
NtRp2587
(dp2588
g54
(dp2589
sg63
g2574
sg56
(lp2590
g49
(g50
g51
NtRp2591
(dp2592
g54
(dp2593
g62
I3
ssg63
g2587
sg56
(lp2594
S"<open file '<stderr>', mode 'w' at 0x020200B0>"
p2595
asbasbasbag49
(g65
g51
NtRp2596
(dp2597
g54
(dp2598
sg63
g2192
sg56
(lp2599
g49
(g70
g51
NtRp2600
(dp2601
g54
(dp2602
g74
g75
ssg63
g2596
sg56
(lp2603
S'wsgi.file_wrapper'
p2604
asbag49
(g70
g51
NtRp2605
(dp2606
g54
(dp2607
g81
g82
ssg63
g2596
sg56
(lp2608
S':'
asbag49
(g70
g51
NtRp2609
(dp2610
g54
(dp2611
sg63
g2596
sg56
(lp2612
g49
(g50
g51
NtRp2613
(dp2614
g54
(dp2615
g62
I3
ssg63
g2609
sg56
(lp2616
S'<class wsgiref.util.FileWrapper at 0x02BF68D0>'
p2617
asbasbasbag49
(g65
g51
NtRp2618
(dp2619
g54
(dp2620
sg63
g2192
sg56
(lp2621
g49
(g70
g51
NtRp2622
(dp2623
g54
(dp2624
g74
g75
ssg63
g2618
sg56
(lp2625
S'wsgi.input'
p2626
asbag49
(g70
g51
NtRp2627
(dp2628
g54
(dp2629
g81
g82
ssg63
g2618
sg56
(lp2630
S':'
asbag49
(g70
g51
NtRp2631
(dp2632
g54
(dp2633
sg63
g2618
sg56
(lp2634
g49
(g50
g51
NtRp2635
(dp2636
g54
(dp2637
g62
I3
ssg63
g2631
sg56
(lp2638
S'<cStringIO.StringO object at 0x077CAB20>'
p2639
asbasbasbag49
(g65
g51
NtRp2640
(dp2641
g54
(dp2642
sg63
g2192
sg56
(lp2643
g49
(g70
g51
NtRp2644
(dp2645
g54
(dp2646
g74
g75
ssg63
g2640
sg56
(lp2647
S'wsgi.multiprocess'
p2648
asbag49
(g70
g51
NtRp2649
(dp2650
g54
(dp2651
g81
g82
ssg63
g2640
sg56
(lp2652
S':'
asbag49
(g70
g51
NtRp2653
(dp2654
g54
(dp2655
sg63
g2640
sg56
(lp2656
g49
(g50
g51
NtRp2657
(dp2658
g54
(dp2659
g62
I3
ssg63
g2653
sg56
(lp2660
g92
asbasbasbag49
(g65
g51
NtRp2661
(dp2662
g54
(dp2663
sg63
g2192
sg56
(lp2664
g49
(g70
g51
NtRp2665
(dp2666
g54
(dp2667
g74
g75
ssg63
g2661
sg56
(lp2668
S'wsgi.multithread'
p2669
asbag49
(g70
g51
NtRp2670
(dp2671
g54
(dp2672
g81
g82
ssg63
g2661
sg56
(lp2673
S':'
asbag49
(g70
g51
NtRp2674
(dp2675
g54
(dp2676
sg63
g2661
sg56
(lp2677
g49
(g50
g51
NtRp2678
(dp2679
g54
(dp2680
g62
I3
ssg63
g2674
sg56
(lp2681
g726
asbasbasbag49
(g65
g51
NtRp2682
(dp2683
g54
(dp2684
sg63
g2192
sg56
(lp2685
g49
(g70
g51
NtRp2686
(dp2687
g54
(dp2688
g74
g75
ssg63
g2682
sg56
(lp2689
S'wsgi.run_once'
p2690
asbag49
(g70
g51
NtRp2691
(dp2692
g54
(dp2693
g81
g82
ssg63
g2682
sg56
(lp2694
S':'
asbag49
(g70
g51
NtRp2695
(dp2696
g54
(dp2697
sg63
g2682
sg56
(lp2698
g49
(g50
g51
NtRp2699
(dp2700
g54
(dp2701
g62
I3
ssg63
g2695
sg56
(lp2702
g92
asbasbasbag49
(g65
g51
NtRp2703
(dp2704
g54
(dp2705
sg63
g2192
sg56
(lp2706
g49
(g70
g51
NtRp2707
(dp2708
g54
(dp2709
g74
g75
ssg63
g2703
sg56
(lp2710
S'wsgi.url_scheme'
p2711
asbag49
(g70
g51
NtRp2712
(dp2713
g54
(dp2714
g81
g82
ssg63
g2703
sg56
(lp2715
S':'
asbag49
(g70
g51
NtRp2716
(dp2717
g54
(dp2718
sg63
g2703
sg56
(lp2719
g49
(g50
g51
NtRp2720
(dp2721
g54
(dp2722
g62
I3
ssg63
g2716
sg56
(lp2723
g1465
asbasbasbag49
(g65
g51
NtRp2724
(dp2725
g54
(dp2726
sg63
g2192
sg56
(lp2727
g49
(g70
g51
NtRp2728
(dp2729
g54
(dp2730
g74
g75
ssg63
g2724
sg56
(lp2731
S'wsgi.version'
p2732
asbag49
(g70
g51
NtRp2733
(dp2734
g54
(dp2735
g81
g82
ssg63
g2724
sg56
(lp2736
S':'
asbag49
(g70
g51
NtRp2737
(dp2738
g54
(dp2739
sg63
g2724
sg56
(lp2740
g49
(g50
g51
NtRp2741
(dp2742
g54
(dp2743
g62
I3
ssg63
g2737
sg56
(lp2744
S'1'
asbasbasbasbasbasbasbasbasbasbasbasbasbsS'frames'
p2745
(lp2746
(dp2747
S'file'
p2748
S'C:\\Users\\Bussiere\\Dropbox\\Projets\\Yuki\\web2py\\gluon\\restricted.py'
p2749
sS'dump'
p2750
(dp2751
sS'lnum'
p2752
I205
sS'lines'
p2753
(dp2754
I200
S'    try:'
p2755
sI201
S'        if type(code) == types.CodeType:'
p2756
sI202
S'            ccode = code'
p2757
sI203
S'        else:'
p2758
sI204
S'            ccode = compile2(code,layer)'
p2759
sI205
S'        exec ccode in environment'
p2760
sI206
S'    except HTTP:'
p2761
sI207
S'        raise'
p2762
sI208
S'    except RestrictedError:'
p2763
sI209
S'        # do not encapsulate (obfuscate) the original RestrictedError'
p2764
ssS'call'
p2765
S"(code='# -*- coding: utf-8 -*-\\n# this file is released ...))\\n\\n\\nresponse._vars=response._caller(addBarcode)\\n', environment={'A': <class 'gluon.html.A'>, 'Auth': <class 'gluon.tools.Auth'>, 'B': <class 'gluon.html.B'>, 'BEAUTIFY': <class 'gluon.html.BEAUTIFY'>, 'BODY': <class 'gluon.html.BODY'>, 'BR': <class 'gluon.html.BR'>, 'BUTTON': <class 'gluon.html.BUTTON'>, 'CAT': <class 'gluon.html.CAT'>, 'CENTER': <class 'gluon.html.CENTER'>, 'CLEANUP': <class 'gluon.validators.CLEANUP'>, ...}, layer=r'C:\\Users\\Bussiere\\Dropbox\\Projets\\Yuki\\web2py\\applications\\init\\controllers/default.py')"
p2766
sS'func'
p2767
S'restricted'
p2768
sa(dp2769
g2748
S'C:\\Users\\Bussiere\\Dropbox\\Projets\\Yuki\\web2py\\applications\\init\\controllers\\default.py'
p2770
sg2750
(dp2771
sg2752
I98
sg2753
(dp2772
I96
S''
sI87
S'    http://..../[app]/default/data/delete/[table]/[id]'
p2773
sI88
S'    http://..../[app]/default/data/select/[table]'
p2774
sI89
S'    http://..../[app]/default/data/search/[table]'
p2775
sI90
S'    but URLs must be signed, i.e. linked with'
p2776
sI91
S"      A('table',_href=URL('data/tables',user_signature=True))"
p2777
sI92
S'    or with the signed load operator'
p2778
sI93
S"      LOAD('default','data.load',args='tables',ajax=True,user_signature=True)"
p2779
sI94
S'    """'
p2780
sI95
S'    return dict(form=crud())'
p2781
ssg2765
S'()'
p2782
sg2767
S'<module>'
p2783
sa(dp2784
g2748
S'C:\\Users\\Bussiere\\Dropbox\\Projets\\Yuki\\web2py\\gluon\\globals.py'
p2785
sg2750
(dp2786
sg2752
I173
sg2753
(dp2787
I168
S'        self.menu = []             # used by the default view layout'
p2788
sI169
S'        self.files = []            # used by web2py_ajax.html'
p2789
sI170
S'        self.generic_patterns = [] # patterns to allow generic views'
p2790
sI171
S"        self.delimiters = ('{{','}}')"
p2791
sI172
S'        self._vars = None'
p2792
sI173
S'        self._caller = lambda f: f()'
p2793
sI174
S'        self._view_environment = None'
p2794
sI175
S'        self._custom_commit = None'
p2795
sI176
S'        self._custom_rollback = None'
p2796
sI177
S''
ssg2765
S'(f=<function addBarcode at 0x077205B0>)'
p2797
sg2767
S'<lambda>'
p2798
sa(dp2799
g2748
S'C:\\Users\\Bussiere\\Dropbox\\Projets\\Yuki\\web2py\\applications\\init\\controllers\\default.py'
p2800
sg2750
(dp2801
sg2752
I56
sg2753
(dp2802
I51
S'            next=URL(args=Barcode.id))'
p2803
sI52
S'    comments = db(db.comment.Barcode_id==Barcode.id).select()'
p2804
sI53
S'    return dict(image=image, comments=comments, form=form)'
p2805
sI54
S''
sI55
S'def addBarcode():'
p2806
sI56
S'    form = SQLFORM(db.Barcode, ignore_rw=ignore_rw)'
p2807
sI57
S'    if form.accepts(request.vars, session):'
p2808
sI58
S"        response.flash = T('new record inserted')"
p2809
sI59
S'    return dict(form=form,table=db[table])'
p2810
sI60
S''
ssg2765
S'()'
p2811
sg2767
S'addBarcode'
p2812
sasS'pyver'
p2813
S'Python 2.5.4: C:\\Users\\Bussiere\\Dropbox\\Projets\\Yuki\\web2py\\web2py.exe'
p2814
sS'session'
p2815
g49
(g50
g51
NtRp2816
(dp2817
g54
(dp2818
sg56
(lp2819
g49
(g58
g51
NtRp2820
(dp2821
g54
(dp2822
g62
I5
ssg63
Nsg56
(lp2823
sbasbsS'etype'
p2824
S"<type 'exceptions.NameError'>"
p2825
sS'date'
p2826
S'Sun Mar 11 18:05:36 2012'
p2827
sS'response'
p2828
g49
(g50
g51
NtRp2829
(dp2830
g54
(dp2831
sg56
(lp2832
g49
(g58
g51
NtRp2833
(dp2834
g54
(dp2835
g62
I5
ssg63
Nsg56
(lp2836
g49
(g65
g51
NtRp2837
(dp2838
g54
(dp2839
sg63
g2833
sg56
(lp2840
g49
(g70
g51
NtRp2841
(dp2842
g54
(dp2843
g74
g75
ssg63
g2837
sg56
(lp2844
g147
asbag49
(g70
g51
NtRp2845
(dp2846
g54
(dp2847
g81
g82
ssg63
g2837
sg56
(lp2848
S':'
asbag49
(g70
g51
NtRp2849
(dp2850
g54
(dp2851
sg63
g2837
sg56
(lp2852
g49
(g50
g51
NtRp2853
(dp2854
g54
(dp2855
g62
I5
ssg63
g2849
sg56
(lp2856
S'<cStringIO.StringO object at 0x07704B60>'
p2857
asbasbasbag49
(g65
g51
NtRp2858
(dp2859
g54
(dp2860
sg63
g2833
sg56
(lp2861
g49
(g70
g51
NtRp2862
(dp2863
g54
(dp2864
g74
g75
ssg63
g2858
sg56
(lp2865
g213
asbag49
(g70
g51
NtRp2866
(dp2867
g54
(dp2868
g81
g82
ssg63
g2858
sg56
(lp2869
S':'
asbag49
(g70
g51
NtRp2870
(dp2871
g54
(dp2872
sg63
g2858
sg56
(lp2873
g49
(g50
g51
NtRp2874
(dp2875
g54
(dp2876
g62
I5
ssg63
g2870
sg56
(lp2877
g49
(g58
g51
NtRp2878
(dp2879
g54
(dp2880
g62
I4
ssg63
Nsg56
(lp2881
g49
(g65
g51
NtRp2882
(dp2883
g54
(dp2884
sg63
g2878
sg56
(lp2885
g49
(g70
g51
NtRp2886
(dp2887
g54
(dp2888
g74
g75
ssg63
g2882
sg56
(lp2889
S'session_id_init'
p2890
asbag49
(g70
g51
NtRp2891
(dp2892
g54
(dp2893
g81
g82
ssg63
g2882
sg56
(lp2894
S':'
asbag49
(g70
g51
NtRp2895
(dp2896
g54
(dp2897
sg63
g2882
sg56
(lp2898
g49
(g50
g51
NtRp2899
(dp2900
g54
(dp2901
g62
I4
ssg63
g2895
sg56
(lp2902
g49
(g58
g51
NtRp2903
(dp2904
g54
(dp2905
g62
I3
ssg63
Nsg56
(lp2906
g49
(g65
g51
NtRp2907
(dp2908
g54
(dp2909
sg63
g2903
sg56
(lp2910
g49
(g70
g51
NtRp2911
(dp2912
g54
(dp2913
g74
g75
ssg63
g2907
sg56
(lp2914
g263
asbag49
(g70
g51
NtRp2915
(dp2916
g54
(dp2917
g81
g82
ssg63
g2907
sg56
(lp2918
S':'
asbag49
(g70
g51
NtRp2919
(dp2920
g54
(dp2921
sg63
g2907
sg56
(lp2922
g49
(g50
g51
NtRp2923
(dp2924
g54
(dp2925
g62
I3
ssg63
g2919
sg56
(lp2926
S''
asbasbasbag49
(g65
g51
NtRp2927
(dp2928
g54
(dp2929
sg63
g2903
sg56
(lp2930
g49
(g70
g51
NtRp2931
(dp2932
g54
(dp2933
g74
g75
ssg63
g2927
sg56
(lp2934
g284
asbag49
(g70
g51
NtRp2935
(dp2936
g54
(dp2937
g81
g82
ssg63
g2927
sg56
(lp2938
S':'
asbag49
(g70
g51
NtRp2939
(dp2940
g54
(dp2941
sg63
g2927
sg56
(lp2942
g49
(g50
g51
NtRp2943
(dp2944
g54
(dp2945
g62
I3
ssg63
g2939
sg56
(lp2946
S''
asbasbasbag49
(g65
g51
NtRp2947
(dp2948
g54
(dp2949
sg63
g2903
sg56
(lp2950
g49
(g70
g51
NtRp2951
(dp2952
g54
(dp2953
g74
g75
ssg63
g2947
sg56
(lp2954
g305
asbag49
(g70
g51
NtRp2955
(dp2956
g54
(dp2957
g81
g82
ssg63
g2947
sg56
(lp2958
S':'
asbag49
(g70
g51
NtRp2959
(dp2960
g54
(dp2961
sg63
g2947
sg56
(lp2962
g49
(g50
g51
NtRp2963
(dp2964
g54
(dp2965
g62
I3
ssg63
g2959
sg56
(lp2966
S''
asbasbasbag49
(g65
g51
NtRp2967
(dp2968
g54
(dp2969
sg63
g2903
sg56
(lp2970
g49
(g70
g51
NtRp2971
(dp2972
g54
(dp2973
g74
g75
ssg63
g2967
sg56
(lp2974
g326
asbag49
(g70
g51
NtRp2975
(dp2976
g54
(dp2977
g81
g82
ssg63
g2967
sg56
(lp2978
S':'
asbag49
(g70
g51
NtRp2979
(dp2980
g54
(dp2981
sg63
g2967
sg56
(lp2982
g49
(g50
g51
NtRp2983
(dp2984
g54
(dp2985
g62
I3
ssg63
g2979
sg56
(lp2986
S''
asbasbasbag49
(g65
g51
NtRp2987
(dp2988
g54
(dp2989
sg63
g2903
sg56
(lp2990
g49
(g70
g51
NtRp2991
(dp2992
g54
(dp2993
g74
g75
ssg63
g2987
sg56
(lp2994
g347
asbag49
(g70
g51
NtRp2995
(dp2996
g54
(dp2997
g81
g82
ssg63
g2987
sg56
(lp2998
S':'
asbag49
(g70
g51
NtRp2999
(dp3000
g54
(dp3001
sg63
g2987
sg56
(lp3002
g49
(g50
g51
NtRp3003
(dp3004
g54
(dp3005
g62
I3
ssg63
g2999
sg56
(lp3006
S'/'
asbasbasbag49
(g65
g51
NtRp3007
(dp3008
g54
(dp3009
sg63
g2903
sg56
(lp3010
g49
(g70
g51
NtRp3011
(dp3012
g54
(dp3013
g74
g75
ssg63
g3007
sg56
(lp3014
g368
asbag49
(g70
g51
NtRp3015
(dp3016
g54
(dp3017
g81
g82
ssg63
g3007
sg56
(lp3018
S':'
asbag49
(g70
g51
NtRp3019
(dp3020
g54
(dp3021
sg63
g3007
sg56
(lp3022
g49
(g50
g51
NtRp3023
(dp3024
g54
(dp3025
g62
I3
ssg63
g3019
sg56
(lp3026
S''
asbasbasbag49
(g65
g51
NtRp3027
(dp3028
g54
(dp3029
sg63
g2903
sg56
(lp3030
g49
(g70
g51
NtRp3031
(dp3032
g54
(dp3033
g74
g75
ssg63
g3027
sg56
(lp3034
g389
asbag49
(g70
g51
NtRp3035
(dp3036
g54
(dp3037
g81
g82
ssg63
g3027
sg56
(lp3038
S':'
asbag49
(g70
g51
NtRp3039
(dp3040
g54
(dp3041
sg63
g3027
sg56
(lp3042
g49
(g50
g51
NtRp3043
(dp3044
g54
(dp3045
g62
I3
ssg63
g3039
sg56
(lp3046
S''
asbasbasbasbasbasbasbasbasbasbasbag49
(g65
g51
NtRp3047
(dp3048
g54
(dp3049
sg63
g2833
sg56
(lp3050
g49
(g70
g51
NtRp3051
(dp3052
g54
(dp3053
g74
g75
ssg63
g3047
sg56
(lp3054
S'delimiters'
p3055
asbag49
(g70
g51
NtRp3056
(dp3057
g54
(dp3058
g81
g82
ssg63
g3047
sg56
(lp3059
S':'
asbag49
(g70
g51
NtRp3060
(dp3061
g54
(dp3062
sg63
g3047
sg56
(lp3063
g49
(g50
g51
NtRp3064
(dp3065
g54
(dp3066
g62
I5
ssg63
g3060
sg56
(lp3067
g49
(g58
g51
NtRp3068
(dp3069
g54
(dp3070
g62
I4
ssg63
Nsg56
(lp3071
g49
(g65
g51
NtRp3072
(dp3073
g54
(dp3074
sg63
g3068
sg56
(lp3075
g49
(g70
g51
NtRp3076
(dp3077
g54
(dp3078
sg63
g3072
sg56
(lp3079
g49
(g50
g51
NtRp3080
(dp3081
g54
(dp3082
g62
I4
ssg63
g3076
sg56
(lp3083
S'{{'
p3084
asbasbasbag49
(g65
g51
NtRp3085
(dp3086
g54
(dp3087
sg63
g3068
sg56
(lp3088
g49
(g70
g51
NtRp3089
(dp3090
g54
(dp3091
sg63
g3085
sg56
(lp3092
g49
(g50
g51
NtRp3093
(dp3094
g54
(dp3095
g62
I4
ssg63
g3089
sg56
(lp3096
S'}}'
p3097
asbasbasbasbasbasbasbag49
(g65
g51
NtRp3098
(dp3099
g54
(dp3100
sg63
g2833
sg56
(lp3101
g49
(g70
g51
NtRp3102
(dp3103
g54
(dp3104
g74
g75
ssg63
g3098
sg56
(lp3105
S'files'
p3106
asbag49
(g70
g51
NtRp3107
(dp3108
g54
(dp3109
g81
g82
ssg63
g3098
sg56
(lp3110
S':'
asbag49
(g70
g51
NtRp3111
(dp3112
g54
(dp3113
sg63
g3098
sg56
(lp3114
g49
(g50
g51
NtRp3115
(dp3116
g54
(dp3117
g62
I5
ssg63
g3111
sg56
(lp3118
g49
(g58
g51
NtRp3119
(dp3120
g54
(dp3121
g62
I4
ssg63
Nsg56
(lp3122
sbasbasbasbag49
(g65
g51
NtRp3123
(dp3124
g54
(dp3125
sg63
g2833
sg56
(lp3126
g49
(g70
g51
NtRp3127
(dp3128
g54
(dp3129
g74
g75
ssg63
g3123
sg56
(lp3130
S'flash'
p3131
asbag49
(g70
g51
NtRp3132
(dp3133
g54
(dp3134
g81
g82
ssg63
g3123
sg56
(lp3135
S':'
asbag49
(g70
g51
NtRp3136
(dp3137
g54
(dp3138
sg63
g3123
sg56
(lp3139
g49
(g50
g51
NtRp3140
(dp3141
g54
(dp3142
g62
I5
ssg63
g3136
sg56
(lp3143
S''
asbasbasbag49
(g65
g51
NtRp3144
(dp3145
g54
(dp3146
sg63
g2833
sg56
(lp3147
g49
(g70
g51
NtRp3148
(dp3149
g54
(dp3150
g74
g75
ssg63
g3144
sg56
(lp3151
S'generic_patterns'
p3152
asbag49
(g70
g51
NtRp3153
(dp3154
g54
(dp3155
g81
g82
ssg63
g3144
sg56
(lp3156
S':'
asbag49
(g70
g51
NtRp3157
(dp3158
g54
(dp3159
sg63
g3144
sg56
(lp3160
g49
(g50
g51
NtRp3161
(dp3162
g54
(dp3163
g62
I5
ssg63
g3157
sg56
(lp3164
g49
(g58
g51
NtRp3165
(dp3166
g54
(dp3167
g62
I4
ssg63
Nsg56
(lp3168
g49
(g65
g51
NtRp3169
(dp3170
g54
(dp3171
sg63
g3165
sg56
(lp3172
g49
(g70
g51
NtRp3173
(dp3174
g54
(dp3175
sg63
g3169
sg56
(lp3176
g49
(g50
g51
NtRp3177
(dp3178
g54
(dp3179
g62
I4
ssg63
g3173
sg56
(lp3180
S'*'
asbasbasbasbasbasbasbag49
(g65
g51
NtRp3181
(dp3182
g54
(dp3183
sg63
g2833
sg56
(lp3184
g49
(g70
g51
NtRp3185
(dp3186
g54
(dp3187
g74
g75
ssg63
g3181
sg56
(lp3188
S'headers'
p3189
asbag49
(g70
g51
NtRp3190
(dp3191
g54
(dp3192
g81
g82
ssg63
g3181
sg56
(lp3193
S':'
asbag49
(g70
g51
NtRp3194
(dp3195
g54
(dp3196
sg63
g3181
sg56
(lp3197
g49
(g50
g51
NtRp3198
(dp3199
g54
(dp3200
g62
I5
ssg63
g3194
sg56
(lp3201
g49
(g58
g51
NtRp3202
(dp3203
g54
(dp3204
g62
I4
ssg63
Nsg56
(lp3205
g49
(g65
g51
NtRp3206
(dp3207
g54
(dp3208
sg63
g3202
sg56
(lp3209
g49
(g70
g51
NtRp3210
(dp3211
g54
(dp3212
g74
g75
ssg63
g3206
sg56
(lp3213
S'Cache-Control'
p3214
asbag49
(g70
g51
NtRp3215
(dp3216
g54
(dp3217
g81
g82
ssg63
g3206
sg56
(lp3218
S':'
asbag49
(g70
g51
NtRp3219
(dp3220
g54
(dp3221
sg63
g3206
sg56
(lp3222
g49
(g50
g51
NtRp3223
(dp3224
g54
(dp3225
g62
I4
ssg63
g3219
sg56
(lp3226
S'no-store, no-cache, must-revalidate, post-check=0, pre-check=0'
p3227
asbasbasbag49
(g65
g51
NtRp3228
(dp3229
g54
(dp3230
sg63
g3202
sg56
(lp3231
g49
(g70
g51
NtRp3232
(dp3233
g54
(dp3234
g74
g75
ssg63
g3228
sg56
(lp3235
S'Content-Type'
p3236
asbag49
(g70
g51
NtRp3237
(dp3238
g54
(dp3239
g81
g82
ssg63
g3228
sg56
(lp3240
S':'
asbag49
(g70
g51
NtRp3241
(dp3242
g54
(dp3243
sg63
g3228
sg56
(lp3244
g49
(g50
g51
NtRp3245
(dp3246
g54
(dp3247
g62
I4
ssg63
g3241
sg56
(lp3248
S'text/html; charset=utf-8'
p3249
asbasbasbag49
(g65
g51
NtRp3250
(dp3251
g54
(dp3252
sg63
g3202
sg56
(lp3253
g49
(g70
g51
NtRp3254
(dp3255
g54
(dp3256
g74
g75
ssg63
g3250
sg56
(lp3257
S'Expires'
p3258
asbag49
(g70
g51
NtRp3259
(dp3260
g54
(dp3261
g81
g82
ssg63
g3250
sg56
(lp3262
S':'
asbag49
(g70
g51
NtRp3263
(dp3264
g54
(dp3265
sg63
g3250
sg56
(lp3266
g49
(g50
g51
NtRp3267
(dp3268
g54
(dp3269
g62
I4
ssg63
g3263
sg56
(lp3270
S'Sun, 11 Mar 2012 17:05:35 GMT'
p3271
asbasbasbag49
(g65
g51
NtRp3272
(dp3273
g54
(dp3274
sg63
g3202
sg56
(lp3275
g49
(g70
g51
NtRp3276
(dp3277
g54
(dp3278
g74
g75
ssg63
g3272
sg56
(lp3279
S'Pragma'
p3280
asbag49
(g70
g51
NtRp3281
(dp3282
g54
(dp3283
g81
g82
ssg63
g3272
sg56
(lp3284
S':'
asbag49
(g70
g51
NtRp3285
(dp3286
g54
(dp3287
sg63
g3272
sg56
(lp3288
g49
(g50
g51
NtRp3289
(dp3290
g54
(dp3291
g62
I4
ssg63
g3285
sg56
(lp3292
S'no-cache'
p3293
asbasbasbag49
(g65
g51
NtRp3294
(dp3295
g54
(dp3296
sg63
g3202
sg56
(lp3297
g49
(g70
g51
NtRp3298
(dp3299
g54
(dp3300
g74
g75
ssg63
g3294
sg56
(lp3301
S'X-Powered-By'
p3302
asbag49
(g70
g51
NtRp3303
(dp3304
g54
(dp3305
g81
g82
ssg63
g3294
sg56
(lp3306
S':'
asbag49
(g70
g51
NtRp3307
(dp3308
g54
(dp3309
sg63
g3294
sg56
(lp3310
g49
(g50
g51
NtRp3311
(dp3312
g54
(dp3313
g62
I4
ssg63
g3307
sg56
(lp3314
S'web2py'
p3315
asbasbasbasbasbasbasbag49
(g65
g51
NtRp3316
(dp3317
g54
(dp3318
sg63
g2833
sg56
(lp3319
g49
(g70
g51
NtRp3320
(dp3321
g54
(dp3322
g74
g75
ssg63
g3316
sg56
(lp3323
S'menu'
p3324
asbag49
(g70
g51
NtRp3325
(dp3326
g54
(dp3327
g81
g82
ssg63
g3316
sg56
(lp3328
S':'
asbag49
(g70
g51
NtRp3329
(dp3330
g54
(dp3331
sg63
g3316
sg56
(lp3332
g49
(g50
g51
NtRp3333
(dp3334
g54
(dp3335
g62
I5
ssg63
g3329
sg56
(lp3336
g49
(g58
g51
NtRp3337
(dp3338
g54
(dp3339
g62
I4
ssg63
Nsg56
(lp3340
g49
(g65
g51
NtRp3341
(dp3342
g54
(dp3343
sg63
g3337
sg56
(lp3344
g49
(g70
g51
NtRp3345
(dp3346
g54
(dp3347
sg63
g3341
sg56
(lp3348
g49
(g50
g51
NtRp3349
(dp3350
g54
(dp3351
g62
I4
ssg63
g3345
sg56
(lp3352
g49
(g58
g51
NtRp3353
(dp3354
g54
(dp3355
g62
I3
ssg63
Nsg56
(lp3356
g49
(g65
g51
NtRp3357
(dp3358
g54
(dp3359
sg63
g3353
sg56
(lp3360
g49
(g70
g51
NtRp3361
(dp3362
g54
(dp3363
sg63
g3357
sg56
(lp3364
g49
(g50
g51
NtRp3365
(dp3366
g54
(dp3367
g62
I3
ssg63
g3361
sg56
(lp3368
cgluon.languages
lazyT_unpickle
p3369
(S't\x07\x00\x00\x00Accueil'
tRp3370
asbasbasbag49
(g65
g51
NtRp3371
(dp3372
g54
(dp3373
sg63
g3353
sg56
(lp3374
g49
(g70
g51
NtRp3375
(dp3376
g54
(dp3377
sg63
g3371
sg56
(lp3378
g49
(g50
g51
NtRp3379
(dp3380
g54
(dp3381
g62
I3
ssg63
g3375
sg56
(lp3382
g92
asbasbasbag49
(g65
g51
NtRp3383
(dp3384
g54
(dp3385
sg63
g3353
sg56
(lp3386
g49
(g70
g51
NtRp3387
(dp3388
g54
(dp3389
sg63
g3383
sg56
(lp3390
g49
(g50
g51
NtRp3391
(dp3392
g54
(dp3393
g62
I3
ssg63
g3387
sg56
(lp3394
S'/init/default/index'
p3395
asbasbasbag49
(g65
g51
NtRp3396
(dp3397
g54
(dp3398
sg63
g3353
sg56
(lp3399
g49
(g70
g51
NtRp3400
(dp3401
g54
(dp3402
sg63
g3396
sg56
(lp3403
g49
(g50
g51
NtRp3404
(dp3405
g54
(dp3406
g62
I3
ssg63
g3400
sg56
(lp3407
g49
(g58
g51
NtRp3408
(dp3409
g54
(dp3410
g62
I2
ssg63
Nsg56
(lp3411
sbasbasbasbasbasbasbasbag49
(g65
g51
NtRp3412
(dp3413
g54
(dp3414
sg63
g3337
sg56
(lp3415
g49
(g70
g51
NtRp3416
(dp3417
g54
(dp3418
sg63
g3412
sg56
(lp3419
g49
(g50
g51
NtRp3420
(dp3421
g54
(dp3422
g62
I4
ssg63
g3416
sg56
(lp3423
g49
(g58
g51
NtRp3424
(dp3425
g54
(dp3426
g62
I3
ssg63
Nsg56
(lp3427
g49
(g65
g51
NtRp3428
(dp3429
g54
(dp3430
sg63
g3424
sg56
(lp3431
g49
(g70
g51
NtRp3432
(dp3433
g54
(dp3434
sg63
g3428
sg56
(lp3435
g49
(g50
g51
NtRp3436
(dp3437
g54
(dp3438
g62
I3
ssg63
g3432
sg56
(lp3439
g49
(cgluon.html
SPAN
p3440
g51
NtRp3441
(dp3442
g54
(dp3443
g74
S'color:yellow'
p3444
ssg63
Nsg56
(lp3445
g3315
asbasbasbasbag49
(g65
g51
NtRp3446
(dp3447
g54
(dp3448
sg63
g3424
sg56
(lp3449
g49
(g70
g51
NtRp3450
(dp3451
g54
(dp3452
sg63
g3446
sg56
(lp3453
g49
(g50
g51
NtRp3454
(dp3455
g54
(dp3456
g62
I3
ssg63
g3450
sg56
(lp3457
g92
asbasbasbag49
(g65
g51
NtRp3458
(dp3459
g54
(dp3460
sg63
g3424
sg56
(lp3461
g49
(g70
g51
NtRp3462
(dp3463
g54
(dp3464
sg63
g3458
sg56
(lp3465
g49
(g50
g51
NtRp3466
(dp3467
g54
(dp3468
g62
I3
ssg63
g3462
sg56
(lp3469
S'None'
p3470
asbasbasbag49
(g65
g51
NtRp3471
(dp3472
g54
(dp3473
sg63
g3424
sg56
(lp3474
g49
(g70
g51
NtRp3475
(dp3476
g54
(dp3477
sg63
g3471
sg56
(lp3478
g49
(g50
g51
NtRp3479
(dp3480
g54
(dp3481
g62
I3
ssg63
g3475
sg56
(lp3482
g49
(g58
g51
NtRp3483
(dp3484
g54
(dp3485
g62
I2
ssg63
Nsg56
(lp3486
g49
(g65
g51
NtRp3487
(dp3488
g54
(dp3489
sg63
g3483
sg56
(lp3490
g49
(g70
g51
NtRp3491
(dp3492
g54
(dp3493
sg63
g3487
sg56
(lp3494
g49
(g50
g51
NtRp3495
(dp3496
g54
(dp3497
g62
I2
ssg63
g3491
sg56
(lp3498
g49
(g58
g51
NtRp3499
(dp3500
g54
(dp3501
g62
I1
ssg63
Nsg56
(lp3502
g49
(g65
g51
NtRp3503
(dp3504
g54
(dp3505
sg63
g3499
sg56
(lp3506
g49
(g70
g51
NtRp3507
(dp3508
g54
(dp3509
sg63
g3503
sg56
(lp3510
g49
(g50
g51
NtRp3511
(dp3512
g54
(dp3513
g62
I1
ssg63
g3507
sg56
(lp3514
g3369
(S's\x08\x00\x00\x00My Sites'
tRp3515
asbasbasbag49
(g65
g51
NtRp3516
(dp3517
g54
(dp3518
sg63
g3499
sg56
(lp3519
g49
(g70
g51
NtRp3520
(dp3521
g54
(dp3522
sg63
g3516
sg56
(lp3523
g49
(g50
g51
NtRp3524
(dp3525
g54
(dp3526
g62
I1
ssg63
g3520
sg56
(lp3527
I00
asbasbasbag49
(g65
g51
NtRp3528
(dp3529
g54
(dp3530
sg63
g3499
sg56
(lp3531
g49
(g70
g51
NtRp3532
(dp3533
g54
(dp3534
sg63
g3528
sg56
(lp3535
g49
(g50
g51
NtRp3536
(dp3537
g54
(dp3538
g62
I1
ssg63
g3532
sg56
(lp3539
S'/admin/default/site'
p3540
asbasbasbasbasbasbasbag49
(g65
g51
NtRp3541
(dp3542
g54
(dp3543
sg63
g3483
sg56
(lp3544
g49
(g70
g51
NtRp3545
(dp3546
g54
(dp3547
sg63
g3541
sg56
(lp3548
g49
(g50
g51
NtRp3549
(dp3550
g54
(dp3551
g62
I2
ssg63
g3545
sg56
(lp3552
g49
(g58
g51
NtRp3553
(dp3554
g54
(dp3555
g62
I1
ssg63
Nsg56
(lp3556
g49
(g65
g51
NtRp3557
(dp3558
g54
(dp3559
sg63
g3553
sg56
(lp3560
g49
(g70
g51
NtRp3561
(dp3562
g54
(dp3563
sg63
g3557
sg56
(lp3564
g49
(g50
g51
NtRp3565
(dp3566
g54
(dp3567
g62
I1
ssg63
g3561
sg56
(lp3568
g3369
(S's\x0b\x00\x00\x00Cette Appli'
tRp3569
asbasbasbag49
(g65
g51
NtRp3570
(dp3571
g54
(dp3572
sg63
g3553
sg56
(lp3573
g49
(g70
g51
NtRp3574
(dp3575
g54
(dp3576
sg63
g3570
sg56
(lp3577
g49
(g50
g51
NtRp3578
(dp3579
g54
(dp3580
g62
I1
ssg63
g3574
sg56
(lp3581
I00
asbasbasbag49
(g65
g51
NtRp3582
(dp3583
g54
(dp3584
sg63
g3553
sg56
(lp3585
g49
(g70
g51
NtRp3586
(dp3587
g54
(dp3588
sg63
g3582
sg56
(lp3589
g49
(g50
g51
NtRp3590
(dp3591
g54
(dp3592
g62
I1
ssg63
g3586
sg56
(lp3593
S'/admin/default/design/init'
p3594
asbasbasbag49
(g65
g51
NtRp3595
(dp3596
g54
(dp3597
sg63
g3553
sg56
(lp3598
g49
(g70
g51
NtRp3599
(dp3600
g54
(dp3601
sg63
g3595
sg56
(lp3602
g49
(g50
g51
NtRp3603
(dp3604
g54
(dp3605
g62
I1
ssg63
g3599
sg56
(lp3606
(lp3607
(g3369
(S's\x0b\x00\x00\x00Contr\xc3\xb4leur'
tRp3608
I00
S'/admin/default/edit/init/controllers/default.py'
tp3609
a(g3369
(S's\r\x00\x00\x00Pr\xc3\xa9sentation'
tRp3610
I00
S'/admin/default/edit/init/views/default/addBarcode.html'
tp3611
a(g3369
(S's\x0c\x00\x00\x00Mise en page'
tRp3612
I00
S'/admin/default/edit/init/views/layout.html'
tp3613
a(g3369
(S's\x10\x00\x00\x00Feuille de style'
tRp3614
I00
S'/admin/default/edit/init/static/css/web2py.css'
tp3615
a(g3369
(S's\n\x00\x00\x00Mod\xc3\xa8le DB'
tRp3616
I00
S'/admin/default/edit/init/models/db.py'
tp3617
a(g3369
(S's\x0c\x00\x00\x00Menu mod\xc3\xa8le'
tRp3618
I00
S'/admin/default/edit/init/models/menu.py'
tp3619
a(g3369
(S's\x10\x00\x00\x00Base de donn\xc3\xa9es'
tRp3620
I00
S'/init/appadmin/index'
tp3621
a(g3369
(S't\x07\x00\x00\x00Erreurs'
tRp3622
I00
S'/admin/default/errors/init'
tp3623
a(g3369
(S's\t\x00\x00\x00\xc3\x80 propos'
tRp3624
I00
S'/admin/default/about/init'
tp3625
aasbasbasbasbasbasbasbag49
(g65
g51
NtRp3626
(dp3627
g54
(dp3628
sg63
g3483
sg56
(lp3629
g49
(g70
g51
NtRp3630
(dp3631
g54
(dp3632
sg63
g3626
sg56
(lp3633
g49
(g50
g51
NtRp3634
(dp3635
g54
(dp3636
g62
I2
ssg63
g3630
sg56
(lp3637
g49
(g58
g51
NtRp3638
(dp3639
g54
(dp3640
g62
I1
ssg63
Nsg56
(lp3641
g49
(g65
g51
NtRp3642
(dp3643
g54
(dp3644
sg63
g3638
sg56
(lp3645
g49
(g70
g51
NtRp3646
(dp3647
g54
(dp3648
sg63
g3642
sg56
(lp3649
g49
(g50
g51
NtRp3650
(dp3651
g54
(dp3652
g62
I1
ssg63
g3646
sg56
(lp3653
S'web2py.com'
p3654
asbasbasbag49
(g65
g51
NtRp3655
(dp3656
g54
(dp3657
sg63
g3638
sg56
(lp3658
g49
(g70
g51
NtRp3659
(dp3660
g54
(dp3661
sg63
g3655
sg56
(lp3662
g49
(g50
g51
NtRp3663
(dp3664
g54
(dp3665
g62
I1
ssg63
g3659
sg56
(lp3666
I00
asbasbasbag49
(g65
g51
NtRp3667
(dp3668
g54
(dp3669
sg63
g3638
sg56
(lp3670
g49
(g70
g51
NtRp3671
(dp3672
g54
(dp3673
sg63
g3667
sg56
(lp3674
g49
(g50
g51
NtRp3675
(dp3676
g54
(dp3677
g62
I1
ssg63
g3671
sg56
(lp3678
S'http://www.web2py.com'
p3679
asbasbasbag49
(g65
g51
NtRp3680
(dp3681
g54
(dp3682
sg63
g3638
sg56
(lp3683
g49
(g70
g51
NtRp3684
(dp3685
g54
(dp3686
sg63
g3680
sg56
(lp3687
g49
(g50
g51
NtRp3688
(dp3689
g54
(dp3690
g62
I1
ssg63
g3684
sg56
(lp3691
(lp3692
(g3369
(S's\x10\x00\x00\x00T\xc3\xa9l\xc3\xa9chargement'
tRp3693
I00
S'http://www.web2py.com/examples/default/download'
p3694
tp3695
a(g3369
(S't\x07\x00\x00\x00Support'
tRp3696
I00
S'http://www.web2py.com/examples/default/support'
p3697
tp3698
a(g3369
(S's\x05\x00\x00\x00D\xc3\xa9mo'
tRp3699
I00
S'http://web2py.com/demo_admin'
p3700
tp3701
a(g3369
(S's\x10\x00\x00\x00Examples Rapides'
tRp3702
I00
S'http://web2py.com/examples/default/examples'
p3703
tp3704
a(g3369
(S't\x03\x00\x00\x00FAQ'
tRp3705
I00
S'http://web2py.com/AlterEgo'
p3706
tp3707
a(g3369
(S's\x07\x00\x00\x00Vid\xc3\xa9os'
tRp3708
I00
S'http://www.web2py.com/examples/default/videos/'
p3709
tp3710
a(g3369
(S's\x16\x00\x00\x00Applications gratuites'
tRp3711
I00
S'http://web2py.com/appliances'
p3712
tp3713
a(g3369
(S't\n\x00\x00\x00Plugiciels'
tRp3714
I00
S'http://web2py.com/plugins'
p3715
tp3716
a(g3369
(S't\x07\x00\x00\x00Layouts'
tRp3717
I00
S'http://web2py.com/layouts'
p3718
tp3719
a(g3369
(S't\x08\x00\x00\x00Recettes'
tRp3720
I00
S'http://web2pyslices.com/'
p3721
tp3722
a(g3369
(S's\x0b\x00\x00\x00S\xc3\xa9mantique'
tRp3723
I00
S'http://web2py.com/semantic'
p3724
tp3725
aasbasbasbasbasbasbasbag49
(g65
g51
NtRp3726
(dp3727
g54
(dp3728
sg63
g3483
sg56
(lp3729
g49
(g70
g51
NtRp3730
(dp3731
g54
(dp3732
sg63
g3726
sg56
(lp3733
g49
(g50
g51
NtRp3734
(dp3735
g54
(dp3736
g62
I2
ssg63
g3730
sg56
(lp3737
g49
(g58
g51
NtRp3738
(dp3739
g54
(dp3740
g62
I1
ssg63
Nsg56
(lp3741
g49
(g65
g51
NtRp3742
(dp3743
g54
(dp3744
sg63
g3738
sg56
(lp3745
g49
(g70
g51
NtRp3746
(dp3747
g54
(dp3748
sg63
g3742
sg56
(lp3749
g49
(g50
g51
NtRp3750
(dp3751
g54
(dp3752
g62
I1
ssg63
g3746
sg56
(lp3753
g3369
(S't\r\x00\x00\x00Documentation'
tRp3754
asbasbasbag49
(g65
g51
NtRp3755
(dp3756
g54
(dp3757
sg63
g3738
sg56
(lp3758
g49
(g70
g51
NtRp3759
(dp3760
g54
(dp3761
sg63
g3755
sg56
(lp3762
g49
(g50
g51
NtRp3763
(dp3764
g54
(dp3765
g62
I1
ssg63
g3759
sg56
(lp3766
I00
asbasbasbag49
(g65
g51
NtRp3767
(dp3768
g54
(dp3769
sg63
g3738
sg56
(lp3770
g49
(g70
g51
NtRp3771
(dp3772
g54
(dp3773
sg63
g3767
sg56
(lp3774
g49
(g50
g51
NtRp3775
(dp3776
g54
(dp3777
g62
I1
ssg63
g3771
sg56
(lp3778
S'http://www.web2py.com/book'
p3779
asbasbasbag49
(g65
g51
NtRp3780
(dp3781
g54
(dp3782
sg63
g3738
sg56
(lp3783
g49
(g70
g51
NtRp3784
(dp3785
g54
(dp3786
sg63
g3780
sg56
(lp3787
g49
(g50
g51
NtRp3788
(dp3789
g54
(dp3790
g62
I1
ssg63
g3784
sg56
(lp3791
(lp3792
(g3369
(S's\x08\x00\x00\x00Pr\xc3\xa9face'
tRp3793
I00
S'http://www.web2py.com/book/default/chapter/00'
p3794
tp3795
a(g3369
(S't\x0c\x00\x00\x00Introduction'
tRp3796
I00
S'http://www.web2py.com/book/default/chapter/01'
p3797
tp3798
a(g3369
(S't\x06\x00\x00\x00Python'
tRp3799
I00
S'http://www.web2py.com/book/default/chapter/02'
p3800
tp3801
a(g3369
(S's\r\x00\x00\x00Pr\xc3\xa9sentation'
tRp3802
I00
S'http://www.web2py.com/book/default/chapter/03'
p3803
tp3804
a(g3369
(S's\x08\x00\x00\x00Le noyau'
tRp3805
I00
S'http://www.web2py.com/book/default/chapter/04'
p3806
tp3807
a(g3369
(S's\x08\x00\x00\x00Les Vues'
tRp3808
I00
S'http://www.web2py.com/book/default/chapter/05'
p3809
tp3810
a(g3369
(S's\x10\x00\x00\x00Base de donn\xc3\xa9es'
tRp3811
I00
S'http://www.web2py.com/book/default/chapter/06'
p3812
tp3813
a(g3369
(S's\x1a\x00\x00\x00Formulaires et Validateurs'
tRp3814
I00
S'http://www.web2py.com/book/default/chapter/07'
p3815
tp3816
a(g3369
(S's\r\x00\x00\x00Email and SMS'
tRp3817
I00
S'http://www.web2py.com/book/default/chapter/08'
p3818
tp3819
a(g3369
(S"s\x12\x00\x00\x00Contr\xc3\xb4le d'acc\xc3\xa8s"
tRp3820
I00
S'http://www.web2py.com/book/default/chapter/09'
p3821
tp3822
a(g3369
(S't\x08\x00\x00\x00Services'
tRp3823
I00
S'http://www.web2py.com/book/default/chapter/10'
p3824
tp3825
a(g3369
(S's\r\x00\x00\x00Recettes Ajax'
tRp3826
I00
S'http://www.web2py.com/book/default/chapter/11'
p3827
tp3828
a(g3369
(S's\x16\x00\x00\x00Components and Plugins'
tRp3829
I00
S'http://www.web2py.com/book/default/chapter/12'
p3830
tp3831
a(g3369
(S's\x18\x00\x00\x00Recettes de d\xc3\xa9ploiement'
tRp3832
I00
S'http://www.web2py.com/book/default/chapter/13'
p3833
tp3834
a(g3369
(S's\x0f\x00\x00\x00Autres recettes'
tRp3835
I00
S'http://www.web2py.com/book/default/chapter/14'
p3836
tp3837
a(g3369
(S's\x10\x00\x00\x00Acheter ce livre'
tRp3838
I00
S'http://stores.lulu.com/web2py'
p3839
tp3840
aasbasbasbasbasbasbasbag49
(g65
g51
NtRp3841
(dp3842
g54
(dp3843
sg63
g3483
sg56
(lp3844
g49
(g70
g51
NtRp3845
(dp3846
g54
(dp3847
sg63
g3841
sg56
(lp3848
g49
(g50
g51
NtRp3849
(dp3850
g54
(dp3851
g62
I2
ssg63
g3845
sg56
(lp3852
g49
(g58
g51
NtRp3853
(dp3854
g54
(dp3855
g62
I1
ssg63
Nsg56
(lp3856
g49
(g65
g51
NtRp3857
(dp3858
g54
(dp3859
sg63
g3853
sg56
(lp3860
g49
(g70
g51
NtRp3861
(dp3862
g54
(dp3863
sg63
g3857
sg56
(lp3864
g49
(g50
g51
NtRp3865
(dp3866
g54
(dp3867
g62
I1
ssg63
g3861
sg56
(lp3868
g3369
(S's\x0b\x00\x00\x00Communaut\xc3\xa9'
tRp3869
asbasbasbag49
(g65
g51
NtRp3870
(dp3871
g54
(dp3872
sg63
g3853
sg56
(lp3873
g49
(g70
g51
NtRp3874
(dp3875
g54
(dp3876
sg63
g3870
sg56
(lp3877
g49
(g50
g51
NtRp3878
(dp3879
g54
(dp3880
g62
I1
ssg63
g3874
sg56
(lp3881
I00
asbasbasbag49
(g65
g51
NtRp3882
(dp3883
g54
(dp3884
sg63
g3853
sg56
(lp3885
g49
(g70
g51
NtRp3886
(dp3887
g54
(dp3888
sg63
g3882
sg56
(lp3889
g49
(g50
g51
NtRp3890
(dp3891
g54
(dp3892
g62
I1
ssg63
g3886
sg56
(lp3893
Nasbasbasbag49
(g65
g51
NtRp3894
(dp3895
g54
(dp3896
sg63
g3853
sg56
(lp3897
g49
(g70
g51
NtRp3898
(dp3899
g54
(dp3900
sg63
g3894
sg56
(lp3901
g49
(g50
g51
NtRp3902
(dp3903
g54
(dp3904
g62
I1
ssg63
g3898
sg56
(lp3905
(lp3906
(g3369
(S't\x06\x00\x00\x00Groups'
tRp3907
I00
S'http://www.web2py.com/examples/default/usergroups'
p3908
tp3909
a(g3369
(S't\x07\x00\x00\x00Twitter'
tRp3910
I00
S'http://twitter.com/web2py'
p3911
tp3912
a(g3369
(S's\t\x00\x00\x00Live Chat'
tRp3913
I00
S'http://webchat.freenode.net/?channels=web2py'
p3914
tp3915
aasbasbasbasbasbasbasbag49
(g65
g51
NtRp3916
(dp3917
g54
(dp3918
sg63
g3483
sg56
(lp3919
g49
(g70
g51
NtRp3920
(dp3921
g54
(dp3922
sg63
g3916
sg56
(lp3923
g49
(g50
g51
NtRp3924
(dp3925
g54
(dp3926
g62
I2
ssg63
g3920
sg56
(lp3927
g49
(g58
g51
NtRp3928
(dp3929
g54
(dp3930
g62
I1
ssg63
Nsg56
(lp3931
g49
(g65
g51
NtRp3932
(dp3933
g54
(dp3934
sg63
g3928
sg56
(lp3935
g49
(g70
g51
NtRp3936
(dp3937
g54
(dp3938
sg63
g3932
sg56
(lp3939
g49
(g50
g51
NtRp3940
(dp3941
g54
(dp3942
g62
I1
ssg63
g3936
sg56
(lp3943
g3369
(S't\n\x00\x00\x00Plugiciels'
tRp3944
asbasbasbag49
(g65
g51
NtRp3945
(dp3946
g54
(dp3947
sg63
g3928
sg56
(lp3948
g49
(g70
g51
NtRp3949
(dp3950
g54
(dp3951
sg63
g3945
sg56
(lp3952
g49
(g50
g51
NtRp3953
(dp3954
g54
(dp3955
g62
I1
ssg63
g3949
sg56
(lp3956
I00
asbasbasbag49
(g65
g51
NtRp3957
(dp3958
g54
(dp3959
sg63
g3928
sg56
(lp3960
g49
(g70
g51
NtRp3961
(dp3962
g54
(dp3963
sg63
g3957
sg56
(lp3964
g49
(g50
g51
NtRp3965
(dp3966
g54
(dp3967
g62
I1
ssg63
g3961
sg56
(lp3968
Nasbasbasbag49
(g65
g51
NtRp3969
(dp3970
g54
(dp3971
sg63
g3928
sg56
(lp3972
g49
(g70
g51
NtRp3973
(dp3974
g54
(dp3975
sg63
g3969
sg56
(lp3976
g49
(g50
g51
NtRp3977
(dp3978
g54
(dp3979
g62
I1
ssg63
g3973
sg56
(lp3980
(lp3981
(S'plugin_wiki'
p3982
I00
S'http://web2py.com/examples/default/download'
p3983
tp3984
a(g3369
(S's\r\x00\x00\x00Other Plugins'
tRp3985
I00
g3715
tp3986
a(g3369
(S's\x0e\x00\x00\x00Layout Plugins'
tRp3987
I00
g3718
tp3988
aasbasbasbasbasbasbasbasbasbasbasbasbasbasbasbasbasbasbasbag49
(g65
g51
NtRp3989
(dp3990
g54
(dp3991
sg63
g2833
sg56
(lp3992
g49
(g70
g51
NtRp3993
(dp3994
g54
(dp3995
g74
g75
ssg63
g3989
sg56
(lp3996
S'meta'
p3997
asbag49
(g70
g51
NtRp3998
(dp3999
g54
(dp4000
g81
g82
ssg63
g3989
sg56
(lp4001
S':'
asbag49
(g70
g51
NtRp4002
(dp4003
g54
(dp4004
sg63
g3989
sg56
(lp4005
g49
(g50
g51
NtRp4006
(dp4007
g54
(dp4008
g62
I5
ssg63
g4002
sg56
(lp4009
g49
(g58
g51
NtRp4010
(dp4011
g54
(dp4012
g62
I4
ssg63
Nsg56
(lp4013
g49
(g65
g51
NtRp4014
(dp4015
g54
(dp4016
sg63
g4010
sg56
(lp4017
g49
(g70
g51
NtRp4018
(dp4019
g54
(dp4020
g74
g75
ssg63
g4014
sg56
(lp4021
S'author'
p4022
asbag49
(g70
g51
NtRp4023
(dp4024
g54
(dp4025
g81
g82
ssg63
g4014
sg56
(lp4026
S':'
asbag49
(g70
g51
NtRp4027
(dp4028
g54
(dp4029
sg63
g4014
sg56
(lp4030
g49
(g50
g51
NtRp4031
(dp4032
g54
(dp4033
g62
I4
ssg63
g4027
sg56
(lp4034
S'Your Name <you@example.com>'
p4035
asbasbasbag49
(g65
g51
NtRp4036
(dp4037
g54
(dp4038
sg63
g4010
sg56
(lp4039
g49
(g70
g51
NtRp4040
(dp4041
g54
(dp4042
g74
g75
ssg63
g4036
sg56
(lp4043
S'copyright'
p4044
asbag49
(g70
g51
NtRp4045
(dp4046
g54
(dp4047
g81
g82
ssg63
g4036
sg56
(lp4048
S':'
asbag49
(g70
g51
NtRp4049
(dp4050
g54
(dp4051
sg63
g4036
sg56
(lp4052
g49
(g50
g51
NtRp4053
(dp4054
g54
(dp4055
g62
I4
ssg63
g4049
sg56
(lp4056
S'Copyright 2011'
p4057
asbasbasbag49
(g65
g51
NtRp4058
(dp4059
g54
(dp4060
sg63
g4010
sg56
(lp4061
g49
(g70
g51
NtRp4062
(dp4063
g54
(dp4064
g74
g75
ssg63
g4058
sg56
(lp4065
S'description'
p4066
asbag49
(g70
g51
NtRp4067
(dp4068
g54
(dp4069
g81
g82
ssg63
g4058
sg56
(lp4070
S':'
asbag49
(g70
g51
NtRp4071
(dp4072
g54
(dp4073
sg63
g4058
sg56
(lp4074
g49
(g50
g51
NtRp4075
(dp4076
g54
(dp4077
g62
I4
ssg63
g4071
sg56
(lp4078
S'a cool new app'
p4079
asbasbasbag49
(g65
g51
NtRp4080
(dp4081
g54
(dp4082
sg63
g4010
sg56
(lp4083
g49
(g70
g51
NtRp4084
(dp4085
g54
(dp4086
g74
g75
ssg63
g4080
sg56
(lp4087
S'generator'
p4088
asbag49
(g70
g51
NtRp4089
(dp4090
g54
(dp4091
g81
g82
ssg63
g4080
sg56
(lp4092
S':'
asbag49
(g70
g51
NtRp4093
(dp4094
g54
(dp4095
sg63
g4080
sg56
(lp4096
g49
(g50
g51
NtRp4097
(dp4098
g54
(dp4099
g62
I4
ssg63
g4093
sg56
(lp4100
S'Web2py Web Framework'
p4101
asbasbasbag49
(g65
g51
NtRp4102
(dp4103
g54
(dp4104
sg63
g4010
sg56
(lp4105
g49
(g70
g51
NtRp4106
(dp4107
g54
(dp4108
g74
g75
ssg63
g4102
sg56
(lp4109
S'keywords'
p4110
asbag49
(g70
g51
NtRp4111
(dp4112
g54
(dp4113
g81
g82
ssg63
g4102
sg56
(lp4114
S':'
asbag49
(g70
g51
NtRp4115
(dp4116
g54
(dp4117
sg63
g4102
sg56
(lp4118
g49
(g50
g51
NtRp4119
(dp4120
g54
(dp4121
g62
I4
ssg63
g4115
sg56
(lp4122
S'web2py, python, framework'
p4123
asbasbasbasbasbasbasbag49
(g65
g51
NtRp4124
(dp4125
g54
(dp4126
sg63
g2833
sg56
(lp4127
g49
(g70
g51
NtRp4128
(dp4129
g54
(dp4130
g74
g75
ssg63
g4124
sg56
(lp4131
S'postprocessing'
p4132
asbag49
(g70
g51
NtRp4133
(dp4134
g54
(dp4135
g81
g82
ssg63
g4124
sg56
(lp4136
S':'
asbag49
(g70
g51
NtRp4137
(dp4138
g54
(dp4139
sg63
g4124
sg56
(lp4140
g49
(g50
g51
NtRp4141
(dp4142
g54
(dp4143
g62
I5
ssg63
g4137
sg56
(lp4144
g49
(g58
g51
NtRp4145
(dp4146
g54
(dp4147
g62
I4
ssg63
Nsg56
(lp4148
sbasbasbasbag49
(g65
g51
NtRp4149
(dp4150
g54
(dp4151
sg63
g2833
sg56
(lp4152
g49
(g70
g51
NtRp4153
(dp4154
g54
(dp4155
g74
g75
ssg63
g4149
sg56
(lp4156
S'session_file'
p4157
asbag49
(g70
g51
NtRp4158
(dp4159
g54
(dp4160
g81
g82
ssg63
g4149
sg56
(lp4161
S':'
asbag49
(g70
g51
NtRp4162
(dp4163
g54
(dp4164
sg63
g4149
sg56
(lp4165
g49
(g50
g51
NtRp4166
(dp4167
g54
(dp4168
g62
I5
ssg63
g4162
sg56
(lp4169
S"<open file 'C:\\Users\\Bussiere\\Dropbox\\Projets\\Yuki\\web2py\\applications\\init\\sessions\\127.0.0.1-05546599-82c3-44a9-b36b-68629a143195', mode 'rb+' at 0x0762AEC0>"
p4170
asbasbasbag49
(g65
g51
NtRp4171
(dp4172
g54
(dp4173
sg63
g2833
sg56
(lp4174
g49
(g70
g51
NtRp4175
(dp4176
g54
(dp4177
g74
g75
ssg63
g4171
sg56
(lp4178
S'session_filename'
p4179
asbag49
(g70
g51
NtRp4180
(dp4181
g54
(dp4182
g81
g82
ssg63
g4171
sg56
(lp4183
S':'
asbag49
(g70
g51
NtRp4184
(dp4185
g54
(dp4186
sg63
g4171
sg56
(lp4187
g49
(g50
g51
NtRp4188
(dp4189
g54
(dp4190
g62
I5
ssg63
g4184
sg56
(lp4191
S'C:\\Users\\Bussiere\\Dropbox\\Projets\\Yuki\\web2py\\applications\\init\\sessions\\127.0.0.1-05546599-82c3-44a9-b36b-68629a143195'
p4192
asbasbasbag49
(g65
g51
NtRp4193
(dp4194
g54
(dp4195
sg63
g2833
sg56
(lp4196
g49
(g70
g51
NtRp4197
(dp4198
g54
(dp4199
g74
g75
ssg63
g4193
sg56
(lp4200
S'session_id'
p4201
asbag49
(g70
g51
NtRp4202
(dp4203
g54
(dp4204
g81
g82
ssg63
g4193
sg56
(lp4205
S':'
asbag49
(g70
g51
NtRp4206
(dp4207
g54
(dp4208
sg63
g4193
sg56
(lp4209
g49
(g50
g51
NtRp4210
(dp4211
g54
(dp4212
g62
I5
ssg63
g4206
sg56
(lp4213
S'127.0.0.1-05546599-82c3-44a9-b36b-68629a143195'
p4214
asbasbasbag49
(g65
g51
NtRp4215
(dp4216
g54
(dp4217
sg63
g2833
sg56
(lp4218
g49
(g70
g51
NtRp4219
(dp4220
g54
(dp4221
g74
g75
ssg63
g4215
sg56
(lp4222
S'session_id_name'
p4223
asbag49
(g70
g51
NtRp4224
(dp4225
g54
(dp4226
g81
g82
ssg63
g4215
sg56
(lp4227
S':'
asbag49
(g70
g51
NtRp4228
(dp4229
g54
(dp4230
sg63
g4215
sg56
(lp4231
g49
(g50
g51
NtRp4232
(dp4233
g54
(dp4234
g62
I5
ssg63
g4228
sg56
(lp4235
g2890
asbasbasbag49
(g65
g51
NtRp4236
(dp4237
g54
(dp4238
sg63
g2833
sg56
(lp4239
g49
(g70
g51
NtRp4240
(dp4241
g54
(dp4242
g74
g75
ssg63
g4236
sg56
(lp4243
S'session_locked'
p4244
asbag49
(g70
g51
NtRp4245
(dp4246
g54
(dp4247
g81
g82
ssg63
g4236
sg56
(lp4248
S':'
asbag49
(g70
g51
NtRp4249
(dp4250
g54
(dp4251
sg63
g4236
sg56
(lp4252
g49
(g50
g51
NtRp4253
(dp4254
g54
(dp4255
g62
I5
ssg63
g4249
sg56
(lp4256
g726
asbasbasbag49
(g65
g51
NtRp4257
(dp4258
g54
(dp4259
sg63
g2833
sg56
(lp4260
g49
(g70
g51
NtRp4261
(dp4262
g54
(dp4263
g74
g75
ssg63
g4257
sg56
(lp4264
S'session_new'
p4265
asbag49
(g70
g51
NtRp4266
(dp4267
g54
(dp4268
g81
g82
ssg63
g4257
sg56
(lp4269
S':'
asbag49
(g70
g51
NtRp4270
(dp4271
g54
(dp4272
sg63
g4257
sg56
(lp4273
g49
(g50
g51
NtRp4274
(dp4275
g54
(dp4276
g62
I5
ssg63
g4270
sg56
(lp4277
g92
asbasbasbag49
(g65
g51
NtRp4278
(dp4279
g54
(dp4280
sg63
g2833
sg56
(lp4281
g49
(g70
g51
NtRp4282
(dp4283
g54
(dp4284
g74
g75
ssg63
g4278
sg56
(lp4285
S'status'
p4286
asbag49
(g70
g51
NtRp4287
(dp4288
g54
(dp4289
g81
g82
ssg63
g4278
sg56
(lp4290
S':'
asbag49
(g70
g51
NtRp4291
(dp4292
g54
(dp4293
sg63
g4278
sg56
(lp4294
g49
(g50
g51
NtRp4295
(dp4296
g54
(dp4297
g62
I5
ssg63
g4291
sg56
(lp4298
S'200'
p4299
asbasbasbag49
(g65
g51
NtRp4300
(dp4301
g54
(dp4302
sg63
g2833
sg56
(lp4303
g49
(g70
g51
NtRp4304
(dp4305
g54
(dp4306
g74
g75
ssg63
g4300
sg56
(lp4307
S'subtitle'
p4308
asbag49
(g70
g51
NtRp4309
(dp4310
g54
(dp4311
g81
g82
ssg63
g4300
sg56
(lp4312
S':'
asbag49
(g70
g51
NtRp4313
(dp4314
g54
(dp4315
sg63
g4300
sg56
(lp4316
g49
(g50
g51
NtRp4317
(dp4318
g54
(dp4319
g62
I5
ssg63
g4313
sg56
(lp4320
g3369
(S's\x12\x00\x00\x00personnalisez-moi!'
tRp4321
asbasbasbag49
(g65
g51
NtRp4322
(dp4323
g54
(dp4324
sg63
g2833
sg56
(lp4325
g49
(g70
g51
NtRp4326
(dp4327
g54
(dp4328
g74
g75
ssg63
g4322
sg56
(lp4329
S'title'
p4330
asbag49
(g70
g51
NtRp4331
(dp4332
g54
(dp4333
g81
g82
ssg63
g4322
sg56
(lp4334
S':'
asbag49
(g70
g51
NtRp4335
(dp4336
g54
(dp4337
sg63
g4322
sg56
(lp4338
g49
(g50
g51
NtRp4339
(dp4340
g54
(dp4341
g62
I5
ssg63
g4335
sg56
(lp4342
S'Init'
p4343
asbasbasbag49
(g65
g51
NtRp4344
(dp4345
g54
(dp4346
sg63
g2833
sg56
(lp4347
g49
(g70
g51
NtRp4348
(dp4349
g54
(dp4350
g74
g75
ssg63
g4344
sg56
(lp4351
g2107
asbag49
(g70
g51
NtRp4352
(dp4353
g54
(dp4354
g81
g82
ssg63
g4344
sg56
(lp4355
S':'
asbag49
(g70
g51
NtRp4356
(dp4357
g54
(dp4358
sg63
g4344
sg56
(lp4359
g49
(g50
g51
NtRp4360
(dp4361
g54
(dp4362
g62
I5
ssg63
g4356
sg56
(lp4363
g2120
asbasbasbag49
(g65
g51
NtRp4364
(dp4365
g54
(dp4366
sg63
g2833
sg56
(lp4367
g49
(g70
g51
NtRp4368
(dp4369
g54
(dp4370
g74
g75
ssg63
g4364
sg56
(lp4371
S'view'
p4372
asbag49
(g70
g51
NtRp4373
(dp4374
g54
(dp4375
g81
g82
ssg63
g4364
sg56
(lp4376
S':'
asbag49
(g70
g51
NtRp4377
(dp4378
g54
(dp4379
sg63
g4364
sg56
(lp4380
g49
(g50
g51
NtRp4381
(dp4382
g54
(dp4383
g62
I5
ssg63
g4377
sg56
(lp4384
S'default/addBarcode.html'
p4385
asbasbasbasbasbsS'locals'
p4386
(dp4387
ssS'traceback'
p4388
S'Traceback (most recent call last):\n  File "gluon/restricted.py", line 205, in restricted\n  File "C:\\Users\\Bussiere\\Dropbox\\Projets\\Yuki\\web2py\\applications\\init\\controllers/default.py", line 98, in <module>\n  File "gluon/globals.py", line 173, in <lambda>\n  File "C:\\Users\\Bussiere\\Dropbox\\Projets\\Yuki\\web2py\\applications\\init\\controllers/default.py", line 56, in addBarcode\nNameError: global name \'ignore_rw\' is not defined\n'
p4389
s.