(dp1
S'output'
p2
S"<type 'exceptions.SyntaxError'> Field: unknown field type: bolean for Hk"
p3
sS'layer'
p4
S'C:\\Users\\Bussiere\\Dropbox\\Projets\\Yuki\\web2py\\applications\\init\\models\\db.py'
p5
sS'code'
p6
S"# -*- coding: utf-8 -*-\n\n#########################################################################\n## This scaffolding model makes your app work on Google App Engine too\n## File is released under public domain and you can use without limitations\n#########################################################################\n\n## if SSL/HTTPS is properly configured and you want all HTTP requests to\n## be redirected to HTTPS, uncomment the line below:\n# request.requires_https()\n\nif not request.env.web2py_runtime_gae:\n    ## if NOT running on Google App Engine use SQLite or other DB\n    db = DAL('sqlite://storage.sqlite')\nelse:\n    ## connect to Google BigTable (optional 'google:datastore://namespace')\n    db = DAL('google:datastore')\n    ## store sessions and tickets there\n    session.connect(request, response, db = db)\n    ## or store session in Memcache, Redis, etc.\n    ## from gluon.contrib.memdb import MEMDB\n    ## from google.appengine.api.memcache import Client\n    ## session.connect(request, response, db = MEMDB(Client()))\n\n## by default give a view/generic.extension to all actions from localhost\n## none otherwise. a pattern can be 'controller/function.extension'\nresponse.generic_patterns = ['*'] if request.is_local else []\n## (optional) optimize handling of static files\n# response.optimize_css = 'concat,minify,inline'\n# response.optimize_js = 'concat,minify,inline'\n\n#########################################################################\n## Here is sample code if you need for\n## - email capabilities\n## - auth_userentication (registration, login, logout, ... )\n## - auth_userorization (role based auth_userorization)\n## - services (xml, csv, json, xmlrpc, jsonrpc, amf, rss)\n## - old style crud actions\n## (more options discussed in gluon/tools.py)\n#########################################################################\n\nfrom gluon.tools import Auth, Crud, Service, PluginManager, prettydate\nauth = Auth(db, hmac_key=Auth.get_or_create_key())\ncrud, service, plugins = Crud(db), Service(), PluginManager()\n\n## create all tables needed by auth_user if not custom tables\nauth.define_tables()\n\n\ndb.define_table('Barcodebase',\n   Field('Barcode', unique=True),\n   Field('auth_user',db.auth_user),\n   Field('Comment'),\n   Field('Hk','bolean'),\n   format = '%(Barcodee)s')\n\ndb.define_table('Barcode',\n   Field('Barcode', unique=True),\n   Field('auth_user','list:reference auth_user'),\n   Field('Comment','list:reference Comment'),\n   Field('Seller','list:reference Seller'),\n   Field('Livre','list:reference Livre'),\n   Field('Musique','list:reference Musique'),\n   Field('Video','list:reference Video'),\n   Field('Figur','list:reference Figur'),\n   Field('Goodie','list:reference Goodie'),\n   Field('VideoGame','list:reference VideoGame'),\n   format = '%(Barcodee)s')\n   \ndb.define_table('Comment',\n   Field('Name', unique=True),\n   Field('Texte'),\n   Field('Vote', 'integer'),\n   Field('auth_user',db.auth_user),\n   format = '%(Name)s')\n\n\ndb.define_table('Convention',\n   Field('Nom', unique=True),\n   Field('Localisation','list:reference Localisation'),\n   Field('auth_user','list:reference auth_user'),\n   Field('Comment','list:reference Comment'),\n   Field('Seller','list:reference Seller'),\n   Field('Livre','list:reference Livre'),\n   Field('Musique','list:reference Musique'),\n   Field('Video','list:reference Video'),\n   Field('Figur','list:reference Figur'),\n   Field('Goodie','list:reference Goodie'),\n   Field('Link','list:reference Link'),\n   Field('Tag','list:reference Tag'),\n\n   format = '%(Nom)s')\n\ndb.define_table('auth_useror',\n   Field('Nom', unique=True),\n   Field('Tag','list:reference Tag'),\n   format = '%(Nom)s')\n\ndb.define_table('Character',\n   Field('Nom', unique=True),\n   Field('Tag','list:reference Tag'),\n   format = '%(Nom)s')\n\ndb.define_table('Figur',\n   Field('Name', unique=True),\n   Field('Date'),\n   Field('Characters','list:reference Character'),\n   Field('auth_userors','list:reference auth_useror'),\n   Field('Tag','list:reference Tag'),\n   Field('Price','list:reference Price'),\n   Field('Seller','list:reference Seller'),\n   Field('Convention','list:reference Convention'),\n   Field('Vote','list:reference Vote'),\n   Field('BarCode','list:reference BarCode'),\n   Field('Comment','list:reference Comment'),\n   Field('Link','list:reference Link'),\n   format = '%(Nom)s')\n   \ndb.define_table('TypeMusic',\n   Field('Nom', unique=True),\n   format = '%(Nom)s')\n\n\ndb.define_table('Music',\n   Field('Name', unique=True),\n   Field('Date'),\n   Field('auth_userors','list:reference auth_useror'),\n   Field('Tag','list:reference Tag'),\n   Field('Price','list:reference Price'),\n   Field('Seller','list:reference Seller'),\n   Field('Convention','list:reference Convention'),\n   Field('Vote','list:reference Vote'),\n   Field('BarCode','list:reference BarCode'),\n   Field('Comment','list:reference Comment'),\n   Field('Link','list:reference Link'),\n   format = '%(Nom)s')\n\n\ndb.define_table('TypeVideo',\n   Field('Nom', unique=True),\n   format = '%(Nom)s')\n\n\ndb.define_table('Video',\n   Field('Name', unique=True),\n   Field('Date'),\n   Field('auth_userors','list:reference auth_useror'),\n   Field('Tag','list:reference Tag'),\n   Field('Price','list:reference Price'),\n   Field('Seller','list:reference Seller'),\n   Field('Convention','list:reference Convention'),\n   Field('Vote','list:reference Vote'),\n   Field('BarCode','list:reference BarCode'),\n   Field('Comment','list:reference Comment'),\n   Field('Link','list:reference Link'),  \n   format = '%(Nom)s')\n\ndb.define_table('TypeVideoGame',\n   Field('Nom', unique=True),\n   format = '%(Nom)s')\n\n\ndb.define_table('VideoGame',\n   Field('Name', unique=True),\n   Field('Date'),\n   Field('auth_userors','list:reference auth_useror'),\n   Field('Tag','list:reference Tag'),\n   Field('Price','list:reference Price'),\n   Field('Seller','list:reference Seller'),\n   Field('Convention','list:reference Convention'),\n   Field('Vote','list:reference Vote'),\n   Field('BarCode','list:reference BarCode'),\n   Field('Comment','list:reference Comment'),\n   Field('Link','list:reference Link'),\n   format = '%(Nom)s')\n\ndb.define_table('TypeBook',\n   Field('Nom', unique=True),\n   format = '%(Nom)s')\n\n\ndb.define_table('Book',\n   Field('Name', unique=True),\n   Field('Date'),\n   Field('auth_userors','list:reference auth_useror'),\n   Field('Tag','list:reference Tag'),\n   Field('Price','list:reference Price'),\n   Field('Seller','list:reference Seller'),\n   Field('Convention','list:reference Convention'),\n   Field('Vote','list:reference Vote'),\n   Field('BarCode','list:reference BarCode'),\n   Field('Comment','list:reference Comment'),\n   Field('Link','list:reference Link'),\n   format = '%(Nom)s')\n\n\ndb.define_table('TypeGoodie',\n   Field('Nom', unique=True),\n   format = '%(Nom)s')\n\n\ndb.define_table('Goodie',\n   Field('Name', unique=True),\n   Field('Date'),\n   Field('auth_userors','list:reference auth_useror'),\n   Field('Tag','list:reference Tag'),\n   Field('Price','list:reference Price'),\n   Field('Seller','list:reference Seller'),\n   Field('Convention','list:reference Convention'),\n   Field('Vote','list:reference Vote'),\n   Field('BarCode','list:reference BarCode'),\n   Field('Comment','list:reference Comment'),\n   Field('Link','list:reference Link'),\n   format = '%(Nom)s')\n\n\n\ndb.define_table('GPS',\n   Field('GPS', unique=True),\n   Field('Tag','list:reference Tag'),\n   format = '%(GPS)s')\n\ndb.define_table('GeoHash',\n   Field('GeoHash', unique=True),\n   Field('Tag','list:reference Tag'),\n   format = '%(GeoHash)s')\n\ndb.define_table('OpenStreetMap',\n   Field('OpenStreetMap', unique=True),\n   Field('Tag','list:reference Tag'),\n   format = '%(OpenStreetMap)s')\n\ndb.define_table('Country',\n   Field('Name', unique=True),\n   Field('Link','list:reference Link'),\n   Field('GPS','list:reference GPS'),\n   Field('GeoHash','list:reference GeoHash'),\n   Field('OpenStreetMap','list:reference OpenStreetMap'),\n   format = '%(Name)s')\n   \ndb.define_table('State',\n   Field('Name', unique=True),\n   Field('Link','list:reference Link'),\n   Field('GPS','list:reference GPS'),\n   Field('GeoHash','list:reference GeoHash'),\n   Field('OpenStreetMap','list:reference OpenStreetMap'),\n   format = '%(Name)s')\n   \n\ndb.define_table('Region',\n   Field('Name', unique=True),\n   Field('Link','list:reference Link'),\n   Field('GPS','list:reference GPS'),\n   Field('GeoHash','list:reference GeoHash'),\n   Field('OpenStreetMap','list:reference OpenStreetMap'),\n   format = '%(Name)s')\n   \n \ndb.define_table('City',\n   Field('Name', unique=True),\n   Field('Link','list:reference Link'),\n   Field('GPS','list:reference GPS'),\n   Field('GeoHash','list:reference GeoHash'),\n   Field('OpenStreetMap','list:reference OpenStreetMap'),\n   format = '%(Name)s')\n\ndb.define_table('Adress',\n   Field('Name', unique=True),\n   Field('Number', unique=True),\n   Field('Link','list:reference Link'),\n   Field('GPS','list:reference GPS'),\n   Field('GeoHash','list:reference GeoHash'),\n   Field('OpenStreetMap','list:reference OpenStreetMap'),\n   format = '%(Name)s')\n   \ndb.define_table('PostalCode',\n   Field('Name', unique=True),\n   Field('Number', unique=True),\n   Field('Link','list:reference Link'),\n   Field('GPS','list:reference GPS'),\n   Field('GeoHash','list:reference GeoHash'),\n   Field('OpenStreetMap','list:reference OpenStreetMap'),\n   format = '%(Name)s')\n   \ndb.define_table('Subway',\n   Field('Name', unique=True),\n   Field('Number', unique=True),\n   format = '%(Name)s')\n  \n\ndb.define_table('SubwayStation',\n   Field('Name', unique=True),\n   Field('Subway','list:reference Subway'),\n   format = '%(Name)s')\n\n\ndb.define_table('Bus',\n   Field('Name', unique=True),\n   Field('Number', unique=True),\n   format = '%(Name)s')\n  \n\ndb.define_table('BusStation',\n   Field('Name', unique=True),\n   Field('Subway','list:reference Subway'),\n   format = '%(Name)s')\n\ndb.define_table('Localisation',\n   Field('Name', unique=True),\n   Field('Link','list:reference Link'),\n   Field('GPS','list:reference GPS'),\n   Field('GeoHash','list:reference GeoHash'),\n   Field('OpenStreetMap','list:reference OpenStreetMap'),\n   Field('Country','list:reference Country'),\n   Field('State','list:reference State'),\n   Field('Region','list:reference Region'),\n   Field('City','list:reference City'),\n   Field('Adress','list:reference Adress'),\n   Field('PostalCode','list:reference PostalCode'),\n   Field('SubwayStation','list:reference SubwayStation'),\n   Field('BusStation','list:reference BusStation'),\n   format = '%(Name)s')\n   \n\ndb.define_table('image',\n   Field('title', unique=True),\n   Field('file', 'upload'),\n   format = '%(title)s')\n\n\ndb.define_table('Cour',\n    Field('id'),\n    Field('Price', 'double'),\n    format = '%(Price)d')\n\ndb.define_table('Currency',\n   Field('Name', unique=True),\n   Field('Cour', db.Cour),\n   format = '%(Name)s')\n   \n   \ndb.define_table('Price',\n   Field('Name'),\n   Field('Currency', db.Currency),\n   Field('Amount', 'double'),\n   format = '%(Price,Currency)s')\n   \ndb.define_table('Seller',\n   Field('Name', unique=True),\n   Field('Date'),\n   Field('Localisation','list:reference Localisation'),\n   Field('Tag','list:reference Tag'),\n   Field('Comment','list:reference Comment'),\n   Field('Link','list:reference Link'),\n   format = '%(Nom)s')   \n\ndb.define_table('FamilleTag',\n   Field('Name', unique=True),\n   Field('Tag','list:reference Tag'),\n   format = '%(Name)s')\n   \ndb.define_table('Tag',\n   Field('Name', unique=True),\n   format = '%(Name)s')\n   \ndb.define_table('AssoTag',\n   Field('Name', unique=True),\n   Field('Tag','list:reference Tag'),\n   Field('FamilleTag','list:reference FamilleTag'),\n   format = '%(Name)s')\n   \ndb.define_table('VoteHK',\n   Field('auth_user', db.auth_user),\n   format = '%(auth_user)s')\n   \ndb.define_table('VoteNonHK',\n   Field('auth_user', db.auth_user),\n   format = '%(auth_user)s')\n\ndb.define_table('VoteAskHK',\n   Field('auth_user', db.auth_user),\n   format = '%(auth_user)s')\n\ndb.define_table('comment',\n   Field('Barcode_id', db.Barcode),\n   Field('author', db.auth_user),\n   Field('body', 'text'))\n\n## configure email\nmail=auth.settings.mailer\nmail.settings.server = 'logging' or 'smtp.gmail.com:587'\nmail.settings.sender = 'you@gmail.com'\nmail.settings.login = 'username:password'\n\n## configure auth policy\nauth.settings.registration_requires_verification = False\nauth.settings.registration_requires_approval = False\nauth.settings.reset_password_requires_verification = True\n\n## if you need to use OpenID, Facebook, MySpace, Twitter, Linkedin, etc.\n## register with janrain.com, write your domain:api_key in private/janrain.key\nfrom gluon.contrib.login_methods.rpx_account import use_janrain\nuse_janrain(auth,filename='private/janrain.key')\n\n#########################################################################\n## Define your tables below (or better in another model file) for example\n##\n## >>> db.define_table('mytable',Field('myfield','string'))\n##\n## Fields can be 'string','text','password','integer','double','boolean'\n##       'date','time','datetime','blob','upload', 'reference TABLENAME'\n## There is an implicit 'id integer autoincrement' field\n## Consult manual for more options, validators, etc.\n##\n## More API examples for controllers:\n##\n## >>> db.mytable.insert(myfield='value')\n## >>> rows=db(db.mytable.myfield=='value').select(db.mytable.ALL)\n## >>> for row in rows: print row.id, row.myfield\n#########################################################################\n\n#########\n"
p7
sS'snapshot'
p8
(dp9
S'exception'
p10
(dp11
S'__getslice__'
p12
S"<method-wrapper '__getslice__' of exceptions.SyntaxError object at 0x045A7BB0>"
p13
sS'text'
p14
S'None'
p15
sS'__str__'
p16
S"<method-wrapper '__str__' of exceptions.SyntaxError object at 0x045A7BB0>"
p17
sS'__reduce__'
p18
S'<built-in method __reduce__ of exceptions.SyntaxError object at 0x045A7BB0>'
p19
sS'__dict__'
p20
S'{}'
p21
sS'__init__'
p22
S"<method-wrapper '__init__' of exceptions.SyntaxError object at 0x045A7BB0>"
p23
sS'__setattr__'
p24
S"<method-wrapper '__setattr__' of exceptions.SyntaxError object at 0x045A7BB0>"
p25
sS'__reduce_ex__'
p26
S'<built-in method __reduce_ex__ of exceptions.SyntaxError object at 0x045A7BB0>'
p27
sS'__new__'
p28
S'<built-in method __new__ of type object at 0x1E1CDBD0>'
p29
sS'__class__'
p30
S"<type 'exceptions.SyntaxError'>"
p31
sS'filename'
p32
S'None'
p33
sS'lineno'
p34
S'None'
p35
sS'msg'
p36
S"'Field: unknown field type: bolean for Hk'"
p37
sS'__doc__'
p38
S"'Invalid syntax.'"
p39
sS'__getitem__'
p40
S"<method-wrapper '__getitem__' of exceptions.SyntaxError object at 0x045A7BB0>"
p41
sS'__setstate__'
p42
S'<built-in method __setstate__ of exceptions.SyntaxError object at 0x045A7BB0>'
p43
sS'__getattribute__'
p44
S"<method-wrapper '__getattribute__' of exceptions.SyntaxError object at 0x045A7BB0>"
p45
sS'print_file_and_line'
p46
S'None'
p47
sS'args'
p48
S"('Field: unknown field type: bolean for Hk',)"
p49
sS'offset'
p50
S'None'
p51
sS'__delattr__'
p52
S"<method-wrapper '__delattr__' of exceptions.SyntaxError object at 0x045A7BB0>"
p53
sS'__repr__'
p54
S"<method-wrapper '__repr__' of exceptions.SyntaxError object at 0x045A7BB0>"
p55
sS'__hash__'
p56
S"<method-wrapper '__hash__' of exceptions.SyntaxError object at 0x045A7BB0>"
p57
ssS'evalue'
p58
S'Field: unknown field type: bolean for Hk'
p59
sS'request'
p60
ccopy_reg
_reconstructor
p61
(cgluon.html
BEAUTIFY
p62
c__builtin__
object
p63
NtRp64
(dp65
S'attributes'
p66
(dp67
sS'components'
p68
(lp69
g61
(cgluon.html
TABLE
p70
g63
NtRp71
(dp72
g66
(dp73
S'level'
p74
I5
ssS'parent'
p75
Nsg68
(lp76
g61
(cgluon.html
TR
p77
g63
NtRp78
(dp79
g66
(dp80
sg75
g71
sg68
(lp81
g61
(cgluon.html
TD
p82
g63
NtRp83
(dp84
g66
(dp85
S'_style'
p86
S'font-weight:bold;vertical-align:top'
p87
ssg75
g78
sg68
(lp88
S'ajax'
p89
asbag61
(g82
g63
NtRp90
(dp91
g66
(dp92
S'_valign'
p93
S'top'
p94
ssg75
g78
sg68
(lp95
S':'
asbag61
(g82
g63
NtRp96
(dp97
g66
(dp98
sg75
g78
sg68
(lp99
g61
(g62
g63
NtRp100
(dp101
g66
(dp102
g74
I5
ssg75
g96
sg68
(lp103
S'False'
p104
asbasbasbag61
(g77
g63
NtRp105
(dp106
g66
(dp107
sg75
g71
sg68
(lp108
g61
(g82
g63
NtRp109
(dp110
g66
(dp111
g86
g87
ssg75
g105
sg68
(lp112
S'application'
p113
asbag61
(g82
g63
NtRp114
(dp115
g66
(dp116
g93
g94
ssg75
g105
sg68
(lp117
S':'
asbag61
(g82
g63
NtRp118
(dp119
g66
(dp120
sg75
g105
sg68
(lp121
g61
(g62
g63
NtRp122
(dp123
g66
(dp124
g74
I5
ssg75
g118
sg68
(lp125
S'init'
p126
asbasbasbag61
(g77
g63
NtRp127
(dp128
g66
(dp129
sg75
g71
sg68
(lp130
g61
(g82
g63
NtRp131
(dp132
g66
(dp133
g86
g87
ssg75
g127
sg68
(lp134
g48
asbag61
(g82
g63
NtRp135
(dp136
g66
(dp137
g93
g94
ssg75
g127
sg68
(lp138
S':'
asbag61
(g82
g63
NtRp139
(dp140
g66
(dp141
sg75
g127
sg68
(lp142
g61
(g62
g63
NtRp143
(dp144
g66
(dp145
g74
I5
ssg75
g139
sg68
(lp146
g61
(g70
g63
NtRp147
(dp148
g66
(dp149
g74
I4
ssg75
Nsg68
(lp150
sbasbasbasbag61
(g77
g63
NtRp151
(dp152
g66
(dp153
sg75
g71
sg68
(lp154
g61
(g82
g63
NtRp155
(dp156
g66
(dp157
g86
g87
ssg75
g151
sg68
(lp158
S'body'
p159
asbag61
(g82
g63
NtRp160
(dp161
g66
(dp162
g93
g94
ssg75
g151
sg68
(lp163
S':'
asbag61
(g82
g63
NtRp164
(dp165
g66
(dp166
sg75
g151
sg68
(lp167
g61
(g62
g63
NtRp168
(dp169
g66
(dp170
g74
I5
ssg75
g164
sg68
(lp171
S'<cStringIO.StringO object at 0x045D15E0>'
p172
asbasbasbag61
(g77
g63
NtRp173
(dp174
g66
(dp175
sg75
g71
sg68
(lp176
g61
(g82
g63
NtRp177
(dp178
g66
(dp179
g86
g87
ssg75
g173
sg68
(lp180
S'client'
p181
asbag61
(g82
g63
NtRp182
(dp183
g66
(dp184
g93
g94
ssg75
g173
sg68
(lp185
S':'
asbag61
(g82
g63
NtRp186
(dp187
g66
(dp188
sg75
g173
sg68
(lp189
g61
(g62
g63
NtRp190
(dp191
g66
(dp192
g74
I5
ssg75
g186
sg68
(lp193
S'127.0.0.1'
p194
asbasbasbag61
(g77
g63
NtRp195
(dp196
g66
(dp197
sg75
g71
sg68
(lp198
g61
(g82
g63
NtRp199
(dp200
g66
(dp201
g86
g87
ssg75
g195
sg68
(lp202
S'controller'
p203
asbag61
(g82
g63
NtRp204
(dp205
g66
(dp206
g93
g94
ssg75
g195
sg68
(lp207
S':'
asbag61
(g82
g63
NtRp208
(dp209
g66
(dp210
sg75
g195
sg68
(lp211
g61
(g62
g63
NtRp212
(dp213
g66
(dp214
g74
I5
ssg75
g208
sg68
(lp215
S'default'
p216
asbasbasbag61
(g77
g63
NtRp217
(dp218
g66
(dp219
sg75
g71
sg68
(lp220
g61
(g82
g63
NtRp221
(dp222
g66
(dp223
g86
g87
ssg75
g217
sg68
(lp224
S'cookies'
p225
asbag61
(g82
g63
NtRp226
(dp227
g66
(dp228
g93
g94
ssg75
g217
sg68
(lp229
S':'
asbag61
(g82
g63
NtRp230
(dp231
g66
(dp232
sg75
g217
sg68
(lp233
g61
(g62
g63
NtRp234
(dp235
g66
(dp236
g74
I5
ssg75
g230
sg68
(lp237
g61
(g70
g63
NtRp238
(dp239
g66
(dp240
g74
I4
ssg75
Nsg68
(lp241
g61
(g77
g63
NtRp242
(dp243
g66
(dp244
sg75
g238
sg68
(lp245
g61
(g82
g63
NtRp246
(dp247
g66
(dp248
g86
g87
ssg75
g242
sg68
(lp249
S'session_id_init'
p250
asbag61
(g82
g63
NtRp251
(dp252
g66
(dp253
g93
g94
ssg75
g242
sg68
(lp254
S':'
asbag61
(g82
g63
NtRp255
(dp256
g66
(dp257
sg75
g242
sg68
(lp258
g61
(g62
g63
NtRp259
(dp260
g66
(dp261
g74
I4
ssg75
g255
sg68
(lp262
g61
(g70
g63
NtRp263
(dp264
g66
(dp265
g74
I3
ssg75
Nsg68
(lp266
g61
(g77
g63
NtRp267
(dp268
g66
(dp269
sg75
g263
sg68
(lp270
g61
(g82
g63
NtRp271
(dp272
g66
(dp273
g86
g87
ssg75
g267
sg68
(lp274
S'comment'
p275
asbag61
(g82
g63
NtRp276
(dp277
g66
(dp278
g93
g94
ssg75
g267
sg68
(lp279
S':'
asbag61
(g82
g63
NtRp280
(dp281
g66
(dp282
sg75
g267
sg68
(lp283
g61
(g62
g63
NtRp284
(dp285
g66
(dp286
g74
I3
ssg75
g280
sg68
(lp287
S''
asbasbasbag61
(g77
g63
NtRp288
(dp289
g66
(dp290
sg75
g263
sg68
(lp291
g61
(g82
g63
NtRp292
(dp293
g66
(dp294
g86
g87
ssg75
g288
sg68
(lp295
S'domain'
p296
asbag61
(g82
g63
NtRp297
(dp298
g66
(dp299
g93
g94
ssg75
g288
sg68
(lp300
S':'
asbag61
(g82
g63
NtRp301
(dp302
g66
(dp303
sg75
g288
sg68
(lp304
g61
(g62
g63
NtRp305
(dp306
g66
(dp307
g74
I3
ssg75
g301
sg68
(lp308
S''
asbasbasbag61
(g77
g63
NtRp309
(dp310
g66
(dp311
sg75
g263
sg68
(lp312
g61
(g82
g63
NtRp313
(dp314
g66
(dp315
g86
g87
ssg75
g309
sg68
(lp316
S'expires'
p317
asbag61
(g82
g63
NtRp318
(dp319
g66
(dp320
g93
g94
ssg75
g309
sg68
(lp321
S':'
asbag61
(g82
g63
NtRp322
(dp323
g66
(dp324
sg75
g309
sg68
(lp325
g61
(g62
g63
NtRp326
(dp327
g66
(dp328
g74
I3
ssg75
g322
sg68
(lp329
S''
asbasbasbag61
(g77
g63
NtRp330
(dp331
g66
(dp332
sg75
g263
sg68
(lp333
g61
(g82
g63
NtRp334
(dp335
g66
(dp336
g86
g87
ssg75
g330
sg68
(lp337
S'max-age'
p338
asbag61
(g82
g63
NtRp339
(dp340
g66
(dp341
g93
g94
ssg75
g330
sg68
(lp342
S':'
asbag61
(g82
g63
NtRp343
(dp344
g66
(dp345
sg75
g330
sg68
(lp346
g61
(g62
g63
NtRp347
(dp348
g66
(dp349
g74
I3
ssg75
g343
sg68
(lp350
S''
asbasbasbag61
(g77
g63
NtRp351
(dp352
g66
(dp353
sg75
g263
sg68
(lp354
g61
(g82
g63
NtRp355
(dp356
g66
(dp357
g86
g87
ssg75
g351
sg68
(lp358
S'path'
p359
asbag61
(g82
g63
NtRp360
(dp361
g66
(dp362
g93
g94
ssg75
g351
sg68
(lp363
S':'
asbag61
(g82
g63
NtRp364
(dp365
g66
(dp366
sg75
g351
sg68
(lp367
g61
(g62
g63
NtRp368
(dp369
g66
(dp370
g74
I3
ssg75
g364
sg68
(lp371
S''
asbasbasbag61
(g77
g63
NtRp372
(dp373
g66
(dp374
sg75
g263
sg68
(lp375
g61
(g82
g63
NtRp376
(dp377
g66
(dp378
g86
g87
ssg75
g372
sg68
(lp379
S'secure'
p380
asbag61
(g82
g63
NtRp381
(dp382
g66
(dp383
g93
g94
ssg75
g372
sg68
(lp384
S':'
asbag61
(g82
g63
NtRp385
(dp386
g66
(dp387
sg75
g372
sg68
(lp388
g61
(g62
g63
NtRp389
(dp390
g66
(dp391
g74
I3
ssg75
g385
sg68
(lp392
S''
asbasbasbag61
(g77
g63
NtRp393
(dp394
g66
(dp395
sg75
g263
sg68
(lp396
g61
(g82
g63
NtRp397
(dp398
g66
(dp399
g86
g87
ssg75
g393
sg68
(lp400
S'version'
p401
asbag61
(g82
g63
NtRp402
(dp403
g66
(dp404
g93
g94
ssg75
g393
sg68
(lp405
S':'
asbag61
(g82
g63
NtRp406
(dp407
g66
(dp408
sg75
g393
sg68
(lp409
g61
(g62
g63
NtRp410
(dp411
g66
(dp412
g74
I3
ssg75
g406
sg68
(lp413
S''
asbasbasbasbasbasbasbasbasbasbasbag61
(g77
g63
NtRp414
(dp415
g66
(dp416
sg75
g71
sg68
(lp417
g61
(g82
g63
NtRp418
(dp419
g66
(dp420
g86
g87
ssg75
g414
sg68
(lp421
S'env'
p422
asbag61
(g82
g63
NtRp423
(dp424
g66
(dp425
g93
g94
ssg75
g414
sg68
(lp426
S':'
asbag61
(g82
g63
NtRp427
(dp428
g66
(dp429
sg75
g414
sg68
(lp430
g61
(g62
g63
NtRp431
(dp432
g66
(dp433
g74
I5
ssg75
g427
sg68
(lp434
g61
(g70
g63
NtRp435
(dp436
g66
(dp437
g74
I4
ssg75
Nsg68
(lp438
g61
(g77
g63
NtRp439
(dp440
g66
(dp441
sg75
g435
sg68
(lp442
g61
(g82
g63
NtRp443
(dp444
g66
(dp445
g86
g87
ssg75
g439
sg68
(lp446
S'app_folders'
p447
asbag61
(g82
g63
NtRp448
(dp449
g66
(dp450
g93
g94
ssg75
g439
sg68
(lp451
S':'
asbag61
(g82
g63
NtRp452
(dp453
g66
(dp454
sg75
g439
sg68
(lp455
g61
(g62
g63
NtRp456
(dp457
g66
(dp458
g74
I4
ssg75
g452
sg68
(lp459
S"set(['C:\\\\Users\\\\Bussiere\\\\Dropbox\\\\Projets\\\\Yuki\\\\web2py\\\\applications\\\\init\\\\'])"
p460
asbasbasbag61
(g77
g63
NtRp461
(dp462
g66
(dp463
sg75
g435
sg68
(lp464
g61
(g82
g63
NtRp465
(dp466
g66
(dp467
g86
g87
ssg75
g461
sg68
(lp468
S'applications_parent'
p469
asbag61
(g82
g63
NtRp470
(dp471
g66
(dp472
g93
g94
ssg75
g461
sg68
(lp473
S':'
asbag61
(g82
g63
NtRp474
(dp475
g66
(dp476
sg75
g461
sg68
(lp477
g61
(g62
g63
NtRp478
(dp479
g66
(dp480
g74
I4
ssg75
g474
sg68
(lp481
S'C:\\Users\\Bussiere\\Dropbox\\Projets\\Yuki\\web2py'
p482
asbasbasbag61
(g77
g63
NtRp483
(dp484
g66
(dp485
sg75
g435
sg68
(lp486
g61
(g82
g63
NtRp487
(dp488
g66
(dp489
g86
g87
ssg75
g483
sg68
(lp490
S'cmd_args'
p491
asbag61
(g82
g63
NtRp492
(dp493
g66
(dp494
g93
g94
ssg75
g483
sg68
(lp495
S':'
asbag61
(g82
g63
NtRp496
(dp497
g66
(dp498
sg75
g483
sg68
(lp499
g61
(g62
g63
NtRp500
(dp501
g66
(dp502
g74
I4
ssg75
g496
sg68
(lp503
g61
(g70
g63
NtRp504
(dp505
g66
(dp506
g74
I3
ssg75
Nsg68
(lp507
sbasbasbasbag61
(g77
g63
NtRp508
(dp509
g66
(dp510
sg75
g435
sg68
(lp511
g61
(g82
g63
NtRp512
(dp513
g66
(dp514
g86
g87
ssg75
g508
sg68
(lp515
S'cmd_options'
p516
asbag61
(g82
g63
NtRp517
(dp518
g66
(dp519
g93
g94
ssg75
g508
sg68
(lp520
S':'
asbag61
(g82
g63
NtRp521
(dp522
g66
(dp523
sg75
g508
sg68
(lp524
g61
(g62
g63
NtRp525
(dp526
g66
(dp527
g74
I4
ssg75
g521
sg68
(lp528
S"<Values at 0x3c04f58: {'verbose': False, 'ip': '127.0.0.1', 'shutdown_timeout': 5, 'taskbar': False, 'nocron': False, 'pid_filename': 'httpserver.pid', 'maxthreads': None, 'softcron': False, 'server_name': 'Batou', 'bpython': False, 'nogui': False, 'port': 8000, 'extcron': False, 'debuglevel': 30, 'test': None, 'folder': 'C:\\\\Users\\\\Bussiere\\\\Dropbox\\\\Projets\\\\Yuki\\\\web2py', 'config': '', 'import_models': False, 'winservice': '', 'shell': None, 'run': '', 'log_filename': 'httpserver.log', 'args': [''], 'socket_timeout': 5, 'ssl_ca_certificate': None, 'scheduler': None, 'profiler_filename': None, 'ssl_private_key': '', 'password': '<ask>', 'request_queue_size': 5, 'ssl_certificate': '', 'cronjob': False, 'numthreads': None, 'quiet': False, 'interfaces': None, 'minthreads': None, 'timeout': 10, 'plain': False, 'nobanner': False}>"
p529
asbasbasbag61
(g77
g63
NtRp530
(dp531
g66
(dp532
sg75
g435
sg68
(lp533
g61
(g82
g63
NtRp534
(dp535
g66
(dp536
g86
g87
ssg75
g530
sg68
(lp537
S'db_sessions'
p538
asbag61
(g82
g63
NtRp539
(dp540
g66
(dp541
g93
g94
ssg75
g530
sg68
(lp542
S':'
asbag61
(g82
g63
NtRp543
(dp544
g66
(dp545
sg75
g530
sg68
(lp546
g61
(g62
g63
NtRp547
(dp548
g66
(dp549
g74
I4
ssg75
g543
sg68
(lp550
S'set([])'
p551
asbasbasbag61
(g77
g63
NtRp552
(dp553
g66
(dp554
sg75
g435
sg68
(lp555
g61
(g82
g63
NtRp556
(dp557
g66
(dp558
g86
g87
ssg75
g552
sg68
(lp559
S'debugging'
p560
asbag61
(g82
g63
NtRp561
(dp562
g66
(dp563
g93
g94
ssg75
g552
sg68
(lp564
S':'
asbag61
(g82
g63
NtRp565
(dp566
g66
(dp567
sg75
g552
sg68
(lp568
g61
(g62
g63
NtRp569
(dp570
g66
(dp571
g74
I4
ssg75
g565
sg68
(lp572
S'True'
p573
asbasbasbag61
(g77
g63
NtRp574
(dp575
g66
(dp576
sg75
g435
sg68
(lp577
g61
(g82
g63
NtRp578
(dp579
g66
(dp580
g86
g87
ssg75
g574
sg68
(lp581
S'gluon_parent'
p582
asbag61
(g82
g63
NtRp583
(dp584
g66
(dp585
g93
g94
ssg75
g574
sg68
(lp586
S':'
asbag61
(g82
g63
NtRp587
(dp588
g66
(dp589
sg75
g574
sg68
(lp590
g61
(g62
g63
NtRp591
(dp592
g66
(dp593
g74
I4
ssg75
g587
sg68
(lp594
S'C:\\Users\\Bussiere\\Dropbox\\Projets\\Yuki\\web2py'
p595
asbasbasbag61
(g77
g63
NtRp596
(dp597
g66
(dp598
sg75
g435
sg68
(lp599
g61
(g82
g63
NtRp600
(dp601
g66
(dp602
g86
g87
ssg75
g596
sg68
(lp603
S'http_accept'
p604
asbag61
(g82
g63
NtRp605
(dp606
g66
(dp607
g93
g94
ssg75
g596
sg68
(lp608
S':'
asbag61
(g82
g63
NtRp609
(dp610
g66
(dp611
sg75
g596
sg68
(lp612
g61
(g62
g63
NtRp613
(dp614
g66
(dp615
g74
I4
ssg75
g609
sg68
(lp616
S'text/html,application/xhtml+xml,application/xml;q=0.9,*/*;q=0.8'
p617
asbasbasbag61
(g77
g63
NtRp618
(dp619
g66
(dp620
sg75
g435
sg68
(lp621
g61
(g82
g63
NtRp622
(dp623
g66
(dp624
g86
g87
ssg75
g618
sg68
(lp625
S'http_accept_charset'
p626
asbag61
(g82
g63
NtRp627
(dp628
g66
(dp629
g93
g94
ssg75
g618
sg68
(lp630
S':'
asbag61
(g82
g63
NtRp631
(dp632
g66
(dp633
sg75
g618
sg68
(lp634
g61
(g62
g63
NtRp635
(dp636
g66
(dp637
g74
I4
ssg75
g631
sg68
(lp638
S'ISO-8859-1,utf-8;q=0.7,*;q=0.3'
p639
asbasbasbag61
(g77
g63
NtRp640
(dp641
g66
(dp642
sg75
g435
sg68
(lp643
g61
(g82
g63
NtRp644
(dp645
g66
(dp646
g86
g87
ssg75
g640
sg68
(lp647
S'http_accept_encoding'
p648
asbag61
(g82
g63
NtRp649
(dp650
g66
(dp651
g93
g94
ssg75
g640
sg68
(lp652
S':'
asbag61
(g82
g63
NtRp653
(dp654
g66
(dp655
sg75
g640
sg68
(lp656
g61
(g62
g63
NtRp657
(dp658
g66
(dp659
g74
I4
ssg75
g653
sg68
(lp660
S'gzip,deflate,sdch'
p661
asbasbasbag61
(g77
g63
NtRp662
(dp663
g66
(dp664
sg75
g435
sg68
(lp665
g61
(g82
g63
NtRp666
(dp667
g66
(dp668
g86
g87
ssg75
g662
sg68
(lp669
S'http_accept_language'
p670
asbag61
(g82
g63
NtRp671
(dp672
g66
(dp673
g93
g94
ssg75
g662
sg68
(lp674
S':'
asbag61
(g82
g63
NtRp675
(dp676
g66
(dp677
sg75
g662
sg68
(lp678
g61
(g62
g63
NtRp679
(dp680
g66
(dp681
g74
I4
ssg75
g675
sg68
(lp682
S'en-US,en;q=0.8'
p683
asbasbasbag61
(g77
g63
NtRp684
(dp685
g66
(dp686
sg75
g435
sg68
(lp687
g61
(g82
g63
NtRp688
(dp689
g66
(dp690
g86
g87
ssg75
g684
sg68
(lp691
S'http_cache_control'
p692
asbag61
(g82
g63
NtRp693
(dp694
g66
(dp695
g93
g94
ssg75
g684
sg68
(lp696
S':'
asbag61
(g82
g63
NtRp697
(dp698
g66
(dp699
sg75
g684
sg68
(lp700
g61
(g62
g63
NtRp701
(dp702
g66
(dp703
g74
I4
ssg75
g697
sg68
(lp704
S'max-age=0'
p705
asbasbasbag61
(g77
g63
NtRp706
(dp707
g66
(dp708
sg75
g435
sg68
(lp709
g61
(g82
g63
NtRp710
(dp711
g66
(dp712
g86
g87
ssg75
g706
sg68
(lp713
S'http_connection'
p714
asbag61
(g82
g63
NtRp715
(dp716
g66
(dp717
g93
g94
ssg75
g706
sg68
(lp718
S':'
asbag61
(g82
g63
NtRp719
(dp720
g66
(dp721
sg75
g706
sg68
(lp722
g61
(g62
g63
NtRp723
(dp724
g66
(dp725
g74
I4
ssg75
g719
sg68
(lp726
S'keep-alive'
p727
asbasbasbag61
(g77
g63
NtRp728
(dp729
g66
(dp730
sg75
g435
sg68
(lp731
g61
(g82
g63
NtRp732
(dp733
g66
(dp734
g86
g87
ssg75
g728
sg68
(lp735
S'http_cookie'
p736
asbag61
(g82
g63
NtRp737
(dp738
g66
(dp739
g93
g94
ssg75
g728
sg68
(lp740
S':'
asbag61
(g82
g63
NtRp741
(dp742
g66
(dp743
sg75
g728
sg68
(lp744
g61
(g62
g63
NtRp745
(dp746
g66
(dp747
g74
I4
ssg75
g741
sg68
(lp748
S'session_id_init=127.0.0.1-e491f18b-7b0c-472f-8228-a18d6ec769aa'
p749
asbasbasbag61
(g77
g63
NtRp750
(dp751
g66
(dp752
sg75
g435
sg68
(lp753
g61
(g82
g63
NtRp754
(dp755
g66
(dp756
g86
g87
ssg75
g750
sg68
(lp757
S'http_host'
p758
asbag61
(g82
g63
NtRp759
(dp760
g66
(dp761
g93
g94
ssg75
g750
sg68
(lp762
S':'
asbag61
(g82
g63
NtRp763
(dp764
g66
(dp765
sg75
g750
sg68
(lp766
g61
(g62
g63
NtRp767
(dp768
g66
(dp769
g74
I4
ssg75
g763
sg68
(lp770
S'127.0.0.1:8000'
p771
asbasbasbag61
(g77
g63
NtRp772
(dp773
g66
(dp774
sg75
g435
sg68
(lp775
g61
(g82
g63
NtRp776
(dp777
g66
(dp778
g86
g87
ssg75
g772
sg68
(lp779
S'http_user_agent'
p780
asbag61
(g82
g63
NtRp781
(dp782
g66
(dp783
g93
g94
ssg75
g772
sg68
(lp784
S':'
asbag61
(g82
g63
NtRp785
(dp786
g66
(dp787
sg75
g772
sg68
(lp788
g61
(g62
g63
NtRp789
(dp790
g66
(dp791
g74
I4
ssg75
g785
sg68
(lp792
S'Mozilla/5.0 (Windows NT 6.1; WOW64) AppleWebKit/535.18 (KHTML, like Gecko) Chrome/18.0.1011.0 Safari/535.18'
p793
asbasbasbag61
(g77
g63
NtRp794
(dp795
g66
(dp796
sg75
g435
sg68
(lp797
g61
(g82
g63
NtRp798
(dp799
g66
(dp800
g86
g87
ssg75
g794
sg68
(lp801
S'is_jython'
p802
asbag61
(g82
g63
NtRp803
(dp804
g66
(dp805
g93
g94
ssg75
g794
sg68
(lp806
S':'
asbag61
(g82
g63
NtRp807
(dp808
g66
(dp809
sg75
g794
sg68
(lp810
g61
(g62
g63
NtRp811
(dp812
g66
(dp813
g74
I4
ssg75
g807
sg68
(lp814
g104
asbasbasbag61
(g77
g63
NtRp815
(dp816
g66
(dp817
sg75
g435
sg68
(lp818
g61
(g82
g63
NtRp819
(dp820
g66
(dp821
g86
g87
ssg75
g815
sg68
(lp822
S'is_pypy'
p823
asbag61
(g82
g63
NtRp824
(dp825
g66
(dp826
g93
g94
ssg75
g815
sg68
(lp827
S':'
asbag61
(g82
g63
NtRp828
(dp829
g66
(dp830
sg75
g815
sg68
(lp831
g61
(g62
g63
NtRp832
(dp833
g66
(dp834
g74
I4
ssg75
g828
sg68
(lp835
g104
asbasbasbag61
(g77
g63
NtRp836
(dp837
g66
(dp838
sg75
g435
sg68
(lp839
g61
(g82
g63
NtRp840
(dp841
g66
(dp842
g86
g87
ssg75
g836
sg68
(lp843
S'path_info'
p844
asbag61
(g82
g63
NtRp845
(dp846
g66
(dp847
g93
g94
ssg75
g836
sg68
(lp848
S':'
asbag61
(g82
g63
NtRp849
(dp850
g66
(dp851
sg75
g836
sg68
(lp852
g61
(g62
g63
NtRp853
(dp854
g66
(dp855
g74
I4
ssg75
g849
sg68
(lp856
S'/init/'
p857
asbasbasbag61
(g77
g63
NtRp858
(dp859
g66
(dp860
sg75
g435
sg68
(lp861
g61
(g82
g63
NtRp862
(dp863
g66
(dp864
g86
g87
ssg75
g858
sg68
(lp865
S'query_string'
p866
asbag61
(g82
g63
NtRp867
(dp868
g66
(dp869
g93
g94
ssg75
g858
sg68
(lp870
S':'
asbag61
(g82
g63
NtRp871
(dp872
g66
(dp873
sg75
g858
sg68
(lp874
g61
(g62
g63
NtRp875
(dp876
g66
(dp877
g74
I4
ssg75
g871
sg68
(lp878
S''
asbasbasbag61
(g77
g63
NtRp879
(dp880
g66
(dp881
sg75
g435
sg68
(lp882
g61
(g82
g63
NtRp883
(dp884
g66
(dp885
g86
g87
ssg75
g879
sg68
(lp886
S'remote_addr'
p887
asbag61
(g82
g63
NtRp888
(dp889
g66
(dp890
g93
g94
ssg75
g879
sg68
(lp891
S':'
asbag61
(g82
g63
NtRp892
(dp893
g66
(dp894
sg75
g879
sg68
(lp895
g61
(g62
g63
NtRp896
(dp897
g66
(dp898
g74
I4
ssg75
g892
sg68
(lp899
g194
asbasbasbag61
(g77
g63
NtRp900
(dp901
g66
(dp902
sg75
g435
sg68
(lp903
g61
(g82
g63
NtRp904
(dp905
g66
(dp906
g86
g87
ssg75
g900
sg68
(lp907
S'remote_port'
p908
asbag61
(g82
g63
NtRp909
(dp910
g66
(dp911
g93
g94
ssg75
g900
sg68
(lp912
S':'
asbag61
(g82
g63
NtRp913
(dp914
g66
(dp915
sg75
g900
sg68
(lp916
g61
(g62
g63
NtRp917
(dp918
g66
(dp919
g74
I4
ssg75
g913
sg68
(lp920
S'50807'
p921
asbasbasbag61
(g77
g63
NtRp922
(dp923
g66
(dp924
sg75
g435
sg68
(lp925
g61
(g82
g63
NtRp926
(dp927
g66
(dp928
g86
g87
ssg75
g922
sg68
(lp929
S'request_method'
p930
asbag61
(g82
g63
NtRp931
(dp932
g66
(dp933
g93
g94
ssg75
g922
sg68
(lp934
S':'
asbag61
(g82
g63
NtRp935
(dp936
g66
(dp937
sg75
g922
sg68
(lp938
g61
(g62
g63
NtRp939
(dp940
g66
(dp941
g74
I4
ssg75
g935
sg68
(lp942
S'GET'
p943
asbasbasbag61
(g77
g63
NtRp944
(dp945
g66
(dp946
sg75
g435
sg68
(lp947
g61
(g82
g63
NtRp948
(dp949
g66
(dp950
g86
g87
ssg75
g944
sg68
(lp951
S'script_name'
p952
asbag61
(g82
g63
NtRp953
(dp954
g66
(dp955
g93
g94
ssg75
g944
sg68
(lp956
S':'
asbag61
(g82
g63
NtRp957
(dp958
g66
(dp959
sg75
g944
sg68
(lp960
g61
(g62
g63
NtRp961
(dp962
g66
(dp963
g74
I4
ssg75
g957
sg68
(lp964
S''
asbasbasbag61
(g77
g63
NtRp965
(dp966
g66
(dp967
sg75
g435
sg68
(lp968
g61
(g82
g63
NtRp969
(dp970
g66
(dp971
g86
g87
ssg75
g965
sg68
(lp972
S'server_name'
p973
asbag61
(g82
g63
NtRp974
(dp975
g66
(dp976
g93
g94
ssg75
g965
sg68
(lp977
S':'
asbag61
(g82
g63
NtRp978
(dp979
g66
(dp980
sg75
g965
sg68
(lp981
g61
(g62
g63
NtRp982
(dp983
g66
(dp984
g74
I4
ssg75
g978
sg68
(lp985
S'Batou'
p986
asbasbasbag61
(g77
g63
NtRp987
(dp988
g66
(dp989
sg75
g435
sg68
(lp990
g61
(g82
g63
NtRp991
(dp992
g66
(dp993
g86
g87
ssg75
g987
sg68
(lp994
S'server_port'
p995
asbag61
(g82
g63
NtRp996
(dp997
g66
(dp998
g93
g94
ssg75
g987
sg68
(lp999
S':'
asbag61
(g82
g63
NtRp1000
(dp1001
g66
(dp1002
sg75
g987
sg68
(lp1003
g61
(g62
g63
NtRp1004
(dp1005
g66
(dp1006
g74
I4
ssg75
g1000
sg68
(lp1007
S'8000'
p1008
asbasbasbag61
(g77
g63
NtRp1009
(dp1010
g66
(dp1011
sg75
g435
sg68
(lp1012
g61
(g82
g63
NtRp1013
(dp1014
g66
(dp1015
g86
g87
ssg75
g1009
sg68
(lp1016
S'server_protocol'
p1017
asbag61
(g82
g63
NtRp1018
(dp1019
g66
(dp1020
g93
g94
ssg75
g1009
sg68
(lp1021
S':'
asbag61
(g82
g63
NtRp1022
(dp1023
g66
(dp1024
sg75
g1009
sg68
(lp1025
g61
(g62
g63
NtRp1026
(dp1027
g66
(dp1028
g74
I4
ssg75
g1022
sg68
(lp1029
S'HTTP/1.1'
p1030
asbasbasbag61
(g77
g63
NtRp1031
(dp1032
g66
(dp1033
sg75
g435
sg68
(lp1034
g61
(g82
g63
NtRp1035
(dp1036
g66
(dp1037
g86
g87
ssg75
g1031
sg68
(lp1038
S'server_software'
p1039
asbag61
(g82
g63
NtRp1040
(dp1041
g66
(dp1042
g93
g94
ssg75
g1031
sg68
(lp1043
S':'
asbag61
(g82
g63
NtRp1044
(dp1045
g66
(dp1046
sg75
g1031
sg68
(lp1047
g61
(g62
g63
NtRp1048
(dp1049
g66
(dp1050
g74
I4
ssg75
g1044
sg68
(lp1051
S'Rocket 1.2.4'
p1052
asbasbasbag61
(g77
g63
NtRp1053
(dp1054
g66
(dp1055
sg75
g435
sg68
(lp1056
g61
(g82
g63
NtRp1057
(dp1058
g66
(dp1059
g86
g87
ssg75
g1053
sg68
(lp1060
S'web2py_crontype'
p1061
asbag61
(g82
g63
NtRp1062
(dp1063
g66
(dp1064
g93
g94
ssg75
g1053
sg68
(lp1065
S':'
asbag61
(g82
g63
NtRp1066
(dp1067
g66
(dp1068
sg75
g1053
sg68
(lp1069
g61
(g62
g63
NtRp1070
(dp1071
g66
(dp1072
g74
I4
ssg75
g1066
sg68
(lp1073
S'hard'
p1074
asbasbasbag61
(g77
g63
NtRp1075
(dp1076
g66
(dp1077
sg75
g435
sg68
(lp1078
g61
(g82
g63
NtRp1079
(dp1080
g66
(dp1081
g86
g87
ssg75
g1075
sg68
(lp1082
S'web2py_path'
p1083
asbag61
(g82
g63
NtRp1084
(dp1085
g66
(dp1086
g93
g94
ssg75
g1075
sg68
(lp1087
S':'
asbag61
(g82
g63
NtRp1088
(dp1089
g66
(dp1090
sg75
g1075
sg68
(lp1091
g61
(g62
g63
NtRp1092
(dp1093
g66
(dp1094
g74
I4
ssg75
g1088
sg68
(lp1095
g482
asbasbasbag61
(g77
g63
NtRp1096
(dp1097
g66
(dp1098
sg75
g435
sg68
(lp1099
g61
(g82
g63
NtRp1100
(dp1101
g66
(dp1102
g86
g87
ssg75
g1096
sg68
(lp1103
S'web2py_version'
p1104
asbag61
(g82
g63
NtRp1105
(dp1106
g66
(dp1107
g93
g94
ssg75
g1096
sg68
(lp1108
S':'
asbag61
(g82
g63
NtRp1109
(dp1110
g66
(dp1111
sg75
g1096
sg68
(lp1112
g61
(g62
g63
NtRp1113
(dp1114
g66
(dp1115
g74
I4
ssg75
g1109
sg68
(lp1116
g61
(g70
g63
NtRp1117
(dp1118
g66
(dp1119
g74
I3
ssg75
Nsg68
(lp1120
g61
(g77
g63
NtRp1121
(dp1122
g66
(dp1123
sg75
g1117
sg68
(lp1124
g61
(g82
g63
NtRp1125
(dp1126
g66
(dp1127
sg75
g1121
sg68
(lp1128
g61
(g62
g63
NtRp1129
(dp1130
g66
(dp1131
g74
I3
ssg75
g1125
sg68
(lp1132
S'1'
asbasbasbag61
(g77
g63
NtRp1133
(dp1134
g66
(dp1135
sg75
g1117
sg68
(lp1136
g61
(g82
g63
NtRp1137
(dp1138
g66
(dp1139
sg75
g1133
sg68
(lp1140
g61
(g62
g63
NtRp1141
(dp1142
g66
(dp1143
g74
I3
ssg75
g1137
sg68
(lp1144
S'99'
p1145
asbasbasbag61
(g77
g63
NtRp1146
(dp1147
g66
(dp1148
sg75
g1117
sg68
(lp1149
g61
(g82
g63
NtRp1150
(dp1151
g66
(dp1152
sg75
g1146
sg68
(lp1153
g61
(g62
g63
NtRp1154
(dp1155
g66
(dp1156
g74
I3
ssg75
g1150
sg68
(lp1157
S'7'
asbasbasbag61
(g77
g63
NtRp1158
(dp1159
g66
(dp1160
sg75
g1117
sg68
(lp1161
g61
(g82
g63
NtRp1162
(dp1163
g66
(dp1164
sg75
g1158
sg68
(lp1165
g61
(g62
g63
NtRp1166
(dp1167
g66
(dp1168
g74
I3
ssg75
g1162
sg68
(lp1169
S'datetime.datetime(2012, 3, 4, 22, 12, 8)'
p1170
asbasbasbag61
(g77
g63
NtRp1171
(dp1172
g66
(dp1173
sg75
g1117
sg68
(lp1174
g61
(g82
g63
NtRp1175
(dp1176
g66
(dp1177
sg75
g1171
sg68
(lp1178
g61
(g62
g63
NtRp1179
(dp1180
g66
(dp1181
g74
I3
ssg75
g1175
sg68
(lp1182
S'stable'
p1183
asbasbasbasbasbasbasbag61
(g77
g63
NtRp1184
(dp1185
g66
(dp1186
sg75
g435
sg68
(lp1187
g61
(g82
g63
NtRp1188
(dp1189
g66
(dp1190
g86
g87
ssg75
g1184
sg68
(lp1191
S'wsgi_errors'
p1192
asbag61
(g82
g63
NtRp1193
(dp1194
g66
(dp1195
g93
g94
ssg75
g1184
sg68
(lp1196
S':'
asbag61
(g82
g63
NtRp1197
(dp1198
g66
(dp1199
sg75
g1184
sg68
(lp1200
g61
(g62
g63
NtRp1201
(dp1202
g66
(dp1203
g74
I4
ssg75
g1197
sg68
(lp1204
S"<open file '<stderr>', mode 'w' at 0x004200B0>"
p1205
asbasbasbag61
(g77
g63
NtRp1206
(dp1207
g66
(dp1208
sg75
g435
sg68
(lp1209
g61
(g82
g63
NtRp1210
(dp1211
g66
(dp1212
g86
g87
ssg75
g1206
sg68
(lp1213
S'wsgi_file_wrapper'
p1214
asbag61
(g82
g63
NtRp1215
(dp1216
g66
(dp1217
g93
g94
ssg75
g1206
sg68
(lp1218
S':'
asbag61
(g82
g63
NtRp1219
(dp1220
g66
(dp1221
sg75
g1206
sg68
(lp1222
g61
(g62
g63
NtRp1223
(dp1224
g66
(dp1225
g74
I4
ssg75
g1219
sg68
(lp1226
S'<class wsgiref.util.FileWrapper at 0x02B168D0>'
p1227
asbasbasbag61
(g77
g63
NtRp1228
(dp1229
g66
(dp1230
sg75
g435
sg68
(lp1231
g61
(g82
g63
NtRp1232
(dp1233
g66
(dp1234
g86
g87
ssg75
g1228
sg68
(lp1235
S'wsgi_input'
p1236
asbag61
(g82
g63
NtRp1237
(dp1238
g66
(dp1239
g93
g94
ssg75
g1228
sg68
(lp1240
S':'
asbag61
(g82
g63
NtRp1241
(dp1242
g66
(dp1243
sg75
g1228
sg68
(lp1244
g61
(g62
g63
NtRp1245
(dp1246
g66
(dp1247
g74
I4
ssg75
g1241
sg68
(lp1248
S'<socket._fileobject object at 0x043855F0>'
p1249
asbasbasbag61
(g77
g63
NtRp1250
(dp1251
g66
(dp1252
sg75
g435
sg68
(lp1253
g61
(g82
g63
NtRp1254
(dp1255
g66
(dp1256
g86
g87
ssg75
g1250
sg68
(lp1257
S'wsgi_multiprocess'
p1258
asbag61
(g82
g63
NtRp1259
(dp1260
g66
(dp1261
g93
g94
ssg75
g1250
sg68
(lp1262
S':'
asbag61
(g82
g63
NtRp1263
(dp1264
g66
(dp1265
sg75
g1250
sg68
(lp1266
g61
(g62
g63
NtRp1267
(dp1268
g66
(dp1269
g74
I4
ssg75
g1263
sg68
(lp1270
g104
asbasbasbag61
(g77
g63
NtRp1271
(dp1272
g66
(dp1273
sg75
g435
sg68
(lp1274
g61
(g82
g63
NtRp1275
(dp1276
g66
(dp1277
g86
g87
ssg75
g1271
sg68
(lp1278
S'wsgi_multithread'
p1279
asbag61
(g82
g63
NtRp1280
(dp1281
g66
(dp1282
g93
g94
ssg75
g1271
sg68
(lp1283
S':'
asbag61
(g82
g63
NtRp1284
(dp1285
g66
(dp1286
sg75
g1271
sg68
(lp1287
g61
(g62
g63
NtRp1288
(dp1289
g66
(dp1290
g74
I4
ssg75
g1284
sg68
(lp1291
g573
asbasbasbag61
(g77
g63
NtRp1292
(dp1293
g66
(dp1294
sg75
g435
sg68
(lp1295
g61
(g82
g63
NtRp1296
(dp1297
g66
(dp1298
g86
g87
ssg75
g1292
sg68
(lp1299
S'wsgi_run_once'
p1300
asbag61
(g82
g63
NtRp1301
(dp1302
g66
(dp1303
g93
g94
ssg75
g1292
sg68
(lp1304
S':'
asbag61
(g82
g63
NtRp1305
(dp1306
g66
(dp1307
sg75
g1292
sg68
(lp1308
g61
(g62
g63
NtRp1309
(dp1310
g66
(dp1311
g74
I4
ssg75
g1305
sg68
(lp1312
g104
asbasbasbag61
(g77
g63
NtRp1313
(dp1314
g66
(dp1315
sg75
g435
sg68
(lp1316
g61
(g82
g63
NtRp1317
(dp1318
g66
(dp1319
g86
g87
ssg75
g1313
sg68
(lp1320
S'wsgi_url_scheme'
p1321
asbag61
(g82
g63
NtRp1322
(dp1323
g66
(dp1324
g93
g94
ssg75
g1313
sg68
(lp1325
S':'
asbag61
(g82
g63
NtRp1326
(dp1327
g66
(dp1328
sg75
g1313
sg68
(lp1329
g61
(g62
g63
NtRp1330
(dp1331
g66
(dp1332
g74
I4
ssg75
g1326
sg68
(lp1333
S'http'
p1334
asbasbasbag61
(g77
g63
NtRp1335
(dp1336
g66
(dp1337
sg75
g435
sg68
(lp1338
g61
(g82
g63
NtRp1339
(dp1340
g66
(dp1341
g86
g87
ssg75
g1335
sg68
(lp1342
S'wsgi_version'
p1343
asbag61
(g82
g63
NtRp1344
(dp1345
g66
(dp1346
g93
g94
ssg75
g1335
sg68
(lp1347
S':'
asbag61
(g82
g63
NtRp1348
(dp1349
g66
(dp1350
sg75
g1335
sg68
(lp1351
g61
(g62
g63
NtRp1352
(dp1353
g66
(dp1354
g74
I4
ssg75
g1348
sg68
(lp1355
g61
(g70
g63
NtRp1356
(dp1357
g66
(dp1358
g74
I3
ssg75
Nsg68
(lp1359
g61
(g77
g63
NtRp1360
(dp1361
g66
(dp1362
sg75
g1356
sg68
(lp1363
g61
(g82
g63
NtRp1364
(dp1365
g66
(dp1366
sg75
g1360
sg68
(lp1367
g61
(g62
g63
NtRp1368
(dp1369
g66
(dp1370
g74
I3
ssg75
g1364
sg68
(lp1371
S'1'
asbasbasbag61
(g77
g63
NtRp1372
(dp1373
g66
(dp1374
sg75
g1356
sg68
(lp1375
g61
(g82
g63
NtRp1376
(dp1377
g66
(dp1378
sg75
g1372
sg68
(lp1379
g61
(g62
g63
NtRp1380
(dp1381
g66
(dp1382
g74
I3
ssg75
g1376
sg68
(lp1383
S'0'
asbasbasbasbasbasbasbasbasbasbasbag61
(g77
g63
NtRp1384
(dp1385
g66
(dp1386
sg75
g71
sg68
(lp1387
g61
(g82
g63
NtRp1388
(dp1389
g66
(dp1390
g86
g87
ssg75
g1384
sg68
(lp1391
S'extension'
p1392
asbag61
(g82
g63
NtRp1393
(dp1394
g66
(dp1395
g93
g94
ssg75
g1384
sg68
(lp1396
S':'
asbag61
(g82
g63
NtRp1397
(dp1398
g66
(dp1399
sg75
g1384
sg68
(lp1400
g61
(g62
g63
NtRp1401
(dp1402
g66
(dp1403
g74
I5
ssg75
g1397
sg68
(lp1404
S'html'
p1405
asbasbasbag61
(g77
g63
NtRp1406
(dp1407
g66
(dp1408
sg75
g71
sg68
(lp1409
g61
(g82
g63
NtRp1410
(dp1411
g66
(dp1412
g86
g87
ssg75
g1406
sg68
(lp1413
S'folder'
p1414
asbag61
(g82
g63
NtRp1415
(dp1416
g66
(dp1417
g93
g94
ssg75
g1406
sg68
(lp1418
S':'
asbag61
(g82
g63
NtRp1419
(dp1420
g66
(dp1421
sg75
g1406
sg68
(lp1422
g61
(g62
g63
NtRp1423
(dp1424
g66
(dp1425
g74
I5
ssg75
g1419
sg68
(lp1426
S'C:\\Users\\Bussiere\\Dropbox\\Projets\\Yuki\\web2py\\applications\\init\\'
p1427
asbasbasbag61
(g77
g63
NtRp1428
(dp1429
g66
(dp1430
sg75
g71
sg68
(lp1431
g61
(g82
g63
NtRp1432
(dp1433
g66
(dp1434
g86
g87
ssg75
g1428
sg68
(lp1435
S'function'
p1436
asbag61
(g82
g63
NtRp1437
(dp1438
g66
(dp1439
g93
g94
ssg75
g1428
sg68
(lp1440
S':'
asbag61
(g82
g63
NtRp1441
(dp1442
g66
(dp1443
sg75
g1428
sg68
(lp1444
g61
(g62
g63
NtRp1445
(dp1446
g66
(dp1447
g74
I5
ssg75
g1441
sg68
(lp1448
S'index'
p1449
asbasbasbag61
(g77
g63
NtRp1450
(dp1451
g66
(dp1452
sg75
g71
sg68
(lp1453
g61
(g82
g63
NtRp1454
(dp1455
g66
(dp1456
g86
g87
ssg75
g1450
sg68
(lp1457
S'get_vars'
p1458
asbag61
(g82
g63
NtRp1459
(dp1460
g66
(dp1461
g93
g94
ssg75
g1450
sg68
(lp1462
S':'
asbag61
(g82
g63
NtRp1463
(dp1464
g66
(dp1465
sg75
g1450
sg68
(lp1466
g61
(g62
g63
NtRp1467
(dp1468
g66
(dp1469
g74
I5
ssg75
g1463
sg68
(lp1470
g61
(g70
g63
NtRp1471
(dp1472
g66
(dp1473
g74
I4
ssg75
Nsg68
(lp1474
sbasbasbasbag61
(g77
g63
NtRp1475
(dp1476
g66
(dp1477
sg75
g71
sg68
(lp1478
g61
(g82
g63
NtRp1479
(dp1480
g66
(dp1481
g86
g87
ssg75
g1475
sg68
(lp1482
S'global_settings'
p1483
asbag61
(g82
g63
NtRp1484
(dp1485
g66
(dp1486
g93
g94
ssg75
g1475
sg68
(lp1487
S':'
asbag61
(g82
g63
NtRp1488
(dp1489
g66
(dp1490
sg75
g1475
sg68
(lp1491
g61
(g62
g63
NtRp1492
(dp1493
g66
(dp1494
g74
I5
ssg75
g1488
sg68
(lp1495
g61
(g70
g63
NtRp1496
(dp1497
g66
(dp1498
g74
I4
ssg75
Nsg68
(lp1499
g61
(g77
g63
NtRp1500
(dp1501
g66
(dp1502
sg75
g1496
sg68
(lp1503
g61
(g82
g63
NtRp1504
(dp1505
g66
(dp1506
g86
g87
ssg75
g1500
sg68
(lp1507
g447
asbag61
(g82
g63
NtRp1508
(dp1509
g66
(dp1510
g93
g94
ssg75
g1500
sg68
(lp1511
S':'
asbag61
(g82
g63
NtRp1512
(dp1513
g66
(dp1514
sg75
g1500
sg68
(lp1515
g61
(g62
g63
NtRp1516
(dp1517
g66
(dp1518
g74
I4
ssg75
g1512
sg68
(lp1519
S"set(['C:\\\\Users\\\\Bussiere\\\\Dropbox\\\\Projets\\\\Yuki\\\\web2py\\\\applications\\\\init\\\\'])"
p1520
asbasbasbag61
(g77
g63
NtRp1521
(dp1522
g66
(dp1523
sg75
g1496
sg68
(lp1524
g61
(g82
g63
NtRp1525
(dp1526
g66
(dp1527
g86
g87
ssg75
g1521
sg68
(lp1528
g469
asbag61
(g82
g63
NtRp1529
(dp1530
g66
(dp1531
g93
g94
ssg75
g1521
sg68
(lp1532
S':'
asbag61
(g82
g63
NtRp1533
(dp1534
g66
(dp1535
sg75
g1521
sg68
(lp1536
g61
(g62
g63
NtRp1537
(dp1538
g66
(dp1539
g74
I4
ssg75
g1533
sg68
(lp1540
g482
asbasbasbag61
(g77
g63
NtRp1541
(dp1542
g66
(dp1543
sg75
g1496
sg68
(lp1544
g61
(g82
g63
NtRp1545
(dp1546
g66
(dp1547
g86
g87
ssg75
g1541
sg68
(lp1548
g491
asbag61
(g82
g63
NtRp1549
(dp1550
g66
(dp1551
g93
g94
ssg75
g1541
sg68
(lp1552
S':'
asbag61
(g82
g63
NtRp1553
(dp1554
g66
(dp1555
sg75
g1541
sg68
(lp1556
g61
(g62
g63
NtRp1557
(dp1558
g66
(dp1559
g74
I4
ssg75
g1553
sg68
(lp1560
g61
(g70
g63
NtRp1561
(dp1562
g66
(dp1563
g74
I3
ssg75
Nsg68
(lp1564
sbasbasbasbag61
(g77
g63
NtRp1565
(dp1566
g66
(dp1567
sg75
g1496
sg68
(lp1568
g61
(g82
g63
NtRp1569
(dp1570
g66
(dp1571
g86
g87
ssg75
g1565
sg68
(lp1572
g516
asbag61
(g82
g63
NtRp1573
(dp1574
g66
(dp1575
g93
g94
ssg75
g1565
sg68
(lp1576
S':'
asbag61
(g82
g63
NtRp1577
(dp1578
g66
(dp1579
sg75
g1565
sg68
(lp1580
g61
(g62
g63
NtRp1581
(dp1582
g66
(dp1583
g74
I4
ssg75
g1577
sg68
(lp1584
S"<Values at 0x3c04f58: {'verbose': False, 'ip': '127.0.0.1', 'shutdown_timeout': 5, 'taskbar': False, 'nocron': False, 'pid_filename': 'httpserver.pid', 'maxthreads': None, 'softcron': False, 'server_name': 'Batou', 'bpython': False, 'nogui': False, 'port': 8000, 'extcron': False, 'debuglevel': 30, 'test': None, 'folder': 'C:\\\\Users\\\\Bussiere\\\\Dropbox\\\\Projets\\\\Yuki\\\\web2py', 'config': '', 'import_models': False, 'winservice': '', 'shell': None, 'run': '', 'log_filename': 'httpserver.log', 'args': [''], 'socket_timeout': 5, 'ssl_ca_certificate': None, 'scheduler': None, 'profiler_filename': None, 'ssl_private_key': '', 'password': '<ask>', 'request_queue_size': 5, 'ssl_certificate': '', 'cronjob': False, 'numthreads': None, 'quiet': False, 'interfaces': None, 'minthreads': None, 'timeout': 10, 'plain': False, 'nobanner': False}>"
p1585
asbasbasbag61
(g77
g63
NtRp1586
(dp1587
g66
(dp1588
sg75
g1496
sg68
(lp1589
g61
(g82
g63
NtRp1590
(dp1591
g66
(dp1592
g86
g87
ssg75
g1586
sg68
(lp1593
g538
asbag61
(g82
g63
NtRp1594
(dp1595
g66
(dp1596
g93
g94
ssg75
g1586
sg68
(lp1597
S':'
asbag61
(g82
g63
NtRp1598
(dp1599
g66
(dp1600
sg75
g1586
sg68
(lp1601
g61
(g62
g63
NtRp1602
(dp1603
g66
(dp1604
g74
I4
ssg75
g1598
sg68
(lp1605
S'set([])'
p1606
asbasbasbag61
(g77
g63
NtRp1607
(dp1608
g66
(dp1609
sg75
g1496
sg68
(lp1610
g61
(g82
g63
NtRp1611
(dp1612
g66
(dp1613
g86
g87
ssg75
g1607
sg68
(lp1614
g560
asbag61
(g82
g63
NtRp1615
(dp1616
g66
(dp1617
g93
g94
ssg75
g1607
sg68
(lp1618
S':'
asbag61
(g82
g63
NtRp1619
(dp1620
g66
(dp1621
sg75
g1607
sg68
(lp1622
g61
(g62
g63
NtRp1623
(dp1624
g66
(dp1625
g74
I4
ssg75
g1619
sg68
(lp1626
g573
asbasbasbag61
(g77
g63
NtRp1627
(dp1628
g66
(dp1629
sg75
g1496
sg68
(lp1630
g61
(g82
g63
NtRp1631
(dp1632
g66
(dp1633
g86
g87
ssg75
g1627
sg68
(lp1634
g582
asbag61
(g82
g63
NtRp1635
(dp1636
g66
(dp1637
g93
g94
ssg75
g1627
sg68
(lp1638
S':'
asbag61
(g82
g63
NtRp1639
(dp1640
g66
(dp1641
sg75
g1627
sg68
(lp1642
g61
(g62
g63
NtRp1643
(dp1644
g66
(dp1645
g74
I4
ssg75
g1639
sg68
(lp1646
g595
asbasbasbag61
(g77
g63
NtRp1647
(dp1648
g66
(dp1649
sg75
g1496
sg68
(lp1650
g61
(g82
g63
NtRp1651
(dp1652
g66
(dp1653
g86
g87
ssg75
g1647
sg68
(lp1654
g802
asbag61
(g82
g63
NtRp1655
(dp1656
g66
(dp1657
g93
g94
ssg75
g1647
sg68
(lp1658
S':'
asbag61
(g82
g63
NtRp1659
(dp1660
g66
(dp1661
sg75
g1647
sg68
(lp1662
g61
(g62
g63
NtRp1663
(dp1664
g66
(dp1665
g74
I4
ssg75
g1659
sg68
(lp1666
g104
asbasbasbag61
(g77
g63
NtRp1667
(dp1668
g66
(dp1669
sg75
g1496
sg68
(lp1670
g61
(g82
g63
NtRp1671
(dp1672
g66
(dp1673
g86
g87
ssg75
g1667
sg68
(lp1674
g823
asbag61
(g82
g63
NtRp1675
(dp1676
g66
(dp1677
g93
g94
ssg75
g1667
sg68
(lp1678
S':'
asbag61
(g82
g63
NtRp1679
(dp1680
g66
(dp1681
sg75
g1667
sg68
(lp1682
g61
(g62
g63
NtRp1683
(dp1684
g66
(dp1685
g74
I4
ssg75
g1679
sg68
(lp1686
g104
asbasbasbag61
(g77
g63
NtRp1687
(dp1688
g66
(dp1689
sg75
g1496
sg68
(lp1690
g61
(g82
g63
NtRp1691
(dp1692
g66
(dp1693
g86
g87
ssg75
g1687
sg68
(lp1694
g1061
asbag61
(g82
g63
NtRp1695
(dp1696
g66
(dp1697
g93
g94
ssg75
g1687
sg68
(lp1698
S':'
asbag61
(g82
g63
NtRp1699
(dp1700
g66
(dp1701
sg75
g1687
sg68
(lp1702
g61
(g62
g63
NtRp1703
(dp1704
g66
(dp1705
g74
I4
ssg75
g1699
sg68
(lp1706
g1074
asbasbasbag61
(g77
g63
NtRp1707
(dp1708
g66
(dp1709
sg75
g1496
sg68
(lp1710
g61
(g82
g63
NtRp1711
(dp1712
g66
(dp1713
g86
g87
ssg75
g1707
sg68
(lp1714
g1104
asbag61
(g82
g63
NtRp1715
(dp1716
g66
(dp1717
g93
g94
ssg75
g1707
sg68
(lp1718
S':'
asbag61
(g82
g63
NtRp1719
(dp1720
g66
(dp1721
sg75
g1707
sg68
(lp1722
g61
(g62
g63
NtRp1723
(dp1724
g66
(dp1725
g74
I4
ssg75
g1719
sg68
(lp1726
g61
(g70
g63
NtRp1727
(dp1728
g66
(dp1729
g74
I3
ssg75
Nsg68
(lp1730
g61
(g77
g63
NtRp1731
(dp1732
g66
(dp1733
sg75
g1727
sg68
(lp1734
g61
(g82
g63
NtRp1735
(dp1736
g66
(dp1737
sg75
g1731
sg68
(lp1738
g61
(g62
g63
NtRp1739
(dp1740
g66
(dp1741
g74
I3
ssg75
g1735
sg68
(lp1742
S'1'
asbasbasbag61
(g77
g63
NtRp1743
(dp1744
g66
(dp1745
sg75
g1727
sg68
(lp1746
g61
(g82
g63
NtRp1747
(dp1748
g66
(dp1749
sg75
g1743
sg68
(lp1750
g61
(g62
g63
NtRp1751
(dp1752
g66
(dp1753
g74
I3
ssg75
g1747
sg68
(lp1754
S'99'
p1755
asbasbasbag61
(g77
g63
NtRp1756
(dp1757
g66
(dp1758
sg75
g1727
sg68
(lp1759
g61
(g82
g63
NtRp1760
(dp1761
g66
(dp1762
sg75
g1756
sg68
(lp1763
g61
(g62
g63
NtRp1764
(dp1765
g66
(dp1766
g74
I3
ssg75
g1760
sg68
(lp1767
S'7'
asbasbasbag61
(g77
g63
NtRp1768
(dp1769
g66
(dp1770
sg75
g1727
sg68
(lp1771
g61
(g82
g63
NtRp1772
(dp1773
g66
(dp1774
sg75
g1768
sg68
(lp1775
g61
(g62
g63
NtRp1776
(dp1777
g66
(dp1778
g74
I3
ssg75
g1772
sg68
(lp1779
S'datetime.datetime(2012, 3, 4, 22, 12, 8)'
p1780
asbasbasbag61
(g77
g63
NtRp1781
(dp1782
g66
(dp1783
sg75
g1727
sg68
(lp1784
g61
(g82
g63
NtRp1785
(dp1786
g66
(dp1787
sg75
g1781
sg68
(lp1788
g61
(g62
g63
NtRp1789
(dp1790
g66
(dp1791
g74
I3
ssg75
g1785
sg68
(lp1792
g1183
asbasbasbasbasbasbasbasbasbasbasbag61
(g77
g63
NtRp1793
(dp1794
g66
(dp1795
sg75
g71
sg68
(lp1796
g61
(g82
g63
NtRp1797
(dp1798
g66
(dp1799
g86
g87
ssg75
g1793
sg68
(lp1800
S'is_https'
p1801
asbag61
(g82
g63
NtRp1802
(dp1803
g66
(dp1804
g93
g94
ssg75
g1793
sg68
(lp1805
S':'
asbag61
(g82
g63
NtRp1806
(dp1807
g66
(dp1808
sg75
g1793
sg68
(lp1809
g61
(g62
g63
NtRp1810
(dp1811
g66
(dp1812
g74
I5
ssg75
g1806
sg68
(lp1813
g104
asbasbasbag61
(g77
g63
NtRp1814
(dp1815
g66
(dp1816
sg75
g71
sg68
(lp1817
g61
(g82
g63
NtRp1818
(dp1819
g66
(dp1820
g86
g87
ssg75
g1814
sg68
(lp1821
S'is_local'
p1822
asbag61
(g82
g63
NtRp1823
(dp1824
g66
(dp1825
g93
g94
ssg75
g1814
sg68
(lp1826
S':'
asbag61
(g82
g63
NtRp1827
(dp1828
g66
(dp1829
sg75
g1814
sg68
(lp1830
g61
(g62
g63
NtRp1831
(dp1832
g66
(dp1833
g74
I5
ssg75
g1827
sg68
(lp1834
g573
asbasbasbag61
(g77
g63
NtRp1835
(dp1836
g66
(dp1837
sg75
g71
sg68
(lp1838
g61
(g82
g63
NtRp1839
(dp1840
g66
(dp1841
g86
g87
ssg75
g1835
sg68
(lp1842
S'is_restful'
p1843
asbag61
(g82
g63
NtRp1844
(dp1845
g66
(dp1846
g93
g94
ssg75
g1835
sg68
(lp1847
S':'
asbag61
(g82
g63
NtRp1848
(dp1849
g66
(dp1850
sg75
g1835
sg68
(lp1851
g61
(g62
g63
NtRp1852
(dp1853
g66
(dp1854
g74
I5
ssg75
g1848
sg68
(lp1855
g104
asbasbasbag61
(g77
g63
NtRp1856
(dp1857
g66
(dp1858
sg75
g71
sg68
(lp1859
g61
(g82
g63
NtRp1860
(dp1861
g66
(dp1862
g86
g87
ssg75
g1856
sg68
(lp1863
S'now'
p1864
asbag61
(g82
g63
NtRp1865
(dp1866
g66
(dp1867
g93
g94
ssg75
g1856
sg68
(lp1868
S':'
asbag61
(g82
g63
NtRp1869
(dp1870
g66
(dp1871
sg75
g1856
sg68
(lp1872
g61
(g62
g63
NtRp1873
(dp1874
g66
(dp1875
g74
I5
ssg75
g1869
sg68
(lp1876
S'datetime.datetime(2012, 3, 13, 5, 43, 17, 216000)'
p1877
asbasbasbag61
(g77
g63
NtRp1878
(dp1879
g66
(dp1880
sg75
g71
sg68
(lp1881
g61
(g82
g63
NtRp1882
(dp1883
g66
(dp1884
g86
g87
ssg75
g1878
sg68
(lp1885
S'post_vars'
p1886
asbag61
(g82
g63
NtRp1887
(dp1888
g66
(dp1889
g93
g94
ssg75
g1878
sg68
(lp1890
S':'
asbag61
(g82
g63
NtRp1891
(dp1892
g66
(dp1893
sg75
g1878
sg68
(lp1894
g61
(g62
g63
NtRp1895
(dp1896
g66
(dp1897
g74
I5
ssg75
g1891
sg68
(lp1898
g61
(g70
g63
NtRp1899
(dp1900
g66
(dp1901
g74
I4
ssg75
Nsg68
(lp1902
sbasbasbasbag61
(g77
g63
NtRp1903
(dp1904
g66
(dp1905
sg75
g71
sg68
(lp1906
g61
(g82
g63
NtRp1907
(dp1908
g66
(dp1909
g86
g87
ssg75
g1903
sg68
(lp1910
S'url'
p1911
asbag61
(g82
g63
NtRp1912
(dp1913
g66
(dp1914
g93
g94
ssg75
g1903
sg68
(lp1915
S':'
asbag61
(g82
g63
NtRp1916
(dp1917
g66
(dp1918
sg75
g1903
sg68
(lp1919
g61
(g62
g63
NtRp1920
(dp1921
g66
(dp1922
g74
I5
ssg75
g1916
sg68
(lp1923
S'/init/default/index'
p1924
asbasbasbag61
(g77
g63
NtRp1925
(dp1926
g66
(dp1927
sg75
g71
sg68
(lp1928
g61
(g82
g63
NtRp1929
(dp1930
g66
(dp1931
g86
g87
ssg75
g1925
sg68
(lp1932
S'utcnow'
p1933
asbag61
(g82
g63
NtRp1934
(dp1935
g66
(dp1936
g93
g94
ssg75
g1925
sg68
(lp1937
S':'
asbag61
(g82
g63
NtRp1938
(dp1939
g66
(dp1940
sg75
g1925
sg68
(lp1941
g61
(g62
g63
NtRp1942
(dp1943
g66
(dp1944
g74
I5
ssg75
g1938
sg68
(lp1945
S'datetime.datetime(2012, 3, 13, 4, 43, 17, 216000)'
p1946
asbasbasbag61
(g77
g63
NtRp1947
(dp1948
g66
(dp1949
sg75
g71
sg68
(lp1950
g61
(g82
g63
NtRp1951
(dp1952
g66
(dp1953
g86
g87
ssg75
g1947
sg68
(lp1954
S'uuid'
p1955
asbag61
(g82
g63
NtRp1956
(dp1957
g66
(dp1958
g93
g94
ssg75
g1947
sg68
(lp1959
S':'
asbag61
(g82
g63
NtRp1960
(dp1961
g66
(dp1962
sg75
g1947
sg68
(lp1963
g61
(g62
g63
NtRp1964
(dp1965
g66
(dp1966
g74
I5
ssg75
g1960
sg68
(lp1967
S'init/127.0.0.1.2012-03-13.05-43-17.cbeb4194-5b0c-4143-9dd2-9ae8bf2b92c8'
p1968
asbasbasbag61
(g77
g63
NtRp1969
(dp1970
g66
(dp1971
sg75
g71
sg68
(lp1972
g61
(g82
g63
NtRp1973
(dp1974
g66
(dp1975
g86
g87
ssg75
g1969
sg68
(lp1976
S'vars'
p1977
asbag61
(g82
g63
NtRp1978
(dp1979
g66
(dp1980
g93
g94
ssg75
g1969
sg68
(lp1981
S':'
asbag61
(g82
g63
NtRp1982
(dp1983
g66
(dp1984
sg75
g1969
sg68
(lp1985
g61
(g62
g63
NtRp1986
(dp1987
g66
(dp1988
g74
I5
ssg75
g1982
sg68
(lp1989
g61
(g70
g63
NtRp1990
(dp1991
g66
(dp1992
g74
I4
ssg75
Nsg68
(lp1993
sbasbasbasbag61
(g77
g63
NtRp1994
(dp1995
g66
(dp1996
sg75
g71
sg68
(lp1997
g61
(g82
g63
NtRp1998
(dp1999
g66
(dp2000
g86
g87
ssg75
g1994
sg68
(lp2001
S'wsgi'
p2002
asbag61
(g82
g63
NtRp2003
(dp2004
g66
(dp2005
g93
g94
ssg75
g1994
sg68
(lp2006
S':'
asbag61
(g82
g63
NtRp2007
(dp2008
g66
(dp2009
sg75
g1994
sg68
(lp2010
g61
(g62
g63
NtRp2011
(dp2012
g66
(dp2013
g74
I5
ssg75
g2007
sg68
(lp2014
g61
(g70
g63
NtRp2015
(dp2016
g66
(dp2017
g74
I4
ssg75
Nsg68
(lp2018
g61
(g77
g63
NtRp2019
(dp2020
g66
(dp2021
sg75
g2015
sg68
(lp2022
g61
(g82
g63
NtRp2023
(dp2024
g66
(dp2025
g86
g87
ssg75
g2019
sg68
(lp2026
S'environ'
p2027
asbag61
(g82
g63
NtRp2028
(dp2029
g66
(dp2030
g93
g94
ssg75
g2019
sg68
(lp2031
S':'
asbag61
(g82
g63
NtRp2032
(dp2033
g66
(dp2034
sg75
g2019
sg68
(lp2035
g61
(g62
g63
NtRp2036
(dp2037
g66
(dp2038
g74
I4
ssg75
g2032
sg68
(lp2039
g61
(g70
g63
NtRp2040
(dp2041
g66
(dp2042
g74
I3
ssg75
Nsg68
(lp2043
g61
(g77
g63
NtRp2044
(dp2045
g66
(dp2046
sg75
g2040
sg68
(lp2047
g61
(g82
g63
NtRp2048
(dp2049
g66
(dp2050
g86
g87
ssg75
g2044
sg68
(lp2051
S'HTTP_ACCEPT'
p2052
asbag61
(g82
g63
NtRp2053
(dp2054
g66
(dp2055
g93
g94
ssg75
g2044
sg68
(lp2056
S':'
asbag61
(g82
g63
NtRp2057
(dp2058
g66
(dp2059
sg75
g2044
sg68
(lp2060
g61
(g62
g63
NtRp2061
(dp2062
g66
(dp2063
g74
I3
ssg75
g2057
sg68
(lp2064
g617
asbasbasbag61
(g77
g63
NtRp2065
(dp2066
g66
(dp2067
sg75
g2040
sg68
(lp2068
g61
(g82
g63
NtRp2069
(dp2070
g66
(dp2071
g86
g87
ssg75
g2065
sg68
(lp2072
S'HTTP_ACCEPT_CHARSET'
p2073
asbag61
(g82
g63
NtRp2074
(dp2075
g66
(dp2076
g93
g94
ssg75
g2065
sg68
(lp2077
S':'
asbag61
(g82
g63
NtRp2078
(dp2079
g66
(dp2080
sg75
g2065
sg68
(lp2081
g61
(g62
g63
NtRp2082
(dp2083
g66
(dp2084
g74
I3
ssg75
g2078
sg68
(lp2085
g639
asbasbasbag61
(g77
g63
NtRp2086
(dp2087
g66
(dp2088
sg75
g2040
sg68
(lp2089
g61
(g82
g63
NtRp2090
(dp2091
g66
(dp2092
g86
g87
ssg75
g2086
sg68
(lp2093
S'HTTP_ACCEPT_ENCODING'
p2094
asbag61
(g82
g63
NtRp2095
(dp2096
g66
(dp2097
g93
g94
ssg75
g2086
sg68
(lp2098
S':'
asbag61
(g82
g63
NtRp2099
(dp2100
g66
(dp2101
sg75
g2086
sg68
(lp2102
g61
(g62
g63
NtRp2103
(dp2104
g66
(dp2105
g74
I3
ssg75
g2099
sg68
(lp2106
g661
asbasbasbag61
(g77
g63
NtRp2107
(dp2108
g66
(dp2109
sg75
g2040
sg68
(lp2110
g61
(g82
g63
NtRp2111
(dp2112
g66
(dp2113
g86
g87
ssg75
g2107
sg68
(lp2114
S'HTTP_ACCEPT_LANGUAGE'
p2115
asbag61
(g82
g63
NtRp2116
(dp2117
g66
(dp2118
g93
g94
ssg75
g2107
sg68
(lp2119
S':'
asbag61
(g82
g63
NtRp2120
(dp2121
g66
(dp2122
sg75
g2107
sg68
(lp2123
g61
(g62
g63
NtRp2124
(dp2125
g66
(dp2126
g74
I3
ssg75
g2120
sg68
(lp2127
g683
asbasbasbag61
(g77
g63
NtRp2128
(dp2129
g66
(dp2130
sg75
g2040
sg68
(lp2131
g61
(g82
g63
NtRp2132
(dp2133
g66
(dp2134
g86
g87
ssg75
g2128
sg68
(lp2135
S'HTTP_CACHE_CONTROL'
p2136
asbag61
(g82
g63
NtRp2137
(dp2138
g66
(dp2139
g93
g94
ssg75
g2128
sg68
(lp2140
S':'
asbag61
(g82
g63
NtRp2141
(dp2142
g66
(dp2143
sg75
g2128
sg68
(lp2144
g61
(g62
g63
NtRp2145
(dp2146
g66
(dp2147
g74
I3
ssg75
g2141
sg68
(lp2148
g705
asbasbasbag61
(g77
g63
NtRp2149
(dp2150
g66
(dp2151
sg75
g2040
sg68
(lp2152
g61
(g82
g63
NtRp2153
(dp2154
g66
(dp2155
g86
g87
ssg75
g2149
sg68
(lp2156
S'HTTP_CONNECTION'
p2157
asbag61
(g82
g63
NtRp2158
(dp2159
g66
(dp2160
g93
g94
ssg75
g2149
sg68
(lp2161
S':'
asbag61
(g82
g63
NtRp2162
(dp2163
g66
(dp2164
sg75
g2149
sg68
(lp2165
g61
(g62
g63
NtRp2166
(dp2167
g66
(dp2168
g74
I3
ssg75
g2162
sg68
(lp2169
g727
asbasbasbag61
(g77
g63
NtRp2170
(dp2171
g66
(dp2172
sg75
g2040
sg68
(lp2173
g61
(g82
g63
NtRp2174
(dp2175
g66
(dp2176
g86
g87
ssg75
g2170
sg68
(lp2177
S'HTTP_COOKIE'
p2178
asbag61
(g82
g63
NtRp2179
(dp2180
g66
(dp2181
g93
g94
ssg75
g2170
sg68
(lp2182
S':'
asbag61
(g82
g63
NtRp2183
(dp2184
g66
(dp2185
sg75
g2170
sg68
(lp2186
g61
(g62
g63
NtRp2187
(dp2188
g66
(dp2189
g74
I3
ssg75
g2183
sg68
(lp2190
g749
asbasbasbag61
(g77
g63
NtRp2191
(dp2192
g66
(dp2193
sg75
g2040
sg68
(lp2194
g61
(g82
g63
NtRp2195
(dp2196
g66
(dp2197
g86
g87
ssg75
g2191
sg68
(lp2198
S'HTTP_HOST'
p2199
asbag61
(g82
g63
NtRp2200
(dp2201
g66
(dp2202
g93
g94
ssg75
g2191
sg68
(lp2203
S':'
asbag61
(g82
g63
NtRp2204
(dp2205
g66
(dp2206
sg75
g2191
sg68
(lp2207
g61
(g62
g63
NtRp2208
(dp2209
g66
(dp2210
g74
I3
ssg75
g2204
sg68
(lp2211
g771
asbasbasbag61
(g77
g63
NtRp2212
(dp2213
g66
(dp2214
sg75
g2040
sg68
(lp2215
g61
(g82
g63
NtRp2216
(dp2217
g66
(dp2218
g86
g87
ssg75
g2212
sg68
(lp2219
S'HTTP_USER_AGENT'
p2220
asbag61
(g82
g63
NtRp2221
(dp2222
g66
(dp2223
g93
g94
ssg75
g2212
sg68
(lp2224
S':'
asbag61
(g82
g63
NtRp2225
(dp2226
g66
(dp2227
sg75
g2212
sg68
(lp2228
g61
(g62
g63
NtRp2229
(dp2230
g66
(dp2231
g74
I3
ssg75
g2225
sg68
(lp2232
g793
asbasbasbag61
(g77
g63
NtRp2233
(dp2234
g66
(dp2235
sg75
g2040
sg68
(lp2236
g61
(g82
g63
NtRp2237
(dp2238
g66
(dp2239
g86
g87
ssg75
g2233
sg68
(lp2240
S'PATH_INFO'
p2241
asbag61
(g82
g63
NtRp2242
(dp2243
g66
(dp2244
g93
g94
ssg75
g2233
sg68
(lp2245
S':'
asbag61
(g82
g63
NtRp2246
(dp2247
g66
(dp2248
sg75
g2233
sg68
(lp2249
g61
(g62
g63
NtRp2250
(dp2251
g66
(dp2252
g74
I3
ssg75
g2246
sg68
(lp2253
g857
asbasbasbag61
(g77
g63
NtRp2254
(dp2255
g66
(dp2256
sg75
g2040
sg68
(lp2257
g61
(g82
g63
NtRp2258
(dp2259
g66
(dp2260
g86
g87
ssg75
g2254
sg68
(lp2261
S'QUERY_STRING'
p2262
asbag61
(g82
g63
NtRp2263
(dp2264
g66
(dp2265
g93
g94
ssg75
g2254
sg68
(lp2266
S':'
asbag61
(g82
g63
NtRp2267
(dp2268
g66
(dp2269
sg75
g2254
sg68
(lp2270
g61
(g62
g63
NtRp2271
(dp2272
g66
(dp2273
g74
I3
ssg75
g2267
sg68
(lp2274
S''
asbasbasbag61
(g77
g63
NtRp2275
(dp2276
g66
(dp2277
sg75
g2040
sg68
(lp2278
g61
(g82
g63
NtRp2279
(dp2280
g66
(dp2281
g86
g87
ssg75
g2275
sg68
(lp2282
S'REMOTE_ADDR'
p2283
asbag61
(g82
g63
NtRp2284
(dp2285
g66
(dp2286
g93
g94
ssg75
g2275
sg68
(lp2287
S':'
asbag61
(g82
g63
NtRp2288
(dp2289
g66
(dp2290
sg75
g2275
sg68
(lp2291
g61
(g62
g63
NtRp2292
(dp2293
g66
(dp2294
g74
I3
ssg75
g2288
sg68
(lp2295
g194
asbasbasbag61
(g77
g63
NtRp2296
(dp2297
g66
(dp2298
sg75
g2040
sg68
(lp2299
g61
(g82
g63
NtRp2300
(dp2301
g66
(dp2302
g86
g87
ssg75
g2296
sg68
(lp2303
S'REMOTE_PORT'
p2304
asbag61
(g82
g63
NtRp2305
(dp2306
g66
(dp2307
g93
g94
ssg75
g2296
sg68
(lp2308
S':'
asbag61
(g82
g63
NtRp2309
(dp2310
g66
(dp2311
sg75
g2296
sg68
(lp2312
g61
(g62
g63
NtRp2313
(dp2314
g66
(dp2315
g74
I3
ssg75
g2309
sg68
(lp2316
g921
asbasbasbag61
(g77
g63
NtRp2317
(dp2318
g66
(dp2319
sg75
g2040
sg68
(lp2320
g61
(g82
g63
NtRp2321
(dp2322
g66
(dp2323
g86
g87
ssg75
g2317
sg68
(lp2324
S'REQUEST_METHOD'
p2325
asbag61
(g82
g63
NtRp2326
(dp2327
g66
(dp2328
g93
g94
ssg75
g2317
sg68
(lp2329
S':'
asbag61
(g82
g63
NtRp2330
(dp2331
g66
(dp2332
sg75
g2317
sg68
(lp2333
g61
(g62
g63
NtRp2334
(dp2335
g66
(dp2336
g74
I3
ssg75
g2330
sg68
(lp2337
g943
asbasbasbag61
(g77
g63
NtRp2338
(dp2339
g66
(dp2340
sg75
g2040
sg68
(lp2341
g61
(g82
g63
NtRp2342
(dp2343
g66
(dp2344
g86
g87
ssg75
g2338
sg68
(lp2345
S'SCRIPT_NAME'
p2346
asbag61
(g82
g63
NtRp2347
(dp2348
g66
(dp2349
g93
g94
ssg75
g2338
sg68
(lp2350
S':'
asbag61
(g82
g63
NtRp2351
(dp2352
g66
(dp2353
sg75
g2338
sg68
(lp2354
g61
(g62
g63
NtRp2355
(dp2356
g66
(dp2357
g74
I3
ssg75
g2351
sg68
(lp2358
S''
asbasbasbag61
(g77
g63
NtRp2359
(dp2360
g66
(dp2361
sg75
g2040
sg68
(lp2362
g61
(g82
g63
NtRp2363
(dp2364
g66
(dp2365
g86
g87
ssg75
g2359
sg68
(lp2366
S'SERVER_NAME'
p2367
asbag61
(g82
g63
NtRp2368
(dp2369
g66
(dp2370
g93
g94
ssg75
g2359
sg68
(lp2371
S':'
asbag61
(g82
g63
NtRp2372
(dp2373
g66
(dp2374
sg75
g2359
sg68
(lp2375
g61
(g62
g63
NtRp2376
(dp2377
g66
(dp2378
g74
I3
ssg75
g2372
sg68
(lp2379
g986
asbasbasbag61
(g77
g63
NtRp2380
(dp2381
g66
(dp2382
sg75
g2040
sg68
(lp2383
g61
(g82
g63
NtRp2384
(dp2385
g66
(dp2386
g86
g87
ssg75
g2380
sg68
(lp2387
S'SERVER_PORT'
p2388
asbag61
(g82
g63
NtRp2389
(dp2390
g66
(dp2391
g93
g94
ssg75
g2380
sg68
(lp2392
S':'
asbag61
(g82
g63
NtRp2393
(dp2394
g66
(dp2395
sg75
g2380
sg68
(lp2396
g61
(g62
g63
NtRp2397
(dp2398
g66
(dp2399
g74
I3
ssg75
g2393
sg68
(lp2400
g1008
asbasbasbag61
(g77
g63
NtRp2401
(dp2402
g66
(dp2403
sg75
g2040
sg68
(lp2404
g61
(g82
g63
NtRp2405
(dp2406
g66
(dp2407
g86
g87
ssg75
g2401
sg68
(lp2408
S'SERVER_PROTOCOL'
p2409
asbag61
(g82
g63
NtRp2410
(dp2411
g66
(dp2412
g93
g94
ssg75
g2401
sg68
(lp2413
S':'
asbag61
(g82
g63
NtRp2414
(dp2415
g66
(dp2416
sg75
g2401
sg68
(lp2417
g61
(g62
g63
NtRp2418
(dp2419
g66
(dp2420
g74
I3
ssg75
g2414
sg68
(lp2421
g1030
asbasbasbag61
(g77
g63
NtRp2422
(dp2423
g66
(dp2424
sg75
g2040
sg68
(lp2425
g61
(g82
g63
NtRp2426
(dp2427
g66
(dp2428
g86
g87
ssg75
g2422
sg68
(lp2429
S'SERVER_SOFTWARE'
p2430
asbag61
(g82
g63
NtRp2431
(dp2432
g66
(dp2433
g93
g94
ssg75
g2422
sg68
(lp2434
S':'
asbag61
(g82
g63
NtRp2435
(dp2436
g66
(dp2437
sg75
g2422
sg68
(lp2438
g61
(g62
g63
NtRp2439
(dp2440
g66
(dp2441
g74
I3
ssg75
g2435
sg68
(lp2442
g1052
asbasbasbag61
(g77
g63
NtRp2443
(dp2444
g66
(dp2445
sg75
g2040
sg68
(lp2446
g61
(g82
g63
NtRp2447
(dp2448
g66
(dp2449
g86
g87
ssg75
g2443
sg68
(lp2450
S'wsgi.errors'
p2451
asbag61
(g82
g63
NtRp2452
(dp2453
g66
(dp2454
g93
g94
ssg75
g2443
sg68
(lp2455
S':'
asbag61
(g82
g63
NtRp2456
(dp2457
g66
(dp2458
sg75
g2443
sg68
(lp2459
g61
(g62
g63
NtRp2460
(dp2461
g66
(dp2462
g74
I3
ssg75
g2456
sg68
(lp2463
S"<open file '<stderr>', mode 'w' at 0x004200B0>"
p2464
asbasbasbag61
(g77
g63
NtRp2465
(dp2466
g66
(dp2467
sg75
g2040
sg68
(lp2468
g61
(g82
g63
NtRp2469
(dp2470
g66
(dp2471
g86
g87
ssg75
g2465
sg68
(lp2472
S'wsgi.file_wrapper'
p2473
asbag61
(g82
g63
NtRp2474
(dp2475
g66
(dp2476
g93
g94
ssg75
g2465
sg68
(lp2477
S':'
asbag61
(g82
g63
NtRp2478
(dp2479
g66
(dp2480
sg75
g2465
sg68
(lp2481
g61
(g62
g63
NtRp2482
(dp2483
g66
(dp2484
g74
I3
ssg75
g2478
sg68
(lp2485
S'<class wsgiref.util.FileWrapper at 0x02B168D0>'
p2486
asbasbasbag61
(g77
g63
NtRp2487
(dp2488
g66
(dp2489
sg75
g2040
sg68
(lp2490
g61
(g82
g63
NtRp2491
(dp2492
g66
(dp2493
g86
g87
ssg75
g2487
sg68
(lp2494
S'wsgi.input'
p2495
asbag61
(g82
g63
NtRp2496
(dp2497
g66
(dp2498
g93
g94
ssg75
g2487
sg68
(lp2499
S':'
asbag61
(g82
g63
NtRp2500
(dp2501
g66
(dp2502
sg75
g2487
sg68
(lp2503
g61
(g62
g63
NtRp2504
(dp2505
g66
(dp2506
g74
I3
ssg75
g2500
sg68
(lp2507
S'<cStringIO.StringO object at 0x045D15E0>'
p2508
asbasbasbag61
(g77
g63
NtRp2509
(dp2510
g66
(dp2511
sg75
g2040
sg68
(lp2512
g61
(g82
g63
NtRp2513
(dp2514
g66
(dp2515
g86
g87
ssg75
g2509
sg68
(lp2516
S'wsgi.multiprocess'
p2517
asbag61
(g82
g63
NtRp2518
(dp2519
g66
(dp2520
g93
g94
ssg75
g2509
sg68
(lp2521
S':'
asbag61
(g82
g63
NtRp2522
(dp2523
g66
(dp2524
sg75
g2509
sg68
(lp2525
g61
(g62
g63
NtRp2526
(dp2527
g66
(dp2528
g74
I3
ssg75
g2522
sg68
(lp2529
g104
asbasbasbag61
(g77
g63
NtRp2530
(dp2531
g66
(dp2532
sg75
g2040
sg68
(lp2533
g61
(g82
g63
NtRp2534
(dp2535
g66
(dp2536
g86
g87
ssg75
g2530
sg68
(lp2537
S'wsgi.multithread'
p2538
asbag61
(g82
g63
NtRp2539
(dp2540
g66
(dp2541
g93
g94
ssg75
g2530
sg68
(lp2542
S':'
asbag61
(g82
g63
NtRp2543
(dp2544
g66
(dp2545
sg75
g2530
sg68
(lp2546
g61
(g62
g63
NtRp2547
(dp2548
g66
(dp2549
g74
I3
ssg75
g2543
sg68
(lp2550
g573
asbasbasbag61
(g77
g63
NtRp2551
(dp2552
g66
(dp2553
sg75
g2040
sg68
(lp2554
g61
(g82
g63
NtRp2555
(dp2556
g66
(dp2557
g86
g87
ssg75
g2551
sg68
(lp2558
S'wsgi.run_once'
p2559
asbag61
(g82
g63
NtRp2560
(dp2561
g66
(dp2562
g93
g94
ssg75
g2551
sg68
(lp2563
S':'
asbag61
(g82
g63
NtRp2564
(dp2565
g66
(dp2566
sg75
g2551
sg68
(lp2567
g61
(g62
g63
NtRp2568
(dp2569
g66
(dp2570
g74
I3
ssg75
g2564
sg68
(lp2571
g104
asbasbasbag61
(g77
g63
NtRp2572
(dp2573
g66
(dp2574
sg75
g2040
sg68
(lp2575
g61
(g82
g63
NtRp2576
(dp2577
g66
(dp2578
g86
g87
ssg75
g2572
sg68
(lp2579
S'wsgi.url_scheme'
p2580
asbag61
(g82
g63
NtRp2581
(dp2582
g66
(dp2583
g93
g94
ssg75
g2572
sg68
(lp2584
S':'
asbag61
(g82
g63
NtRp2585
(dp2586
g66
(dp2587
sg75
g2572
sg68
(lp2588
g61
(g62
g63
NtRp2589
(dp2590
g66
(dp2591
g74
I3
ssg75
g2585
sg68
(lp2592
g1334
asbasbasbag61
(g77
g63
NtRp2593
(dp2594
g66
(dp2595
sg75
g2040
sg68
(lp2596
g61
(g82
g63
NtRp2597
(dp2598
g66
(dp2599
g86
g87
ssg75
g2593
sg68
(lp2600
S'wsgi.version'
p2601
asbag61
(g82
g63
NtRp2602
(dp2603
g66
(dp2604
g93
g94
ssg75
g2593
sg68
(lp2605
S':'
asbag61
(g82
g63
NtRp2606
(dp2607
g66
(dp2608
sg75
g2593
sg68
(lp2609
g61
(g62
g63
NtRp2610
(dp2611
g66
(dp2612
g74
I3
ssg75
g2606
sg68
(lp2613
S'1'
asbasbasbasbasbasbasbasbasbasbasbasbasbsS'frames'
p2614
(lp2615
(dp2616
S'file'
p2617
S'C:\\Users\\Bussiere\\Dropbox\\Projets\\Yuki\\web2py\\gluon\\restricted.py'
p2618
sS'dump'
p2619
(dp2620
sS'lnum'
p2621
I205
sS'lines'
p2622
(dp2623
I200
S'    try:'
p2624
sI201
S'        if type(code) == types.CodeType:'
p2625
sI202
S'            ccode = code'
p2626
sI203
S'        else:'
p2627
sI204
S'            ccode = compile2(code,layer)'
p2628
sI205
S'        exec ccode in environment'
p2629
sI206
S'    except HTTP:'
p2630
sI207
S'        raise'
p2631
sI208
S'    except RestrictedError:'
p2632
sI209
S'        # do not encapsulate (obfuscate) the original RestrictedError'
p2633
ssS'call'
p2634
S"(code='# -*- coding: utf-8 -*-\\n\\n#######################...#####################################\\n\\n#########\\n', environment={'A': <class 'gluon.html.A'>, 'Auth': <class 'gluon.tools.Auth'>, 'B': <class 'gluon.html.B'>, 'BEAUTIFY': <class 'gluon.html.BEAUTIFY'>, 'BODY': <class 'gluon.html.BODY'>, 'BR': <class 'gluon.html.BR'>, 'BUTTON': <class 'gluon.html.BUTTON'>, 'CAT': <class 'gluon.html.CAT'>, 'CENTER': <class 'gluon.html.CENTER'>, 'CLEANUP': <class 'gluon.validators.CLEANUP'>, ...}, layer=r'C:\\Users\\Bussiere\\Dropbox\\Projets\\Yuki\\web2py\\applications\\init\\models\\db.py')"
p2635
sS'func'
p2636
S'restricted'
p2637
sa(dp2638
g2617
S'C:\\Users\\Bussiere\\Dropbox\\Projets\\Yuki\\web2py\\applications\\init\\models\\db.py'
p2639
sg2619
(dp2640
sg2621
I55
sg2622
(dp2641
I50
S"db.define_table('Barcodebase',"
p2642
sI51
S"   Field('Barcode', unique=True),"
p2643
sI52
S"   Field('auth_user',db.auth_user),"
p2644
sI53
S"   Field('Comment'),"
p2645
sI54
S"   Field('Hk','bolean'),"
p2646
sI55
S"   format = '%(Barcodee)s')"
p2647
sI56
S''
sI57
S"db.define_table('Barcode',"
p2648
sI58
S"   Field('Barcode', unique=True),"
p2649
sI59
S"   Field('auth_user','list:reference auth_user'),"
p2650
ssg2634
S'()'
p2651
sg2636
S'<module>'
p2652
sa(dp2653
g2617
S'C:\\Users\\Bussiere\\Dropbox\\Projets\\Yuki\\web2py\\gluon\\dal.py'
p2654
sg2619
(dp2655
sg2621
I6320
sg2622
(dp2656
I6315
S"        if migrate or self._adapter.dbengine=='google:datastore':"
p2657
sI6316
S'            try:'
p2658
sI6317
S'                sql_locker.acquire()'
p2659
sI6318
S'                self._adapter.create_table(t,migrate=migrate,'
p2660
sI6319
S'                                           fake_migrate=fake_migrate,'
p2661
sI6320
S'                                           polymodel=polymodel)'
p2662
sI6321
S'            finally:'
p2663
sI6322
S'                sql_locker.release()'
p2664
sI6323
S'        else:'
p2665
sI6324
S'            t._dbt = None'
p2666
ssg2634
S"(self=<DAL {'auth_event': <Table {'origin': <gluon.dal..._key': <gluon.dal.Field object at 0x0474E510>}>}>, tablename='Barcodebase', *fields=(<gluon.dal.Field object at 0x0474E3D0>, <gluon.dal.Field object at 0x045D19D0>, <gluon.dal.Field object at 0x045D1970>, <gluon.dal.Field object at 0x045D1C50>), **args={'format': '%(Barcodee)s'})"
p2667
sg2636
S'define_table'
p2668
sa(dp2669
g2617
S'C:\\Users\\Bussiere\\Dropbox\\Projets\\Yuki\\web2py\\gluon\\dal.py'
p2670
sg2619
(dp2671
sg2621
I638
sg2622
(dp2672
I640
S'                ftype = self.types[field.type]\\'
p2673
sI641
S'                     % dict(length=field.length)'
p2674
sI642
S"            if not field.type.startswith('id') and not field.type.startswith('reference'):"
p2675
sI633
S"                precision, scale = map(int,field.type[8:-1].split(','))"
p2676
sI634
S'                ftype = self.types[field.type[:7]] % \\'
p2677
sI635
S'                    dict(precision=precision,scale=scale)'
p2678
sI636
S'            elif not field.type in self.types:'
p2679
sI637
S"                raise SyntaxError, 'Field: unknown field type: %s for %s' % \\"
p2680
sI638
S'                    (field.type, field.name)'
p2681
sI639
S'            else:'
p2682
ssg2634
S"(self=<gluon.dal.SQLiteAdapter object at 0x0474E0B0>, table=<Table {'Comment': <gluon.dal.Field object at 0x...>, 'id': <gluon.dal.Field object at 0x045D1B10>}>, migrate=True, fake_migrate=False, polymodel=None)"
p2683
sg2636
S'create_table'
p2684
sasS'pyver'
p2685
S'Python 2.5.4: C:\\Users\\Bussiere\\Dropbox\\Projets\\Yuki\\web2py\\web2py.exe'
p2686
sS'session'
p2687
g61
(g62
g63
NtRp2688
(dp2689
g66
(dp2690
sg68
(lp2691
g61
(g70
g63
NtRp2692
(dp2693
g66
(dp2694
g74
I5
ssg75
Nsg68
(lp2695
sbasbsS'etype'
p2696
S"<type 'exceptions.SyntaxError'>"
p2697
sS'date'
p2698
S'Tue Mar 13 05:43:17 2012'
p2699
sS'response'
p2700
g61
(g62
g63
NtRp2701
(dp2702
g66
(dp2703
sg68
(lp2704
g61
(g70
g63
NtRp2705
(dp2706
g66
(dp2707
g74
I5
ssg75
Nsg68
(lp2708
g61
(g77
g63
NtRp2709
(dp2710
g66
(dp2711
sg75
g2705
sg68
(lp2712
g61
(g82
g63
NtRp2713
(dp2714
g66
(dp2715
g86
g87
ssg75
g2709
sg68
(lp2716
g159
asbag61
(g82
g63
NtRp2717
(dp2718
g66
(dp2719
g93
g94
ssg75
g2709
sg68
(lp2720
S':'
asbag61
(g82
g63
NtRp2721
(dp2722
g66
(dp2723
sg75
g2709
sg68
(lp2724
g61
(g62
g63
NtRp2725
(dp2726
g66
(dp2727
g74
I5
ssg75
g2721
sg68
(lp2728
S'<cStringIO.StringO object at 0x045D1520>'
p2729
asbasbasbag61
(g77
g63
NtRp2730
(dp2731
g66
(dp2732
sg75
g2705
sg68
(lp2733
g61
(g82
g63
NtRp2734
(dp2735
g66
(dp2736
g86
g87
ssg75
g2730
sg68
(lp2737
g225
asbag61
(g82
g63
NtRp2738
(dp2739
g66
(dp2740
g93
g94
ssg75
g2730
sg68
(lp2741
S':'
asbag61
(g82
g63
NtRp2742
(dp2743
g66
(dp2744
sg75
g2730
sg68
(lp2745
g61
(g62
g63
NtRp2746
(dp2747
g66
(dp2748
g74
I5
ssg75
g2742
sg68
(lp2749
g61
(g70
g63
NtRp2750
(dp2751
g66
(dp2752
g74
I4
ssg75
Nsg68
(lp2753
g61
(g77
g63
NtRp2754
(dp2755
g66
(dp2756
sg75
g2750
sg68
(lp2757
g61
(g82
g63
NtRp2758
(dp2759
g66
(dp2760
g86
g87
ssg75
g2754
sg68
(lp2761
S'session_id_init'
p2762
asbag61
(g82
g63
NtRp2763
(dp2764
g66
(dp2765
g93
g94
ssg75
g2754
sg68
(lp2766
S':'
asbag61
(g82
g63
NtRp2767
(dp2768
g66
(dp2769
sg75
g2754
sg68
(lp2770
g61
(g62
g63
NtRp2771
(dp2772
g66
(dp2773
g74
I4
ssg75
g2767
sg68
(lp2774
g61
(g70
g63
NtRp2775
(dp2776
g66
(dp2777
g74
I3
ssg75
Nsg68
(lp2778
g61
(g77
g63
NtRp2779
(dp2780
g66
(dp2781
sg75
g2775
sg68
(lp2782
g61
(g82
g63
NtRp2783
(dp2784
g66
(dp2785
g86
g87
ssg75
g2779
sg68
(lp2786
g275
asbag61
(g82
g63
NtRp2787
(dp2788
g66
(dp2789
g93
g94
ssg75
g2779
sg68
(lp2790
S':'
asbag61
(g82
g63
NtRp2791
(dp2792
g66
(dp2793
sg75
g2779
sg68
(lp2794
g61
(g62
g63
NtRp2795
(dp2796
g66
(dp2797
g74
I3
ssg75
g2791
sg68
(lp2798
S''
asbasbasbag61
(g77
g63
NtRp2799
(dp2800
g66
(dp2801
sg75
g2775
sg68
(lp2802
g61
(g82
g63
NtRp2803
(dp2804
g66
(dp2805
g86
g87
ssg75
g2799
sg68
(lp2806
g296
asbag61
(g82
g63
NtRp2807
(dp2808
g66
(dp2809
g93
g94
ssg75
g2799
sg68
(lp2810
S':'
asbag61
(g82
g63
NtRp2811
(dp2812
g66
(dp2813
sg75
g2799
sg68
(lp2814
g61
(g62
g63
NtRp2815
(dp2816
g66
(dp2817
g74
I3
ssg75
g2811
sg68
(lp2818
S''
asbasbasbag61
(g77
g63
NtRp2819
(dp2820
g66
(dp2821
sg75
g2775
sg68
(lp2822
g61
(g82
g63
NtRp2823
(dp2824
g66
(dp2825
g86
g87
ssg75
g2819
sg68
(lp2826
g317
asbag61
(g82
g63
NtRp2827
(dp2828
g66
(dp2829
g93
g94
ssg75
g2819
sg68
(lp2830
S':'
asbag61
(g82
g63
NtRp2831
(dp2832
g66
(dp2833
sg75
g2819
sg68
(lp2834
g61
(g62
g63
NtRp2835
(dp2836
g66
(dp2837
g74
I3
ssg75
g2831
sg68
(lp2838
S''
asbasbasbag61
(g77
g63
NtRp2839
(dp2840
g66
(dp2841
sg75
g2775
sg68
(lp2842
g61
(g82
g63
NtRp2843
(dp2844
g66
(dp2845
g86
g87
ssg75
g2839
sg68
(lp2846
g338
asbag61
(g82
g63
NtRp2847
(dp2848
g66
(dp2849
g93
g94
ssg75
g2839
sg68
(lp2850
S':'
asbag61
(g82
g63
NtRp2851
(dp2852
g66
(dp2853
sg75
g2839
sg68
(lp2854
g61
(g62
g63
NtRp2855
(dp2856
g66
(dp2857
g74
I3
ssg75
g2851
sg68
(lp2858
S''
asbasbasbag61
(g77
g63
NtRp2859
(dp2860
g66
(dp2861
sg75
g2775
sg68
(lp2862
g61
(g82
g63
NtRp2863
(dp2864
g66
(dp2865
g86
g87
ssg75
g2859
sg68
(lp2866
g359
asbag61
(g82
g63
NtRp2867
(dp2868
g66
(dp2869
g93
g94
ssg75
g2859
sg68
(lp2870
S':'
asbag61
(g82
g63
NtRp2871
(dp2872
g66
(dp2873
sg75
g2859
sg68
(lp2874
g61
(g62
g63
NtRp2875
(dp2876
g66
(dp2877
g74
I3
ssg75
g2871
sg68
(lp2878
S'/'
asbasbasbag61
(g77
g63
NtRp2879
(dp2880
g66
(dp2881
sg75
g2775
sg68
(lp2882
g61
(g82
g63
NtRp2883
(dp2884
g66
(dp2885
g86
g87
ssg75
g2879
sg68
(lp2886
g380
asbag61
(g82
g63
NtRp2887
(dp2888
g66
(dp2889
g93
g94
ssg75
g2879
sg68
(lp2890
S':'
asbag61
(g82
g63
NtRp2891
(dp2892
g66
(dp2893
sg75
g2879
sg68
(lp2894
g61
(g62
g63
NtRp2895
(dp2896
g66
(dp2897
g74
I3
ssg75
g2891
sg68
(lp2898
S''
asbasbasbag61
(g77
g63
NtRp2899
(dp2900
g66
(dp2901
sg75
g2775
sg68
(lp2902
g61
(g82
g63
NtRp2903
(dp2904
g66
(dp2905
g86
g87
ssg75
g2899
sg68
(lp2906
g401
asbag61
(g82
g63
NtRp2907
(dp2908
g66
(dp2909
g93
g94
ssg75
g2899
sg68
(lp2910
S':'
asbag61
(g82
g63
NtRp2911
(dp2912
g66
(dp2913
sg75
g2899
sg68
(lp2914
g61
(g62
g63
NtRp2915
(dp2916
g66
(dp2917
g74
I3
ssg75
g2911
sg68
(lp2918
S''
asbasbasbasbasbasbasbasbasbasbasbag61
(g77
g63
NtRp2919
(dp2920
g66
(dp2921
sg75
g2705
sg68
(lp2922
g61
(g82
g63
NtRp2923
(dp2924
g66
(dp2925
g86
g87
ssg75
g2919
sg68
(lp2926
S'delimiters'
p2927
asbag61
(g82
g63
NtRp2928
(dp2929
g66
(dp2930
g93
g94
ssg75
g2919
sg68
(lp2931
S':'
asbag61
(g82
g63
NtRp2932
(dp2933
g66
(dp2934
sg75
g2919
sg68
(lp2935
g61
(g62
g63
NtRp2936
(dp2937
g66
(dp2938
g74
I5
ssg75
g2932
sg68
(lp2939
g61
(g70
g63
NtRp2940
(dp2941
g66
(dp2942
g74
I4
ssg75
Nsg68
(lp2943
g61
(g77
g63
NtRp2944
(dp2945
g66
(dp2946
sg75
g2940
sg68
(lp2947
g61
(g82
g63
NtRp2948
(dp2949
g66
(dp2950
sg75
g2944
sg68
(lp2951
g61
(g62
g63
NtRp2952
(dp2953
g66
(dp2954
g74
I4
ssg75
g2948
sg68
(lp2955
S'{{'
p2956
asbasbasbag61
(g77
g63
NtRp2957
(dp2958
g66
(dp2959
sg75
g2940
sg68
(lp2960
g61
(g82
g63
NtRp2961
(dp2962
g66
(dp2963
sg75
g2957
sg68
(lp2964
g61
(g62
g63
NtRp2965
(dp2966
g66
(dp2967
g74
I4
ssg75
g2961
sg68
(lp2968
S'}}'
p2969
asbasbasbasbasbasbasbag61
(g77
g63
NtRp2970
(dp2971
g66
(dp2972
sg75
g2705
sg68
(lp2973
g61
(g82
g63
NtRp2974
(dp2975
g66
(dp2976
g86
g87
ssg75
g2970
sg68
(lp2977
S'files'
p2978
asbag61
(g82
g63
NtRp2979
(dp2980
g66
(dp2981
g93
g94
ssg75
g2970
sg68
(lp2982
S':'
asbag61
(g82
g63
NtRp2983
(dp2984
g66
(dp2985
sg75
g2970
sg68
(lp2986
g61
(g62
g63
NtRp2987
(dp2988
g66
(dp2989
g74
I5
ssg75
g2983
sg68
(lp2990
g61
(g70
g63
NtRp2991
(dp2992
g66
(dp2993
g74
I4
ssg75
Nsg68
(lp2994
sbasbasbasbag61
(g77
g63
NtRp2995
(dp2996
g66
(dp2997
sg75
g2705
sg68
(lp2998
g61
(g82
g63
NtRp2999
(dp3000
g66
(dp3001
g86
g87
ssg75
g2995
sg68
(lp3002
S'flash'
p3003
asbag61
(g82
g63
NtRp3004
(dp3005
g66
(dp3006
g93
g94
ssg75
g2995
sg68
(lp3007
S':'
asbag61
(g82
g63
NtRp3008
(dp3009
g66
(dp3010
sg75
g2995
sg68
(lp3011
g61
(g62
g63
NtRp3012
(dp3013
g66
(dp3014
g74
I5
ssg75
g3008
sg68
(lp3015
S''
asbasbasbag61
(g77
g63
NtRp3016
(dp3017
g66
(dp3018
sg75
g2705
sg68
(lp3019
g61
(g82
g63
NtRp3020
(dp3021
g66
(dp3022
g86
g87
ssg75
g3016
sg68
(lp3023
S'generic_patterns'
p3024
asbag61
(g82
g63
NtRp3025
(dp3026
g66
(dp3027
g93
g94
ssg75
g3016
sg68
(lp3028
S':'
asbag61
(g82
g63
NtRp3029
(dp3030
g66
(dp3031
sg75
g3016
sg68
(lp3032
g61
(g62
g63
NtRp3033
(dp3034
g66
(dp3035
g74
I5
ssg75
g3029
sg68
(lp3036
g61
(g70
g63
NtRp3037
(dp3038
g66
(dp3039
g74
I4
ssg75
Nsg68
(lp3040
g61
(g77
g63
NtRp3041
(dp3042
g66
(dp3043
sg75
g3037
sg68
(lp3044
g61
(g82
g63
NtRp3045
(dp3046
g66
(dp3047
sg75
g3041
sg68
(lp3048
g61
(g62
g63
NtRp3049
(dp3050
g66
(dp3051
g74
I4
ssg75
g3045
sg68
(lp3052
S'*'
asbasbasbasbasbasbasbag61
(g77
g63
NtRp3053
(dp3054
g66
(dp3055
sg75
g2705
sg68
(lp3056
g61
(g82
g63
NtRp3057
(dp3058
g66
(dp3059
g86
g87
ssg75
g3053
sg68
(lp3060
S'headers'
p3061
asbag61
(g82
g63
NtRp3062
(dp3063
g66
(dp3064
g93
g94
ssg75
g3053
sg68
(lp3065
S':'
asbag61
(g82
g63
NtRp3066
(dp3067
g66
(dp3068
sg75
g3053
sg68
(lp3069
g61
(g62
g63
NtRp3070
(dp3071
g66
(dp3072
g74
I5
ssg75
g3066
sg68
(lp3073
g61
(g70
g63
NtRp3074
(dp3075
g66
(dp3076
g74
I4
ssg75
Nsg68
(lp3077
g61
(g77
g63
NtRp3078
(dp3079
g66
(dp3080
sg75
g3074
sg68
(lp3081
g61
(g82
g63
NtRp3082
(dp3083
g66
(dp3084
g86
g87
ssg75
g3078
sg68
(lp3085
S'Cache-Control'
p3086
asbag61
(g82
g63
NtRp3087
(dp3088
g66
(dp3089
g93
g94
ssg75
g3078
sg68
(lp3090
S':'
asbag61
(g82
g63
NtRp3091
(dp3092
g66
(dp3093
sg75
g3078
sg68
(lp3094
g61
(g62
g63
NtRp3095
(dp3096
g66
(dp3097
g74
I4
ssg75
g3091
sg68
(lp3098
S'no-store, no-cache, must-revalidate, post-check=0, pre-check=0'
p3099
asbasbasbag61
(g77
g63
NtRp3100
(dp3101
g66
(dp3102
sg75
g3074
sg68
(lp3103
g61
(g82
g63
NtRp3104
(dp3105
g66
(dp3106
g86
g87
ssg75
g3100
sg68
(lp3107
S'Content-Type'
p3108
asbag61
(g82
g63
NtRp3109
(dp3110
g66
(dp3111
g93
g94
ssg75
g3100
sg68
(lp3112
S':'
asbag61
(g82
g63
NtRp3113
(dp3114
g66
(dp3115
sg75
g3100
sg68
(lp3116
g61
(g62
g63
NtRp3117
(dp3118
g66
(dp3119
g74
I4
ssg75
g3113
sg68
(lp3120
S'text/html; charset=utf-8'
p3121
asbasbasbag61
(g77
g63
NtRp3122
(dp3123
g66
(dp3124
sg75
g3074
sg68
(lp3125
g61
(g82
g63
NtRp3126
(dp3127
g66
(dp3128
g86
g87
ssg75
g3122
sg68
(lp3129
S'Expires'
p3130
asbag61
(g82
g63
NtRp3131
(dp3132
g66
(dp3133
g93
g94
ssg75
g3122
sg68
(lp3134
S':'
asbag61
(g82
g63
NtRp3135
(dp3136
g66
(dp3137
sg75
g3122
sg68
(lp3138
g61
(g62
g63
NtRp3139
(dp3140
g66
(dp3141
g74
I4
ssg75
g3135
sg68
(lp3142
S'Tue, 13 Mar 2012 04:43:17 GMT'
p3143
asbasbasbag61
(g77
g63
NtRp3144
(dp3145
g66
(dp3146
sg75
g3074
sg68
(lp3147
g61
(g82
g63
NtRp3148
(dp3149
g66
(dp3150
g86
g87
ssg75
g3144
sg68
(lp3151
S'Pragma'
p3152
asbag61
(g82
g63
NtRp3153
(dp3154
g66
(dp3155
g93
g94
ssg75
g3144
sg68
(lp3156
S':'
asbag61
(g82
g63
NtRp3157
(dp3158
g66
(dp3159
sg75
g3144
sg68
(lp3160
g61
(g62
g63
NtRp3161
(dp3162
g66
(dp3163
g74
I4
ssg75
g3157
sg68
(lp3164
S'no-cache'
p3165
asbasbasbag61
(g77
g63
NtRp3166
(dp3167
g66
(dp3168
sg75
g3074
sg68
(lp3169
g61
(g82
g63
NtRp3170
(dp3171
g66
(dp3172
g86
g87
ssg75
g3166
sg68
(lp3173
S'X-Powered-By'
p3174
asbag61
(g82
g63
NtRp3175
(dp3176
g66
(dp3177
g93
g94
ssg75
g3166
sg68
(lp3178
S':'
asbag61
(g82
g63
NtRp3179
(dp3180
g66
(dp3181
sg75
g3166
sg68
(lp3182
g61
(g62
g63
NtRp3183
(dp3184
g66
(dp3185
g74
I4
ssg75
g3179
sg68
(lp3186
S'web2py'
p3187
asbasbasbasbasbasbasbag61
(g77
g63
NtRp3188
(dp3189
g66
(dp3190
sg75
g2705
sg68
(lp3191
g61
(g82
g63
NtRp3192
(dp3193
g66
(dp3194
g86
g87
ssg75
g3188
sg68
(lp3195
S'menu'
p3196
asbag61
(g82
g63
NtRp3197
(dp3198
g66
(dp3199
g93
g94
ssg75
g3188
sg68
(lp3200
S':'
asbag61
(g82
g63
NtRp3201
(dp3202
g66
(dp3203
sg75
g3188
sg68
(lp3204
g61
(g62
g63
NtRp3205
(dp3206
g66
(dp3207
g74
I5
ssg75
g3201
sg68
(lp3208
g61
(g70
g63
NtRp3209
(dp3210
g66
(dp3211
g74
I4
ssg75
Nsg68
(lp3212
sbasbasbasbag61
(g77
g63
NtRp3213
(dp3214
g66
(dp3215
sg75
g2705
sg68
(lp3216
g61
(g82
g63
NtRp3217
(dp3218
g66
(dp3219
g86
g87
ssg75
g3213
sg68
(lp3220
S'meta'
p3221
asbag61
(g82
g63
NtRp3222
(dp3223
g66
(dp3224
g93
g94
ssg75
g3213
sg68
(lp3225
S':'
asbag61
(g82
g63
NtRp3226
(dp3227
g66
(dp3228
sg75
g3213
sg68
(lp3229
g61
(g62
g63
NtRp3230
(dp3231
g66
(dp3232
g74
I5
ssg75
g3226
sg68
(lp3233
g61
(g70
g63
NtRp3234
(dp3235
g66
(dp3236
g74
I4
ssg75
Nsg68
(lp3237
sbasbasbasbag61
(g77
g63
NtRp3238
(dp3239
g66
(dp3240
sg75
g2705
sg68
(lp3241
g61
(g82
g63
NtRp3242
(dp3243
g66
(dp3244
g86
g87
ssg75
g3238
sg68
(lp3245
S'postprocessing'
p3246
asbag61
(g82
g63
NtRp3247
(dp3248
g66
(dp3249
g93
g94
ssg75
g3238
sg68
(lp3250
S':'
asbag61
(g82
g63
NtRp3251
(dp3252
g66
(dp3253
sg75
g3238
sg68
(lp3254
g61
(g62
g63
NtRp3255
(dp3256
g66
(dp3257
g74
I5
ssg75
g3251
sg68
(lp3258
g61
(g70
g63
NtRp3259
(dp3260
g66
(dp3261
g74
I4
ssg75
Nsg68
(lp3262
sbasbasbasbag61
(g77
g63
NtRp3263
(dp3264
g66
(dp3265
sg75
g2705
sg68
(lp3266
g61
(g82
g63
NtRp3267
(dp3268
g66
(dp3269
g86
g87
ssg75
g3263
sg68
(lp3270
S'session_file'
p3271
asbag61
(g82
g63
NtRp3272
(dp3273
g66
(dp3274
g93
g94
ssg75
g3263
sg68
(lp3275
S':'
asbag61
(g82
g63
NtRp3276
(dp3277
g66
(dp3278
sg75
g3263
sg68
(lp3279
g61
(g62
g63
NtRp3280
(dp3281
g66
(dp3282
g74
I5
ssg75
g3276
sg68
(lp3283
S"<open file 'C:\\Users\\Bussiere\\Dropbox\\Projets\\Yuki\\web2py\\applications\\init\\sessions\\127.0.0.1-e491f18b-7b0c-472f-8228-a18d6ec769aa', mode 'rb+' at 0x041BDB60>"
p3284
asbasbasbag61
(g77
g63
NtRp3285
(dp3286
g66
(dp3287
sg75
g2705
sg68
(lp3288
g61
(g82
g63
NtRp3289
(dp3290
g66
(dp3291
g86
g87
ssg75
g3285
sg68
(lp3292
S'session_filename'
p3293
asbag61
(g82
g63
NtRp3294
(dp3295
g66
(dp3296
g93
g94
ssg75
g3285
sg68
(lp3297
S':'
asbag61
(g82
g63
NtRp3298
(dp3299
g66
(dp3300
sg75
g3285
sg68
(lp3301
g61
(g62
g63
NtRp3302
(dp3303
g66
(dp3304
g74
I5
ssg75
g3298
sg68
(lp3305
S'C:\\Users\\Bussiere\\Dropbox\\Projets\\Yuki\\web2py\\applications\\init\\sessions\\127.0.0.1-e491f18b-7b0c-472f-8228-a18d6ec769aa'
p3306
asbasbasbag61
(g77
g63
NtRp3307
(dp3308
g66
(dp3309
sg75
g2705
sg68
(lp3310
g61
(g82
g63
NtRp3311
(dp3312
g66
(dp3313
g86
g87
ssg75
g3307
sg68
(lp3314
S'session_id'
p3315
asbag61
(g82
g63
NtRp3316
(dp3317
g66
(dp3318
g93
g94
ssg75
g3307
sg68
(lp3319
S':'
asbag61
(g82
g63
NtRp3320
(dp3321
g66
(dp3322
sg75
g3307
sg68
(lp3323
g61
(g62
g63
NtRp3324
(dp3325
g66
(dp3326
g74
I5
ssg75
g3320
sg68
(lp3327
S'127.0.0.1-e491f18b-7b0c-472f-8228-a18d6ec769aa'
p3328
asbasbasbag61
(g77
g63
NtRp3329
(dp3330
g66
(dp3331
sg75
g2705
sg68
(lp3332
g61
(g82
g63
NtRp3333
(dp3334
g66
(dp3335
g86
g87
ssg75
g3329
sg68
(lp3336
S'session_id_name'
p3337
asbag61
(g82
g63
NtRp3338
(dp3339
g66
(dp3340
g93
g94
ssg75
g3329
sg68
(lp3341
S':'
asbag61
(g82
g63
NtRp3342
(dp3343
g66
(dp3344
sg75
g3329
sg68
(lp3345
g61
(g62
g63
NtRp3346
(dp3347
g66
(dp3348
g74
I5
ssg75
g3342
sg68
(lp3349
g2762
asbasbasbag61
(g77
g63
NtRp3350
(dp3351
g66
(dp3352
sg75
g2705
sg68
(lp3353
g61
(g82
g63
NtRp3354
(dp3355
g66
(dp3356
g86
g87
ssg75
g3350
sg68
(lp3357
S'session_locked'
p3358
asbag61
(g82
g63
NtRp3359
(dp3360
g66
(dp3361
g93
g94
ssg75
g3350
sg68
(lp3362
S':'
asbag61
(g82
g63
NtRp3363
(dp3364
g66
(dp3365
sg75
g3350
sg68
(lp3366
g61
(g62
g63
NtRp3367
(dp3368
g66
(dp3369
g74
I5
ssg75
g3363
sg68
(lp3370
g573
asbasbasbag61
(g77
g63
NtRp3371
(dp3372
g66
(dp3373
sg75
g2705
sg68
(lp3374
g61
(g82
g63
NtRp3375
(dp3376
g66
(dp3377
g86
g87
ssg75
g3371
sg68
(lp3378
S'session_new'
p3379
asbag61
(g82
g63
NtRp3380
(dp3381
g66
(dp3382
g93
g94
ssg75
g3371
sg68
(lp3383
S':'
asbag61
(g82
g63
NtRp3384
(dp3385
g66
(dp3386
sg75
g3371
sg68
(lp3387
g61
(g62
g63
NtRp3388
(dp3389
g66
(dp3390
g74
I5
ssg75
g3384
sg68
(lp3391
g104
asbasbasbag61
(g77
g63
NtRp3392
(dp3393
g66
(dp3394
sg75
g2705
sg68
(lp3395
g61
(g82
g63
NtRp3396
(dp3397
g66
(dp3398
g86
g87
ssg75
g3392
sg68
(lp3399
S'status'
p3400
asbag61
(g82
g63
NtRp3401
(dp3402
g66
(dp3403
g93
g94
ssg75
g3392
sg68
(lp3404
S':'
asbag61
(g82
g63
NtRp3405
(dp3406
g66
(dp3407
sg75
g3392
sg68
(lp3408
g61
(g62
g63
NtRp3409
(dp3410
g66
(dp3411
g74
I5
ssg75
g3405
sg68
(lp3412
S'200'
p3413
asbasbasbag61
(g77
g63
NtRp3414
(dp3415
g66
(dp3416
sg75
g2705
sg68
(lp3417
g61
(g82
g63
NtRp3418
(dp3419
g66
(dp3420
g86
g87
ssg75
g3414
sg68
(lp3421
g1955
asbag61
(g82
g63
NtRp3422
(dp3423
g66
(dp3424
g93
g94
ssg75
g3414
sg68
(lp3425
S':'
asbag61
(g82
g63
NtRp3426
(dp3427
g66
(dp3428
sg75
g3414
sg68
(lp3429
g61
(g62
g63
NtRp3430
(dp3431
g66
(dp3432
g74
I5
ssg75
g3426
sg68
(lp3433
g1968
asbasbasbag61
(g77
g63
NtRp3434
(dp3435
g66
(dp3436
sg75
g2705
sg68
(lp3437
g61
(g82
g63
NtRp3438
(dp3439
g66
(dp3440
g86
g87
ssg75
g3434
sg68
(lp3441
S'view'
p3442
asbag61
(g82
g63
NtRp3443
(dp3444
g66
(dp3445
g93
g94
ssg75
g3434
sg68
(lp3446
S':'
asbag61
(g82
g63
NtRp3447
(dp3448
g66
(dp3449
sg75
g3434
sg68
(lp3450
g61
(g62
g63
NtRp3451
(dp3452
g66
(dp3453
g74
I5
ssg75
g3447
sg68
(lp3454
S'default/index.html'
p3455
asbasbasbasbasbsS'locals'
p3456
(dp3457
S'polymodel'
p3458
S'None'
p3459
sS'referenced'
p3460
S"'auth_user'"
p3461
sS'sortable'
p3462
S'5'
sS'sql_fields_aux'
p3463
S"{'Barcode': {'sql': 'CHAR(512) UNIQUE'}, 'Comment': {'sql': 'CHAR(512)'}, 'auth_user': {'sql': 'INTEGER REFERENCES auth_user(id) ON DELETE CASCADE'}, 'id': {'sql': 'INTEGER PRIMARY KEY AUTOINCREMENT'}}"
p3464
sS'TFK'
p3465
g21
sS'migrate'
p3466
g573
sS'fields'
p3467
S"['id INTEGER PRIMARY KEY AUTOINCREMENT', 'Barcode CHAR(512) UNIQUE', 'auth_user INTEGER REFERENCES auth_user(id) ON DELETE CASCADE', 'Comment CHAR(512)']"
p3468
sS'self'
p3469
S'<gluon.dal.SQLiteAdapter object at 0x0474E0B0>'
p3470
sS'tablename'
p3471
S"'Barcodebase'"
p3472
sS'fake_migrate'
p3473
g104
sS'field'
p3474
S'<gluon.dal.Field object at 0x045D1C50>'
p3475
sS'ftype'
p3476
S"'CHAR(512)'"
p3477
sS'constraint_name'
p3478
S"'Barcodebase_auth_user__constraint'"
p3479
sS'table'
p3480
S"<Table {'Comment': <gluon.dal.Field object at 0x...>, 'id': <gluon.dal.Field object at 0x045D1B10>}>"
p3481
sS'sql_fields'
p3482
S"{'Barcode': {'sortable': 2, 'sql': 'CHAR(512) UNIQUE', 'type': 'string'}, 'Comment': {'sortable': 4, 'sql': 'CHAR(512)', 'type': 'string'}, 'auth_user': {'sortable': 3, 'sql': 'INTEGER REFERENCES auth_user(id) ON DELETE CASCADE', 'type': 'reference auth_user'}, 'id': {'sortable': 1, 'sql': 'INTEGER PRIMARY KEY AUTOINCREMENT', 'type': 'id'}}"
p3483
sS'k'
S"'Hk'"
p3484
sS'id_fieldname'
p3485
S"'id'"
p3486
sssS'traceback'
p3487
S'Traceback (most recent call last):\n  File "gluon/restricted.py", line 205, in restricted\n  File "C:\\Users\\Bussiere\\Dropbox\\Projets\\Yuki\\web2py\\applications\\init\\models\\db.py", line 55, in <module>\n  File "gluon/dal.py", line 6320, in define_table\n  File "gluon/dal.py", line 638, in create_table\nSyntaxError: Field: unknown field type: bolean for Hk\n'
p3488
s.