(dp1
S'output'
p2
S"<class 'sqlite3.OperationalError'> no such column: Barcodebase"
p3
sS'layer'
p4
S'C:\\Users\\Bussiere\\Dropbox\\Projets\\Yuki\\web2py\\applications\\init\\controllers/default.py'
p5
sS'code'
p6
S'# -*- coding: utf-8 -*-\n# this file is released under public domain and you can use without limitations\n\n#########################################################################\n## This is a samples controller\n## - index is the default action of any application\n## - user is required for authentication and authorization\n## - download is for downloading files uploaded in the db (does streaming)\n## - call exposes all registered services (none by default)\n#########################################################################\n\n\n\n\n@auth.requires_login()\ndef index():\n    form = crud.create(db.Barcodebase, next=URL(\'index\'),\n           message=T("record created"))\n    barcode = crud.select(db.Barcodebase, fields=[\'Barcode\'],\n           headers={\'Barcodebase.Barcode\': \'Barcode\'})\n    return dict(form=form, persons=persons)\ndef index():\n    barcode = crud.select(db.Barcodebase, fields=[\'Barcodebase\'],\n           headers={\'Barcodebase.Barcode\': \'Barcode\'})\n    return dict(form=form, barcod=barcode)\n\ndef user():\n    """\n    exposes:\n    http://..../[app]/default/user/login\n    http://..../[app]/default/user/logout\n    http://..../[app]/default/user/register\n    http://..../[app]/default/user/profile\n    http://..../[app]/default/user/retrieve_password\n    http://..../[app]/default/user/change_password\n    use @auth.requires_login()\n        @auth.requires_membership(\'group name\')\n        @auth.requires_permission(\'read\',\'table name\',record_id)\n    to decorate functions that need access control\n    """\n    return dict(form=auth())\n\n\n\n\ndef showBarcode():\n    image = db.Barcode(request.args(0)) or redirect(URL(\'index\'))\n    db.comment.Barcode_id.default = Barcode.id\n    form = crud.create(db.comment,\n                       message=\'your comment is posted\',\n            next=URL(args=Barcode.id))\n    comments = db(db.comment.Barcode_id==Barcode.id).select()\n    return dict(image=image, comments=comments, form=form)\n\ndef addBarcode():\n    form = SQLFORM(db.Barcode)\n    if form.accepts(request.vars, session):\n        response.flash = T(\'new record inserted\')\n    return dict(form=form,table=db.Barcode)\n\n\ndef download():\n    """\n    allows downloading of uploaded files\n    http://..../[app]/default/download/[filename]\n    """\n    return response.download(request,db)\n\n\ndef call():\n    """\n    exposes services. for example:\n    http://..../[app]/default/call/jsonrpc\n    decorate with @services.jsonrpc the functions to expose\n    supports xml, json, xmlrpc, jsonrpc, amfrpc, rss, csv\n    """\n    return service()\n\n\n@auth.requires_signature()\ndef data():\n    """\n    http://..../[app]/default/data/tables\n    http://..../[app]/default/data/create/[table]\n    http://..../[app]/default/data/read/[table]/[id]\n    http://..../[app]/default/data/update/[table]/[id]\n    http://..../[app]/default/data/delete/[table]/[id]\n    http://..../[app]/default/data/select/[table]\n    http://..../[app]/default/data/search/[table]\n    but URLs must be signed, i.e. linked with\n      A(\'table\',_href=URL(\'data/tables\',user_signature=True))\n    or with the signed load operator\n      LOAD(\'default\',\'data.load\',args=\'tables\',ajax=True,user_signature=True)\n    """\n    return dict(form=crud())\n\n\nresponse._vars=response._caller(index)\n'
p7
sS'snapshot'
p8
(dp9
S'exception'
p10
(dp11
S'__hash__'
p12
S"<method-wrapper '__hash__' of OperationalError object at 0x044EC710>"
p13
sS'__module__'
p14
S"'sqlite3'"
p15
sS'__reduce_ex__'
p16
S'<built-in method __reduce_ex__ of OperationalError object at 0x044EC710>'
p17
sS'__getslice__'
p18
S"<method-wrapper '__getslice__' of OperationalError object at 0x044EC710>"
p19
sS'__getitem__'
p20
S"<method-wrapper '__getitem__' of OperationalError object at 0x044EC710>"
p21
sS'__setstate__'
p22
S'<built-in method __setstate__ of OperationalError object at 0x044EC710>'
p23
sS'__reduce__'
p24
S'<built-in method __reduce__ of OperationalError object at 0x044EC710>'
p25
sS'__str__'
p26
S"<method-wrapper '__str__' of OperationalError object at 0x044EC710>"
p27
sS'args'
p28
S"('no such column: Barcodebase',)"
p29
sS'__getattribute__'
p30
S"<method-wrapper '__getattribute__' of OperationalError object at 0x044EC710>"
p31
sS'__class__'
p32
S"<class 'sqlite3.OperationalError'>"
p33
sS'__delattr__'
p34
S"<method-wrapper '__delattr__' of OperationalError object at 0x044EC710>"
p35
sS'__repr__'
p36
S"<method-wrapper '__repr__' of OperationalError object at 0x044EC710>"
p37
sS'__setattr__'
p38
S"<method-wrapper '__setattr__' of OperationalError object at 0x044EC710>"
p39
sS'__dict__'
p40
S'{}'
p41
sS'__weakref__'
p42
S'None'
p43
sS'__doc__'
p44
S'None'
p45
sS'__init__'
p46
S"<method-wrapper '__init__' of OperationalError object at 0x044EC710>"
p47
sS'__new__'
p48
S'<built-in method __new__ of type object at 0x1E1CCCB0>'
p49
ssS'evalue'
p50
S'no such column: Barcodebase'
p51
sS'request'
p52
ccopy_reg
_reconstructor
p53
(cgluon.html
BEAUTIFY
p54
c__builtin__
object
p55
NtRp56
(dp57
S'attributes'
p58
(dp59
sS'components'
p60
(lp61
g53
(cgluon.html
TABLE
p62
g55
NtRp63
(dp64
g58
(dp65
S'level'
p66
I5
ssS'parent'
p67
Nsg60
(lp68
g53
(cgluon.html
TR
p69
g55
NtRp70
(dp71
g58
(dp72
sg67
g63
sg60
(lp73
g53
(cgluon.html
TD
p74
g55
NtRp75
(dp76
g58
(dp77
S'_style'
p78
S'font-weight:bold;vertical-align:top'
p79
ssg67
g70
sg60
(lp80
S'ajax'
p81
asbag53
(g74
g55
NtRp82
(dp83
g58
(dp84
S'_valign'
p85
S'top'
p86
ssg67
g70
sg60
(lp87
S':'
asbag53
(g74
g55
NtRp88
(dp89
g58
(dp90
sg67
g70
sg60
(lp91
g53
(g54
g55
NtRp92
(dp93
g58
(dp94
g66
I5
ssg67
g88
sg60
(lp95
S'False'
p96
asbasbasbag53
(g69
g55
NtRp97
(dp98
g58
(dp99
sg67
g63
sg60
(lp100
g53
(g74
g55
NtRp101
(dp102
g58
(dp103
g78
g79
ssg67
g97
sg60
(lp104
S'application'
p105
asbag53
(g74
g55
NtRp106
(dp107
g58
(dp108
g85
g86
ssg67
g97
sg60
(lp109
S':'
asbag53
(g74
g55
NtRp110
(dp111
g58
(dp112
sg67
g97
sg60
(lp113
g53
(g54
g55
NtRp114
(dp115
g58
(dp116
g66
I5
ssg67
g110
sg60
(lp117
S'init'
p118
asbasbasbag53
(g69
g55
NtRp119
(dp120
g58
(dp121
sg67
g63
sg60
(lp122
g53
(g74
g55
NtRp123
(dp124
g58
(dp125
g78
g79
ssg67
g119
sg60
(lp126
g28
asbag53
(g74
g55
NtRp127
(dp128
g58
(dp129
g85
g86
ssg67
g119
sg60
(lp130
S':'
asbag53
(g74
g55
NtRp131
(dp132
g58
(dp133
sg67
g119
sg60
(lp134
g53
(g54
g55
NtRp135
(dp136
g58
(dp137
g66
I5
ssg67
g131
sg60
(lp138
g53
(g62
g55
NtRp139
(dp140
g58
(dp141
g66
I4
ssg67
Nsg60
(lp142
sbasbasbasbag53
(g69
g55
NtRp143
(dp144
g58
(dp145
sg67
g63
sg60
(lp146
g53
(g74
g55
NtRp147
(dp148
g58
(dp149
g78
g79
ssg67
g143
sg60
(lp150
S'body'
p151
asbag53
(g74
g55
NtRp152
(dp153
g58
(dp154
g85
g86
ssg67
g143
sg60
(lp155
S':'
asbag53
(g74
g55
NtRp156
(dp157
g58
(dp158
sg67
g143
sg60
(lp159
g53
(g54
g55
NtRp160
(dp161
g58
(dp162
g66
I5
ssg67
g156
sg60
(lp163
S'<cStringIO.StringO object at 0x043EB860>'
p164
asbasbasbag53
(g69
g55
NtRp165
(dp166
g58
(dp167
sg67
g63
sg60
(lp168
g53
(g74
g55
NtRp169
(dp170
g58
(dp171
g78
g79
ssg67
g165
sg60
(lp172
S'client'
p173
asbag53
(g74
g55
NtRp174
(dp175
g58
(dp176
g85
g86
ssg67
g165
sg60
(lp177
S':'
asbag53
(g74
g55
NtRp178
(dp179
g58
(dp180
sg67
g165
sg60
(lp181
g53
(g54
g55
NtRp182
(dp183
g58
(dp184
g66
I5
ssg67
g178
sg60
(lp185
S'127.0.0.1'
p186
asbasbasbag53
(g69
g55
NtRp187
(dp188
g58
(dp189
sg67
g63
sg60
(lp190
g53
(g74
g55
NtRp191
(dp192
g58
(dp193
g78
g79
ssg67
g187
sg60
(lp194
S'controller'
p195
asbag53
(g74
g55
NtRp196
(dp197
g58
(dp198
g85
g86
ssg67
g187
sg60
(lp199
S':'
asbag53
(g74
g55
NtRp200
(dp201
g58
(dp202
sg67
g187
sg60
(lp203
g53
(g54
g55
NtRp204
(dp205
g58
(dp206
g66
I5
ssg67
g200
sg60
(lp207
S'default'
p208
asbasbasbag53
(g69
g55
NtRp209
(dp210
g58
(dp211
sg67
g63
sg60
(lp212
g53
(g74
g55
NtRp213
(dp214
g58
(dp215
g78
g79
ssg67
g209
sg60
(lp216
S'cookies'
p217
asbag53
(g74
g55
NtRp218
(dp219
g58
(dp220
g85
g86
ssg67
g209
sg60
(lp221
S':'
asbag53
(g74
g55
NtRp222
(dp223
g58
(dp224
sg67
g209
sg60
(lp225
g53
(g54
g55
NtRp226
(dp227
g58
(dp228
g66
I5
ssg67
g222
sg60
(lp229
g53
(g62
g55
NtRp230
(dp231
g58
(dp232
g66
I4
ssg67
Nsg60
(lp233
g53
(g69
g55
NtRp234
(dp235
g58
(dp236
sg67
g230
sg60
(lp237
g53
(g74
g55
NtRp238
(dp239
g58
(dp240
g78
g79
ssg67
g234
sg60
(lp241
S'session_id_admin'
p242
asbag53
(g74
g55
NtRp243
(dp244
g58
(dp245
g85
g86
ssg67
g234
sg60
(lp246
S':'
asbag53
(g74
g55
NtRp247
(dp248
g58
(dp249
sg67
g234
sg60
(lp250
g53
(g54
g55
NtRp251
(dp252
g58
(dp253
g66
I4
ssg67
g247
sg60
(lp254
g53
(g62
g55
NtRp255
(dp256
g58
(dp257
g66
I3
ssg67
Nsg60
(lp258
g53
(g69
g55
NtRp259
(dp260
g58
(dp261
sg67
g255
sg60
(lp262
g53
(g74
g55
NtRp263
(dp264
g58
(dp265
g78
g79
ssg67
g259
sg60
(lp266
S'comment'
p267
asbag53
(g74
g55
NtRp268
(dp269
g58
(dp270
g85
g86
ssg67
g259
sg60
(lp271
S':'
asbag53
(g74
g55
NtRp272
(dp273
g58
(dp274
sg67
g259
sg60
(lp275
g53
(g54
g55
NtRp276
(dp277
g58
(dp278
g66
I3
ssg67
g272
sg60
(lp279
S''
asbasbasbag53
(g69
g55
NtRp280
(dp281
g58
(dp282
sg67
g255
sg60
(lp283
g53
(g74
g55
NtRp284
(dp285
g58
(dp286
g78
g79
ssg67
g280
sg60
(lp287
S'domain'
p288
asbag53
(g74
g55
NtRp289
(dp290
g58
(dp291
g85
g86
ssg67
g280
sg60
(lp292
S':'
asbag53
(g74
g55
NtRp293
(dp294
g58
(dp295
sg67
g280
sg60
(lp296
g53
(g54
g55
NtRp297
(dp298
g58
(dp299
g66
I3
ssg67
g293
sg60
(lp300
S''
asbasbasbag53
(g69
g55
NtRp301
(dp302
g58
(dp303
sg67
g255
sg60
(lp304
g53
(g74
g55
NtRp305
(dp306
g58
(dp307
g78
g79
ssg67
g301
sg60
(lp308
S'expires'
p309
asbag53
(g74
g55
NtRp310
(dp311
g58
(dp312
g85
g86
ssg67
g301
sg60
(lp313
S':'
asbag53
(g74
g55
NtRp314
(dp315
g58
(dp316
sg67
g301
sg60
(lp317
g53
(g54
g55
NtRp318
(dp319
g58
(dp320
g66
I3
ssg67
g314
sg60
(lp321
S''
asbasbasbag53
(g69
g55
NtRp322
(dp323
g58
(dp324
sg67
g255
sg60
(lp325
g53
(g74
g55
NtRp326
(dp327
g58
(dp328
g78
g79
ssg67
g322
sg60
(lp329
S'max-age'
p330
asbag53
(g74
g55
NtRp331
(dp332
g58
(dp333
g85
g86
ssg67
g322
sg60
(lp334
S':'
asbag53
(g74
g55
NtRp335
(dp336
g58
(dp337
sg67
g322
sg60
(lp338
g53
(g54
g55
NtRp339
(dp340
g58
(dp341
g66
I3
ssg67
g335
sg60
(lp342
S''
asbasbasbag53
(g69
g55
NtRp343
(dp344
g58
(dp345
sg67
g255
sg60
(lp346
g53
(g74
g55
NtRp347
(dp348
g58
(dp349
g78
g79
ssg67
g343
sg60
(lp350
S'path'
p351
asbag53
(g74
g55
NtRp352
(dp353
g58
(dp354
g85
g86
ssg67
g343
sg60
(lp355
S':'
asbag53
(g74
g55
NtRp356
(dp357
g58
(dp358
sg67
g343
sg60
(lp359
g53
(g54
g55
NtRp360
(dp361
g58
(dp362
g66
I3
ssg67
g356
sg60
(lp363
S''
asbasbasbag53
(g69
g55
NtRp364
(dp365
g58
(dp366
sg67
g255
sg60
(lp367
g53
(g74
g55
NtRp368
(dp369
g58
(dp370
g78
g79
ssg67
g364
sg60
(lp371
S'secure'
p372
asbag53
(g74
g55
NtRp373
(dp374
g58
(dp375
g85
g86
ssg67
g364
sg60
(lp376
S':'
asbag53
(g74
g55
NtRp377
(dp378
g58
(dp379
sg67
g364
sg60
(lp380
g53
(g54
g55
NtRp381
(dp382
g58
(dp383
g66
I3
ssg67
g377
sg60
(lp384
S''
asbasbasbag53
(g69
g55
NtRp385
(dp386
g58
(dp387
sg67
g255
sg60
(lp388
g53
(g74
g55
NtRp389
(dp390
g58
(dp391
g78
g79
ssg67
g385
sg60
(lp392
S'version'
p393
asbag53
(g74
g55
NtRp394
(dp395
g58
(dp396
g85
g86
ssg67
g385
sg60
(lp397
S':'
asbag53
(g74
g55
NtRp398
(dp399
g58
(dp400
sg67
g385
sg60
(lp401
g53
(g54
g55
NtRp402
(dp403
g58
(dp404
g66
I3
ssg67
g398
sg60
(lp405
S''
asbasbasbasbasbasbasbag53
(g69
g55
NtRp406
(dp407
g58
(dp408
sg67
g230
sg60
(lp409
g53
(g74
g55
NtRp410
(dp411
g58
(dp412
g78
g79
ssg67
g406
sg60
(lp413
S'session_id_init'
p414
asbag53
(g74
g55
NtRp415
(dp416
g58
(dp417
g85
g86
ssg67
g406
sg60
(lp418
S':'
asbag53
(g74
g55
NtRp419
(dp420
g58
(dp421
sg67
g406
sg60
(lp422
g53
(g54
g55
NtRp423
(dp424
g58
(dp425
g66
I4
ssg67
g419
sg60
(lp426
g53
(g62
g55
NtRp427
(dp428
g58
(dp429
g66
I3
ssg67
Nsg60
(lp430
g53
(g69
g55
NtRp431
(dp432
g58
(dp433
sg67
g427
sg60
(lp434
g53
(g74
g55
NtRp435
(dp436
g58
(dp437
g78
g79
ssg67
g431
sg60
(lp438
g267
asbag53
(g74
g55
NtRp439
(dp440
g58
(dp441
g85
g86
ssg67
g431
sg60
(lp442
S':'
asbag53
(g74
g55
NtRp443
(dp444
g58
(dp445
sg67
g431
sg60
(lp446
g53
(g54
g55
NtRp447
(dp448
g58
(dp449
g66
I3
ssg67
g443
sg60
(lp450
S''
asbasbasbag53
(g69
g55
NtRp451
(dp452
g58
(dp453
sg67
g427
sg60
(lp454
g53
(g74
g55
NtRp455
(dp456
g58
(dp457
g78
g79
ssg67
g451
sg60
(lp458
g288
asbag53
(g74
g55
NtRp459
(dp460
g58
(dp461
g85
g86
ssg67
g451
sg60
(lp462
S':'
asbag53
(g74
g55
NtRp463
(dp464
g58
(dp465
sg67
g451
sg60
(lp466
g53
(g54
g55
NtRp467
(dp468
g58
(dp469
g66
I3
ssg67
g463
sg60
(lp470
S''
asbasbasbag53
(g69
g55
NtRp471
(dp472
g58
(dp473
sg67
g427
sg60
(lp474
g53
(g74
g55
NtRp475
(dp476
g58
(dp477
g78
g79
ssg67
g471
sg60
(lp478
g309
asbag53
(g74
g55
NtRp479
(dp480
g58
(dp481
g85
g86
ssg67
g471
sg60
(lp482
S':'
asbag53
(g74
g55
NtRp483
(dp484
g58
(dp485
sg67
g471
sg60
(lp486
g53
(g54
g55
NtRp487
(dp488
g58
(dp489
g66
I3
ssg67
g483
sg60
(lp490
S''
asbasbasbag53
(g69
g55
NtRp491
(dp492
g58
(dp493
sg67
g427
sg60
(lp494
g53
(g74
g55
NtRp495
(dp496
g58
(dp497
g78
g79
ssg67
g491
sg60
(lp498
g330
asbag53
(g74
g55
NtRp499
(dp500
g58
(dp501
g85
g86
ssg67
g491
sg60
(lp502
S':'
asbag53
(g74
g55
NtRp503
(dp504
g58
(dp505
sg67
g491
sg60
(lp506
g53
(g54
g55
NtRp507
(dp508
g58
(dp509
g66
I3
ssg67
g503
sg60
(lp510
S''
asbasbasbag53
(g69
g55
NtRp511
(dp512
g58
(dp513
sg67
g427
sg60
(lp514
g53
(g74
g55
NtRp515
(dp516
g58
(dp517
g78
g79
ssg67
g511
sg60
(lp518
g351
asbag53
(g74
g55
NtRp519
(dp520
g58
(dp521
g85
g86
ssg67
g511
sg60
(lp522
S':'
asbag53
(g74
g55
NtRp523
(dp524
g58
(dp525
sg67
g511
sg60
(lp526
g53
(g54
g55
NtRp527
(dp528
g58
(dp529
g66
I3
ssg67
g523
sg60
(lp530
S''
asbasbasbag53
(g69
g55
NtRp531
(dp532
g58
(dp533
sg67
g427
sg60
(lp534
g53
(g74
g55
NtRp535
(dp536
g58
(dp537
g78
g79
ssg67
g531
sg60
(lp538
g372
asbag53
(g74
g55
NtRp539
(dp540
g58
(dp541
g85
g86
ssg67
g531
sg60
(lp542
S':'
asbag53
(g74
g55
NtRp543
(dp544
g58
(dp545
sg67
g531
sg60
(lp546
g53
(g54
g55
NtRp547
(dp548
g58
(dp549
g66
I3
ssg67
g543
sg60
(lp550
S''
asbasbasbag53
(g69
g55
NtRp551
(dp552
g58
(dp553
sg67
g427
sg60
(lp554
g53
(g74
g55
NtRp555
(dp556
g58
(dp557
g78
g79
ssg67
g551
sg60
(lp558
g393
asbag53
(g74
g55
NtRp559
(dp560
g58
(dp561
g85
g86
ssg67
g551
sg60
(lp562
S':'
asbag53
(g74
g55
NtRp563
(dp564
g58
(dp565
sg67
g551
sg60
(lp566
g53
(g54
g55
NtRp567
(dp568
g58
(dp569
g66
I3
ssg67
g563
sg60
(lp570
S''
asbasbasbasbasbasbasbasbasbasbasbag53
(g69
g55
NtRp571
(dp572
g58
(dp573
sg67
g63
sg60
(lp574
g53
(g74
g55
NtRp575
(dp576
g58
(dp577
g78
g79
ssg67
g571
sg60
(lp578
S'env'
p579
asbag53
(g74
g55
NtRp580
(dp581
g58
(dp582
g85
g86
ssg67
g571
sg60
(lp583
S':'
asbag53
(g74
g55
NtRp584
(dp585
g58
(dp586
sg67
g571
sg60
(lp587
g53
(g54
g55
NtRp588
(dp589
g58
(dp590
g66
I5
ssg67
g584
sg60
(lp591
g53
(g62
g55
NtRp592
(dp593
g58
(dp594
g66
I4
ssg67
Nsg60
(lp595
g53
(g69
g55
NtRp596
(dp597
g58
(dp598
sg67
g592
sg60
(lp599
g53
(g74
g55
NtRp600
(dp601
g58
(dp602
g78
g79
ssg67
g596
sg60
(lp603
S'app_folders'
p604
asbag53
(g74
g55
NtRp605
(dp606
g58
(dp607
g85
g86
ssg67
g596
sg60
(lp608
S':'
asbag53
(g74
g55
NtRp609
(dp610
g58
(dp611
sg67
g596
sg60
(lp612
g53
(g54
g55
NtRp613
(dp614
g58
(dp615
g66
I4
ssg67
g609
sg60
(lp616
S"set(['C:\\\\Users\\\\Bussiere\\\\Dropbox\\\\Projets\\\\Yuki\\\\web2py\\\\applications\\\\init\\\\', 'C:\\\\Users\\\\Bussiere\\\\Dropbox\\\\Projets\\\\Yuki\\\\web2py\\\\applications\\\\admin\\\\'])"
p617
asbasbasbag53
(g69
g55
NtRp618
(dp619
g58
(dp620
sg67
g592
sg60
(lp621
g53
(g74
g55
NtRp622
(dp623
g58
(dp624
g78
g79
ssg67
g618
sg60
(lp625
S'applications_parent'
p626
asbag53
(g74
g55
NtRp627
(dp628
g58
(dp629
g85
g86
ssg67
g618
sg60
(lp630
S':'
asbag53
(g74
g55
NtRp631
(dp632
g58
(dp633
sg67
g618
sg60
(lp634
g53
(g54
g55
NtRp635
(dp636
g58
(dp637
g66
I4
ssg67
g631
sg60
(lp638
S'C:\\Users\\Bussiere\\Dropbox\\Projets\\Yuki\\web2py'
p639
asbasbasbag53
(g69
g55
NtRp640
(dp641
g58
(dp642
sg67
g592
sg60
(lp643
g53
(g74
g55
NtRp644
(dp645
g58
(dp646
g78
g79
ssg67
g640
sg60
(lp647
S'cmd_args'
p648
asbag53
(g74
g55
NtRp649
(dp650
g58
(dp651
g85
g86
ssg67
g640
sg60
(lp652
S':'
asbag53
(g74
g55
NtRp653
(dp654
g58
(dp655
sg67
g640
sg60
(lp656
g53
(g54
g55
NtRp657
(dp658
g58
(dp659
g66
I4
ssg67
g653
sg60
(lp660
g53
(g62
g55
NtRp661
(dp662
g58
(dp663
g66
I3
ssg67
Nsg60
(lp664
sbasbasbasbag53
(g69
g55
NtRp665
(dp666
g58
(dp667
sg67
g592
sg60
(lp668
g53
(g74
g55
NtRp669
(dp670
g58
(dp671
g78
g79
ssg67
g665
sg60
(lp672
S'cmd_options'
p673
asbag53
(g74
g55
NtRp674
(dp675
g58
(dp676
g85
g86
ssg67
g665
sg60
(lp677
S':'
asbag53
(g74
g55
NtRp678
(dp679
g58
(dp680
sg67
g665
sg60
(lp681
g53
(g54
g55
NtRp682
(dp683
g58
(dp684
g66
I4
ssg67
g678
sg60
(lp685
S"<Values at 0x3c04f58: {'verbose': False, 'ip': '127.0.0.1', 'shutdown_timeout': 5, 'taskbar': False, 'nocron': False, 'pid_filename': 'httpserver.pid', 'maxthreads': None, 'softcron': False, 'server_name': 'Batou', 'bpython': False, 'nogui': False, 'port': 8000, 'extcron': False, 'debuglevel': 30, 'test': None, 'folder': 'C:\\\\Users\\\\Bussiere\\\\Dropbox\\\\Projets\\\\Yuki\\\\web2py', 'config': '', 'import_models': False, 'winservice': '', 'shell': None, 'run': '', 'log_filename': 'httpserver.log', 'args': [''], 'socket_timeout': 5, 'ssl_ca_certificate': None, 'scheduler': None, 'profiler_filename': None, 'ssl_private_key': '', 'password': '<ask>', 'request_queue_size': 5, 'ssl_certificate': '', 'cronjob': False, 'numthreads': None, 'quiet': False, 'interfaces': None, 'minthreads': None, 'timeout': 10, 'plain': False, 'nobanner': False}>"
p686
asbasbasbag53
(g69
g55
NtRp687
(dp688
g58
(dp689
sg67
g592
sg60
(lp690
g53
(g74
g55
NtRp691
(dp692
g58
(dp693
g78
g79
ssg67
g687
sg60
(lp694
S'db_sessions'
p695
asbag53
(g74
g55
NtRp696
(dp697
g58
(dp698
g85
g86
ssg67
g687
sg60
(lp699
S':'
asbag53
(g74
g55
NtRp700
(dp701
g58
(dp702
sg67
g687
sg60
(lp703
g53
(g54
g55
NtRp704
(dp705
g58
(dp706
g66
I4
ssg67
g700
sg60
(lp707
S'set([])'
p708
asbasbasbag53
(g69
g55
NtRp709
(dp710
g58
(dp711
sg67
g592
sg60
(lp712
g53
(g74
g55
NtRp713
(dp714
g58
(dp715
g78
g79
ssg67
g709
sg60
(lp716
S'debugging'
p717
asbag53
(g74
g55
NtRp718
(dp719
g58
(dp720
g85
g86
ssg67
g709
sg60
(lp721
S':'
asbag53
(g74
g55
NtRp722
(dp723
g58
(dp724
sg67
g709
sg60
(lp725
g53
(g54
g55
NtRp726
(dp727
g58
(dp728
g66
I4
ssg67
g722
sg60
(lp729
S'True'
p730
asbasbasbag53
(g69
g55
NtRp731
(dp732
g58
(dp733
sg67
g592
sg60
(lp734
g53
(g74
g55
NtRp735
(dp736
g58
(dp737
g78
g79
ssg67
g731
sg60
(lp738
S'gluon_parent'
p739
asbag53
(g74
g55
NtRp740
(dp741
g58
(dp742
g85
g86
ssg67
g731
sg60
(lp743
S':'
asbag53
(g74
g55
NtRp744
(dp745
g58
(dp746
sg67
g731
sg60
(lp747
g53
(g54
g55
NtRp748
(dp749
g58
(dp750
g66
I4
ssg67
g744
sg60
(lp751
S'C:\\Users\\Bussiere\\Dropbox\\Projets\\Yuki\\web2py'
p752
asbasbasbag53
(g69
g55
NtRp753
(dp754
g58
(dp755
sg67
g592
sg60
(lp756
g53
(g74
g55
NtRp757
(dp758
g58
(dp759
g78
g79
ssg67
g753
sg60
(lp760
S'http_accept'
p761
asbag53
(g74
g55
NtRp762
(dp763
g58
(dp764
g85
g86
ssg67
g753
sg60
(lp765
S':'
asbag53
(g74
g55
NtRp766
(dp767
g58
(dp768
sg67
g753
sg60
(lp769
g53
(g54
g55
NtRp770
(dp771
g58
(dp772
g66
I4
ssg67
g766
sg60
(lp773
S'text/html,application/xhtml+xml,application/xml;q=0.9,*/*;q=0.8'
p774
asbasbasbag53
(g69
g55
NtRp775
(dp776
g58
(dp777
sg67
g592
sg60
(lp778
g53
(g74
g55
NtRp779
(dp780
g58
(dp781
g78
g79
ssg67
g775
sg60
(lp782
S'http_accept_charset'
p783
asbag53
(g74
g55
NtRp784
(dp785
g58
(dp786
g85
g86
ssg67
g775
sg60
(lp787
S':'
asbag53
(g74
g55
NtRp788
(dp789
g58
(dp790
sg67
g775
sg60
(lp791
g53
(g54
g55
NtRp792
(dp793
g58
(dp794
g66
I4
ssg67
g788
sg60
(lp795
S'ISO-8859-1,utf-8;q=0.7,*;q=0.3'
p796
asbasbasbag53
(g69
g55
NtRp797
(dp798
g58
(dp799
sg67
g592
sg60
(lp800
g53
(g74
g55
NtRp801
(dp802
g58
(dp803
g78
g79
ssg67
g797
sg60
(lp804
S'http_accept_encoding'
p805
asbag53
(g74
g55
NtRp806
(dp807
g58
(dp808
g85
g86
ssg67
g797
sg60
(lp809
S':'
asbag53
(g74
g55
NtRp810
(dp811
g58
(dp812
sg67
g797
sg60
(lp813
g53
(g54
g55
NtRp814
(dp815
g58
(dp816
g66
I4
ssg67
g810
sg60
(lp817
S'gzip,deflate,sdch'
p818
asbasbasbag53
(g69
g55
NtRp819
(dp820
g58
(dp821
sg67
g592
sg60
(lp822
g53
(g74
g55
NtRp823
(dp824
g58
(dp825
g78
g79
ssg67
g819
sg60
(lp826
S'http_accept_language'
p827
asbag53
(g74
g55
NtRp828
(dp829
g58
(dp830
g85
g86
ssg67
g819
sg60
(lp831
S':'
asbag53
(g74
g55
NtRp832
(dp833
g58
(dp834
sg67
g819
sg60
(lp835
g53
(g54
g55
NtRp836
(dp837
g58
(dp838
g66
I4
ssg67
g832
sg60
(lp839
S'en-US,en;q=0.8'
p840
asbasbasbag53
(g69
g55
NtRp841
(dp842
g58
(dp843
sg67
g592
sg60
(lp844
g53
(g74
g55
NtRp845
(dp846
g58
(dp847
g78
g79
ssg67
g841
sg60
(lp848
S'http_cache_control'
p849
asbag53
(g74
g55
NtRp850
(dp851
g58
(dp852
g85
g86
ssg67
g841
sg60
(lp853
S':'
asbag53
(g74
g55
NtRp854
(dp855
g58
(dp856
sg67
g841
sg60
(lp857
g53
(g54
g55
NtRp858
(dp859
g58
(dp860
g66
I4
ssg67
g854
sg60
(lp861
S'max-age=0'
p862
asbasbasbag53
(g69
g55
NtRp863
(dp864
g58
(dp865
sg67
g592
sg60
(lp866
g53
(g74
g55
NtRp867
(dp868
g58
(dp869
g78
g79
ssg67
g863
sg60
(lp870
S'http_connection'
p871
asbag53
(g74
g55
NtRp872
(dp873
g58
(dp874
g85
g86
ssg67
g863
sg60
(lp875
S':'
asbag53
(g74
g55
NtRp876
(dp877
g58
(dp878
sg67
g863
sg60
(lp879
g53
(g54
g55
NtRp880
(dp881
g58
(dp882
g66
I4
ssg67
g876
sg60
(lp883
S'keep-alive'
p884
asbasbasbag53
(g69
g55
NtRp885
(dp886
g58
(dp887
sg67
g592
sg60
(lp888
g53
(g74
g55
NtRp889
(dp890
g58
(dp891
g78
g79
ssg67
g885
sg60
(lp892
S'http_cookie'
p893
asbag53
(g74
g55
NtRp894
(dp895
g58
(dp896
g85
g86
ssg67
g885
sg60
(lp897
S':'
asbag53
(g74
g55
NtRp898
(dp899
g58
(dp900
sg67
g885
sg60
(lp901
g53
(g54
g55
NtRp902
(dp903
g58
(dp904
g66
I4
ssg67
g898
sg60
(lp905
S'session_id_init=127.0.0.1-e491f18b-7b0c-472f-8228-a18d6ec769aa; session_id_admin=127.0.0.1-6531a48e-c307-4ba4-bdc5-14f2cebd3752'
p906
asbasbasbag53
(g69
g55
NtRp907
(dp908
g58
(dp909
sg67
g592
sg60
(lp910
g53
(g74
g55
NtRp911
(dp912
g58
(dp913
g78
g79
ssg67
g907
sg60
(lp914
S'http_host'
p915
asbag53
(g74
g55
NtRp916
(dp917
g58
(dp918
g85
g86
ssg67
g907
sg60
(lp919
S':'
asbag53
(g74
g55
NtRp920
(dp921
g58
(dp922
sg67
g907
sg60
(lp923
g53
(g54
g55
NtRp924
(dp925
g58
(dp926
g66
I4
ssg67
g920
sg60
(lp927
S'127.0.0.1:8000'
p928
asbasbasbag53
(g69
g55
NtRp929
(dp930
g58
(dp931
sg67
g592
sg60
(lp932
g53
(g74
g55
NtRp933
(dp934
g58
(dp935
g78
g79
ssg67
g929
sg60
(lp936
S'http_user_agent'
p937
asbag53
(g74
g55
NtRp938
(dp939
g58
(dp940
g85
g86
ssg67
g929
sg60
(lp941
S':'
asbag53
(g74
g55
NtRp942
(dp943
g58
(dp944
sg67
g929
sg60
(lp945
g53
(g54
g55
NtRp946
(dp947
g58
(dp948
g66
I4
ssg67
g942
sg60
(lp949
S'Mozilla/5.0 (Windows NT 6.1; WOW64) AppleWebKit/535.18 (KHTML, like Gecko) Chrome/18.0.1011.0 Safari/535.18'
p950
asbasbasbag53
(g69
g55
NtRp951
(dp952
g58
(dp953
sg67
g592
sg60
(lp954
g53
(g74
g55
NtRp955
(dp956
g58
(dp957
g78
g79
ssg67
g951
sg60
(lp958
S'is_jython'
p959
asbag53
(g74
g55
NtRp960
(dp961
g58
(dp962
g85
g86
ssg67
g951
sg60
(lp963
S':'
asbag53
(g74
g55
NtRp964
(dp965
g58
(dp966
sg67
g951
sg60
(lp967
g53
(g54
g55
NtRp968
(dp969
g58
(dp970
g66
I4
ssg67
g964
sg60
(lp971
g96
asbasbasbag53
(g69
g55
NtRp972
(dp973
g58
(dp974
sg67
g592
sg60
(lp975
g53
(g74
g55
NtRp976
(dp977
g58
(dp978
g78
g79
ssg67
g972
sg60
(lp979
S'is_pypy'
p980
asbag53
(g74
g55
NtRp981
(dp982
g58
(dp983
g85
g86
ssg67
g972
sg60
(lp984
S':'
asbag53
(g74
g55
NtRp985
(dp986
g58
(dp987
sg67
g972
sg60
(lp988
g53
(g54
g55
NtRp989
(dp990
g58
(dp991
g66
I4
ssg67
g985
sg60
(lp992
g96
asbasbasbag53
(g69
g55
NtRp993
(dp994
g58
(dp995
sg67
g592
sg60
(lp996
g53
(g74
g55
NtRp997
(dp998
g58
(dp999
g78
g79
ssg67
g993
sg60
(lp1000
S'path_info'
p1001
asbag53
(g74
g55
NtRp1002
(dp1003
g58
(dp1004
g85
g86
ssg67
g993
sg60
(lp1005
S':'
asbag53
(g74
g55
NtRp1006
(dp1007
g58
(dp1008
sg67
g993
sg60
(lp1009
g53
(g54
g55
NtRp1010
(dp1011
g58
(dp1012
g66
I4
ssg67
g1006
sg60
(lp1013
S'/'
asbasbasbag53
(g69
g55
NtRp1014
(dp1015
g58
(dp1016
sg67
g592
sg60
(lp1017
g53
(g74
g55
NtRp1018
(dp1019
g58
(dp1020
g78
g79
ssg67
g1014
sg60
(lp1021
S'query_string'
p1022
asbag53
(g74
g55
NtRp1023
(dp1024
g58
(dp1025
g85
g86
ssg67
g1014
sg60
(lp1026
S':'
asbag53
(g74
g55
NtRp1027
(dp1028
g58
(dp1029
sg67
g1014
sg60
(lp1030
g53
(g54
g55
NtRp1031
(dp1032
g58
(dp1033
g66
I4
ssg67
g1027
sg60
(lp1034
S''
asbasbasbag53
(g69
g55
NtRp1035
(dp1036
g58
(dp1037
sg67
g592
sg60
(lp1038
g53
(g74
g55
NtRp1039
(dp1040
g58
(dp1041
g78
g79
ssg67
g1035
sg60
(lp1042
S'remote_addr'
p1043
asbag53
(g74
g55
NtRp1044
(dp1045
g58
(dp1046
g85
g86
ssg67
g1035
sg60
(lp1047
S':'
asbag53
(g74
g55
NtRp1048
(dp1049
g58
(dp1050
sg67
g1035
sg60
(lp1051
g53
(g54
g55
NtRp1052
(dp1053
g58
(dp1054
g66
I4
ssg67
g1048
sg60
(lp1055
g186
asbasbasbag53
(g69
g55
NtRp1056
(dp1057
g58
(dp1058
sg67
g592
sg60
(lp1059
g53
(g74
g55
NtRp1060
(dp1061
g58
(dp1062
g78
g79
ssg67
g1056
sg60
(lp1063
S'remote_port'
p1064
asbag53
(g74
g55
NtRp1065
(dp1066
g58
(dp1067
g85
g86
ssg67
g1056
sg60
(lp1068
S':'
asbag53
(g74
g55
NtRp1069
(dp1070
g58
(dp1071
sg67
g1056
sg60
(lp1072
g53
(g54
g55
NtRp1073
(dp1074
g58
(dp1075
g66
I4
ssg67
g1069
sg60
(lp1076
S'51058'
p1077
asbasbasbag53
(g69
g55
NtRp1078
(dp1079
g58
(dp1080
sg67
g592
sg60
(lp1081
g53
(g74
g55
NtRp1082
(dp1083
g58
(dp1084
g78
g79
ssg67
g1078
sg60
(lp1085
S'request_method'
p1086
asbag53
(g74
g55
NtRp1087
(dp1088
g58
(dp1089
g85
g86
ssg67
g1078
sg60
(lp1090
S':'
asbag53
(g74
g55
NtRp1091
(dp1092
g58
(dp1093
sg67
g1078
sg60
(lp1094
g53
(g54
g55
NtRp1095
(dp1096
g58
(dp1097
g66
I4
ssg67
g1091
sg60
(lp1098
S'GET'
p1099
asbasbasbag53
(g69
g55
NtRp1100
(dp1101
g58
(dp1102
sg67
g592
sg60
(lp1103
g53
(g74
g55
NtRp1104
(dp1105
g58
(dp1106
g78
g79
ssg67
g1100
sg60
(lp1107
S'script_name'
p1108
asbag53
(g74
g55
NtRp1109
(dp1110
g58
(dp1111
g85
g86
ssg67
g1100
sg60
(lp1112
S':'
asbag53
(g74
g55
NtRp1113
(dp1114
g58
(dp1115
sg67
g1100
sg60
(lp1116
g53
(g54
g55
NtRp1117
(dp1118
g58
(dp1119
g66
I4
ssg67
g1113
sg60
(lp1120
S''
asbasbasbag53
(g69
g55
NtRp1121
(dp1122
g58
(dp1123
sg67
g592
sg60
(lp1124
g53
(g74
g55
NtRp1125
(dp1126
g58
(dp1127
g78
g79
ssg67
g1121
sg60
(lp1128
S'server_name'
p1129
asbag53
(g74
g55
NtRp1130
(dp1131
g58
(dp1132
g85
g86
ssg67
g1121
sg60
(lp1133
S':'
asbag53
(g74
g55
NtRp1134
(dp1135
g58
(dp1136
sg67
g1121
sg60
(lp1137
g53
(g54
g55
NtRp1138
(dp1139
g58
(dp1140
g66
I4
ssg67
g1134
sg60
(lp1141
S'Batou'
p1142
asbasbasbag53
(g69
g55
NtRp1143
(dp1144
g58
(dp1145
sg67
g592
sg60
(lp1146
g53
(g74
g55
NtRp1147
(dp1148
g58
(dp1149
g78
g79
ssg67
g1143
sg60
(lp1150
S'server_port'
p1151
asbag53
(g74
g55
NtRp1152
(dp1153
g58
(dp1154
g85
g86
ssg67
g1143
sg60
(lp1155
S':'
asbag53
(g74
g55
NtRp1156
(dp1157
g58
(dp1158
sg67
g1143
sg60
(lp1159
g53
(g54
g55
NtRp1160
(dp1161
g58
(dp1162
g66
I4
ssg67
g1156
sg60
(lp1163
S'8000'
p1164
asbasbasbag53
(g69
g55
NtRp1165
(dp1166
g58
(dp1167
sg67
g592
sg60
(lp1168
g53
(g74
g55
NtRp1169
(dp1170
g58
(dp1171
g78
g79
ssg67
g1165
sg60
(lp1172
S'server_protocol'
p1173
asbag53
(g74
g55
NtRp1174
(dp1175
g58
(dp1176
g85
g86
ssg67
g1165
sg60
(lp1177
S':'
asbag53
(g74
g55
NtRp1178
(dp1179
g58
(dp1180
sg67
g1165
sg60
(lp1181
g53
(g54
g55
NtRp1182
(dp1183
g58
(dp1184
g66
I4
ssg67
g1178
sg60
(lp1185
S'HTTP/1.1'
p1186
asbasbasbag53
(g69
g55
NtRp1187
(dp1188
g58
(dp1189
sg67
g592
sg60
(lp1190
g53
(g74
g55
NtRp1191
(dp1192
g58
(dp1193
g78
g79
ssg67
g1187
sg60
(lp1194
S'server_software'
p1195
asbag53
(g74
g55
NtRp1196
(dp1197
g58
(dp1198
g85
g86
ssg67
g1187
sg60
(lp1199
S':'
asbag53
(g74
g55
NtRp1200
(dp1201
g58
(dp1202
sg67
g1187
sg60
(lp1203
g53
(g54
g55
NtRp1204
(dp1205
g58
(dp1206
g66
I4
ssg67
g1200
sg60
(lp1207
S'Rocket 1.2.4'
p1208
asbasbasbag53
(g69
g55
NtRp1209
(dp1210
g58
(dp1211
sg67
g592
sg60
(lp1212
g53
(g74
g55
NtRp1213
(dp1214
g58
(dp1215
g78
g79
ssg67
g1209
sg60
(lp1216
S'web2py_crontype'
p1217
asbag53
(g74
g55
NtRp1218
(dp1219
g58
(dp1220
g85
g86
ssg67
g1209
sg60
(lp1221
S':'
asbag53
(g74
g55
NtRp1222
(dp1223
g58
(dp1224
sg67
g1209
sg60
(lp1225
g53
(g54
g55
NtRp1226
(dp1227
g58
(dp1228
g66
I4
ssg67
g1222
sg60
(lp1229
S'hard'
p1230
asbasbasbag53
(g69
g55
NtRp1231
(dp1232
g58
(dp1233
sg67
g592
sg60
(lp1234
g53
(g74
g55
NtRp1235
(dp1236
g58
(dp1237
g78
g79
ssg67
g1231
sg60
(lp1238
S'web2py_path'
p1239
asbag53
(g74
g55
NtRp1240
(dp1241
g58
(dp1242
g85
g86
ssg67
g1231
sg60
(lp1243
S':'
asbag53
(g74
g55
NtRp1244
(dp1245
g58
(dp1246
sg67
g1231
sg60
(lp1247
g53
(g54
g55
NtRp1248
(dp1249
g58
(dp1250
g66
I4
ssg67
g1244
sg60
(lp1251
g639
asbasbasbag53
(g69
g55
NtRp1252
(dp1253
g58
(dp1254
sg67
g592
sg60
(lp1255
g53
(g74
g55
NtRp1256
(dp1257
g58
(dp1258
g78
g79
ssg67
g1252
sg60
(lp1259
S'web2py_version'
p1260
asbag53
(g74
g55
NtRp1261
(dp1262
g58
(dp1263
g85
g86
ssg67
g1252
sg60
(lp1264
S':'
asbag53
(g74
g55
NtRp1265
(dp1266
g58
(dp1267
sg67
g1252
sg60
(lp1268
g53
(g54
g55
NtRp1269
(dp1270
g58
(dp1271
g66
I4
ssg67
g1265
sg60
(lp1272
g53
(g62
g55
NtRp1273
(dp1274
g58
(dp1275
g66
I3
ssg67
Nsg60
(lp1276
g53
(g69
g55
NtRp1277
(dp1278
g58
(dp1279
sg67
g1273
sg60
(lp1280
g53
(g74
g55
NtRp1281
(dp1282
g58
(dp1283
sg67
g1277
sg60
(lp1284
g53
(g54
g55
NtRp1285
(dp1286
g58
(dp1287
g66
I3
ssg67
g1281
sg60
(lp1288
S'1'
asbasbasbag53
(g69
g55
NtRp1289
(dp1290
g58
(dp1291
sg67
g1273
sg60
(lp1292
g53
(g74
g55
NtRp1293
(dp1294
g58
(dp1295
sg67
g1289
sg60
(lp1296
g53
(g54
g55
NtRp1297
(dp1298
g58
(dp1299
g66
I3
ssg67
g1293
sg60
(lp1300
S'99'
p1301
asbasbasbag53
(g69
g55
NtRp1302
(dp1303
g58
(dp1304
sg67
g1273
sg60
(lp1305
g53
(g74
g55
NtRp1306
(dp1307
g58
(dp1308
sg67
g1302
sg60
(lp1309
g53
(g54
g55
NtRp1310
(dp1311
g58
(dp1312
g66
I3
ssg67
g1306
sg60
(lp1313
S'7'
asbasbasbag53
(g69
g55
NtRp1314
(dp1315
g58
(dp1316
sg67
g1273
sg60
(lp1317
g53
(g74
g55
NtRp1318
(dp1319
g58
(dp1320
sg67
g1314
sg60
(lp1321
g53
(g54
g55
NtRp1322
(dp1323
g58
(dp1324
g66
I3
ssg67
g1318
sg60
(lp1325
S'datetime.datetime(2012, 3, 4, 22, 12, 8)'
p1326
asbasbasbag53
(g69
g55
NtRp1327
(dp1328
g58
(dp1329
sg67
g1273
sg60
(lp1330
g53
(g74
g55
NtRp1331
(dp1332
g58
(dp1333
sg67
g1327
sg60
(lp1334
g53
(g54
g55
NtRp1335
(dp1336
g58
(dp1337
g66
I3
ssg67
g1331
sg60
(lp1338
S'stable'
p1339
asbasbasbasbasbasbasbag53
(g69
g55
NtRp1340
(dp1341
g58
(dp1342
sg67
g592
sg60
(lp1343
g53
(g74
g55
NtRp1344
(dp1345
g58
(dp1346
g78
g79
ssg67
g1340
sg60
(lp1347
S'wsgi_errors'
p1348
asbag53
(g74
g55
NtRp1349
(dp1350
g58
(dp1351
g85
g86
ssg67
g1340
sg60
(lp1352
S':'
asbag53
(g74
g55
NtRp1353
(dp1354
g58
(dp1355
sg67
g1340
sg60
(lp1356
g53
(g54
g55
NtRp1357
(dp1358
g58
(dp1359
g66
I4
ssg67
g1353
sg60
(lp1360
S"<open file '<stderr>', mode 'w' at 0x004200B0>"
p1361
asbasbasbag53
(g69
g55
NtRp1362
(dp1363
g58
(dp1364
sg67
g592
sg60
(lp1365
g53
(g74
g55
NtRp1366
(dp1367
g58
(dp1368
g78
g79
ssg67
g1362
sg60
(lp1369
S'wsgi_file_wrapper'
p1370
asbag53
(g74
g55
NtRp1371
(dp1372
g58
(dp1373
g85
g86
ssg67
g1362
sg60
(lp1374
S':'
asbag53
(g74
g55
NtRp1375
(dp1376
g58
(dp1377
sg67
g1362
sg60
(lp1378
g53
(g54
g55
NtRp1379
(dp1380
g58
(dp1381
g66
I4
ssg67
g1375
sg60
(lp1382
S'<class wsgiref.util.FileWrapper at 0x02B168D0>'
p1383
asbasbasbag53
(g69
g55
NtRp1384
(dp1385
g58
(dp1386
sg67
g592
sg60
(lp1387
g53
(g74
g55
NtRp1388
(dp1389
g58
(dp1390
g78
g79
ssg67
g1384
sg60
(lp1391
S'wsgi_input'
p1392
asbag53
(g74
g55
NtRp1393
(dp1394
g58
(dp1395
g85
g86
ssg67
g1384
sg60
(lp1396
S':'
asbag53
(g74
g55
NtRp1397
(dp1398
g58
(dp1399
sg67
g1384
sg60
(lp1400
g53
(g54
g55
NtRp1401
(dp1402
g58
(dp1403
g66
I4
ssg67
g1397
sg60
(lp1404
S'<socket._fileobject object at 0x04385770>'
p1405
asbasbasbag53
(g69
g55
NtRp1406
(dp1407
g58
(dp1408
sg67
g592
sg60
(lp1409
g53
(g74
g55
NtRp1410
(dp1411
g58
(dp1412
g78
g79
ssg67
g1406
sg60
(lp1413
S'wsgi_multiprocess'
p1414
asbag53
(g74
g55
NtRp1415
(dp1416
g58
(dp1417
g85
g86
ssg67
g1406
sg60
(lp1418
S':'
asbag53
(g74
g55
NtRp1419
(dp1420
g58
(dp1421
sg67
g1406
sg60
(lp1422
g53
(g54
g55
NtRp1423
(dp1424
g58
(dp1425
g66
I4
ssg67
g1419
sg60
(lp1426
g96
asbasbasbag53
(g69
g55
NtRp1427
(dp1428
g58
(dp1429
sg67
g592
sg60
(lp1430
g53
(g74
g55
NtRp1431
(dp1432
g58
(dp1433
g78
g79
ssg67
g1427
sg60
(lp1434
S'wsgi_multithread'
p1435
asbag53
(g74
g55
NtRp1436
(dp1437
g58
(dp1438
g85
g86
ssg67
g1427
sg60
(lp1439
S':'
asbag53
(g74
g55
NtRp1440
(dp1441
g58
(dp1442
sg67
g1427
sg60
(lp1443
g53
(g54
g55
NtRp1444
(dp1445
g58
(dp1446
g66
I4
ssg67
g1440
sg60
(lp1447
g730
asbasbasbag53
(g69
g55
NtRp1448
(dp1449
g58
(dp1450
sg67
g592
sg60
(lp1451
g53
(g74
g55
NtRp1452
(dp1453
g58
(dp1454
g78
g79
ssg67
g1448
sg60
(lp1455
S'wsgi_run_once'
p1456
asbag53
(g74
g55
NtRp1457
(dp1458
g58
(dp1459
g85
g86
ssg67
g1448
sg60
(lp1460
S':'
asbag53
(g74
g55
NtRp1461
(dp1462
g58
(dp1463
sg67
g1448
sg60
(lp1464
g53
(g54
g55
NtRp1465
(dp1466
g58
(dp1467
g66
I4
ssg67
g1461
sg60
(lp1468
g96
asbasbasbag53
(g69
g55
NtRp1469
(dp1470
g58
(dp1471
sg67
g592
sg60
(lp1472
g53
(g74
g55
NtRp1473
(dp1474
g58
(dp1475
g78
g79
ssg67
g1469
sg60
(lp1476
S'wsgi_url_scheme'
p1477
asbag53
(g74
g55
NtRp1478
(dp1479
g58
(dp1480
g85
g86
ssg67
g1469
sg60
(lp1481
S':'
asbag53
(g74
g55
NtRp1482
(dp1483
g58
(dp1484
sg67
g1469
sg60
(lp1485
g53
(g54
g55
NtRp1486
(dp1487
g58
(dp1488
g66
I4
ssg67
g1482
sg60
(lp1489
S'http'
p1490
asbasbasbag53
(g69
g55
NtRp1491
(dp1492
g58
(dp1493
sg67
g592
sg60
(lp1494
g53
(g74
g55
NtRp1495
(dp1496
g58
(dp1497
g78
g79
ssg67
g1491
sg60
(lp1498
S'wsgi_version'
p1499
asbag53
(g74
g55
NtRp1500
(dp1501
g58
(dp1502
g85
g86
ssg67
g1491
sg60
(lp1503
S':'
asbag53
(g74
g55
NtRp1504
(dp1505
g58
(dp1506
sg67
g1491
sg60
(lp1507
g53
(g54
g55
NtRp1508
(dp1509
g58
(dp1510
g66
I4
ssg67
g1504
sg60
(lp1511
g53
(g62
g55
NtRp1512
(dp1513
g58
(dp1514
g66
I3
ssg67
Nsg60
(lp1515
g53
(g69
g55
NtRp1516
(dp1517
g58
(dp1518
sg67
g1512
sg60
(lp1519
g53
(g74
g55
NtRp1520
(dp1521
g58
(dp1522
sg67
g1516
sg60
(lp1523
g53
(g54
g55
NtRp1524
(dp1525
g58
(dp1526
g66
I3
ssg67
g1520
sg60
(lp1527
S'1'
asbasbasbag53
(g69
g55
NtRp1528
(dp1529
g58
(dp1530
sg67
g1512
sg60
(lp1531
g53
(g74
g55
NtRp1532
(dp1533
g58
(dp1534
sg67
g1528
sg60
(lp1535
g53
(g54
g55
NtRp1536
(dp1537
g58
(dp1538
g66
I3
ssg67
g1532
sg60
(lp1539
S'0'
asbasbasbasbasbasbasbasbasbasbasbag53
(g69
g55
NtRp1540
(dp1541
g58
(dp1542
sg67
g63
sg60
(lp1543
g53
(g74
g55
NtRp1544
(dp1545
g58
(dp1546
g78
g79
ssg67
g1540
sg60
(lp1547
S'extension'
p1548
asbag53
(g74
g55
NtRp1549
(dp1550
g58
(dp1551
g85
g86
ssg67
g1540
sg60
(lp1552
S':'
asbag53
(g74
g55
NtRp1553
(dp1554
g58
(dp1555
sg67
g1540
sg60
(lp1556
g53
(g54
g55
NtRp1557
(dp1558
g58
(dp1559
g66
I5
ssg67
g1553
sg60
(lp1560
S'html'
p1561
asbasbasbag53
(g69
g55
NtRp1562
(dp1563
g58
(dp1564
sg67
g63
sg60
(lp1565
g53
(g74
g55
NtRp1566
(dp1567
g58
(dp1568
g78
g79
ssg67
g1562
sg60
(lp1569
S'folder'
p1570
asbag53
(g74
g55
NtRp1571
(dp1572
g58
(dp1573
g85
g86
ssg67
g1562
sg60
(lp1574
S':'
asbag53
(g74
g55
NtRp1575
(dp1576
g58
(dp1577
sg67
g1562
sg60
(lp1578
g53
(g54
g55
NtRp1579
(dp1580
g58
(dp1581
g66
I5
ssg67
g1575
sg60
(lp1582
S'C:\\Users\\Bussiere\\Dropbox\\Projets\\Yuki\\web2py\\applications\\init\\'
p1583
asbasbasbag53
(g69
g55
NtRp1584
(dp1585
g58
(dp1586
sg67
g63
sg60
(lp1587
g53
(g74
g55
NtRp1588
(dp1589
g58
(dp1590
g78
g79
ssg67
g1584
sg60
(lp1591
S'function'
p1592
asbag53
(g74
g55
NtRp1593
(dp1594
g58
(dp1595
g85
g86
ssg67
g1584
sg60
(lp1596
S':'
asbag53
(g74
g55
NtRp1597
(dp1598
g58
(dp1599
sg67
g1584
sg60
(lp1600
g53
(g54
g55
NtRp1601
(dp1602
g58
(dp1603
g66
I5
ssg67
g1597
sg60
(lp1604
S'index'
p1605
asbasbasbag53
(g69
g55
NtRp1606
(dp1607
g58
(dp1608
sg67
g63
sg60
(lp1609
g53
(g74
g55
NtRp1610
(dp1611
g58
(dp1612
g78
g79
ssg67
g1606
sg60
(lp1613
S'get_vars'
p1614
asbag53
(g74
g55
NtRp1615
(dp1616
g58
(dp1617
g85
g86
ssg67
g1606
sg60
(lp1618
S':'
asbag53
(g74
g55
NtRp1619
(dp1620
g58
(dp1621
sg67
g1606
sg60
(lp1622
g53
(g54
g55
NtRp1623
(dp1624
g58
(dp1625
g66
I5
ssg67
g1619
sg60
(lp1626
g53
(g62
g55
NtRp1627
(dp1628
g58
(dp1629
g66
I4
ssg67
Nsg60
(lp1630
sbasbasbasbag53
(g69
g55
NtRp1631
(dp1632
g58
(dp1633
sg67
g63
sg60
(lp1634
g53
(g74
g55
NtRp1635
(dp1636
g58
(dp1637
g78
g79
ssg67
g1631
sg60
(lp1638
S'global_settings'
p1639
asbag53
(g74
g55
NtRp1640
(dp1641
g58
(dp1642
g85
g86
ssg67
g1631
sg60
(lp1643
S':'
asbag53
(g74
g55
NtRp1644
(dp1645
g58
(dp1646
sg67
g1631
sg60
(lp1647
g53
(g54
g55
NtRp1648
(dp1649
g58
(dp1650
g66
I5
ssg67
g1644
sg60
(lp1651
g53
(g62
g55
NtRp1652
(dp1653
g58
(dp1654
g66
I4
ssg67
Nsg60
(lp1655
g53
(g69
g55
NtRp1656
(dp1657
g58
(dp1658
sg67
g1652
sg60
(lp1659
g53
(g74
g55
NtRp1660
(dp1661
g58
(dp1662
g78
g79
ssg67
g1656
sg60
(lp1663
g604
asbag53
(g74
g55
NtRp1664
(dp1665
g58
(dp1666
g85
g86
ssg67
g1656
sg60
(lp1667
S':'
asbag53
(g74
g55
NtRp1668
(dp1669
g58
(dp1670
sg67
g1656
sg60
(lp1671
g53
(g54
g55
NtRp1672
(dp1673
g58
(dp1674
g66
I4
ssg67
g1668
sg60
(lp1675
S"set(['C:\\\\Users\\\\Bussiere\\\\Dropbox\\\\Projets\\\\Yuki\\\\web2py\\\\applications\\\\init\\\\', 'C:\\\\Users\\\\Bussiere\\\\Dropbox\\\\Projets\\\\Yuki\\\\web2py\\\\applications\\\\admin\\\\'])"
p1676
asbasbasbag53
(g69
g55
NtRp1677
(dp1678
g58
(dp1679
sg67
g1652
sg60
(lp1680
g53
(g74
g55
NtRp1681
(dp1682
g58
(dp1683
g78
g79
ssg67
g1677
sg60
(lp1684
g626
asbag53
(g74
g55
NtRp1685
(dp1686
g58
(dp1687
g85
g86
ssg67
g1677
sg60
(lp1688
S':'
asbag53
(g74
g55
NtRp1689
(dp1690
g58
(dp1691
sg67
g1677
sg60
(lp1692
g53
(g54
g55
NtRp1693
(dp1694
g58
(dp1695
g66
I4
ssg67
g1689
sg60
(lp1696
g639
asbasbasbag53
(g69
g55
NtRp1697
(dp1698
g58
(dp1699
sg67
g1652
sg60
(lp1700
g53
(g74
g55
NtRp1701
(dp1702
g58
(dp1703
g78
g79
ssg67
g1697
sg60
(lp1704
g648
asbag53
(g74
g55
NtRp1705
(dp1706
g58
(dp1707
g85
g86
ssg67
g1697
sg60
(lp1708
S':'
asbag53
(g74
g55
NtRp1709
(dp1710
g58
(dp1711
sg67
g1697
sg60
(lp1712
g53
(g54
g55
NtRp1713
(dp1714
g58
(dp1715
g66
I4
ssg67
g1709
sg60
(lp1716
g53
(g62
g55
NtRp1717
(dp1718
g58
(dp1719
g66
I3
ssg67
Nsg60
(lp1720
sbasbasbasbag53
(g69
g55
NtRp1721
(dp1722
g58
(dp1723
sg67
g1652
sg60
(lp1724
g53
(g74
g55
NtRp1725
(dp1726
g58
(dp1727
g78
g79
ssg67
g1721
sg60
(lp1728
g673
asbag53
(g74
g55
NtRp1729
(dp1730
g58
(dp1731
g85
g86
ssg67
g1721
sg60
(lp1732
S':'
asbag53
(g74
g55
NtRp1733
(dp1734
g58
(dp1735
sg67
g1721
sg60
(lp1736
g53
(g54
g55
NtRp1737
(dp1738
g58
(dp1739
g66
I4
ssg67
g1733
sg60
(lp1740
S"<Values at 0x3c04f58: {'verbose': False, 'ip': '127.0.0.1', 'shutdown_timeout': 5, 'taskbar': False, 'nocron': False, 'pid_filename': 'httpserver.pid', 'maxthreads': None, 'softcron': False, 'server_name': 'Batou', 'bpython': False, 'nogui': False, 'port': 8000, 'extcron': False, 'debuglevel': 30, 'test': None, 'folder': 'C:\\\\Users\\\\Bussiere\\\\Dropbox\\\\Projets\\\\Yuki\\\\web2py', 'config': '', 'import_models': False, 'winservice': '', 'shell': None, 'run': '', 'log_filename': 'httpserver.log', 'args': [''], 'socket_timeout': 5, 'ssl_ca_certificate': None, 'scheduler': None, 'profiler_filename': None, 'ssl_private_key': '', 'password': '<ask>', 'request_queue_size': 5, 'ssl_certificate': '', 'cronjob': False, 'numthreads': None, 'quiet': False, 'interfaces': None, 'minthreads': None, 'timeout': 10, 'plain': False, 'nobanner': False}>"
p1741
asbasbasbag53
(g69
g55
NtRp1742
(dp1743
g58
(dp1744
sg67
g1652
sg60
(lp1745
g53
(g74
g55
NtRp1746
(dp1747
g58
(dp1748
g78
g79
ssg67
g1742
sg60
(lp1749
g695
asbag53
(g74
g55
NtRp1750
(dp1751
g58
(dp1752
g85
g86
ssg67
g1742
sg60
(lp1753
S':'
asbag53
(g74
g55
NtRp1754
(dp1755
g58
(dp1756
sg67
g1742
sg60
(lp1757
g53
(g54
g55
NtRp1758
(dp1759
g58
(dp1760
g66
I4
ssg67
g1754
sg60
(lp1761
S'set([])'
p1762
asbasbasbag53
(g69
g55
NtRp1763
(dp1764
g58
(dp1765
sg67
g1652
sg60
(lp1766
g53
(g74
g55
NtRp1767
(dp1768
g58
(dp1769
g78
g79
ssg67
g1763
sg60
(lp1770
g717
asbag53
(g74
g55
NtRp1771
(dp1772
g58
(dp1773
g85
g86
ssg67
g1763
sg60
(lp1774
S':'
asbag53
(g74
g55
NtRp1775
(dp1776
g58
(dp1777
sg67
g1763
sg60
(lp1778
g53
(g54
g55
NtRp1779
(dp1780
g58
(dp1781
g66
I4
ssg67
g1775
sg60
(lp1782
g730
asbasbasbag53
(g69
g55
NtRp1783
(dp1784
g58
(dp1785
sg67
g1652
sg60
(lp1786
g53
(g74
g55
NtRp1787
(dp1788
g58
(dp1789
g78
g79
ssg67
g1783
sg60
(lp1790
g739
asbag53
(g74
g55
NtRp1791
(dp1792
g58
(dp1793
g85
g86
ssg67
g1783
sg60
(lp1794
S':'
asbag53
(g74
g55
NtRp1795
(dp1796
g58
(dp1797
sg67
g1783
sg60
(lp1798
g53
(g54
g55
NtRp1799
(dp1800
g58
(dp1801
g66
I4
ssg67
g1795
sg60
(lp1802
g752
asbasbasbag53
(g69
g55
NtRp1803
(dp1804
g58
(dp1805
sg67
g1652
sg60
(lp1806
g53
(g74
g55
NtRp1807
(dp1808
g58
(dp1809
g78
g79
ssg67
g1803
sg60
(lp1810
g959
asbag53
(g74
g55
NtRp1811
(dp1812
g58
(dp1813
g85
g86
ssg67
g1803
sg60
(lp1814
S':'
asbag53
(g74
g55
NtRp1815
(dp1816
g58
(dp1817
sg67
g1803
sg60
(lp1818
g53
(g54
g55
NtRp1819
(dp1820
g58
(dp1821
g66
I4
ssg67
g1815
sg60
(lp1822
g96
asbasbasbag53
(g69
g55
NtRp1823
(dp1824
g58
(dp1825
sg67
g1652
sg60
(lp1826
g53
(g74
g55
NtRp1827
(dp1828
g58
(dp1829
g78
g79
ssg67
g1823
sg60
(lp1830
g980
asbag53
(g74
g55
NtRp1831
(dp1832
g58
(dp1833
g85
g86
ssg67
g1823
sg60
(lp1834
S':'
asbag53
(g74
g55
NtRp1835
(dp1836
g58
(dp1837
sg67
g1823
sg60
(lp1838
g53
(g54
g55
NtRp1839
(dp1840
g58
(dp1841
g66
I4
ssg67
g1835
sg60
(lp1842
g96
asbasbasbag53
(g69
g55
NtRp1843
(dp1844
g58
(dp1845
sg67
g1652
sg60
(lp1846
g53
(g74
g55
NtRp1847
(dp1848
g58
(dp1849
g78
g79
ssg67
g1843
sg60
(lp1850
g1217
asbag53
(g74
g55
NtRp1851
(dp1852
g58
(dp1853
g85
g86
ssg67
g1843
sg60
(lp1854
S':'
asbag53
(g74
g55
NtRp1855
(dp1856
g58
(dp1857
sg67
g1843
sg60
(lp1858
g53
(g54
g55
NtRp1859
(dp1860
g58
(dp1861
g66
I4
ssg67
g1855
sg60
(lp1862
g1230
asbasbasbag53
(g69
g55
NtRp1863
(dp1864
g58
(dp1865
sg67
g1652
sg60
(lp1866
g53
(g74
g55
NtRp1867
(dp1868
g58
(dp1869
g78
g79
ssg67
g1863
sg60
(lp1870
g1260
asbag53
(g74
g55
NtRp1871
(dp1872
g58
(dp1873
g85
g86
ssg67
g1863
sg60
(lp1874
S':'
asbag53
(g74
g55
NtRp1875
(dp1876
g58
(dp1877
sg67
g1863
sg60
(lp1878
g53
(g54
g55
NtRp1879
(dp1880
g58
(dp1881
g66
I4
ssg67
g1875
sg60
(lp1882
g53
(g62
g55
NtRp1883
(dp1884
g58
(dp1885
g66
I3
ssg67
Nsg60
(lp1886
g53
(g69
g55
NtRp1887
(dp1888
g58
(dp1889
sg67
g1883
sg60
(lp1890
g53
(g74
g55
NtRp1891
(dp1892
g58
(dp1893
sg67
g1887
sg60
(lp1894
g53
(g54
g55
NtRp1895
(dp1896
g58
(dp1897
g66
I3
ssg67
g1891
sg60
(lp1898
S'1'
asbasbasbag53
(g69
g55
NtRp1899
(dp1900
g58
(dp1901
sg67
g1883
sg60
(lp1902
g53
(g74
g55
NtRp1903
(dp1904
g58
(dp1905
sg67
g1899
sg60
(lp1906
g53
(g54
g55
NtRp1907
(dp1908
g58
(dp1909
g66
I3
ssg67
g1903
sg60
(lp1910
S'99'
p1911
asbasbasbag53
(g69
g55
NtRp1912
(dp1913
g58
(dp1914
sg67
g1883
sg60
(lp1915
g53
(g74
g55
NtRp1916
(dp1917
g58
(dp1918
sg67
g1912
sg60
(lp1919
g53
(g54
g55
NtRp1920
(dp1921
g58
(dp1922
g66
I3
ssg67
g1916
sg60
(lp1923
S'7'
asbasbasbag53
(g69
g55
NtRp1924
(dp1925
g58
(dp1926
sg67
g1883
sg60
(lp1927
g53
(g74
g55
NtRp1928
(dp1929
g58
(dp1930
sg67
g1924
sg60
(lp1931
g53
(g54
g55
NtRp1932
(dp1933
g58
(dp1934
g66
I3
ssg67
g1928
sg60
(lp1935
S'datetime.datetime(2012, 3, 4, 22, 12, 8)'
p1936
asbasbasbag53
(g69
g55
NtRp1937
(dp1938
g58
(dp1939
sg67
g1883
sg60
(lp1940
g53
(g74
g55
NtRp1941
(dp1942
g58
(dp1943
sg67
g1937
sg60
(lp1944
g53
(g54
g55
NtRp1945
(dp1946
g58
(dp1947
g66
I3
ssg67
g1941
sg60
(lp1948
g1339
asbasbasbasbasbasbasbasbasbasbasbag53
(g69
g55
NtRp1949
(dp1950
g58
(dp1951
sg67
g63
sg60
(lp1952
g53
(g74
g55
NtRp1953
(dp1954
g58
(dp1955
g78
g79
ssg67
g1949
sg60
(lp1956
S'is_https'
p1957
asbag53
(g74
g55
NtRp1958
(dp1959
g58
(dp1960
g85
g86
ssg67
g1949
sg60
(lp1961
S':'
asbag53
(g74
g55
NtRp1962
(dp1963
g58
(dp1964
sg67
g1949
sg60
(lp1965
g53
(g54
g55
NtRp1966
(dp1967
g58
(dp1968
g66
I5
ssg67
g1962
sg60
(lp1969
g96
asbasbasbag53
(g69
g55
NtRp1970
(dp1971
g58
(dp1972
sg67
g63
sg60
(lp1973
g53
(g74
g55
NtRp1974
(dp1975
g58
(dp1976
g78
g79
ssg67
g1970
sg60
(lp1977
S'is_local'
p1978
asbag53
(g74
g55
NtRp1979
(dp1980
g58
(dp1981
g85
g86
ssg67
g1970
sg60
(lp1982
S':'
asbag53
(g74
g55
NtRp1983
(dp1984
g58
(dp1985
sg67
g1970
sg60
(lp1986
g53
(g54
g55
NtRp1987
(dp1988
g58
(dp1989
g66
I5
ssg67
g1983
sg60
(lp1990
g730
asbasbasbag53
(g69
g55
NtRp1991
(dp1992
g58
(dp1993
sg67
g63
sg60
(lp1994
g53
(g74
g55
NtRp1995
(dp1996
g58
(dp1997
g78
g79
ssg67
g1991
sg60
(lp1998
S'is_restful'
p1999
asbag53
(g74
g55
NtRp2000
(dp2001
g58
(dp2002
g85
g86
ssg67
g1991
sg60
(lp2003
S':'
asbag53
(g74
g55
NtRp2004
(dp2005
g58
(dp2006
sg67
g1991
sg60
(lp2007
g53
(g54
g55
NtRp2008
(dp2009
g58
(dp2010
g66
I5
ssg67
g2004
sg60
(lp2011
g96
asbasbasbag53
(g69
g55
NtRp2012
(dp2013
g58
(dp2014
sg67
g63
sg60
(lp2015
g53
(g74
g55
NtRp2016
(dp2017
g58
(dp2018
g78
g79
ssg67
g2012
sg60
(lp2019
S'now'
p2020
asbag53
(g74
g55
NtRp2021
(dp2022
g58
(dp2023
g85
g86
ssg67
g2012
sg60
(lp2024
S':'
asbag53
(g74
g55
NtRp2025
(dp2026
g58
(dp2027
sg67
g2012
sg60
(lp2028
g53
(g54
g55
NtRp2029
(dp2030
g58
(dp2031
g66
I5
ssg67
g2025
sg60
(lp2032
S'datetime.datetime(2012, 3, 13, 5, 45, 56, 757000)'
p2033
asbasbasbag53
(g69
g55
NtRp2034
(dp2035
g58
(dp2036
sg67
g63
sg60
(lp2037
g53
(g74
g55
NtRp2038
(dp2039
g58
(dp2040
g78
g79
ssg67
g2034
sg60
(lp2041
S'post_vars'
p2042
asbag53
(g74
g55
NtRp2043
(dp2044
g58
(dp2045
g85
g86
ssg67
g2034
sg60
(lp2046
S':'
asbag53
(g74
g55
NtRp2047
(dp2048
g58
(dp2049
sg67
g2034
sg60
(lp2050
g53
(g54
g55
NtRp2051
(dp2052
g58
(dp2053
g66
I5
ssg67
g2047
sg60
(lp2054
g53
(g62
g55
NtRp2055
(dp2056
g58
(dp2057
g66
I4
ssg67
Nsg60
(lp2058
sbasbasbasbag53
(g69
g55
NtRp2059
(dp2060
g58
(dp2061
sg67
g63
sg60
(lp2062
g53
(g74
g55
NtRp2063
(dp2064
g58
(dp2065
g78
g79
ssg67
g2059
sg60
(lp2066
S'url'
p2067
asbag53
(g74
g55
NtRp2068
(dp2069
g58
(dp2070
g85
g86
ssg67
g2059
sg60
(lp2071
S':'
asbag53
(g74
g55
NtRp2072
(dp2073
g58
(dp2074
sg67
g2059
sg60
(lp2075
g53
(g54
g55
NtRp2076
(dp2077
g58
(dp2078
g66
I5
ssg67
g2072
sg60
(lp2079
S'/init/default/index'
p2080
asbasbasbag53
(g69
g55
NtRp2081
(dp2082
g58
(dp2083
sg67
g63
sg60
(lp2084
g53
(g74
g55
NtRp2085
(dp2086
g58
(dp2087
g78
g79
ssg67
g2081
sg60
(lp2088
S'utcnow'
p2089
asbag53
(g74
g55
NtRp2090
(dp2091
g58
(dp2092
g85
g86
ssg67
g2081
sg60
(lp2093
S':'
asbag53
(g74
g55
NtRp2094
(dp2095
g58
(dp2096
sg67
g2081
sg60
(lp2097
g53
(g54
g55
NtRp2098
(dp2099
g58
(dp2100
g66
I5
ssg67
g2094
sg60
(lp2101
S'datetime.datetime(2012, 3, 13, 4, 45, 56, 757000)'
p2102
asbasbasbag53
(g69
g55
NtRp2103
(dp2104
g58
(dp2105
sg67
g63
sg60
(lp2106
g53
(g74
g55
NtRp2107
(dp2108
g58
(dp2109
g78
g79
ssg67
g2103
sg60
(lp2110
S'uuid'
p2111
asbag53
(g74
g55
NtRp2112
(dp2113
g58
(dp2114
g85
g86
ssg67
g2103
sg60
(lp2115
S':'
asbag53
(g74
g55
NtRp2116
(dp2117
g58
(dp2118
sg67
g2103
sg60
(lp2119
g53
(g54
g55
NtRp2120
(dp2121
g58
(dp2122
g66
I5
ssg67
g2116
sg60
(lp2123
S'init/127.0.0.1.2012-03-13.05-45-56.942b265d-34ac-492a-8b1a-a314d40c01e1'
p2124
asbasbasbag53
(g69
g55
NtRp2125
(dp2126
g58
(dp2127
sg67
g63
sg60
(lp2128
g53
(g74
g55
NtRp2129
(dp2130
g58
(dp2131
g78
g79
ssg67
g2125
sg60
(lp2132
S'vars'
p2133
asbag53
(g74
g55
NtRp2134
(dp2135
g58
(dp2136
g85
g86
ssg67
g2125
sg60
(lp2137
S':'
asbag53
(g74
g55
NtRp2138
(dp2139
g58
(dp2140
sg67
g2125
sg60
(lp2141
g53
(g54
g55
NtRp2142
(dp2143
g58
(dp2144
g66
I5
ssg67
g2138
sg60
(lp2145
g53
(g62
g55
NtRp2146
(dp2147
g58
(dp2148
g66
I4
ssg67
Nsg60
(lp2149
sbasbasbasbag53
(g69
g55
NtRp2150
(dp2151
g58
(dp2152
sg67
g63
sg60
(lp2153
g53
(g74
g55
NtRp2154
(dp2155
g58
(dp2156
g78
g79
ssg67
g2150
sg60
(lp2157
S'wsgi'
p2158
asbag53
(g74
g55
NtRp2159
(dp2160
g58
(dp2161
g85
g86
ssg67
g2150
sg60
(lp2162
S':'
asbag53
(g74
g55
NtRp2163
(dp2164
g58
(dp2165
sg67
g2150
sg60
(lp2166
g53
(g54
g55
NtRp2167
(dp2168
g58
(dp2169
g66
I5
ssg67
g2163
sg60
(lp2170
g53
(g62
g55
NtRp2171
(dp2172
g58
(dp2173
g66
I4
ssg67
Nsg60
(lp2174
g53
(g69
g55
NtRp2175
(dp2176
g58
(dp2177
sg67
g2171
sg60
(lp2178
g53
(g74
g55
NtRp2179
(dp2180
g58
(dp2181
g78
g79
ssg67
g2175
sg60
(lp2182
S'environ'
p2183
asbag53
(g74
g55
NtRp2184
(dp2185
g58
(dp2186
g85
g86
ssg67
g2175
sg60
(lp2187
S':'
asbag53
(g74
g55
NtRp2188
(dp2189
g58
(dp2190
sg67
g2175
sg60
(lp2191
g53
(g54
g55
NtRp2192
(dp2193
g58
(dp2194
g66
I4
ssg67
g2188
sg60
(lp2195
g53
(g62
g55
NtRp2196
(dp2197
g58
(dp2198
g66
I3
ssg67
Nsg60
(lp2199
g53
(g69
g55
NtRp2200
(dp2201
g58
(dp2202
sg67
g2196
sg60
(lp2203
g53
(g74
g55
NtRp2204
(dp2205
g58
(dp2206
g78
g79
ssg67
g2200
sg60
(lp2207
S'HTTP_ACCEPT'
p2208
asbag53
(g74
g55
NtRp2209
(dp2210
g58
(dp2211
g85
g86
ssg67
g2200
sg60
(lp2212
S':'
asbag53
(g74
g55
NtRp2213
(dp2214
g58
(dp2215
sg67
g2200
sg60
(lp2216
g53
(g54
g55
NtRp2217
(dp2218
g58
(dp2219
g66
I3
ssg67
g2213
sg60
(lp2220
g774
asbasbasbag53
(g69
g55
NtRp2221
(dp2222
g58
(dp2223
sg67
g2196
sg60
(lp2224
g53
(g74
g55
NtRp2225
(dp2226
g58
(dp2227
g78
g79
ssg67
g2221
sg60
(lp2228
S'HTTP_ACCEPT_CHARSET'
p2229
asbag53
(g74
g55
NtRp2230
(dp2231
g58
(dp2232
g85
g86
ssg67
g2221
sg60
(lp2233
S':'
asbag53
(g74
g55
NtRp2234
(dp2235
g58
(dp2236
sg67
g2221
sg60
(lp2237
g53
(g54
g55
NtRp2238
(dp2239
g58
(dp2240
g66
I3
ssg67
g2234
sg60
(lp2241
g796
asbasbasbag53
(g69
g55
NtRp2242
(dp2243
g58
(dp2244
sg67
g2196
sg60
(lp2245
g53
(g74
g55
NtRp2246
(dp2247
g58
(dp2248
g78
g79
ssg67
g2242
sg60
(lp2249
S'HTTP_ACCEPT_ENCODING'
p2250
asbag53
(g74
g55
NtRp2251
(dp2252
g58
(dp2253
g85
g86
ssg67
g2242
sg60
(lp2254
S':'
asbag53
(g74
g55
NtRp2255
(dp2256
g58
(dp2257
sg67
g2242
sg60
(lp2258
g53
(g54
g55
NtRp2259
(dp2260
g58
(dp2261
g66
I3
ssg67
g2255
sg60
(lp2262
g818
asbasbasbag53
(g69
g55
NtRp2263
(dp2264
g58
(dp2265
sg67
g2196
sg60
(lp2266
g53
(g74
g55
NtRp2267
(dp2268
g58
(dp2269
g78
g79
ssg67
g2263
sg60
(lp2270
S'HTTP_ACCEPT_LANGUAGE'
p2271
asbag53
(g74
g55
NtRp2272
(dp2273
g58
(dp2274
g85
g86
ssg67
g2263
sg60
(lp2275
S':'
asbag53
(g74
g55
NtRp2276
(dp2277
g58
(dp2278
sg67
g2263
sg60
(lp2279
g53
(g54
g55
NtRp2280
(dp2281
g58
(dp2282
g66
I3
ssg67
g2276
sg60
(lp2283
g840
asbasbasbag53
(g69
g55
NtRp2284
(dp2285
g58
(dp2286
sg67
g2196
sg60
(lp2287
g53
(g74
g55
NtRp2288
(dp2289
g58
(dp2290
g78
g79
ssg67
g2284
sg60
(lp2291
S'HTTP_CACHE_CONTROL'
p2292
asbag53
(g74
g55
NtRp2293
(dp2294
g58
(dp2295
g85
g86
ssg67
g2284
sg60
(lp2296
S':'
asbag53
(g74
g55
NtRp2297
(dp2298
g58
(dp2299
sg67
g2284
sg60
(lp2300
g53
(g54
g55
NtRp2301
(dp2302
g58
(dp2303
g66
I3
ssg67
g2297
sg60
(lp2304
g862
asbasbasbag53
(g69
g55
NtRp2305
(dp2306
g58
(dp2307
sg67
g2196
sg60
(lp2308
g53
(g74
g55
NtRp2309
(dp2310
g58
(dp2311
g78
g79
ssg67
g2305
sg60
(lp2312
S'HTTP_CONNECTION'
p2313
asbag53
(g74
g55
NtRp2314
(dp2315
g58
(dp2316
g85
g86
ssg67
g2305
sg60
(lp2317
S':'
asbag53
(g74
g55
NtRp2318
(dp2319
g58
(dp2320
sg67
g2305
sg60
(lp2321
g53
(g54
g55
NtRp2322
(dp2323
g58
(dp2324
g66
I3
ssg67
g2318
sg60
(lp2325
g884
asbasbasbag53
(g69
g55
NtRp2326
(dp2327
g58
(dp2328
sg67
g2196
sg60
(lp2329
g53
(g74
g55
NtRp2330
(dp2331
g58
(dp2332
g78
g79
ssg67
g2326
sg60
(lp2333
S'HTTP_COOKIE'
p2334
asbag53
(g74
g55
NtRp2335
(dp2336
g58
(dp2337
g85
g86
ssg67
g2326
sg60
(lp2338
S':'
asbag53
(g74
g55
NtRp2339
(dp2340
g58
(dp2341
sg67
g2326
sg60
(lp2342
g53
(g54
g55
NtRp2343
(dp2344
g58
(dp2345
g66
I3
ssg67
g2339
sg60
(lp2346
g906
asbasbasbag53
(g69
g55
NtRp2347
(dp2348
g58
(dp2349
sg67
g2196
sg60
(lp2350
g53
(g74
g55
NtRp2351
(dp2352
g58
(dp2353
g78
g79
ssg67
g2347
sg60
(lp2354
S'HTTP_HOST'
p2355
asbag53
(g74
g55
NtRp2356
(dp2357
g58
(dp2358
g85
g86
ssg67
g2347
sg60
(lp2359
S':'
asbag53
(g74
g55
NtRp2360
(dp2361
g58
(dp2362
sg67
g2347
sg60
(lp2363
g53
(g54
g55
NtRp2364
(dp2365
g58
(dp2366
g66
I3
ssg67
g2360
sg60
(lp2367
g928
asbasbasbag53
(g69
g55
NtRp2368
(dp2369
g58
(dp2370
sg67
g2196
sg60
(lp2371
g53
(g74
g55
NtRp2372
(dp2373
g58
(dp2374
g78
g79
ssg67
g2368
sg60
(lp2375
S'HTTP_USER_AGENT'
p2376
asbag53
(g74
g55
NtRp2377
(dp2378
g58
(dp2379
g85
g86
ssg67
g2368
sg60
(lp2380
S':'
asbag53
(g74
g55
NtRp2381
(dp2382
g58
(dp2383
sg67
g2368
sg60
(lp2384
g53
(g54
g55
NtRp2385
(dp2386
g58
(dp2387
g66
I3
ssg67
g2381
sg60
(lp2388
g950
asbasbasbag53
(g69
g55
NtRp2389
(dp2390
g58
(dp2391
sg67
g2196
sg60
(lp2392
g53
(g74
g55
NtRp2393
(dp2394
g58
(dp2395
g78
g79
ssg67
g2389
sg60
(lp2396
S'PATH_INFO'
p2397
asbag53
(g74
g55
NtRp2398
(dp2399
g58
(dp2400
g85
g86
ssg67
g2389
sg60
(lp2401
S':'
asbag53
(g74
g55
NtRp2402
(dp2403
g58
(dp2404
sg67
g2389
sg60
(lp2405
g53
(g54
g55
NtRp2406
(dp2407
g58
(dp2408
g66
I3
ssg67
g2402
sg60
(lp2409
S'/'
asbasbasbag53
(g69
g55
NtRp2410
(dp2411
g58
(dp2412
sg67
g2196
sg60
(lp2413
g53
(g74
g55
NtRp2414
(dp2415
g58
(dp2416
g78
g79
ssg67
g2410
sg60
(lp2417
S'QUERY_STRING'
p2418
asbag53
(g74
g55
NtRp2419
(dp2420
g58
(dp2421
g85
g86
ssg67
g2410
sg60
(lp2422
S':'
asbag53
(g74
g55
NtRp2423
(dp2424
g58
(dp2425
sg67
g2410
sg60
(lp2426
g53
(g54
g55
NtRp2427
(dp2428
g58
(dp2429
g66
I3
ssg67
g2423
sg60
(lp2430
S''
asbasbasbag53
(g69
g55
NtRp2431
(dp2432
g58
(dp2433
sg67
g2196
sg60
(lp2434
g53
(g74
g55
NtRp2435
(dp2436
g58
(dp2437
g78
g79
ssg67
g2431
sg60
(lp2438
S'REMOTE_ADDR'
p2439
asbag53
(g74
g55
NtRp2440
(dp2441
g58
(dp2442
g85
g86
ssg67
g2431
sg60
(lp2443
S':'
asbag53
(g74
g55
NtRp2444
(dp2445
g58
(dp2446
sg67
g2431
sg60
(lp2447
g53
(g54
g55
NtRp2448
(dp2449
g58
(dp2450
g66
I3
ssg67
g2444
sg60
(lp2451
g186
asbasbasbag53
(g69
g55
NtRp2452
(dp2453
g58
(dp2454
sg67
g2196
sg60
(lp2455
g53
(g74
g55
NtRp2456
(dp2457
g58
(dp2458
g78
g79
ssg67
g2452
sg60
(lp2459
S'REMOTE_PORT'
p2460
asbag53
(g74
g55
NtRp2461
(dp2462
g58
(dp2463
g85
g86
ssg67
g2452
sg60
(lp2464
S':'
asbag53
(g74
g55
NtRp2465
(dp2466
g58
(dp2467
sg67
g2452
sg60
(lp2468
g53
(g54
g55
NtRp2469
(dp2470
g58
(dp2471
g66
I3
ssg67
g2465
sg60
(lp2472
g1077
asbasbasbag53
(g69
g55
NtRp2473
(dp2474
g58
(dp2475
sg67
g2196
sg60
(lp2476
g53
(g74
g55
NtRp2477
(dp2478
g58
(dp2479
g78
g79
ssg67
g2473
sg60
(lp2480
S'REQUEST_METHOD'
p2481
asbag53
(g74
g55
NtRp2482
(dp2483
g58
(dp2484
g85
g86
ssg67
g2473
sg60
(lp2485
S':'
asbag53
(g74
g55
NtRp2486
(dp2487
g58
(dp2488
sg67
g2473
sg60
(lp2489
g53
(g54
g55
NtRp2490
(dp2491
g58
(dp2492
g66
I3
ssg67
g2486
sg60
(lp2493
g1099
asbasbasbag53
(g69
g55
NtRp2494
(dp2495
g58
(dp2496
sg67
g2196
sg60
(lp2497
g53
(g74
g55
NtRp2498
(dp2499
g58
(dp2500
g78
g79
ssg67
g2494
sg60
(lp2501
S'SCRIPT_NAME'
p2502
asbag53
(g74
g55
NtRp2503
(dp2504
g58
(dp2505
g85
g86
ssg67
g2494
sg60
(lp2506
S':'
asbag53
(g74
g55
NtRp2507
(dp2508
g58
(dp2509
sg67
g2494
sg60
(lp2510
g53
(g54
g55
NtRp2511
(dp2512
g58
(dp2513
g66
I3
ssg67
g2507
sg60
(lp2514
S''
asbasbasbag53
(g69
g55
NtRp2515
(dp2516
g58
(dp2517
sg67
g2196
sg60
(lp2518
g53
(g74
g55
NtRp2519
(dp2520
g58
(dp2521
g78
g79
ssg67
g2515
sg60
(lp2522
S'SERVER_NAME'
p2523
asbag53
(g74
g55
NtRp2524
(dp2525
g58
(dp2526
g85
g86
ssg67
g2515
sg60
(lp2527
S':'
asbag53
(g74
g55
NtRp2528
(dp2529
g58
(dp2530
sg67
g2515
sg60
(lp2531
g53
(g54
g55
NtRp2532
(dp2533
g58
(dp2534
g66
I3
ssg67
g2528
sg60
(lp2535
g1142
asbasbasbag53
(g69
g55
NtRp2536
(dp2537
g58
(dp2538
sg67
g2196
sg60
(lp2539
g53
(g74
g55
NtRp2540
(dp2541
g58
(dp2542
g78
g79
ssg67
g2536
sg60
(lp2543
S'SERVER_PORT'
p2544
asbag53
(g74
g55
NtRp2545
(dp2546
g58
(dp2547
g85
g86
ssg67
g2536
sg60
(lp2548
S':'
asbag53
(g74
g55
NtRp2549
(dp2550
g58
(dp2551
sg67
g2536
sg60
(lp2552
g53
(g54
g55
NtRp2553
(dp2554
g58
(dp2555
g66
I3
ssg67
g2549
sg60
(lp2556
g1164
asbasbasbag53
(g69
g55
NtRp2557
(dp2558
g58
(dp2559
sg67
g2196
sg60
(lp2560
g53
(g74
g55
NtRp2561
(dp2562
g58
(dp2563
g78
g79
ssg67
g2557
sg60
(lp2564
S'SERVER_PROTOCOL'
p2565
asbag53
(g74
g55
NtRp2566
(dp2567
g58
(dp2568
g85
g86
ssg67
g2557
sg60
(lp2569
S':'
asbag53
(g74
g55
NtRp2570
(dp2571
g58
(dp2572
sg67
g2557
sg60
(lp2573
g53
(g54
g55
NtRp2574
(dp2575
g58
(dp2576
g66
I3
ssg67
g2570
sg60
(lp2577
g1186
asbasbasbag53
(g69
g55
NtRp2578
(dp2579
g58
(dp2580
sg67
g2196
sg60
(lp2581
g53
(g74
g55
NtRp2582
(dp2583
g58
(dp2584
g78
g79
ssg67
g2578
sg60
(lp2585
S'SERVER_SOFTWARE'
p2586
asbag53
(g74
g55
NtRp2587
(dp2588
g58
(dp2589
g85
g86
ssg67
g2578
sg60
(lp2590
S':'
asbag53
(g74
g55
NtRp2591
(dp2592
g58
(dp2593
sg67
g2578
sg60
(lp2594
g53
(g54
g55
NtRp2595
(dp2596
g58
(dp2597
g66
I3
ssg67
g2591
sg60
(lp2598
g1208
asbasbasbag53
(g69
g55
NtRp2599
(dp2600
g58
(dp2601
sg67
g2196
sg60
(lp2602
g53
(g74
g55
NtRp2603
(dp2604
g58
(dp2605
g78
g79
ssg67
g2599
sg60
(lp2606
S'wsgi.errors'
p2607
asbag53
(g74
g55
NtRp2608
(dp2609
g58
(dp2610
g85
g86
ssg67
g2599
sg60
(lp2611
S':'
asbag53
(g74
g55
NtRp2612
(dp2613
g58
(dp2614
sg67
g2599
sg60
(lp2615
g53
(g54
g55
NtRp2616
(dp2617
g58
(dp2618
g66
I3
ssg67
g2612
sg60
(lp2619
S"<open file '<stderr>', mode 'w' at 0x004200B0>"
p2620
asbasbasbag53
(g69
g55
NtRp2621
(dp2622
g58
(dp2623
sg67
g2196
sg60
(lp2624
g53
(g74
g55
NtRp2625
(dp2626
g58
(dp2627
g78
g79
ssg67
g2621
sg60
(lp2628
S'wsgi.file_wrapper'
p2629
asbag53
(g74
g55
NtRp2630
(dp2631
g58
(dp2632
g85
g86
ssg67
g2621
sg60
(lp2633
S':'
asbag53
(g74
g55
NtRp2634
(dp2635
g58
(dp2636
sg67
g2621
sg60
(lp2637
g53
(g54
g55
NtRp2638
(dp2639
g58
(dp2640
g66
I3
ssg67
g2634
sg60
(lp2641
S'<class wsgiref.util.FileWrapper at 0x02B168D0>'
p2642
asbasbasbag53
(g69
g55
NtRp2643
(dp2644
g58
(dp2645
sg67
g2196
sg60
(lp2646
g53
(g74
g55
NtRp2647
(dp2648
g58
(dp2649
g78
g79
ssg67
g2643
sg60
(lp2650
S'wsgi.input'
p2651
asbag53
(g74
g55
NtRp2652
(dp2653
g58
(dp2654
g85
g86
ssg67
g2643
sg60
(lp2655
S':'
asbag53
(g74
g55
NtRp2656
(dp2657
g58
(dp2658
sg67
g2643
sg60
(lp2659
g53
(g54
g55
NtRp2660
(dp2661
g58
(dp2662
g66
I3
ssg67
g2656
sg60
(lp2663
S'<cStringIO.StringO object at 0x043EB860>'
p2664
asbasbasbag53
(g69
g55
NtRp2665
(dp2666
g58
(dp2667
sg67
g2196
sg60
(lp2668
g53
(g74
g55
NtRp2669
(dp2670
g58
(dp2671
g78
g79
ssg67
g2665
sg60
(lp2672
S'wsgi.multiprocess'
p2673
asbag53
(g74
g55
NtRp2674
(dp2675
g58
(dp2676
g85
g86
ssg67
g2665
sg60
(lp2677
S':'
asbag53
(g74
g55
NtRp2678
(dp2679
g58
(dp2680
sg67
g2665
sg60
(lp2681
g53
(g54
g55
NtRp2682
(dp2683
g58
(dp2684
g66
I3
ssg67
g2678
sg60
(lp2685
g96
asbasbasbag53
(g69
g55
NtRp2686
(dp2687
g58
(dp2688
sg67
g2196
sg60
(lp2689
g53
(g74
g55
NtRp2690
(dp2691
g58
(dp2692
g78
g79
ssg67
g2686
sg60
(lp2693
S'wsgi.multithread'
p2694
asbag53
(g74
g55
NtRp2695
(dp2696
g58
(dp2697
g85
g86
ssg67
g2686
sg60
(lp2698
S':'
asbag53
(g74
g55
NtRp2699
(dp2700
g58
(dp2701
sg67
g2686
sg60
(lp2702
g53
(g54
g55
NtRp2703
(dp2704
g58
(dp2705
g66
I3
ssg67
g2699
sg60
(lp2706
g730
asbasbasbag53
(g69
g55
NtRp2707
(dp2708
g58
(dp2709
sg67
g2196
sg60
(lp2710
g53
(g74
g55
NtRp2711
(dp2712
g58
(dp2713
g78
g79
ssg67
g2707
sg60
(lp2714
S'wsgi.run_once'
p2715
asbag53
(g74
g55
NtRp2716
(dp2717
g58
(dp2718
g85
g86
ssg67
g2707
sg60
(lp2719
S':'
asbag53
(g74
g55
NtRp2720
(dp2721
g58
(dp2722
sg67
g2707
sg60
(lp2723
g53
(g54
g55
NtRp2724
(dp2725
g58
(dp2726
g66
I3
ssg67
g2720
sg60
(lp2727
g96
asbasbasbag53
(g69
g55
NtRp2728
(dp2729
g58
(dp2730
sg67
g2196
sg60
(lp2731
g53
(g74
g55
NtRp2732
(dp2733
g58
(dp2734
g78
g79
ssg67
g2728
sg60
(lp2735
S'wsgi.url_scheme'
p2736
asbag53
(g74
g55
NtRp2737
(dp2738
g58
(dp2739
g85
g86
ssg67
g2728
sg60
(lp2740
S':'
asbag53
(g74
g55
NtRp2741
(dp2742
g58
(dp2743
sg67
g2728
sg60
(lp2744
g53
(g54
g55
NtRp2745
(dp2746
g58
(dp2747
g66
I3
ssg67
g2741
sg60
(lp2748
g1490
asbasbasbag53
(g69
g55
NtRp2749
(dp2750
g58
(dp2751
sg67
g2196
sg60
(lp2752
g53
(g74
g55
NtRp2753
(dp2754
g58
(dp2755
g78
g79
ssg67
g2749
sg60
(lp2756
S'wsgi.version'
p2757
asbag53
(g74
g55
NtRp2758
(dp2759
g58
(dp2760
g85
g86
ssg67
g2749
sg60
(lp2761
S':'
asbag53
(g74
g55
NtRp2762
(dp2763
g58
(dp2764
sg67
g2749
sg60
(lp2765
g53
(g54
g55
NtRp2766
(dp2767
g58
(dp2768
g66
I3
ssg67
g2762
sg60
(lp2769
S'1'
asbasbasbasbasbasbasbasbasbasbasbasbasbsS'frames'
p2770
(lp2771
(dp2772
S'file'
p2773
S'C:\\Users\\Bussiere\\Dropbox\\Projets\\Yuki\\web2py\\gluon\\restricted.py'
p2774
sS'dump'
p2775
(dp2776
sS'lnum'
p2777
I205
sS'lines'
p2778
(dp2779
I200
S'    try:'
p2780
sI201
S'        if type(code) == types.CodeType:'
p2781
sI202
S'            ccode = code'
p2782
sI203
S'        else:'
p2783
sI204
S'            ccode = compile2(code,layer)'
p2784
sI205
S'        exec ccode in environment'
p2785
sI206
S'    except HTTP:'
p2786
sI207
S'        raise'
p2787
sI208
S'    except RestrictedError:'
p2788
sI209
S'        # do not encapsulate (obfuscate) the original RestrictedError'
p2789
ssS'call'
p2790
S"(code='# -*- coding: utf-8 -*-\\n# this file is released ...crud())\\n\\n\\nresponse._vars=response._caller(index)\\n', environment={'A': <class 'gluon.html.A'>, 'Auth': <class 'gluon.tools.Auth'>, 'B': <class 'gluon.html.B'>, 'BEAUTIFY': <class 'gluon.html.BEAUTIFY'>, 'BODY': <class 'gluon.html.BODY'>, 'BR': <class 'gluon.html.BR'>, 'BUTTON': <class 'gluon.html.BUTTON'>, 'CAT': <class 'gluon.html.CAT'>, 'CENTER': <class 'gluon.html.CENTER'>, 'CLEANUP': <class 'gluon.validators.CLEANUP'>, ...}, layer=r'C:\\Users\\Bussiere\\Dropbox\\Projets\\Yuki\\web2py\\applications\\init\\controllers/default.py')"
p2791
sS'func'
p2792
S'restricted'
p2793
sa(dp2794
g2773
S'C:\\Users\\Bussiere\\Dropbox\\Projets\\Yuki\\web2py\\applications\\init\\controllers\\default.py'
p2795
sg2775
(dp2796
sg2777
I98
sg2778
(dp2797
I96
S''
sI87
S'    http://..../[app]/default/data/delete/[table]/[id]'
p2798
sI88
S'    http://..../[app]/default/data/select/[table]'
p2799
sI89
S'    http://..../[app]/default/data/search/[table]'
p2800
sI90
S'    but URLs must be signed, i.e. linked with'
p2801
sI91
S"      A('table',_href=URL('data/tables',user_signature=True))"
p2802
sI92
S'    or with the signed load operator'
p2803
sI93
S"      LOAD('default','data.load',args='tables',ajax=True,user_signature=True)"
p2804
sI94
S'    """'
p2805
sI95
S'    return dict(form=crud())'
p2806
ssg2790
S'()'
p2807
sg2792
S'<module>'
p2808
sa(dp2809
g2773
S'C:\\Users\\Bussiere\\Dropbox\\Projets\\Yuki\\web2py\\gluon\\globals.py'
p2810
sg2775
(dp2811
sg2777
I173
sg2778
(dp2812
I168
S'        self.menu = []             # used by the default view layout'
p2813
sI169
S'        self.files = []            # used by web2py_ajax.html'
p2814
sI170
S'        self.generic_patterns = [] # patterns to allow generic views'
p2815
sI171
S"        self.delimiters = ('{{','}}')"
p2816
sI172
S'        self._vars = None'
p2817
sI173
S'        self._caller = lambda f: f()'
p2818
sI174
S'        self._view_environment = None'
p2819
sI175
S'        self._custom_commit = None'
p2820
sI176
S'        self._custom_rollback = None'
p2821
sI177
S''
ssg2790
S'(f=<function index at 0x0731DFB0>)'
p2822
sg2792
S'<lambda>'
p2823
sa(dp2824
g2773
S'C:\\Users\\Bussiere\\Dropbox\\Projets\\Yuki\\web2py\\applications\\init\\controllers\\default.py'
p2825
sg2775
(dp2826
sg2777
I24
sg2778
(dp2827
I19
S"    barcode = crud.select(db.Barcodebase, fields=['Barcode'],"
p2828
sI20
S"           headers={'Barcodebase.Barcode': 'Barcode'})"
p2829
sI21
S'    return dict(form=form, persons=persons)'
p2830
sI22
S'def index():'
p2831
sI23
S"    barcode = crud.select(db.Barcodebase, fields=['Barcodebase'],"
p2832
sI24
S"           headers={'Barcodebase.Barcode': 'Barcode'})"
p2833
sI25
S'    return dict(form=form, barcod=barcode)'
p2834
sI26
S''
sI27
S'def user():'
p2835
sI28
S'    """'
p2836
ssg2790
S'()'
p2837
sg2792
g1605
sa(dp2838
g2773
S'C:\\Users\\Bussiere\\Dropbox\\Projets\\Yuki\\web2py\\gluon\\tools.py'
p2839
sg2775
(dp2840
sg2777
I3265
sg2778
(dp2841
I3264
S'        headers = headers or {}'
p2842
sI3265
S'        rows = self.rows(table,query,fields,orderby,limitby)'
p2843
sI3266
S'        if not rows:'
p2844
sI3267
S'            return None # Nicer than an empty table.'
p2845
sI3268
S"        if not 'upload' in attr:"
p2846
sI3269
S"            attr['upload'] = self.url('download')"
p2847
sI3260
S'        limitby=None,'
p2848
sI3261
S'        headers=None,'
p2849
sI3262
S'        **attr'
p2850
sI3263
S'        ):'
p2851
ssg2790
S"(self=<gluon.tools.Crud object at 0x06FDECF0>, table=<Table {'Comment': <gluon.dal.Field object at 0x...ject at 0x07087530>, '_singular': 'Barcodebase'}>, query=None, fields=['Barcodebase'], orderby=None, limitby=None, headers={'Barcodebase.Barcode': 'Barcode'}, **attr={})"
p2852
sg2792
S'select'
p2853
sa(dp2854
g2773
S'C:\\Users\\Bussiere\\Dropbox\\Projets\\Yuki\\web2py\\gluon\\tools.py'
p2855
sg2775
(dp2856
sg2777
I3251
sg2778
(dp2857
I3246
S'        if not query:'
p2858
sI3247
S'            query = table.id > 0'
p2859
sI3248
S'        if not fields:'
p2860
sI3249
S'            fields = [field for field in table if field.readable]'
p2861
sI3250
S'        rows = self.db(query).select(*fields,**dict(orderby=orderby,'
p2862
sI3251
S'                                                    limitby=limitby))'
p2863
sI3252
S'        return rows'
p2864
sI3253
S''
sI3254
S'    def select('
p2865
sI3255
S'        self,'
p2866
ssg2790
S"(self=<gluon.tools.Crud object at 0x06FDECF0>, table=<Table {'Comment': <gluon.dal.Field object at 0x...ject at 0x07087530>, '_singular': 'Barcodebase'}>, query=<gluon.dal.Query object at 0x041DEFD0>, fields=['Barcodebase'], orderby=None, limitby=None)"
p2867
sg2792
S'rows'
p2868
sa(dp2869
g2773
S'C:\\Users\\Bussiere\\Dropbox\\Projets\\Yuki\\web2py\\gluon\\dal.py'
p2870
sg2775
(dp2871
sg2777
I7578
sg2778
(dp2872
I7573
S'        return self.db._adapter.count(self.query,distinct)'
p2873
sI7574
S''
sI7575
S'    def select(self, *fields, **attributes):'
p2874
sI7576
S'        adapter = self.db._adapter'
p2875
sI7577
S'        fields = adapter.expand_all(fields, adapter.tables(self.query))'
p2876
sI7578
S'        return adapter.select(self.query,fields,attributes)'
p2877
sI7579
S''
sI7580
S'    def delete(self):'
p2878
sI7581
S'        tablename=self.db._adapter.get_table(self.query)'
p2879
sI7582
S'        self.delete_uploaded_files()'
p2880
ssg2790
S"(self=<gluon.dal.Set object at 0x041DEF70>, *fields=['Barcodebase'], **attributes={'limitby': None, 'orderby': None})"
p2881
sg2792
g2853
sa(dp2882
g2773
S'C:\\Users\\Bussiere\\Dropbox\\Projets\\Yuki\\web2py\\gluon\\dal.py'
p2883
sg2775
(dp2884
sg2777
I1315
sg2778
(dp2885
I1312
S'            key = (len(key)<=200) and key or hashlib.md5(key).hexdigest()'
p2886
sI1313
S'            rows = cache_model(key, lambda: response(sql), time_expire)'
p2887
sI1314
S'        else:'
p2888
sI1315
S'            rows = response(sql)'
p2889
sI1316
S'        if isinstance(rows,tuple):'
p2890
sI1317
S'            rows = list(rows)'
p2891
sI1318
S"        limitby = attributes.get('limitby', None) or (0,)"
p2892
sI1319
S'        rows = self.rowslice(rows,limitby[0],None)'
p2893
sI1310
S"            del attributes['cache']"
p2894
sI1311
S"            key = self.uri + '/' + sql"
p2895
ssg2790
S"(self=<gluon.dal.SQLiteAdapter object at 0x06FDE570>, query=<gluon.dal.Query object at 0x041DEFD0>, fields=['Barcodebase'], attributes={'limitby': None, 'orderby': None})"
p2896
sg2792
g2853
sa(dp2897
g2773
S'C:\\Users\\Bussiere\\Dropbox\\Projets\\Yuki\\web2py\\gluon\\dal.py'
p2898
sg2775
(dp2899
sg2777
I1305
sg2778
(dp2900
I1300
S'    def select(self, query, fields, attributes):'
p2901
sI1301
S'        """'
p2902
sI1302
S'        Always returns a Rows object, possibly empty.'
p2903
sI1303
S'        """'
p2904
sI1304
S'        def response(sql):'
p2905
sI1305
S'            self.execute(sql)'
p2906
sI1306
S'            return self.cursor.fetchall()'
p2907
sI1307
S'        sql = self._select(query, fields, attributes)'
p2908
sI1308
S"        if attributes.get('cache', None):"
p2909
sI1309
S"            (cache_model, time_expire) = attributes['cache']"
p2910
ssg2790
S"(sql='SELECT  Barcodebase FROM Barcodebase WHERE (Barcodebase.id > 0);')"
p2911
sg2792
S'response'
p2912
sa(dp2913
g2773
S'C:\\Users\\Bussiere\\Dropbox\\Projets\\Yuki\\web2py\\gluon\\dal.py'
p2914
sg2775
(dp2915
sg2777
I1392
sg2778
(dp2916
I1387
S'        self.db._timings.append((a[0],time.time()-t0))'
p2917
sI1388
S'        del self.db._timings[:-TIMINGSSIZE]'
p2918
sI1389
S'        return ret'
p2919
sI1390
S''
sI1391
S'    def execute(self, *a, **b):'
p2920
sI1392
S'        return self.log_execute(*a, **b)'
p2921
sI1393
S''
sI1394
S'    def represent(self, obj, fieldtype):'
p2922
sI1395
S'        if isinstance(obj, CALLABLETYPES):'
p2923
sI1396
S'            obj = obj()'
p2924
ssg2790
S"(self=<gluon.dal.SQLiteAdapter object at 0x06FDE570>, *a=('SELECT  Barcodebase FROM Barcodebase WHERE (Barcodebase.id > 0);',), **b={})"
p2925
sg2792
S'execute'
p2926
sa(dp2927
g2773
S'C:\\Users\\Bussiere\\Dropbox\\Projets\\Yuki\\web2py\\gluon\\dal.py'
p2928
sg2775
(dp2929
sg2777
I1386
sg2778
(dp2930
I1381
S'        self.execute(query)'
p2931
sI1382
S''
sI1383
S'    def log_execute(self, *a, **b):'
p2932
sI1384
S'        self.db._lastsql = a[0]'
p2933
sI1385
S'        t0 = time.time()'
p2934
sI1386
S'        ret = self.cursor.execute(*a, **b)'
p2935
sI1387
S'        self.db._timings.append((a[0],time.time()-t0))'
p2936
sI1388
S'        del self.db._timings[:-TIMINGSSIZE]'
p2937
sI1389
S'        return ret'
p2938
sI1390
S''
ssg2790
S"(self=<gluon.dal.SQLiteAdapter object at 0x06FDE570>, *a=('SELECT  Barcodebase FROM Barcodebase WHERE (Barcodebase.id > 0);',), **b={})"
p2939
sg2792
S'log_execute'
p2940
sasS'pyver'
p2941
S'Python 2.5.4: C:\\Users\\Bussiere\\Dropbox\\Projets\\Yuki\\web2py\\web2py.exe'
p2942
sS'session'
p2943
g53
(g54
g55
NtRp2944
(dp2945
g58
(dp2946
sg60
(lp2947
g53
(g62
g55
NtRp2948
(dp2949
g58
(dp2950
g66
I5
ssg67
Nsg60
(lp2951
g53
(g69
g55
NtRp2952
(dp2953
g58
(dp2954
sg67
g2948
sg60
(lp2955
g53
(g74
g55
NtRp2956
(dp2957
g58
(dp2958
g78
g79
ssg67
g2952
sg60
(lp2959
S'flash'
p2960
asbag53
(g74
g55
NtRp2961
(dp2962
g58
(dp2963
g85
g86
ssg67
g2952
sg60
(lp2964
S':'
asbag53
(g74
g55
NtRp2965
(dp2966
g58
(dp2967
sg67
g2952
sg60
(lp2968
g53
(g54
g55
NtRp2969
(dp2970
g58
(dp2971
g66
I5
ssg67
g2965
sg60
(lp2972
S''
asbasbasbasbasbsS'etype'
p2973
S"<class 'sqlite3.OperationalError'>"
p2974
sS'date'
p2975
S'Tue Mar 13 05:45:57 2012'
p2976
sg2912
g53
(g54
g55
NtRp2977
(dp2978
g58
(dp2979
sg60
(lp2980
g53
(g62
g55
NtRp2981
(dp2982
g58
(dp2983
g66
I5
ssg67
Nsg60
(lp2984
g53
(g69
g55
NtRp2985
(dp2986
g58
(dp2987
sg67
g2981
sg60
(lp2988
g53
(g74
g55
NtRp2989
(dp2990
g58
(dp2991
g78
g79
ssg67
g2985
sg60
(lp2992
g151
asbag53
(g74
g55
NtRp2993
(dp2994
g58
(dp2995
g85
g86
ssg67
g2985
sg60
(lp2996
S':'
asbag53
(g74
g55
NtRp2997
(dp2998
g58
(dp2999
sg67
g2985
sg60
(lp3000
g53
(g54
g55
NtRp3001
(dp3002
g58
(dp3003
g66
I5
ssg67
g2997
sg60
(lp3004
S'<cStringIO.StringO object at 0x043822C0>'
p3005
asbasbasbag53
(g69
g55
NtRp3006
(dp3007
g58
(dp3008
sg67
g2981
sg60
(lp3009
g53
(g74
g55
NtRp3010
(dp3011
g58
(dp3012
g78
g79
ssg67
g3006
sg60
(lp3013
g217
asbag53
(g74
g55
NtRp3014
(dp3015
g58
(dp3016
g85
g86
ssg67
g3006
sg60
(lp3017
S':'
asbag53
(g74
g55
NtRp3018
(dp3019
g58
(dp3020
sg67
g3006
sg60
(lp3021
g53
(g54
g55
NtRp3022
(dp3023
g58
(dp3024
g66
I5
ssg67
g3018
sg60
(lp3025
g53
(g62
g55
NtRp3026
(dp3027
g58
(dp3028
g66
I4
ssg67
Nsg60
(lp3029
g53
(g69
g55
NtRp3030
(dp3031
g58
(dp3032
sg67
g3026
sg60
(lp3033
g53
(g74
g55
NtRp3034
(dp3035
g58
(dp3036
g78
g79
ssg67
g3030
sg60
(lp3037
S'session_id_init'
p3038
asbag53
(g74
g55
NtRp3039
(dp3040
g58
(dp3041
g85
g86
ssg67
g3030
sg60
(lp3042
S':'
asbag53
(g74
g55
NtRp3043
(dp3044
g58
(dp3045
sg67
g3030
sg60
(lp3046
g53
(g54
g55
NtRp3047
(dp3048
g58
(dp3049
g66
I4
ssg67
g3043
sg60
(lp3050
g53
(g62
g55
NtRp3051
(dp3052
g58
(dp3053
g66
I3
ssg67
Nsg60
(lp3054
g53
(g69
g55
NtRp3055
(dp3056
g58
(dp3057
sg67
g3051
sg60
(lp3058
g53
(g74
g55
NtRp3059
(dp3060
g58
(dp3061
g78
g79
ssg67
g3055
sg60
(lp3062
g267
asbag53
(g74
g55
NtRp3063
(dp3064
g58
(dp3065
g85
g86
ssg67
g3055
sg60
(lp3066
S':'
asbag53
(g74
g55
NtRp3067
(dp3068
g58
(dp3069
sg67
g3055
sg60
(lp3070
g53
(g54
g55
NtRp3071
(dp3072
g58
(dp3073
g66
I3
ssg67
g3067
sg60
(lp3074
S''
asbasbasbag53
(g69
g55
NtRp3075
(dp3076
g58
(dp3077
sg67
g3051
sg60
(lp3078
g53
(g74
g55
NtRp3079
(dp3080
g58
(dp3081
g78
g79
ssg67
g3075
sg60
(lp3082
g288
asbag53
(g74
g55
NtRp3083
(dp3084
g58
(dp3085
g85
g86
ssg67
g3075
sg60
(lp3086
S':'
asbag53
(g74
g55
NtRp3087
(dp3088
g58
(dp3089
sg67
g3075
sg60
(lp3090
g53
(g54
g55
NtRp3091
(dp3092
g58
(dp3093
g66
I3
ssg67
g3087
sg60
(lp3094
S''
asbasbasbag53
(g69
g55
NtRp3095
(dp3096
g58
(dp3097
sg67
g3051
sg60
(lp3098
g53
(g74
g55
NtRp3099
(dp3100
g58
(dp3101
g78
g79
ssg67
g3095
sg60
(lp3102
g309
asbag53
(g74
g55
NtRp3103
(dp3104
g58
(dp3105
g85
g86
ssg67
g3095
sg60
(lp3106
S':'
asbag53
(g74
g55
NtRp3107
(dp3108
g58
(dp3109
sg67
g3095
sg60
(lp3110
g53
(g54
g55
NtRp3111
(dp3112
g58
(dp3113
g66
I3
ssg67
g3107
sg60
(lp3114
S''
asbasbasbag53
(g69
g55
NtRp3115
(dp3116
g58
(dp3117
sg67
g3051
sg60
(lp3118
g53
(g74
g55
NtRp3119
(dp3120
g58
(dp3121
g78
g79
ssg67
g3115
sg60
(lp3122
g330
asbag53
(g74
g55
NtRp3123
(dp3124
g58
(dp3125
g85
g86
ssg67
g3115
sg60
(lp3126
S':'
asbag53
(g74
g55
NtRp3127
(dp3128
g58
(dp3129
sg67
g3115
sg60
(lp3130
g53
(g54
g55
NtRp3131
(dp3132
g58
(dp3133
g66
I3
ssg67
g3127
sg60
(lp3134
S''
asbasbasbag53
(g69
g55
NtRp3135
(dp3136
g58
(dp3137
sg67
g3051
sg60
(lp3138
g53
(g74
g55
NtRp3139
(dp3140
g58
(dp3141
g78
g79
ssg67
g3135
sg60
(lp3142
g351
asbag53
(g74
g55
NtRp3143
(dp3144
g58
(dp3145
g85
g86
ssg67
g3135
sg60
(lp3146
S':'
asbag53
(g74
g55
NtRp3147
(dp3148
g58
(dp3149
sg67
g3135
sg60
(lp3150
g53
(g54
g55
NtRp3151
(dp3152
g58
(dp3153
g66
I3
ssg67
g3147
sg60
(lp3154
S'/'
asbasbasbag53
(g69
g55
NtRp3155
(dp3156
g58
(dp3157
sg67
g3051
sg60
(lp3158
g53
(g74
g55
NtRp3159
(dp3160
g58
(dp3161
g78
g79
ssg67
g3155
sg60
(lp3162
g372
asbag53
(g74
g55
NtRp3163
(dp3164
g58
(dp3165
g85
g86
ssg67
g3155
sg60
(lp3166
S':'
asbag53
(g74
g55
NtRp3167
(dp3168
g58
(dp3169
sg67
g3155
sg60
(lp3170
g53
(g54
g55
NtRp3171
(dp3172
g58
(dp3173
g66
I3
ssg67
g3167
sg60
(lp3174
S''
asbasbasbag53
(g69
g55
NtRp3175
(dp3176
g58
(dp3177
sg67
g3051
sg60
(lp3178
g53
(g74
g55
NtRp3179
(dp3180
g58
(dp3181
g78
g79
ssg67
g3175
sg60
(lp3182
g393
asbag53
(g74
g55
NtRp3183
(dp3184
g58
(dp3185
g85
g86
ssg67
g3175
sg60
(lp3186
S':'
asbag53
(g74
g55
NtRp3187
(dp3188
g58
(dp3189
sg67
g3175
sg60
(lp3190
g53
(g54
g55
NtRp3191
(dp3192
g58
(dp3193
g66
I3
ssg67
g3187
sg60
(lp3194
S''
asbasbasbasbasbasbasbasbasbasbasbag53
(g69
g55
NtRp3195
(dp3196
g58
(dp3197
sg67
g2981
sg60
(lp3198
g53
(g74
g55
NtRp3199
(dp3200
g58
(dp3201
g78
g79
ssg67
g3195
sg60
(lp3202
S'delimiters'
p3203
asbag53
(g74
g55
NtRp3204
(dp3205
g58
(dp3206
g85
g86
ssg67
g3195
sg60
(lp3207
S':'
asbag53
(g74
g55
NtRp3208
(dp3209
g58
(dp3210
sg67
g3195
sg60
(lp3211
g53
(g54
g55
NtRp3212
(dp3213
g58
(dp3214
g66
I5
ssg67
g3208
sg60
(lp3215
g53
(g62
g55
NtRp3216
(dp3217
g58
(dp3218
g66
I4
ssg67
Nsg60
(lp3219
g53
(g69
g55
NtRp3220
(dp3221
g58
(dp3222
sg67
g3216
sg60
(lp3223
g53
(g74
g55
NtRp3224
(dp3225
g58
(dp3226
sg67
g3220
sg60
(lp3227
g53
(g54
g55
NtRp3228
(dp3229
g58
(dp3230
g66
I4
ssg67
g3224
sg60
(lp3231
S'{{'
p3232
asbasbasbag53
(g69
g55
NtRp3233
(dp3234
g58
(dp3235
sg67
g3216
sg60
(lp3236
g53
(g74
g55
NtRp3237
(dp3238
g58
(dp3239
sg67
g3233
sg60
(lp3240
g53
(g54
g55
NtRp3241
(dp3242
g58
(dp3243
g66
I4
ssg67
g3237
sg60
(lp3244
S'}}'
p3245
asbasbasbasbasbasbasbag53
(g69
g55
NtRp3246
(dp3247
g58
(dp3248
sg67
g2981
sg60
(lp3249
g53
(g74
g55
NtRp3250
(dp3251
g58
(dp3252
g78
g79
ssg67
g3246
sg60
(lp3253
S'files'
p3254
asbag53
(g74
g55
NtRp3255
(dp3256
g58
(dp3257
g85
g86
ssg67
g3246
sg60
(lp3258
S':'
asbag53
(g74
g55
NtRp3259
(dp3260
g58
(dp3261
sg67
g3246
sg60
(lp3262
g53
(g54
g55
NtRp3263
(dp3264
g58
(dp3265
g66
I5
ssg67
g3259
sg60
(lp3266
g53
(g62
g55
NtRp3267
(dp3268
g58
(dp3269
g66
I4
ssg67
Nsg60
(lp3270
sbasbasbasbag53
(g69
g55
NtRp3271
(dp3272
g58
(dp3273
sg67
g2981
sg60
(lp3274
g53
(g74
g55
NtRp3275
(dp3276
g58
(dp3277
g78
g79
ssg67
g3271
sg60
(lp3278
S'flash'
p3279
asbag53
(g74
g55
NtRp3280
(dp3281
g58
(dp3282
g85
g86
ssg67
g3271
sg60
(lp3283
S':'
asbag53
(g74
g55
NtRp3284
(dp3285
g58
(dp3286
sg67
g3271
sg60
(lp3287
g53
(g54
g55
NtRp3288
(dp3289
g58
(dp3290
g66
I5
ssg67
g3284
sg60
(lp3291
S''
asbasbasbag53
(g69
g55
NtRp3292
(dp3293
g58
(dp3294
sg67
g2981
sg60
(lp3295
g53
(g74
g55
NtRp3296
(dp3297
g58
(dp3298
g78
g79
ssg67
g3292
sg60
(lp3299
S'generic_patterns'
p3300
asbag53
(g74
g55
NtRp3301
(dp3302
g58
(dp3303
g85
g86
ssg67
g3292
sg60
(lp3304
S':'
asbag53
(g74
g55
NtRp3305
(dp3306
g58
(dp3307
sg67
g3292
sg60
(lp3308
g53
(g54
g55
NtRp3309
(dp3310
g58
(dp3311
g66
I5
ssg67
g3305
sg60
(lp3312
g53
(g62
g55
NtRp3313
(dp3314
g58
(dp3315
g66
I4
ssg67
Nsg60
(lp3316
g53
(g69
g55
NtRp3317
(dp3318
g58
(dp3319
sg67
g3313
sg60
(lp3320
g53
(g74
g55
NtRp3321
(dp3322
g58
(dp3323
sg67
g3317
sg60
(lp3324
g53
(g54
g55
NtRp3325
(dp3326
g58
(dp3327
g66
I4
ssg67
g3321
sg60
(lp3328
S'*'
asbasbasbasbasbasbasbag53
(g69
g55
NtRp3329
(dp3330
g58
(dp3331
sg67
g2981
sg60
(lp3332
g53
(g74
g55
NtRp3333
(dp3334
g58
(dp3335
g78
g79
ssg67
g3329
sg60
(lp3336
S'headers'
p3337
asbag53
(g74
g55
NtRp3338
(dp3339
g58
(dp3340
g85
g86
ssg67
g3329
sg60
(lp3341
S':'
asbag53
(g74
g55
NtRp3342
(dp3343
g58
(dp3344
sg67
g3329
sg60
(lp3345
g53
(g54
g55
NtRp3346
(dp3347
g58
(dp3348
g66
I5
ssg67
g3342
sg60
(lp3349
g53
(g62
g55
NtRp3350
(dp3351
g58
(dp3352
g66
I4
ssg67
Nsg60
(lp3353
g53
(g69
g55
NtRp3354
(dp3355
g58
(dp3356
sg67
g3350
sg60
(lp3357
g53
(g74
g55
NtRp3358
(dp3359
g58
(dp3360
g78
g79
ssg67
g3354
sg60
(lp3361
S'Cache-Control'
p3362
asbag53
(g74
g55
NtRp3363
(dp3364
g58
(dp3365
g85
g86
ssg67
g3354
sg60
(lp3366
S':'
asbag53
(g74
g55
NtRp3367
(dp3368
g58
(dp3369
sg67
g3354
sg60
(lp3370
g53
(g54
g55
NtRp3371
(dp3372
g58
(dp3373
g66
I4
ssg67
g3367
sg60
(lp3374
S'no-store, no-cache, must-revalidate, post-check=0, pre-check=0'
p3375
asbasbasbag53
(g69
g55
NtRp3376
(dp3377
g58
(dp3378
sg67
g3350
sg60
(lp3379
g53
(g74
g55
NtRp3380
(dp3381
g58
(dp3382
g78
g79
ssg67
g3376
sg60
(lp3383
S'Content-Type'
p3384
asbag53
(g74
g55
NtRp3385
(dp3386
g58
(dp3387
g85
g86
ssg67
g3376
sg60
(lp3388
S':'
asbag53
(g74
g55
NtRp3389
(dp3390
g58
(dp3391
sg67
g3376
sg60
(lp3392
g53
(g54
g55
NtRp3393
(dp3394
g58
(dp3395
g66
I4
ssg67
g3389
sg60
(lp3396
S'text/html; charset=utf-8'
p3397
asbasbasbag53
(g69
g55
NtRp3398
(dp3399
g58
(dp3400
sg67
g3350
sg60
(lp3401
g53
(g74
g55
NtRp3402
(dp3403
g58
(dp3404
g78
g79
ssg67
g3398
sg60
(lp3405
S'Expires'
p3406
asbag53
(g74
g55
NtRp3407
(dp3408
g58
(dp3409
g85
g86
ssg67
g3398
sg60
(lp3410
S':'
asbag53
(g74
g55
NtRp3411
(dp3412
g58
(dp3413
sg67
g3398
sg60
(lp3414
g53
(g54
g55
NtRp3415
(dp3416
g58
(dp3417
g66
I4
ssg67
g3411
sg60
(lp3418
S'Tue, 13 Mar 2012 04:45:56 GMT'
p3419
asbasbasbag53
(g69
g55
NtRp3420
(dp3421
g58
(dp3422
sg67
g3350
sg60
(lp3423
g53
(g74
g55
NtRp3424
(dp3425
g58
(dp3426
g78
g79
ssg67
g3420
sg60
(lp3427
S'Pragma'
p3428
asbag53
(g74
g55
NtRp3429
(dp3430
g58
(dp3431
g85
g86
ssg67
g3420
sg60
(lp3432
S':'
asbag53
(g74
g55
NtRp3433
(dp3434
g58
(dp3435
sg67
g3420
sg60
(lp3436
g53
(g54
g55
NtRp3437
(dp3438
g58
(dp3439
g66
I4
ssg67
g3433
sg60
(lp3440
S'no-cache'
p3441
asbasbasbag53
(g69
g55
NtRp3442
(dp3443
g58
(dp3444
sg67
g3350
sg60
(lp3445
g53
(g74
g55
NtRp3446
(dp3447
g58
(dp3448
g78
g79
ssg67
g3442
sg60
(lp3449
S'X-Powered-By'
p3450
asbag53
(g74
g55
NtRp3451
(dp3452
g58
(dp3453
g85
g86
ssg67
g3442
sg60
(lp3454
S':'
asbag53
(g74
g55
NtRp3455
(dp3456
g58
(dp3457
sg67
g3442
sg60
(lp3458
g53
(g54
g55
NtRp3459
(dp3460
g58
(dp3461
g66
I4
ssg67
g3455
sg60
(lp3462
S'web2py'
p3463
asbasbasbasbasbasbasbag53
(g69
g55
NtRp3464
(dp3465
g58
(dp3466
sg67
g2981
sg60
(lp3467
g53
(g74
g55
NtRp3468
(dp3469
g58
(dp3470
g78
g79
ssg67
g3464
sg60
(lp3471
S'menu'
p3472
asbag53
(g74
g55
NtRp3473
(dp3474
g58
(dp3475
g85
g86
ssg67
g3464
sg60
(lp3476
S':'
asbag53
(g74
g55
NtRp3477
(dp3478
g58
(dp3479
sg67
g3464
sg60
(lp3480
g53
(g54
g55
NtRp3481
(dp3482
g58
(dp3483
g66
I5
ssg67
g3477
sg60
(lp3484
g53
(g62
g55
NtRp3485
(dp3486
g58
(dp3487
g66
I4
ssg67
Nsg60
(lp3488
g53
(g69
g55
NtRp3489
(dp3490
g58
(dp3491
sg67
g3485
sg60
(lp3492
g53
(g74
g55
NtRp3493
(dp3494
g58
(dp3495
sg67
g3489
sg60
(lp3496
g53
(g54
g55
NtRp3497
(dp3498
g58
(dp3499
g66
I4
ssg67
g3493
sg60
(lp3500
g53
(g62
g55
NtRp3501
(dp3502
g58
(dp3503
g66
I3
ssg67
Nsg60
(lp3504
g53
(g69
g55
NtRp3505
(dp3506
g58
(dp3507
sg67
g3501
sg60
(lp3508
g53
(g74
g55
NtRp3509
(dp3510
g58
(dp3511
sg67
g3505
sg60
(lp3512
g53
(g54
g55
NtRp3513
(dp3514
g58
(dp3515
g66
I3
ssg67
g3509
sg60
(lp3516
cgluon.languages
lazyT_unpickle
p3517
(S's\x04\x00\x00\x00Home'
tRp3518
asbasbasbag53
(g69
g55
NtRp3519
(dp3520
g58
(dp3521
sg67
g3501
sg60
(lp3522
g53
(g74
g55
NtRp3523
(dp3524
g58
(dp3525
sg67
g3519
sg60
(lp3526
g53
(g54
g55
NtRp3527
(dp3528
g58
(dp3529
g66
I3
ssg67
g3523
sg60
(lp3530
g96
asbasbasbag53
(g69
g55
NtRp3531
(dp3532
g58
(dp3533
sg67
g3501
sg60
(lp3534
g53
(g74
g55
NtRp3535
(dp3536
g58
(dp3537
sg67
g3531
sg60
(lp3538
g53
(g54
g55
NtRp3539
(dp3540
g58
(dp3541
g66
I3
ssg67
g3535
sg60
(lp3542
S'/init/default/index'
p3543
asbasbasbag53
(g69
g55
NtRp3544
(dp3545
g58
(dp3546
sg67
g3501
sg60
(lp3547
g53
(g74
g55
NtRp3548
(dp3549
g58
(dp3550
sg67
g3544
sg60
(lp3551
g53
(g54
g55
NtRp3552
(dp3553
g58
(dp3554
g66
I3
ssg67
g3548
sg60
(lp3555
g53
(g62
g55
NtRp3556
(dp3557
g58
(dp3558
g66
I2
ssg67
Nsg60
(lp3559
sbasbasbasbasbasbasbasbag53
(g69
g55
NtRp3560
(dp3561
g58
(dp3562
sg67
g3485
sg60
(lp3563
g53
(g74
g55
NtRp3564
(dp3565
g58
(dp3566
sg67
g3560
sg60
(lp3567
g53
(g54
g55
NtRp3568
(dp3569
g58
(dp3570
g66
I4
ssg67
g3564
sg60
(lp3571
g53
(g62
g55
NtRp3572
(dp3573
g58
(dp3574
g66
I3
ssg67
Nsg60
(lp3575
g53
(g69
g55
NtRp3576
(dp3577
g58
(dp3578
sg67
g3572
sg60
(lp3579
g53
(g74
g55
NtRp3580
(dp3581
g58
(dp3582
sg67
g3576
sg60
(lp3583
g53
(g54
g55
NtRp3584
(dp3585
g58
(dp3586
g66
I3
ssg67
g3580
sg60
(lp3587
g53
(cgluon.html
SPAN
p3588
g55
NtRp3589
(dp3590
g58
(dp3591
g78
S'color:yellow'
p3592
ssg67
Nsg60
(lp3593
g3463
asbasbasbasbag53
(g69
g55
NtRp3594
(dp3595
g58
(dp3596
sg67
g3572
sg60
(lp3597
g53
(g74
g55
NtRp3598
(dp3599
g58
(dp3600
sg67
g3594
sg60
(lp3601
g53
(g54
g55
NtRp3602
(dp3603
g58
(dp3604
g66
I3
ssg67
g3598
sg60
(lp3605
g96
asbasbasbag53
(g69
g55
NtRp3606
(dp3607
g58
(dp3608
sg67
g3572
sg60
(lp3609
g53
(g74
g55
NtRp3610
(dp3611
g58
(dp3612
sg67
g3606
sg60
(lp3613
g53
(g54
g55
NtRp3614
(dp3615
g58
(dp3616
g66
I3
ssg67
g3610
sg60
(lp3617
S'None'
p3618
asbasbasbag53
(g69
g55
NtRp3619
(dp3620
g58
(dp3621
sg67
g3572
sg60
(lp3622
g53
(g74
g55
NtRp3623
(dp3624
g58
(dp3625
sg67
g3619
sg60
(lp3626
g53
(g54
g55
NtRp3627
(dp3628
g58
(dp3629
g66
I3
ssg67
g3623
sg60
(lp3630
g53
(g62
g55
NtRp3631
(dp3632
g58
(dp3633
g66
I2
ssg67
Nsg60
(lp3634
g53
(g69
g55
NtRp3635
(dp3636
g58
(dp3637
sg67
g3631
sg60
(lp3638
g53
(g74
g55
NtRp3639
(dp3640
g58
(dp3641
sg67
g3635
sg60
(lp3642
g53
(g54
g55
NtRp3643
(dp3644
g58
(dp3645
g66
I2
ssg67
g3639
sg60
(lp3646
g53
(g62
g55
NtRp3647
(dp3648
g58
(dp3649
g66
I1
ssg67
Nsg60
(lp3650
g53
(g69
g55
NtRp3651
(dp3652
g58
(dp3653
sg67
g3647
sg60
(lp3654
g53
(g74
g55
NtRp3655
(dp3656
g58
(dp3657
sg67
g3651
sg60
(lp3658
g53
(g54
g55
NtRp3659
(dp3660
g58
(dp3661
g66
I1
ssg67
g3655
sg60
(lp3662
g3517
(S's\x08\x00\x00\x00My Sites'
tRp3663
asbasbasbag53
(g69
g55
NtRp3664
(dp3665
g58
(dp3666
sg67
g3647
sg60
(lp3667
g53
(g74
g55
NtRp3668
(dp3669
g58
(dp3670
sg67
g3664
sg60
(lp3671
g53
(g54
g55
NtRp3672
(dp3673
g58
(dp3674
g66
I1
ssg67
g3668
sg60
(lp3675
I00
asbasbasbag53
(g69
g55
NtRp3676
(dp3677
g58
(dp3678
sg67
g3647
sg60
(lp3679
g53
(g74
g55
NtRp3680
(dp3681
g58
(dp3682
sg67
g3676
sg60
(lp3683
g53
(g54
g55
NtRp3684
(dp3685
g58
(dp3686
g66
I1
ssg67
g3680
sg60
(lp3687
S'/admin/default/site'
p3688
asbasbasbasbasbasbasbag53
(g69
g55
NtRp3689
(dp3690
g58
(dp3691
sg67
g3631
sg60
(lp3692
g53
(g74
g55
NtRp3693
(dp3694
g58
(dp3695
sg67
g3689
sg60
(lp3696
g53
(g54
g55
NtRp3697
(dp3698
g58
(dp3699
g66
I2
ssg67
g3693
sg60
(lp3700
g53
(g62
g55
NtRp3701
(dp3702
g58
(dp3703
g66
I1
ssg67
Nsg60
(lp3704
g53
(g69
g55
NtRp3705
(dp3706
g58
(dp3707
sg67
g3701
sg60
(lp3708
g53
(g74
g55
NtRp3709
(dp3710
g58
(dp3711
sg67
g3705
sg60
(lp3712
g53
(g54
g55
NtRp3713
(dp3714
g58
(dp3715
g66
I1
ssg67
g3709
sg60
(lp3716
g3517
(S's\x08\x00\x00\x00This App'
tRp3717
asbasbasbag53
(g69
g55
NtRp3718
(dp3719
g58
(dp3720
sg67
g3701
sg60
(lp3721
g53
(g74
g55
NtRp3722
(dp3723
g58
(dp3724
sg67
g3718
sg60
(lp3725
g53
(g54
g55
NtRp3726
(dp3727
g58
(dp3728
g66
I1
ssg67
g3722
sg60
(lp3729
I00
asbasbasbag53
(g69
g55
NtRp3730
(dp3731
g58
(dp3732
sg67
g3701
sg60
(lp3733
g53
(g74
g55
NtRp3734
(dp3735
g58
(dp3736
sg67
g3730
sg60
(lp3737
g53
(g54
g55
NtRp3738
(dp3739
g58
(dp3740
g66
I1
ssg67
g3734
sg60
(lp3741
S'/admin/default/design/init'
p3742
asbasbasbag53
(g69
g55
NtRp3743
(dp3744
g58
(dp3745
sg67
g3701
sg60
(lp3746
g53
(g74
g55
NtRp3747
(dp3748
g58
(dp3749
sg67
g3743
sg60
(lp3750
g53
(g54
g55
NtRp3751
(dp3752
g58
(dp3753
g66
I1
ssg67
g3747
sg60
(lp3754
(lp3755
(g3517
(S's\n\x00\x00\x00Controller'
tRp3756
I00
S'/admin/default/edit/init/controllers/default.py'
tp3757
a(g3517
(S's\x04\x00\x00\x00View'
tRp3758
I00
S'/admin/default/edit/init/views/default/index.html'
tp3759
a(g3517
(S's\x06\x00\x00\x00Layout'
tRp3760
I00
S'/admin/default/edit/init/views/layout.html'
tp3761
a(g3517
(S's\n\x00\x00\x00Stylesheet'
tRp3762
I00
S'/admin/default/edit/init/static/css/web2py.css'
tp3763
a(g3517
(S's\x08\x00\x00\x00DB Model'
tRp3764
I00
S'/admin/default/edit/init/models/db.py'
tp3765
a(g3517
(S's\n\x00\x00\x00Menu Model'
tRp3766
I00
S'/admin/default/edit/init/models/menu.py'
tp3767
a(g3517
(S's\x08\x00\x00\x00Database'
tRp3768
I00
S'/init/appadmin/index'
tp3769
a(g3517
(S's\x06\x00\x00\x00Errors'
tRp3770
I00
S'/admin/default/errors/init'
tp3771
a(g3517
(S's\x05\x00\x00\x00About'
tRp3772
I00
S'/admin/default/about/init'
tp3773
aasbasbasbasbasbasbasbag53
(g69
g55
NtRp3774
(dp3775
g58
(dp3776
sg67
g3631
sg60
(lp3777
g53
(g74
g55
NtRp3778
(dp3779
g58
(dp3780
sg67
g3774
sg60
(lp3781
g53
(g54
g55
NtRp3782
(dp3783
g58
(dp3784
g66
I2
ssg67
g3778
sg60
(lp3785
g53
(g62
g55
NtRp3786
(dp3787
g58
(dp3788
g66
I1
ssg67
Nsg60
(lp3789
g53
(g69
g55
NtRp3790
(dp3791
g58
(dp3792
sg67
g3786
sg60
(lp3793
g53
(g74
g55
NtRp3794
(dp3795
g58
(dp3796
sg67
g3790
sg60
(lp3797
g53
(g54
g55
NtRp3798
(dp3799
g58
(dp3800
g66
I1
ssg67
g3794
sg60
(lp3801
S'web2py.com'
p3802
asbasbasbag53
(g69
g55
NtRp3803
(dp3804
g58
(dp3805
sg67
g3786
sg60
(lp3806
g53
(g74
g55
NtRp3807
(dp3808
g58
(dp3809
sg67
g3803
sg60
(lp3810
g53
(g54
g55
NtRp3811
(dp3812
g58
(dp3813
g66
I1
ssg67
g3807
sg60
(lp3814
I00
asbasbasbag53
(g69
g55
NtRp3815
(dp3816
g58
(dp3817
sg67
g3786
sg60
(lp3818
g53
(g74
g55
NtRp3819
(dp3820
g58
(dp3821
sg67
g3815
sg60
(lp3822
g53
(g54
g55
NtRp3823
(dp3824
g58
(dp3825
g66
I1
ssg67
g3819
sg60
(lp3826
S'http://www.web2py.com'
p3827
asbasbasbag53
(g69
g55
NtRp3828
(dp3829
g58
(dp3830
sg67
g3786
sg60
(lp3831
g53
(g74
g55
NtRp3832
(dp3833
g58
(dp3834
sg67
g3828
sg60
(lp3835
g53
(g54
g55
NtRp3836
(dp3837
g58
(dp3838
g66
I1
ssg67
g3832
sg60
(lp3839
(lp3840
(g3517
(S's\x08\x00\x00\x00Download'
tRp3841
I00
S'http://www.web2py.com/examples/default/download'
p3842
tp3843
a(g3517
(S's\x07\x00\x00\x00Support'
tRp3844
I00
S'http://www.web2py.com/examples/default/support'
p3845
tp3846
a(g3517
(S's\x04\x00\x00\x00Demo'
tRp3847
I00
S'http://web2py.com/demo_admin'
p3848
tp3849
a(g3517
(S's\x0e\x00\x00\x00Quick Examples'
tRp3850
I00
S'http://web2py.com/examples/default/examples'
p3851
tp3852
a(g3517
(S's\x03\x00\x00\x00FAQ'
tRp3853
I00
S'http://web2py.com/AlterEgo'
p3854
tp3855
a(g3517
(S's\x06\x00\x00\x00Videos'
tRp3856
I00
S'http://www.web2py.com/examples/default/videos/'
p3857
tp3858
a(g3517
(S's\x11\x00\x00\x00Free Applications'
tRp3859
I00
S'http://web2py.com/appliances'
p3860
tp3861
a(g3517
(S's\x07\x00\x00\x00Plugins'
tRp3862
I00
S'http://web2py.com/plugins'
p3863
tp3864
a(g3517
(S's\x07\x00\x00\x00Layouts'
tRp3865
I00
S'http://web2py.com/layouts'
p3866
tp3867
a(g3517
(S's\x07\x00\x00\x00Recipes'
tRp3868
I00
S'http://web2pyslices.com/'
p3869
tp3870
a(g3517
(S's\x08\x00\x00\x00Semantic'
tRp3871
I00
S'http://web2py.com/semantic'
p3872
tp3873
aasbasbasbasbasbasbasbag53
(g69
g55
NtRp3874
(dp3875
g58
(dp3876
sg67
g3631
sg60
(lp3877
g53
(g74
g55
NtRp3878
(dp3879
g58
(dp3880
sg67
g3874
sg60
(lp3881
g53
(g54
g55
NtRp3882
(dp3883
g58
(dp3884
g66
I2
ssg67
g3878
sg60
(lp3885
g53
(g62
g55
NtRp3886
(dp3887
g58
(dp3888
g66
I1
ssg67
Nsg60
(lp3889
g53
(g69
g55
NtRp3890
(dp3891
g58
(dp3892
sg67
g3886
sg60
(lp3893
g53
(g74
g55
NtRp3894
(dp3895
g58
(dp3896
sg67
g3890
sg60
(lp3897
g53
(g54
g55
NtRp3898
(dp3899
g58
(dp3900
g66
I1
ssg67
g3894
sg60
(lp3901
g3517
(S's\r\x00\x00\x00Documentation'
tRp3902
asbasbasbag53
(g69
g55
NtRp3903
(dp3904
g58
(dp3905
sg67
g3886
sg60
(lp3906
g53
(g74
g55
NtRp3907
(dp3908
g58
(dp3909
sg67
g3903
sg60
(lp3910
g53
(g54
g55
NtRp3911
(dp3912
g58
(dp3913
g66
I1
ssg67
g3907
sg60
(lp3914
I00
asbasbasbag53
(g69
g55
NtRp3915
(dp3916
g58
(dp3917
sg67
g3886
sg60
(lp3918
g53
(g74
g55
NtRp3919
(dp3920
g58
(dp3921
sg67
g3915
sg60
(lp3922
g53
(g54
g55
NtRp3923
(dp3924
g58
(dp3925
g66
I1
ssg67
g3919
sg60
(lp3926
S'http://www.web2py.com/book'
p3927
asbasbasbag53
(g69
g55
NtRp3928
(dp3929
g58
(dp3930
sg67
g3886
sg60
(lp3931
g53
(g74
g55
NtRp3932
(dp3933
g58
(dp3934
sg67
g3928
sg60
(lp3935
g53
(g54
g55
NtRp3936
(dp3937
g58
(dp3938
g66
I1
ssg67
g3932
sg60
(lp3939
(lp3940
(g3517
(S's\x07\x00\x00\x00Preface'
tRp3941
I00
S'http://www.web2py.com/book/default/chapter/00'
p3942
tp3943
a(g3517
(S's\x0c\x00\x00\x00Introduction'
tRp3944
I00
S'http://www.web2py.com/book/default/chapter/01'
p3945
tp3946
a(g3517
(S's\x06\x00\x00\x00Python'
tRp3947
I00
S'http://www.web2py.com/book/default/chapter/02'
p3948
tp3949
a(g3517
(S's\x08\x00\x00\x00Overview'
tRp3950
I00
S'http://www.web2py.com/book/default/chapter/03'
p3951
tp3952
a(g3517
(S's\x08\x00\x00\x00The Core'
tRp3953
I00
S'http://www.web2py.com/book/default/chapter/04'
p3954
tp3955
a(g3517
(S's\t\x00\x00\x00The Views'
tRp3956
I00
S'http://www.web2py.com/book/default/chapter/05'
p3957
tp3958
a(g3517
(S's\x08\x00\x00\x00Database'
tRp3959
I00
S'http://www.web2py.com/book/default/chapter/06'
p3960
tp3961
a(g3517
(S's\x14\x00\x00\x00Forms and Validators'
tRp3962
I00
S'http://www.web2py.com/book/default/chapter/07'
p3963
tp3964
a(g3517
(S's\r\x00\x00\x00Email and SMS'
tRp3965
I00
S'http://www.web2py.com/book/default/chapter/08'
p3966
tp3967
a(g3517
(S's\x0e\x00\x00\x00Access Control'
tRp3968
I00
S'http://www.web2py.com/book/default/chapter/09'
p3969
tp3970
a(g3517
(S's\x08\x00\x00\x00Services'
tRp3971
I00
S'http://www.web2py.com/book/default/chapter/10'
p3972
tp3973
a(g3517
(S's\x0c\x00\x00\x00Ajax Recipes'
tRp3974
I00
S'http://www.web2py.com/book/default/chapter/11'
p3975
tp3976
a(g3517
(S's\x16\x00\x00\x00Components and Plugins'
tRp3977
I00
S'http://www.web2py.com/book/default/chapter/12'
p3978
tp3979
a(g3517
(S's\x12\x00\x00\x00Deployment Recipes'
tRp3980
I00
S'http://www.web2py.com/book/default/chapter/13'
p3981
tp3982
a(g3517
(S's\r\x00\x00\x00Other Recipes'
tRp3983
I00
S'http://www.web2py.com/book/default/chapter/14'
p3984
tp3985
a(g3517
(S's\r\x00\x00\x00Buy this book'
tRp3986
I00
S'http://stores.lulu.com/web2py'
p3987
tp3988
aasbasbasbasbasbasbasbag53
(g69
g55
NtRp3989
(dp3990
g58
(dp3991
sg67
g3631
sg60
(lp3992
g53
(g74
g55
NtRp3993
(dp3994
g58
(dp3995
sg67
g3989
sg60
(lp3996
g53
(g54
g55
NtRp3997
(dp3998
g58
(dp3999
g66
I2
ssg67
g3993
sg60
(lp4000
g53
(g62
g55
NtRp4001
(dp4002
g58
(dp4003
g66
I1
ssg67
Nsg60
(lp4004
g53
(g69
g55
NtRp4005
(dp4006
g58
(dp4007
sg67
g4001
sg60
(lp4008
g53
(g74
g55
NtRp4009
(dp4010
g58
(dp4011
sg67
g4005
sg60
(lp4012
g53
(g54
g55
NtRp4013
(dp4014
g58
(dp4015
g66
I1
ssg67
g4009
sg60
(lp4016
g3517
(S's\t\x00\x00\x00Community'
tRp4017
asbasbasbag53
(g69
g55
NtRp4018
(dp4019
g58
(dp4020
sg67
g4001
sg60
(lp4021
g53
(g74
g55
NtRp4022
(dp4023
g58
(dp4024
sg67
g4018
sg60
(lp4025
g53
(g54
g55
NtRp4026
(dp4027
g58
(dp4028
g66
I1
ssg67
g4022
sg60
(lp4029
I00
asbasbasbag53
(g69
g55
NtRp4030
(dp4031
g58
(dp4032
sg67
g4001
sg60
(lp4033
g53
(g74
g55
NtRp4034
(dp4035
g58
(dp4036
sg67
g4030
sg60
(lp4037
g53
(g54
g55
NtRp4038
(dp4039
g58
(dp4040
g66
I1
ssg67
g4034
sg60
(lp4041
Nasbasbasbag53
(g69
g55
NtRp4042
(dp4043
g58
(dp4044
sg67
g4001
sg60
(lp4045
g53
(g74
g55
NtRp4046
(dp4047
g58
(dp4048
sg67
g4042
sg60
(lp4049
g53
(g54
g55
NtRp4050
(dp4051
g58
(dp4052
g66
I1
ssg67
g4046
sg60
(lp4053
(lp4054
(g3517
(S's\x06\x00\x00\x00Groups'
tRp4055
I00
S'http://www.web2py.com/examples/default/usergroups'
p4056
tp4057
a(g3517
(S's\x07\x00\x00\x00Twitter'
tRp4058
I00
S'http://twitter.com/web2py'
p4059
tp4060
a(g3517
(S's\t\x00\x00\x00Live Chat'
tRp4061
I00
S'http://webchat.freenode.net/?channels=web2py'
p4062
tp4063
aasbasbasbasbasbasbasbag53
(g69
g55
NtRp4064
(dp4065
g58
(dp4066
sg67
g3631
sg60
(lp4067
g53
(g74
g55
NtRp4068
(dp4069
g58
(dp4070
sg67
g4064
sg60
(lp4071
g53
(g54
g55
NtRp4072
(dp4073
g58
(dp4074
g66
I2
ssg67
g4068
sg60
(lp4075
g53
(g62
g55
NtRp4076
(dp4077
g58
(dp4078
g66
I1
ssg67
Nsg60
(lp4079
g53
(g69
g55
NtRp4080
(dp4081
g58
(dp4082
sg67
g4076
sg60
(lp4083
g53
(g74
g55
NtRp4084
(dp4085
g58
(dp4086
sg67
g4080
sg60
(lp4087
g53
(g54
g55
NtRp4088
(dp4089
g58
(dp4090
g66
I1
ssg67
g4084
sg60
(lp4091
g3517
(S's\x07\x00\x00\x00Plugins'
tRp4092
asbasbasbag53
(g69
g55
NtRp4093
(dp4094
g58
(dp4095
sg67
g4076
sg60
(lp4096
g53
(g74
g55
NtRp4097
(dp4098
g58
(dp4099
sg67
g4093
sg60
(lp4100
g53
(g54
g55
NtRp4101
(dp4102
g58
(dp4103
g66
I1
ssg67
g4097
sg60
(lp4104
I00
asbasbasbag53
(g69
g55
NtRp4105
(dp4106
g58
(dp4107
sg67
g4076
sg60
(lp4108
g53
(g74
g55
NtRp4109
(dp4110
g58
(dp4111
sg67
g4105
sg60
(lp4112
g53
(g54
g55
NtRp4113
(dp4114
g58
(dp4115
g66
I1
ssg67
g4109
sg60
(lp4116
Nasbasbasbag53
(g69
g55
NtRp4117
(dp4118
g58
(dp4119
sg67
g4076
sg60
(lp4120
g53
(g74
g55
NtRp4121
(dp4122
g58
(dp4123
sg67
g4117
sg60
(lp4124
g53
(g54
g55
NtRp4125
(dp4126
g58
(dp4127
g66
I1
ssg67
g4121
sg60
(lp4128
(lp4129
(S'plugin_wiki'
p4130
I00
S'http://web2py.com/examples/default/download'
p4131
tp4132
a(g3517
(S's\r\x00\x00\x00Other Plugins'
tRp4133
I00
g3863
tp4134
a(g3517
(S's\x0e\x00\x00\x00Layout Plugins'
tRp4135
I00
g3866
tp4136
aasbasbasbasbasbasbasbasbasbasbasbasbasbasbasbasbasbasbasbag53
(g69
g55
NtRp4137
(dp4138
g58
(dp4139
sg67
g2981
sg60
(lp4140
g53
(g74
g55
NtRp4141
(dp4142
g58
(dp4143
g78
g79
ssg67
g4137
sg60
(lp4144
S'meta'
p4145
asbag53
(g74
g55
NtRp4146
(dp4147
g58
(dp4148
g85
g86
ssg67
g4137
sg60
(lp4149
S':'
asbag53
(g74
g55
NtRp4150
(dp4151
g58
(dp4152
sg67
g4137
sg60
(lp4153
g53
(g54
g55
NtRp4154
(dp4155
g58
(dp4156
g66
I5
ssg67
g4150
sg60
(lp4157
g53
(g62
g55
NtRp4158
(dp4159
g58
(dp4160
g66
I4
ssg67
Nsg60
(lp4161
g53
(g69
g55
NtRp4162
(dp4163
g58
(dp4164
sg67
g4158
sg60
(lp4165
g53
(g74
g55
NtRp4166
(dp4167
g58
(dp4168
g78
g79
ssg67
g4162
sg60
(lp4169
S'author'
p4170
asbag53
(g74
g55
NtRp4171
(dp4172
g58
(dp4173
g85
g86
ssg67
g4162
sg60
(lp4174
S':'
asbag53
(g74
g55
NtRp4175
(dp4176
g58
(dp4177
sg67
g4162
sg60
(lp4178
g53
(g54
g55
NtRp4179
(dp4180
g58
(dp4181
g66
I4
ssg67
g4175
sg60
(lp4182
S'Your Name <you@example.com>'
p4183
asbasbasbag53
(g69
g55
NtRp4184
(dp4185
g58
(dp4186
sg67
g4158
sg60
(lp4187
g53
(g74
g55
NtRp4188
(dp4189
g58
(dp4190
g78
g79
ssg67
g4184
sg60
(lp4191
S'copyright'
p4192
asbag53
(g74
g55
NtRp4193
(dp4194
g58
(dp4195
g85
g86
ssg67
g4184
sg60
(lp4196
S':'
asbag53
(g74
g55
NtRp4197
(dp4198
g58
(dp4199
sg67
g4184
sg60
(lp4200
g53
(g54
g55
NtRp4201
(dp4202
g58
(dp4203
g66
I4
ssg67
g4197
sg60
(lp4204
S'Copyright 2011'
p4205
asbasbasbag53
(g69
g55
NtRp4206
(dp4207
g58
(dp4208
sg67
g4158
sg60
(lp4209
g53
(g74
g55
NtRp4210
(dp4211
g58
(dp4212
g78
g79
ssg67
g4206
sg60
(lp4213
S'description'
p4214
asbag53
(g74
g55
NtRp4215
(dp4216
g58
(dp4217
g85
g86
ssg67
g4206
sg60
(lp4218
S':'
asbag53
(g74
g55
NtRp4219
(dp4220
g58
(dp4221
sg67
g4206
sg60
(lp4222
g53
(g54
g55
NtRp4223
(dp4224
g58
(dp4225
g66
I4
ssg67
g4219
sg60
(lp4226
S'a cool new app'
p4227
asbasbasbag53
(g69
g55
NtRp4228
(dp4229
g58
(dp4230
sg67
g4158
sg60
(lp4231
g53
(g74
g55
NtRp4232
(dp4233
g58
(dp4234
g78
g79
ssg67
g4228
sg60
(lp4235
S'generator'
p4236
asbag53
(g74
g55
NtRp4237
(dp4238
g58
(dp4239
g85
g86
ssg67
g4228
sg60
(lp4240
S':'
asbag53
(g74
g55
NtRp4241
(dp4242
g58
(dp4243
sg67
g4228
sg60
(lp4244
g53
(g54
g55
NtRp4245
(dp4246
g58
(dp4247
g66
I4
ssg67
g4241
sg60
(lp4248
S'Web2py Web Framework'
p4249
asbasbasbag53
(g69
g55
NtRp4250
(dp4251
g58
(dp4252
sg67
g4158
sg60
(lp4253
g53
(g74
g55
NtRp4254
(dp4255
g58
(dp4256
g78
g79
ssg67
g4250
sg60
(lp4257
S'keywords'
p4258
asbag53
(g74
g55
NtRp4259
(dp4260
g58
(dp4261
g85
g86
ssg67
g4250
sg60
(lp4262
S':'
asbag53
(g74
g55
NtRp4263
(dp4264
g58
(dp4265
sg67
g4250
sg60
(lp4266
g53
(g54
g55
NtRp4267
(dp4268
g58
(dp4269
g66
I4
ssg67
g4263
sg60
(lp4270
S'web2py, python, framework'
p4271
asbasbasbasbasbasbasbag53
(g69
g55
NtRp4272
(dp4273
g58
(dp4274
sg67
g2981
sg60
(lp4275
g53
(g74
g55
NtRp4276
(dp4277
g58
(dp4278
g78
g79
ssg67
g4272
sg60
(lp4279
S'postprocessing'
p4280
asbag53
(g74
g55
NtRp4281
(dp4282
g58
(dp4283
g85
g86
ssg67
g4272
sg60
(lp4284
S':'
asbag53
(g74
g55
NtRp4285
(dp4286
g58
(dp4287
sg67
g4272
sg60
(lp4288
g53
(g54
g55
NtRp4289
(dp4290
g58
(dp4291
g66
I5
ssg67
g4285
sg60
(lp4292
g53
(g62
g55
NtRp4293
(dp4294
g58
(dp4295
g66
I4
ssg67
Nsg60
(lp4296
sbasbasbasbag53
(g69
g55
NtRp4297
(dp4298
g58
(dp4299
sg67
g2981
sg60
(lp4300
g53
(g74
g55
NtRp4301
(dp4302
g58
(dp4303
g78
g79
ssg67
g4297
sg60
(lp4304
S'session_file'
p4305
asbag53
(g74
g55
NtRp4306
(dp4307
g58
(dp4308
g85
g86
ssg67
g4297
sg60
(lp4309
S':'
asbag53
(g74
g55
NtRp4310
(dp4311
g58
(dp4312
sg67
g4297
sg60
(lp4313
g53
(g54
g55
NtRp4314
(dp4315
g58
(dp4316
g66
I5
ssg67
g4310
sg60
(lp4317
S"<open file 'C:\\Users\\Bussiere\\Dropbox\\Projets\\Yuki\\web2py\\applications\\init\\sessions\\127.0.0.1-e491f18b-7b0c-472f-8228-a18d6ec769aa', mode 'rb+' at 0x07131A88>"
p4318
asbasbasbag53
(g69
g55
NtRp4319
(dp4320
g58
(dp4321
sg67
g2981
sg60
(lp4322
g53
(g74
g55
NtRp4323
(dp4324
g58
(dp4325
g78
g79
ssg67
g4319
sg60
(lp4326
S'session_filename'
p4327
asbag53
(g74
g55
NtRp4328
(dp4329
g58
(dp4330
g85
g86
ssg67
g4319
sg60
(lp4331
S':'
asbag53
(g74
g55
NtRp4332
(dp4333
g58
(dp4334
sg67
g4319
sg60
(lp4335
g53
(g54
g55
NtRp4336
(dp4337
g58
(dp4338
g66
I5
ssg67
g4332
sg60
(lp4339
S'C:\\Users\\Bussiere\\Dropbox\\Projets\\Yuki\\web2py\\applications\\init\\sessions\\127.0.0.1-e491f18b-7b0c-472f-8228-a18d6ec769aa'
p4340
asbasbasbag53
(g69
g55
NtRp4341
(dp4342
g58
(dp4343
sg67
g2981
sg60
(lp4344
g53
(g74
g55
NtRp4345
(dp4346
g58
(dp4347
g78
g79
ssg67
g4341
sg60
(lp4348
S'session_id'
p4349
asbag53
(g74
g55
NtRp4350
(dp4351
g58
(dp4352
g85
g86
ssg67
g4341
sg60
(lp4353
S':'
asbag53
(g74
g55
NtRp4354
(dp4355
g58
(dp4356
sg67
g4341
sg60
(lp4357
g53
(g54
g55
NtRp4358
(dp4359
g58
(dp4360
g66
I5
ssg67
g4354
sg60
(lp4361
S'127.0.0.1-e491f18b-7b0c-472f-8228-a18d6ec769aa'
p4362
asbasbasbag53
(g69
g55
NtRp4363
(dp4364
g58
(dp4365
sg67
g2981
sg60
(lp4366
g53
(g74
g55
NtRp4367
(dp4368
g58
(dp4369
g78
g79
ssg67
g4363
sg60
(lp4370
S'session_id_name'
p4371
asbag53
(g74
g55
NtRp4372
(dp4373
g58
(dp4374
g85
g86
ssg67
g4363
sg60
(lp4375
S':'
asbag53
(g74
g55
NtRp4376
(dp4377
g58
(dp4378
sg67
g4363
sg60
(lp4379
g53
(g54
g55
NtRp4380
(dp4381
g58
(dp4382
g66
I5
ssg67
g4376
sg60
(lp4383
g3038
asbasbasbag53
(g69
g55
NtRp4384
(dp4385
g58
(dp4386
sg67
g2981
sg60
(lp4387
g53
(g74
g55
NtRp4388
(dp4389
g58
(dp4390
g78
g79
ssg67
g4384
sg60
(lp4391
S'session_locked'
p4392
asbag53
(g74
g55
NtRp4393
(dp4394
g58
(dp4395
g85
g86
ssg67
g4384
sg60
(lp4396
S':'
asbag53
(g74
g55
NtRp4397
(dp4398
g58
(dp4399
sg67
g4384
sg60
(lp4400
g53
(g54
g55
NtRp4401
(dp4402
g58
(dp4403
g66
I5
ssg67
g4397
sg60
(lp4404
g730
asbasbasbag53
(g69
g55
NtRp4405
(dp4406
g58
(dp4407
sg67
g2981
sg60
(lp4408
g53
(g74
g55
NtRp4409
(dp4410
g58
(dp4411
g78
g79
ssg67
g4405
sg60
(lp4412
S'session_new'
p4413
asbag53
(g74
g55
NtRp4414
(dp4415
g58
(dp4416
g85
g86
ssg67
g4405
sg60
(lp4417
S':'
asbag53
(g74
g55
NtRp4418
(dp4419
g58
(dp4420
sg67
g4405
sg60
(lp4421
g53
(g54
g55
NtRp4422
(dp4423
g58
(dp4424
g66
I5
ssg67
g4418
sg60
(lp4425
g96
asbasbasbag53
(g69
g55
NtRp4426
(dp4427
g58
(dp4428
sg67
g2981
sg60
(lp4429
g53
(g74
g55
NtRp4430
(dp4431
g58
(dp4432
g78
g79
ssg67
g4426
sg60
(lp4433
S'status'
p4434
asbag53
(g74
g55
NtRp4435
(dp4436
g58
(dp4437
g85
g86
ssg67
g4426
sg60
(lp4438
S':'
asbag53
(g74
g55
NtRp4439
(dp4440
g58
(dp4441
sg67
g4426
sg60
(lp4442
g53
(g54
g55
NtRp4443
(dp4444
g58
(dp4445
g66
I5
ssg67
g4439
sg60
(lp4446
S'200'
p4447
asbasbasbag53
(g69
g55
NtRp4448
(dp4449
g58
(dp4450
sg67
g2981
sg60
(lp4451
g53
(g74
g55
NtRp4452
(dp4453
g58
(dp4454
g78
g79
ssg67
g4448
sg60
(lp4455
S'subtitle'
p4456
asbag53
(g74
g55
NtRp4457
(dp4458
g58
(dp4459
g85
g86
ssg67
g4448
sg60
(lp4460
S':'
asbag53
(g74
g55
NtRp4461
(dp4462
g58
(dp4463
sg67
g4448
sg60
(lp4464
g53
(g54
g55
NtRp4465
(dp4466
g58
(dp4467
g66
I5
ssg67
g4461
sg60
(lp4468
g3517
(S's\r\x00\x00\x00customize me!'
tRp4469
asbasbasbag53
(g69
g55
NtRp4470
(dp4471
g58
(dp4472
sg67
g2981
sg60
(lp4473
g53
(g74
g55
NtRp4474
(dp4475
g58
(dp4476
g78
g79
ssg67
g4470
sg60
(lp4477
S'title'
p4478
asbag53
(g74
g55
NtRp4479
(dp4480
g58
(dp4481
g85
g86
ssg67
g4470
sg60
(lp4482
S':'
asbag53
(g74
g55
NtRp4483
(dp4484
g58
(dp4485
sg67
g4470
sg60
(lp4486
g53
(g54
g55
NtRp4487
(dp4488
g58
(dp4489
g66
I5
ssg67
g4483
sg60
(lp4490
S'Init'
p4491
asbasbasbag53
(g69
g55
NtRp4492
(dp4493
g58
(dp4494
sg67
g2981
sg60
(lp4495
g53
(g74
g55
NtRp4496
(dp4497
g58
(dp4498
g78
g79
ssg67
g4492
sg60
(lp4499
g2111
asbag53
(g74
g55
NtRp4500
(dp4501
g58
(dp4502
g85
g86
ssg67
g4492
sg60
(lp4503
S':'
asbag53
(g74
g55
NtRp4504
(dp4505
g58
(dp4506
sg67
g4492
sg60
(lp4507
g53
(g54
g55
NtRp4508
(dp4509
g58
(dp4510
g66
I5
ssg67
g4504
sg60
(lp4511
g2124
asbasbasbag53
(g69
g55
NtRp4512
(dp4513
g58
(dp4514
sg67
g2981
sg60
(lp4515
g53
(g74
g55
NtRp4516
(dp4517
g58
(dp4518
g78
g79
ssg67
g4512
sg60
(lp4519
S'view'
p4520
asbag53
(g74
g55
NtRp4521
(dp4522
g58
(dp4523
g85
g86
ssg67
g4512
sg60
(lp4524
S':'
asbag53
(g74
g55
NtRp4525
(dp4526
g58
(dp4527
sg67
g4512
sg60
(lp4528
g53
(g54
g55
NtRp4529
(dp4530
g58
(dp4531
g66
I5
ssg67
g4525
sg60
(lp4532
S'default/index.html'
p4533
asbasbasbasbasbsS'locals'
p4534
(dp4535
S'a'
S"('SELECT  Barcodebase FROM Barcodebase WHERE (Barcodebase.id > 0);',)"
p4536
sS'self'
p4537
S'<gluon.dal.SQLiteAdapter object at 0x06FDE570>'
p4538
sS'b'
g41
sS't0'
p4539
S'1331613957.4649999'
p4540
sssS'traceback'
p4541
S'Traceback (most recent call last):\n  File "gluon/restricted.py", line 205, in restricted\n  File "C:\\Users\\Bussiere\\Dropbox\\Projets\\Yuki\\web2py\\applications\\init\\controllers/default.py", line 98, in <module>\n  File "gluon/globals.py", line 173, in <lambda>\n  File "C:\\Users\\Bussiere\\Dropbox\\Projets\\Yuki\\web2py\\applications\\init\\controllers/default.py", line 24, in index\n  File "gluon/tools.py", line 3265, in select\n  File "gluon/tools.py", line 3251, in rows\n  File "gluon/dal.py", line 7578, in select\n  File "gluon/dal.py", line 1315, in select\n  File "gluon/dal.py", line 1305, in response\n  File "gluon/dal.py", line 1392, in execute\n  File "gluon/dal.py", line 1386, in log_execute\nOperationalError: no such column: Barcodebase\n'
p4542
s.