(dp1
S'output'
p2
S"<type 'exceptions.SyntaxError'> Field: unknown field type: float for Price"
p3
sS'layer'
p4
S'C:\\Users\\Bussiere\\Dropbox\\Projets\\Yuki\\web2py\\applications\\init\\models\\db.py'
p5
sS'code'
p6
S"# -*- coding: utf-8 -*-\n\n#########################################################################\n## This scaffolding model makes your app work on Google App Engine too\n## File is released under public domain and you can use without limitations\n#########################################################################\n\n## if SSL/HTTPS is properly configured and you want all HTTP requests to\n## be redirected to HTTPS, uncomment the line below:\n# request.requires_https()\n\nif not request.env.web2py_runtime_gae:\n    ## if NOT running on Google App Engine use SQLite or other DB\n    db = DAL('sqlite://storage.sqlite')\nelse:\n    ## connect to Google BigTable (optional 'google:datastore://namespace')\n    db = DAL('google:datastore')\n    ## store sessions and tickets there\n    session.connect(request, response, db = db)\n    ## or store session in Memcache, Redis, etc.\n    ## from gluon.contrib.memdb import MEMDB\n    ## from google.appengine.api.memcache import Client\n    ## session.connect(request, response, db = MEMDB(Client()))\n\n## by default give a view/generic.extension to all actions from localhost\n## none otherwise. a pattern can be 'controller/function.extension'\nresponse.generic_patterns = ['*'] if request.is_local else []\n## (optional) optimize handling of static files\n# response.optimize_css = 'concat,minify,inline'\n# response.optimize_js = 'concat,minify,inline'\n\n#########################################################################\n## Here is sample code if you need for\n## - email capabilities\n## - auth_userentication (registration, login, logout, ... )\n## - auth_userorization (role based auth_userorization)\n## - services (xml, csv, json, xmlrpc, jsonrpc, amf, rss)\n## - old style crud actions\n## (more options discussed in gluon/tools.py)\n#########################################################################\n\nfrom gluon.tools import Auth, Crud, Service, PluginManager, prettydate\nauth = Auth(db, hmac_key=Auth.get_or_create_key())\ncrud, service, plugins = Crud(db), Service(), PluginManager()\n\n## create all tables needed by auth_user if not custom tables\nauth.define_tables()\n\n\ndb.define_table('Barcode',\n   Field('Barcode', unique=True),\n   Field('auth_user','list:reference auth_user'),\n   Field('Comment','list:reference Comment'),\n   Field('Seller','list:reference Seller'),\n   Field('Livre','list:reference Livre'),\n   Field('Musique','list:reference Musique'),\n   Field('Video','list:reference Video'),\n   Field('Figur','list:reference Figur'),\n   Field('Goodie','list:reference Goodie'),\n   Field('VideoGame','list:reference VideoGame'),\n   format = '%(Barcodee)s')\n   \ndb.define_table('Comment',\n   Field('Name', unique=True),\n   Field('Texte'),\n   Field('Vote', 'integer'),\n   Field('auth_user',db.auth_user),\n   format = '%(Name)s')\n\n\ndb.define_table('Convention',\n   Field('Nom', unique=True),\n   Field('Localisation','list:reference Localisation'),\n   Field('auth_user','list:reference auth_user'),\n   Field('Comment','list:reference Comment'),\n   Field('Seller','list:reference Seller'),\n   Field('Livre','list:reference Livre'),\n   Field('Musique','list:reference Musique'),\n   Field('Video','list:reference Video'),\n   Field('Figur','list:reference Figur'),\n   Field('Goodie','list:reference Goodie'),\n   Field('Link','list:reference Link'),\n   Field('Tag','list:reference Tag'),\n\n   format = '%(Nom)s')\n\ndb.define_table('auth_useror',\n   Field('Nom', unique=True),\n   Field('Tag','list:reference Tag'),\n   format = '%(Nom)s')\n\ndb.define_table('Character',\n   Field('Nom', unique=True),\n   Field('Tag','list:reference Tag'),\n   format = '%(Nom)s')\n\ndb.define_table('Figur',\n   Field('Name', unique=True),\n   Field('Date'),\n   Field('Characters','list:reference Character'),\n   Field('auth_userors','list:reference auth_useror'),\n   Field('Tag','list:reference Tag'),\n   Field('Price','list:reference Price'),\n   Field('Seller','list:reference Seller'),\n   Field('Convention','list:reference Convention'),\n   Field('Vote','list:reference Vote'),\n   Field('BarCode','list:reference BarCode'),\n   Field('Comment','list:reference Comment'),\n   Field('Link','list:reference Link'),\n   format = '%(Nom)s')\n   \ndb.define_table('TypeMusic',\n   Field('Nom', unique=True),\n   format = '%(Nom)s')\n\n\ndb.define_table('Music',\n   Field('Name', unique=True),\n   Field('Date'),\n   Field('auth_userors','list:reference auth_useror'),\n   Field('Tag','list:reference Tag'),\n   Field('Price','list:reference Price'),\n   Field('Seller','list:reference Seller'),\n   Field('Convention','list:reference Convention'),\n   Field('Vote','list:reference Vote'),\n   Field('BarCode','list:reference BarCode'),\n   Field('Comment','list:reference Comment'),\n   Field('Link','list:reference Link'),\n   format = '%(Nom)s')\n\n\ndb.define_table('TypeVideo',\n   Field('Nom', unique=True),\n   format = '%(Nom)s')\n\n\ndb.define_table('Video',\n   Field('Name', unique=True),\n   Field('Date'),\n   Field('auth_userors','list:reference auth_useror'),\n   Field('Tag','list:reference Tag'),\n   Field('Price','list:reference Price'),\n   Field('Seller','list:reference Seller'),\n   Field('Convention','list:reference Convention'),\n   Field('Vote','list:reference Vote'),\n   Field('BarCode','list:reference BarCode'),\n   Field('Comment','list:reference Comment'),\n   Field('Link','list:reference Link'),  \n   format = '%(Nom)s')\n\ndb.define_table('TypeVideoGame',\n   Field('Nom', unique=True),\n   format = '%(Nom)s')\n\n\ndb.define_table('VideoGame',\n   Field('Name', unique=True),\n   Field('Date'),\n   Field('auth_userors','list:reference auth_useror'),\n   Field('Tag','list:reference Tag'),\n   Field('Price','list:reference Price'),\n   Field('Seller','list:reference Seller'),\n   Field('Convention','list:reference Convention'),\n   Field('Vote','list:reference Vote'),\n   Field('BarCode','list:reference BarCode'),\n   Field('Comment','list:reference Comment'),\n   Field('Link','list:reference Link'),\n   format = '%(Nom)s')\n\ndb.define_table('TypeBook',\n   Field('Nom', unique=True),\n   format = '%(Nom)s')\n\n\ndb.define_table('Book',\n   Field('Name', unique=True),\n   Field('Date'),\n   Field('auth_userors','list:reference auth_useror'),\n   Field('Tag','list:reference Tag'),\n   Field('Price','list:reference Price'),\n   Field('Seller','list:reference Seller'),\n   Field('Convention','list:reference Convention'),\n   Field('Vote','list:reference Vote'),\n   Field('BarCode','list:reference BarCode'),\n   Field('Comment','list:reference Comment'),\n   Field('Link','list:reference Link'),\n   format = '%(Nom)s')\n\n\ndb.define_table('TypeGoodie',\n   Field('Nom', unique=True),\n   format = '%(Nom)s')\n\n\ndb.define_table('Goodie',\n   Field('Name', unique=True),\n   Field('Date'),\n   Field('auth_userors','list:reference auth_useror'),\n   Field('Tag','list:reference Tag'),\n   Field('Price','list:reference Price'),\n   Field('Seller','list:reference Seller'),\n   Field('Convention','list:reference Convention'),\n   Field('Vote','list:reference Vote'),\n   Field('BarCode','list:reference BarCode'),\n   Field('Comment','list:reference Comment'),\n   Field('Link','list:reference Link'),\n   format = '%(Nom)s')\n\n\n\ndb.define_table('GPS',\n   Field('GPS', unique=True),\n   Field('Tag','list:reference Tag'),\n   format = '%(GPS)s')\n\ndb.define_table('GeoHash',\n   Field('GeoHash', unique=True),\n   Field('Tag','list:reference Tag'),\n   format = '%(GeoHash)s')\n\ndb.define_table('OpenStreetMap',\n   Field('OpenStreetMap', unique=True),\n   Field('Tag','list:reference Tag'),\n   format = '%(OpenStreetMap)s')\n\ndb.define_table('Country',\n   Field('Name', unique=True),\n   Field('Link','list:reference Link'),\n   Field('GPS','list:reference GPS'),\n   Field('GeoHash','list:reference GeoHash'),\n   Field('OpenStreetMap','list:reference OpenStreetMap'),\n   format = '%(Name)s')\n   \ndb.define_table('State',\n   Field('Name', unique=True),\n   Field('Link','list:reference Link'),\n   Field('GPS','list:reference GPS'),\n   Field('GeoHash','list:reference GeoHash'),\n   Field('OpenStreetMap','list:reference OpenStreetMap'),\n   format = '%(Name)s')\n   \n\ndb.define_table('Region',\n   Field('Name', unique=True),\n   Field('Link','list:reference Link'),\n   Field('GPS','list:reference GPS'),\n   Field('GeoHash','list:reference GeoHash'),\n   Field('OpenStreetMap','list:reference OpenStreetMap'),\n   format = '%(Name)s')\n   \n \ndb.define_table('City',\n   Field('Name', unique=True),\n   Field('Link','list:reference Link'),\n   Field('GPS','list:reference GPS'),\n   Field('GeoHash','list:reference GeoHash'),\n   Field('OpenStreetMap','list:reference OpenStreetMap'),\n   format = '%(Name)s')\n\ndb.define_table('Adress',\n   Field('Name', unique=True),\n   Field('Number', unique=True),\n   Field('Link','list:reference Link'),\n   Field('GPS','list:reference GPS'),\n   Field('GeoHash','list:reference GeoHash'),\n   Field('OpenStreetMap','list:reference OpenStreetMap'),\n   format = '%(Name)s')\n   \ndb.define_table('PostalCode',\n   Field('Name', unique=True),\n   Field('Number', unique=True),\n   Field('Link','list:reference Link'),\n   Field('GPS','list:reference GPS'),\n   Field('GeoHash','list:reference GeoHash'),\n   Field('OpenStreetMap','list:reference OpenStreetMap'),\n   format = '%(Name)s')\n   \ndb.define_table('Subway',\n   Field('Name', unique=True),\n   Field('Number', unique=True),\n   format = '%(Name)s')\n  \n\ndb.define_table('SubwayStation',\n   Field('Name', unique=True),\n   Field('Subway','list:reference Subway'),\n   format = '%(Name)s')\n\n\ndb.define_table('Bus',\n   Field('Name', unique=True),\n   Field('Number', unique=True),\n   format = '%(Name)s')\n  \n\ndb.define_table('BusStation',\n   Field('Name', unique=True),\n   Field('Subway','list:reference Subway'),\n   format = '%(Name)s')\n\ndb.define_table('Localisation',\n   Field('Name', unique=True),\n   Field('Link','list:reference Link'),\n   Field('GPS','list:reference GPS'),\n   Field('GeoHash','list:reference GeoHash'),\n   Field('OpenStreetMap','list:reference OpenStreetMap'),\n   Field('Country','list:reference Country'),\n   Field('State','list:reference State'),\n   Field('Region','list:reference Region'),\n   Field('City','list:reference City'),\n   Field('Adress','list:reference Adress'),\n   Field('PostalCode','list:reference PostalCode'),\n   Field('SubwayStation','list:reference SubwayStation'),\n   Field('BusStation','list:reference BusStation'),\n   format = '%(Name)s')\n   \n\ndb.define_table('image',\n   Field('title', unique=True),\n   Field('file', 'upload'),\n   format = '%(title)s')\n\n\ndb.define_table('Cour',\n    Field('Price', 'float'),\n    format = '%(Price)s')\n\ndb.define_table('Currency',\n   Field('Name', unique=True),\n   Field('Cour', db.Cour),\n   format = '%(Name)s')\n   \n   \ndb.define_table('Price',\n   Field('Currency', db.Currency),\n   Field('Amount', 'float'),\n   format = '%(Price,Currency)s')\n   \ndb.define_table('Seller',\n   Field('Name', unique=True),\n   Field('Date'),\n   Field('Localisation','list:reference Localisation'),\n   Field('Tag','list:reference Tag'),\n   Field('Comment','list:reference Comment'),\n   Field('Link','list:reference Link'),\n   format = '%(Nom)s')   \n\ndb.define_table('FamilleTag',\n   Field('Name', unique=True),\n   Field('Tag','list:reference Tag'),\n   format = '%(Name)s')\n   \ndb.define_table('Tag',\n   Field('Name', unique=True),\n   format = '%(Name)s')\n   \ndb.define_table('AssoTag',\n   Field('Name', unique=True),\n   Field('Tag','list:reference Tag'),\n   Field('FamilleTag','list:reference FamilleTag'),\n   format = '%(Name)s')\n   \ndb.define_table('VoteHK',\n   Field('auth_user', db.auth_user),\n   format = '%(auth_user)s')\n   \ndb.define_table('VoteNonHK',\n   Field('auth_user', db.auth_user),\n   format = '%(auth_user)s')\n\ndb.define_table('VoteAskHK',\n   Field('auth_user', db.auth_user),\n   format = '%(auth_user)s')\n\n\n## configure email\nmail=auth.settings.mailer\nmail.settings.server = 'logging' or 'smtp.gmail.com:587'\nmail.settings.sender = 'you@gmail.com'\nmail.settings.login = 'username:password'\n\n## configure auth policy\nauth.settings.registration_requires_verification = False\nauth.settings.registration_requires_approval = False\nauth.settings.reset_password_requires_verification = True\n\n## if you need to use OpenID, Facebook, MySpace, Twitter, Linkedin, etc.\n## register with janrain.com, write your domain:api_key in private/janrain.key\nfrom gluon.contrib.login_methods.rpx_account import use_janrain\nuse_janrain(auth,filename='private/janrain.key')\n\n#########################################################################\n## Define your tables below (or better in another model file) for example\n##\n## >>> db.define_table('mytable',Field('myfield','string'))\n##\n## Fields can be 'string','text','password','integer','double','boolean'\n##       'date','time','datetime','blob','upload', 'reference TABLENAME'\n## There is an implicit 'id integer autoincrement' field\n## Consult manual for more options, validators, etc.\n##\n## More API examples for controllers:\n##\n## >>> db.mytable.insert(myfield='value')\n## >>> rows=db(db.mytable.myfield=='value').select(db.mytable.ALL)\n## >>> for row in rows: print row.id, row.myfield\n#########################################################################\n\n#########\n"
p7
sS'snapshot'
p8
(dp9
S'exception'
p10
(dp11
S'__getslice__'
p12
S"<method-wrapper '__getslice__' of exceptions.SyntaxError object at 0x07A3ADB0>"
p13
sS'text'
p14
S'None'
p15
sS'__str__'
p16
S"<method-wrapper '__str__' of exceptions.SyntaxError object at 0x07A3ADB0>"
p17
sS'__reduce__'
p18
S'<built-in method __reduce__ of exceptions.SyntaxError object at 0x07A3ADB0>'
p19
sS'__dict__'
p20
S'{}'
p21
sS'__init__'
p22
S"<method-wrapper '__init__' of exceptions.SyntaxError object at 0x07A3ADB0>"
p23
sS'__setattr__'
p24
S"<method-wrapper '__setattr__' of exceptions.SyntaxError object at 0x07A3ADB0>"
p25
sS'__reduce_ex__'
p26
S'<built-in method __reduce_ex__ of exceptions.SyntaxError object at 0x07A3ADB0>'
p27
sS'__new__'
p28
S'<built-in method __new__ of type object at 0x1E1CDBD0>'
p29
sS'__class__'
p30
S"<type 'exceptions.SyntaxError'>"
p31
sS'filename'
p32
S'None'
p33
sS'lineno'
p34
S'None'
p35
sS'msg'
p36
S"'Field: unknown field type: float for Price'"
p37
sS'__doc__'
p38
S"'Invalid syntax.'"
p39
sS'__getitem__'
p40
S"<method-wrapper '__getitem__' of exceptions.SyntaxError object at 0x07A3ADB0>"
p41
sS'__setstate__'
p42
S'<built-in method __setstate__ of exceptions.SyntaxError object at 0x07A3ADB0>'
p43
sS'__getattribute__'
p44
S"<method-wrapper '__getattribute__' of exceptions.SyntaxError object at 0x07A3ADB0>"
p45
sS'print_file_and_line'
p46
S'None'
p47
sS'args'
p48
S"('Field: unknown field type: float for Price',)"
p49
sS'offset'
p50
S'None'
p51
sS'__delattr__'
p52
S"<method-wrapper '__delattr__' of exceptions.SyntaxError object at 0x07A3ADB0>"
p53
sS'__repr__'
p54
S"<method-wrapper '__repr__' of exceptions.SyntaxError object at 0x07A3ADB0>"
p55
sS'__hash__'
p56
S"<method-wrapper '__hash__' of exceptions.SyntaxError object at 0x07A3ADB0>"
p57
ssS'evalue'
p58
S'Field: unknown field type: float for Price'
p59
sS'request'
p60
ccopy_reg
_reconstructor
p61
(cgluon.html
BEAUTIFY
p62
c__builtin__
object
p63
NtRp64
(dp65
S'attributes'
p66
(dp67
sS'components'
p68
(lp69
g61
(cgluon.html
TABLE
p70
g63
NtRp71
(dp72
g66
(dp73
S'level'
p74
I5
ssS'parent'
p75
Nsg68
(lp76
g61
(cgluon.html
TR
p77
g63
NtRp78
(dp79
g66
(dp80
sg75
g71
sg68
(lp81
g61
(cgluon.html
TD
p82
g63
NtRp83
(dp84
g66
(dp85
S'_style'
p86
S'font-weight:bold;vertical-align:top'
p87
ssg75
g78
sg68
(lp88
S'ajax'
p89
asbag61
(g82
g63
NtRp90
(dp91
g66
(dp92
S'_valign'
p93
S'top'
p94
ssg75
g78
sg68
(lp95
S':'
asbag61
(g82
g63
NtRp96
(dp97
g66
(dp98
sg75
g78
sg68
(lp99
g61
(g62
g63
NtRp100
(dp101
g66
(dp102
g74
I5
ssg75
g96
sg68
(lp103
S'False'
p104
asbasbasbag61
(g77
g63
NtRp105
(dp106
g66
(dp107
sg75
g71
sg68
(lp108
g61
(g82
g63
NtRp109
(dp110
g66
(dp111
g86
g87
ssg75
g105
sg68
(lp112
S'application'
p113
asbag61
(g82
g63
NtRp114
(dp115
g66
(dp116
g93
g94
ssg75
g105
sg68
(lp117
S':'
asbag61
(g82
g63
NtRp118
(dp119
g66
(dp120
sg75
g105
sg68
(lp121
g61
(g62
g63
NtRp122
(dp123
g66
(dp124
g74
I5
ssg75
g118
sg68
(lp125
S'init'
p126
asbasbasbag61
(g77
g63
NtRp127
(dp128
g66
(dp129
sg75
g71
sg68
(lp130
g61
(g82
g63
NtRp131
(dp132
g66
(dp133
g86
g87
ssg75
g127
sg68
(lp134
g48
asbag61
(g82
g63
NtRp135
(dp136
g66
(dp137
g93
g94
ssg75
g127
sg68
(lp138
S':'
asbag61
(g82
g63
NtRp139
(dp140
g66
(dp141
sg75
g127
sg68
(lp142
g61
(g62
g63
NtRp143
(dp144
g66
(dp145
g74
I5
ssg75
g139
sg68
(lp146
g61
(g70
g63
NtRp147
(dp148
g66
(dp149
g74
I4
ssg75
Nsg68
(lp150
sbasbasbasbag61
(g77
g63
NtRp151
(dp152
g66
(dp153
sg75
g71
sg68
(lp154
g61
(g82
g63
NtRp155
(dp156
g66
(dp157
g86
g87
ssg75
g151
sg68
(lp158
S'body'
p159
asbag61
(g82
g63
NtRp160
(dp161
g66
(dp162
g93
g94
ssg75
g151
sg68
(lp163
S':'
asbag61
(g82
g63
NtRp164
(dp165
g66
(dp166
sg75
g151
sg68
(lp167
g61
(g62
g63
NtRp168
(dp169
g66
(dp170
g74
I5
ssg75
g164
sg68
(lp171
S'<cStringIO.StringO object at 0x07B7C220>'
p172
asbasbasbag61
(g77
g63
NtRp173
(dp174
g66
(dp175
sg75
g71
sg68
(lp176
g61
(g82
g63
NtRp177
(dp178
g66
(dp179
g86
g87
ssg75
g173
sg68
(lp180
S'client'
p181
asbag61
(g82
g63
NtRp182
(dp183
g66
(dp184
g93
g94
ssg75
g173
sg68
(lp185
S':'
asbag61
(g82
g63
NtRp186
(dp187
g66
(dp188
sg75
g173
sg68
(lp189
g61
(g62
g63
NtRp190
(dp191
g66
(dp192
g74
I5
ssg75
g186
sg68
(lp193
S'127.0.0.1'
p194
asbasbasbag61
(g77
g63
NtRp195
(dp196
g66
(dp197
sg75
g71
sg68
(lp198
g61
(g82
g63
NtRp199
(dp200
g66
(dp201
g86
g87
ssg75
g195
sg68
(lp202
S'controller'
p203
asbag61
(g82
g63
NtRp204
(dp205
g66
(dp206
g93
g94
ssg75
g195
sg68
(lp207
S':'
asbag61
(g82
g63
NtRp208
(dp209
g66
(dp210
sg75
g195
sg68
(lp211
g61
(g62
g63
NtRp212
(dp213
g66
(dp214
g74
I5
ssg75
g208
sg68
(lp215
S'default'
p216
asbasbasbag61
(g77
g63
NtRp217
(dp218
g66
(dp219
sg75
g71
sg68
(lp220
g61
(g82
g63
NtRp221
(dp222
g66
(dp223
g86
g87
ssg75
g217
sg68
(lp224
S'cookies'
p225
asbag61
(g82
g63
NtRp226
(dp227
g66
(dp228
g93
g94
ssg75
g217
sg68
(lp229
S':'
asbag61
(g82
g63
NtRp230
(dp231
g66
(dp232
sg75
g217
sg68
(lp233
g61
(g62
g63
NtRp234
(dp235
g66
(dp236
g74
I5
ssg75
g230
sg68
(lp237
g61
(g70
g63
NtRp238
(dp239
g66
(dp240
g74
I4
ssg75
Nsg68
(lp241
g61
(g77
g63
NtRp242
(dp243
g66
(dp244
sg75
g238
sg68
(lp245
g61
(g82
g63
NtRp246
(dp247
g66
(dp248
g86
g87
ssg75
g242
sg68
(lp249
S'session_id_admin'
p250
asbag61
(g82
g63
NtRp251
(dp252
g66
(dp253
g93
g94
ssg75
g242
sg68
(lp254
S':'
asbag61
(g82
g63
NtRp255
(dp256
g66
(dp257
sg75
g242
sg68
(lp258
g61
(g62
g63
NtRp259
(dp260
g66
(dp261
g74
I4
ssg75
g255
sg68
(lp262
g61
(g70
g63
NtRp263
(dp264
g66
(dp265
g74
I3
ssg75
Nsg68
(lp266
g61
(g77
g63
NtRp267
(dp268
g66
(dp269
sg75
g263
sg68
(lp270
g61
(g82
g63
NtRp271
(dp272
g66
(dp273
g86
g87
ssg75
g267
sg68
(lp274
S'comment'
p275
asbag61
(g82
g63
NtRp276
(dp277
g66
(dp278
g93
g94
ssg75
g267
sg68
(lp279
S':'
asbag61
(g82
g63
NtRp280
(dp281
g66
(dp282
sg75
g267
sg68
(lp283
g61
(g62
g63
NtRp284
(dp285
g66
(dp286
g74
I3
ssg75
g280
sg68
(lp287
S''
asbasbasbag61
(g77
g63
NtRp288
(dp289
g66
(dp290
sg75
g263
sg68
(lp291
g61
(g82
g63
NtRp292
(dp293
g66
(dp294
g86
g87
ssg75
g288
sg68
(lp295
S'domain'
p296
asbag61
(g82
g63
NtRp297
(dp298
g66
(dp299
g93
g94
ssg75
g288
sg68
(lp300
S':'
asbag61
(g82
g63
NtRp301
(dp302
g66
(dp303
sg75
g288
sg68
(lp304
g61
(g62
g63
NtRp305
(dp306
g66
(dp307
g74
I3
ssg75
g301
sg68
(lp308
S''
asbasbasbag61
(g77
g63
NtRp309
(dp310
g66
(dp311
sg75
g263
sg68
(lp312
g61
(g82
g63
NtRp313
(dp314
g66
(dp315
g86
g87
ssg75
g309
sg68
(lp316
S'expires'
p317
asbag61
(g82
g63
NtRp318
(dp319
g66
(dp320
g93
g94
ssg75
g309
sg68
(lp321
S':'
asbag61
(g82
g63
NtRp322
(dp323
g66
(dp324
sg75
g309
sg68
(lp325
g61
(g62
g63
NtRp326
(dp327
g66
(dp328
g74
I3
ssg75
g322
sg68
(lp329
S''
asbasbasbag61
(g77
g63
NtRp330
(dp331
g66
(dp332
sg75
g263
sg68
(lp333
g61
(g82
g63
NtRp334
(dp335
g66
(dp336
g86
g87
ssg75
g330
sg68
(lp337
S'max-age'
p338
asbag61
(g82
g63
NtRp339
(dp340
g66
(dp341
g93
g94
ssg75
g330
sg68
(lp342
S':'
asbag61
(g82
g63
NtRp343
(dp344
g66
(dp345
sg75
g330
sg68
(lp346
g61
(g62
g63
NtRp347
(dp348
g66
(dp349
g74
I3
ssg75
g343
sg68
(lp350
S''
asbasbasbag61
(g77
g63
NtRp351
(dp352
g66
(dp353
sg75
g263
sg68
(lp354
g61
(g82
g63
NtRp355
(dp356
g66
(dp357
g86
g87
ssg75
g351
sg68
(lp358
S'path'
p359
asbag61
(g82
g63
NtRp360
(dp361
g66
(dp362
g93
g94
ssg75
g351
sg68
(lp363
S':'
asbag61
(g82
g63
NtRp364
(dp365
g66
(dp366
sg75
g351
sg68
(lp367
g61
(g62
g63
NtRp368
(dp369
g66
(dp370
g74
I3
ssg75
g364
sg68
(lp371
S''
asbasbasbag61
(g77
g63
NtRp372
(dp373
g66
(dp374
sg75
g263
sg68
(lp375
g61
(g82
g63
NtRp376
(dp377
g66
(dp378
g86
g87
ssg75
g372
sg68
(lp379
S'secure'
p380
asbag61
(g82
g63
NtRp381
(dp382
g66
(dp383
g93
g94
ssg75
g372
sg68
(lp384
S':'
asbag61
(g82
g63
NtRp385
(dp386
g66
(dp387
sg75
g372
sg68
(lp388
g61
(g62
g63
NtRp389
(dp390
g66
(dp391
g74
I3
ssg75
g385
sg68
(lp392
S''
asbasbasbag61
(g77
g63
NtRp393
(dp394
g66
(dp395
sg75
g263
sg68
(lp396
g61
(g82
g63
NtRp397
(dp398
g66
(dp399
g86
g87
ssg75
g393
sg68
(lp400
S'version'
p401
asbag61
(g82
g63
NtRp402
(dp403
g66
(dp404
g93
g94
ssg75
g393
sg68
(lp405
S':'
asbag61
(g82
g63
NtRp406
(dp407
g66
(dp408
sg75
g393
sg68
(lp409
g61
(g62
g63
NtRp410
(dp411
g66
(dp412
g74
I3
ssg75
g406
sg68
(lp413
S''
asbasbasbasbasbasbasbasbasbasbasbag61
(g77
g63
NtRp414
(dp415
g66
(dp416
sg75
g71
sg68
(lp417
g61
(g82
g63
NtRp418
(dp419
g66
(dp420
g86
g87
ssg75
g414
sg68
(lp421
S'env'
p422
asbag61
(g82
g63
NtRp423
(dp424
g66
(dp425
g93
g94
ssg75
g414
sg68
(lp426
S':'
asbag61
(g82
g63
NtRp427
(dp428
g66
(dp429
sg75
g414
sg68
(lp430
g61
(g62
g63
NtRp431
(dp432
g66
(dp433
g74
I5
ssg75
g427
sg68
(lp434
g61
(g70
g63
NtRp435
(dp436
g66
(dp437
g74
I4
ssg75
Nsg68
(lp438
g61
(g77
g63
NtRp439
(dp440
g66
(dp441
sg75
g435
sg68
(lp442
g61
(g82
g63
NtRp443
(dp444
g66
(dp445
g86
g87
ssg75
g439
sg68
(lp446
S'app_folders'
p447
asbag61
(g82
g63
NtRp448
(dp449
g66
(dp450
g93
g94
ssg75
g439
sg68
(lp451
S':'
asbag61
(g82
g63
NtRp452
(dp453
g66
(dp454
sg75
g439
sg68
(lp455
g61
(g62
g63
NtRp456
(dp457
g66
(dp458
g74
I4
ssg75
g452
sg68
(lp459
S"set(['C:\\\\Users\\\\Bussiere\\\\Dropbox\\\\Projets\\\\Yuki\\\\web2py\\\\applications\\\\init\\\\', 'C:\\\\Users\\\\Bussiere\\\\Dropbox\\\\Projets\\\\Yuki\\\\web2py\\\\applications\\\\admin\\\\'])"
p460
asbasbasbag61
(g77
g63
NtRp461
(dp462
g66
(dp463
sg75
g435
sg68
(lp464
g61
(g82
g63
NtRp465
(dp466
g66
(dp467
g86
g87
ssg75
g461
sg68
(lp468
S'applications_parent'
p469
asbag61
(g82
g63
NtRp470
(dp471
g66
(dp472
g93
g94
ssg75
g461
sg68
(lp473
S':'
asbag61
(g82
g63
NtRp474
(dp475
g66
(dp476
sg75
g461
sg68
(lp477
g61
(g62
g63
NtRp478
(dp479
g66
(dp480
g74
I4
ssg75
g474
sg68
(lp481
S'C:\\Users\\Bussiere\\Dropbox\\Projets\\Yuki\\web2py'
p482
asbasbasbag61
(g77
g63
NtRp483
(dp484
g66
(dp485
sg75
g435
sg68
(lp486
g61
(g82
g63
NtRp487
(dp488
g66
(dp489
g86
g87
ssg75
g483
sg68
(lp490
S'cmd_args'
p491
asbag61
(g82
g63
NtRp492
(dp493
g66
(dp494
g93
g94
ssg75
g483
sg68
(lp495
S':'
asbag61
(g82
g63
NtRp496
(dp497
g66
(dp498
sg75
g483
sg68
(lp499
g61
(g62
g63
NtRp500
(dp501
g66
(dp502
g74
I4
ssg75
g496
sg68
(lp503
g61
(g70
g63
NtRp504
(dp505
g66
(dp506
g74
I3
ssg75
Nsg68
(lp507
sbasbasbasbag61
(g77
g63
NtRp508
(dp509
g66
(dp510
sg75
g435
sg68
(lp511
g61
(g82
g63
NtRp512
(dp513
g66
(dp514
g86
g87
ssg75
g508
sg68
(lp515
S'cmd_options'
p516
asbag61
(g82
g63
NtRp517
(dp518
g66
(dp519
g93
g94
ssg75
g508
sg68
(lp520
S':'
asbag61
(g82
g63
NtRp521
(dp522
g66
(dp523
sg75
g508
sg68
(lp524
g61
(g62
g63
NtRp525
(dp526
g66
(dp527
g74
I4
ssg75
g521
sg68
(lp528
S"<Values at 0x3b54f58: {'verbose': False, 'ip': '127.0.0.1', 'shutdown_timeout': 5, 'taskbar': False, 'nocron': False, 'pid_filename': 'httpserver.pid', 'maxthreads': None, 'softcron': False, 'server_name': 'Batou', 'bpython': False, 'nogui': False, 'port': 8000, 'extcron': False, 'debuglevel': 30, 'test': None, 'folder': 'C:\\\\Users\\\\Bussiere\\\\Dropbox\\\\Projets\\\\Yuki\\\\web2py', 'config': '', 'import_models': False, 'winservice': '', 'shell': None, 'run': '', 'log_filename': 'httpserver.log', 'args': [''], 'socket_timeout': 5, 'ssl_ca_certificate': None, 'scheduler': None, 'profiler_filename': None, 'ssl_private_key': '', 'password': '<ask>', 'request_queue_size': 5, 'ssl_certificate': '', 'cronjob': False, 'numthreads': None, 'quiet': False, 'interfaces': None, 'minthreads': None, 'timeout': 10, 'plain': False, 'nobanner': False}>"
p529
asbasbasbag61
(g77
g63
NtRp530
(dp531
g66
(dp532
sg75
g435
sg68
(lp533
g61
(g82
g63
NtRp534
(dp535
g66
(dp536
g86
g87
ssg75
g530
sg68
(lp537
S'db_sessions'
p538
asbag61
(g82
g63
NtRp539
(dp540
g66
(dp541
g93
g94
ssg75
g530
sg68
(lp542
S':'
asbag61
(g82
g63
NtRp543
(dp544
g66
(dp545
sg75
g530
sg68
(lp546
g61
(g62
g63
NtRp547
(dp548
g66
(dp549
g74
I4
ssg75
g543
sg68
(lp550
S'set([])'
p551
asbasbasbag61
(g77
g63
NtRp552
(dp553
g66
(dp554
sg75
g435
sg68
(lp555
g61
(g82
g63
NtRp556
(dp557
g66
(dp558
g86
g87
ssg75
g552
sg68
(lp559
S'debugging'
p560
asbag61
(g82
g63
NtRp561
(dp562
g66
(dp563
g93
g94
ssg75
g552
sg68
(lp564
S':'
asbag61
(g82
g63
NtRp565
(dp566
g66
(dp567
sg75
g552
sg68
(lp568
g61
(g62
g63
NtRp569
(dp570
g66
(dp571
g74
I4
ssg75
g565
sg68
(lp572
S'True'
p573
asbasbasbag61
(g77
g63
NtRp574
(dp575
g66
(dp576
sg75
g435
sg68
(lp577
g61
(g82
g63
NtRp578
(dp579
g66
(dp580
g86
g87
ssg75
g574
sg68
(lp581
S'gluon_parent'
p582
asbag61
(g82
g63
NtRp583
(dp584
g66
(dp585
g93
g94
ssg75
g574
sg68
(lp586
S':'
asbag61
(g82
g63
NtRp587
(dp588
g66
(dp589
sg75
g574
sg68
(lp590
g61
(g62
g63
NtRp591
(dp592
g66
(dp593
g74
I4
ssg75
g587
sg68
(lp594
S'C:\\Users\\Bussiere\\Dropbox\\Projets\\Yuki\\web2py'
p595
asbasbasbag61
(g77
g63
NtRp596
(dp597
g66
(dp598
sg75
g435
sg68
(lp599
g61
(g82
g63
NtRp600
(dp601
g66
(dp602
g86
g87
ssg75
g596
sg68
(lp603
S'http_accept'
p604
asbag61
(g82
g63
NtRp605
(dp606
g66
(dp607
g93
g94
ssg75
g596
sg68
(lp608
S':'
asbag61
(g82
g63
NtRp609
(dp610
g66
(dp611
sg75
g596
sg68
(lp612
g61
(g62
g63
NtRp613
(dp614
g66
(dp615
g74
I4
ssg75
g609
sg68
(lp616
S'text/html,application/xhtml+xml,application/xml;q=0.9,*/*;q=0.8'
p617
asbasbasbag61
(g77
g63
NtRp618
(dp619
g66
(dp620
sg75
g435
sg68
(lp621
g61
(g82
g63
NtRp622
(dp623
g66
(dp624
g86
g87
ssg75
g618
sg68
(lp625
S'http_accept_charset'
p626
asbag61
(g82
g63
NtRp627
(dp628
g66
(dp629
g93
g94
ssg75
g618
sg68
(lp630
S':'
asbag61
(g82
g63
NtRp631
(dp632
g66
(dp633
sg75
g618
sg68
(lp634
g61
(g62
g63
NtRp635
(dp636
g66
(dp637
g74
I4
ssg75
g631
sg68
(lp638
S'ISO-8859-1,utf-8;q=0.7,*;q=0.3'
p639
asbasbasbag61
(g77
g63
NtRp640
(dp641
g66
(dp642
sg75
g435
sg68
(lp643
g61
(g82
g63
NtRp644
(dp645
g66
(dp646
g86
g87
ssg75
g640
sg68
(lp647
S'http_accept_encoding'
p648
asbag61
(g82
g63
NtRp649
(dp650
g66
(dp651
g93
g94
ssg75
g640
sg68
(lp652
S':'
asbag61
(g82
g63
NtRp653
(dp654
g66
(dp655
sg75
g640
sg68
(lp656
g61
(g62
g63
NtRp657
(dp658
g66
(dp659
g74
I4
ssg75
g653
sg68
(lp660
S'gzip,deflate,sdch'
p661
asbasbasbag61
(g77
g63
NtRp662
(dp663
g66
(dp664
sg75
g435
sg68
(lp665
g61
(g82
g63
NtRp666
(dp667
g66
(dp668
g86
g87
ssg75
g662
sg68
(lp669
S'http_accept_language'
p670
asbag61
(g82
g63
NtRp671
(dp672
g66
(dp673
g93
g94
ssg75
g662
sg68
(lp674
S':'
asbag61
(g82
g63
NtRp675
(dp676
g66
(dp677
sg75
g662
sg68
(lp678
g61
(g62
g63
NtRp679
(dp680
g66
(dp681
g74
I4
ssg75
g675
sg68
(lp682
S'en-US,en;q=0.8'
p683
asbasbasbag61
(g77
g63
NtRp684
(dp685
g66
(dp686
sg75
g435
sg68
(lp687
g61
(g82
g63
NtRp688
(dp689
g66
(dp690
g86
g87
ssg75
g684
sg68
(lp691
S'http_cache_control'
p692
asbag61
(g82
g63
NtRp693
(dp694
g66
(dp695
g93
g94
ssg75
g684
sg68
(lp696
S':'
asbag61
(g82
g63
NtRp697
(dp698
g66
(dp699
sg75
g684
sg68
(lp700
g61
(g62
g63
NtRp701
(dp702
g66
(dp703
g74
I4
ssg75
g697
sg68
(lp704
S'max-age=0'
p705
asbasbasbag61
(g77
g63
NtRp706
(dp707
g66
(dp708
sg75
g435
sg68
(lp709
g61
(g82
g63
NtRp710
(dp711
g66
(dp712
g86
g87
ssg75
g706
sg68
(lp713
S'http_connection'
p714
asbag61
(g82
g63
NtRp715
(dp716
g66
(dp717
g93
g94
ssg75
g706
sg68
(lp718
S':'
asbag61
(g82
g63
NtRp719
(dp720
g66
(dp721
sg75
g706
sg68
(lp722
g61
(g62
g63
NtRp723
(dp724
g66
(dp725
g74
I4
ssg75
g719
sg68
(lp726
S'keep-alive'
p727
asbasbasbag61
(g77
g63
NtRp728
(dp729
g66
(dp730
sg75
g435
sg68
(lp731
g61
(g82
g63
NtRp732
(dp733
g66
(dp734
g86
g87
ssg75
g728
sg68
(lp735
S'http_cookie'
p736
asbag61
(g82
g63
NtRp737
(dp738
g66
(dp739
g93
g94
ssg75
g728
sg68
(lp740
S':'
asbag61
(g82
g63
NtRp741
(dp742
g66
(dp743
sg75
g728
sg68
(lp744
g61
(g62
g63
NtRp745
(dp746
g66
(dp747
g74
I4
ssg75
g741
sg68
(lp748
S'session_id_admin=127.0.0.1-997621fc-e27b-401d-818b-abcbd99a27ff'
p749
asbasbasbag61
(g77
g63
NtRp750
(dp751
g66
(dp752
sg75
g435
sg68
(lp753
g61
(g82
g63
NtRp754
(dp755
g66
(dp756
g86
g87
ssg75
g750
sg68
(lp757
S'http_host'
p758
asbag61
(g82
g63
NtRp759
(dp760
g66
(dp761
g93
g94
ssg75
g750
sg68
(lp762
S':'
asbag61
(g82
g63
NtRp763
(dp764
g66
(dp765
sg75
g750
sg68
(lp766
g61
(g62
g63
NtRp767
(dp768
g66
(dp769
g74
I4
ssg75
g763
sg68
(lp770
S'127.0.0.1:8000'
p771
asbasbasbag61
(g77
g63
NtRp772
(dp773
g66
(dp774
sg75
g435
sg68
(lp775
g61
(g82
g63
NtRp776
(dp777
g66
(dp778
g86
g87
ssg75
g772
sg68
(lp779
S'http_user_agent'
p780
asbag61
(g82
g63
NtRp781
(dp782
g66
(dp783
g93
g94
ssg75
g772
sg68
(lp784
S':'
asbag61
(g82
g63
NtRp785
(dp786
g66
(dp787
sg75
g772
sg68
(lp788
g61
(g62
g63
NtRp789
(dp790
g66
(dp791
g74
I4
ssg75
g785
sg68
(lp792
S'Mozilla/5.0 (Windows NT 6.1; WOW64) AppleWebKit/535.18 (KHTML, like Gecko) Chrome/18.0.1011.0 Safari/535.18'
p793
asbasbasbag61
(g77
g63
NtRp794
(dp795
g66
(dp796
sg75
g435
sg68
(lp797
g61
(g82
g63
NtRp798
(dp799
g66
(dp800
g86
g87
ssg75
g794
sg68
(lp801
S'is_jython'
p802
asbag61
(g82
g63
NtRp803
(dp804
g66
(dp805
g93
g94
ssg75
g794
sg68
(lp806
S':'
asbag61
(g82
g63
NtRp807
(dp808
g66
(dp809
sg75
g794
sg68
(lp810
g61
(g62
g63
NtRp811
(dp812
g66
(dp813
g74
I4
ssg75
g807
sg68
(lp814
g104
asbasbasbag61
(g77
g63
NtRp815
(dp816
g66
(dp817
sg75
g435
sg68
(lp818
g61
(g82
g63
NtRp819
(dp820
g66
(dp821
g86
g87
ssg75
g815
sg68
(lp822
S'is_pypy'
p823
asbag61
(g82
g63
NtRp824
(dp825
g66
(dp826
g93
g94
ssg75
g815
sg68
(lp827
S':'
asbag61
(g82
g63
NtRp828
(dp829
g66
(dp830
sg75
g815
sg68
(lp831
g61
(g62
g63
NtRp832
(dp833
g66
(dp834
g74
I4
ssg75
g828
sg68
(lp835
g104
asbasbasbag61
(g77
g63
NtRp836
(dp837
g66
(dp838
sg75
g435
sg68
(lp839
g61
(g82
g63
NtRp840
(dp841
g66
(dp842
g86
g87
ssg75
g836
sg68
(lp843
S'path_info'
p844
asbag61
(g82
g63
NtRp845
(dp846
g66
(dp847
g93
g94
ssg75
g836
sg68
(lp848
S':'
asbag61
(g82
g63
NtRp849
(dp850
g66
(dp851
sg75
g836
sg68
(lp852
g61
(g62
g63
NtRp853
(dp854
g66
(dp855
g74
I4
ssg75
g849
sg68
(lp856
S'/'
asbasbasbag61
(g77
g63
NtRp857
(dp858
g66
(dp859
sg75
g435
sg68
(lp860
g61
(g82
g63
NtRp861
(dp862
g66
(dp863
g86
g87
ssg75
g857
sg68
(lp864
S'query_string'
p865
asbag61
(g82
g63
NtRp866
(dp867
g66
(dp868
g93
g94
ssg75
g857
sg68
(lp869
S':'
asbag61
(g82
g63
NtRp870
(dp871
g66
(dp872
sg75
g857
sg68
(lp873
g61
(g62
g63
NtRp874
(dp875
g66
(dp876
g74
I4
ssg75
g870
sg68
(lp877
S''
asbasbasbag61
(g77
g63
NtRp878
(dp879
g66
(dp880
sg75
g435
sg68
(lp881
g61
(g82
g63
NtRp882
(dp883
g66
(dp884
g86
g87
ssg75
g878
sg68
(lp885
S'remote_addr'
p886
asbag61
(g82
g63
NtRp887
(dp888
g66
(dp889
g93
g94
ssg75
g878
sg68
(lp890
S':'
asbag61
(g82
g63
NtRp891
(dp892
g66
(dp893
sg75
g878
sg68
(lp894
g61
(g62
g63
NtRp895
(dp896
g66
(dp897
g74
I4
ssg75
g891
sg68
(lp898
g194
asbasbasbag61
(g77
g63
NtRp899
(dp900
g66
(dp901
sg75
g435
sg68
(lp902
g61
(g82
g63
NtRp903
(dp904
g66
(dp905
g86
g87
ssg75
g899
sg68
(lp906
S'remote_port'
p907
asbag61
(g82
g63
NtRp908
(dp909
g66
(dp910
g93
g94
ssg75
g899
sg68
(lp911
S':'
asbag61
(g82
g63
NtRp912
(dp913
g66
(dp914
sg75
g899
sg68
(lp915
g61
(g62
g63
NtRp916
(dp917
g66
(dp918
g74
I4
ssg75
g912
sg68
(lp919
S'49660'
p920
asbasbasbag61
(g77
g63
NtRp921
(dp922
g66
(dp923
sg75
g435
sg68
(lp924
g61
(g82
g63
NtRp925
(dp926
g66
(dp927
g86
g87
ssg75
g921
sg68
(lp928
S'request_method'
p929
asbag61
(g82
g63
NtRp930
(dp931
g66
(dp932
g93
g94
ssg75
g921
sg68
(lp933
S':'
asbag61
(g82
g63
NtRp934
(dp935
g66
(dp936
sg75
g921
sg68
(lp937
g61
(g62
g63
NtRp938
(dp939
g66
(dp940
g74
I4
ssg75
g934
sg68
(lp941
S'GET'
p942
asbasbasbag61
(g77
g63
NtRp943
(dp944
g66
(dp945
sg75
g435
sg68
(lp946
g61
(g82
g63
NtRp947
(dp948
g66
(dp949
g86
g87
ssg75
g943
sg68
(lp950
S'script_name'
p951
asbag61
(g82
g63
NtRp952
(dp953
g66
(dp954
g93
g94
ssg75
g943
sg68
(lp955
S':'
asbag61
(g82
g63
NtRp956
(dp957
g66
(dp958
sg75
g943
sg68
(lp959
g61
(g62
g63
NtRp960
(dp961
g66
(dp962
g74
I4
ssg75
g956
sg68
(lp963
S''
asbasbasbag61
(g77
g63
NtRp964
(dp965
g66
(dp966
sg75
g435
sg68
(lp967
g61
(g82
g63
NtRp968
(dp969
g66
(dp970
g86
g87
ssg75
g964
sg68
(lp971
S'server_name'
p972
asbag61
(g82
g63
NtRp973
(dp974
g66
(dp975
g93
g94
ssg75
g964
sg68
(lp976
S':'
asbag61
(g82
g63
NtRp977
(dp978
g66
(dp979
sg75
g964
sg68
(lp980
g61
(g62
g63
NtRp981
(dp982
g66
(dp983
g74
I4
ssg75
g977
sg68
(lp984
S'Batou'
p985
asbasbasbag61
(g77
g63
NtRp986
(dp987
g66
(dp988
sg75
g435
sg68
(lp989
g61
(g82
g63
NtRp990
(dp991
g66
(dp992
g86
g87
ssg75
g986
sg68
(lp993
S'server_port'
p994
asbag61
(g82
g63
NtRp995
(dp996
g66
(dp997
g93
g94
ssg75
g986
sg68
(lp998
S':'
asbag61
(g82
g63
NtRp999
(dp1000
g66
(dp1001
sg75
g986
sg68
(lp1002
g61
(g62
g63
NtRp1003
(dp1004
g66
(dp1005
g74
I4
ssg75
g999
sg68
(lp1006
S'8000'
p1007
asbasbasbag61
(g77
g63
NtRp1008
(dp1009
g66
(dp1010
sg75
g435
sg68
(lp1011
g61
(g82
g63
NtRp1012
(dp1013
g66
(dp1014
g86
g87
ssg75
g1008
sg68
(lp1015
S'server_protocol'
p1016
asbag61
(g82
g63
NtRp1017
(dp1018
g66
(dp1019
g93
g94
ssg75
g1008
sg68
(lp1020
S':'
asbag61
(g82
g63
NtRp1021
(dp1022
g66
(dp1023
sg75
g1008
sg68
(lp1024
g61
(g62
g63
NtRp1025
(dp1026
g66
(dp1027
g74
I4
ssg75
g1021
sg68
(lp1028
S'HTTP/1.1'
p1029
asbasbasbag61
(g77
g63
NtRp1030
(dp1031
g66
(dp1032
sg75
g435
sg68
(lp1033
g61
(g82
g63
NtRp1034
(dp1035
g66
(dp1036
g86
g87
ssg75
g1030
sg68
(lp1037
S'server_software'
p1038
asbag61
(g82
g63
NtRp1039
(dp1040
g66
(dp1041
g93
g94
ssg75
g1030
sg68
(lp1042
S':'
asbag61
(g82
g63
NtRp1043
(dp1044
g66
(dp1045
sg75
g1030
sg68
(lp1046
g61
(g62
g63
NtRp1047
(dp1048
g66
(dp1049
g74
I4
ssg75
g1043
sg68
(lp1050
S'Rocket 1.2.4'
p1051
asbasbasbag61
(g77
g63
NtRp1052
(dp1053
g66
(dp1054
sg75
g435
sg68
(lp1055
g61
(g82
g63
NtRp1056
(dp1057
g66
(dp1058
g86
g87
ssg75
g1052
sg68
(lp1059
S'web2py_crontype'
p1060
asbag61
(g82
g63
NtRp1061
(dp1062
g66
(dp1063
g93
g94
ssg75
g1052
sg68
(lp1064
S':'
asbag61
(g82
g63
NtRp1065
(dp1066
g66
(dp1067
sg75
g1052
sg68
(lp1068
g61
(g62
g63
NtRp1069
(dp1070
g66
(dp1071
g74
I4
ssg75
g1065
sg68
(lp1072
S'hard'
p1073
asbasbasbag61
(g77
g63
NtRp1074
(dp1075
g66
(dp1076
sg75
g435
sg68
(lp1077
g61
(g82
g63
NtRp1078
(dp1079
g66
(dp1080
g86
g87
ssg75
g1074
sg68
(lp1081
S'web2py_path'
p1082
asbag61
(g82
g63
NtRp1083
(dp1084
g66
(dp1085
g93
g94
ssg75
g1074
sg68
(lp1086
S':'
asbag61
(g82
g63
NtRp1087
(dp1088
g66
(dp1089
sg75
g1074
sg68
(lp1090
g61
(g62
g63
NtRp1091
(dp1092
g66
(dp1093
g74
I4
ssg75
g1087
sg68
(lp1094
g482
asbasbasbag61
(g77
g63
NtRp1095
(dp1096
g66
(dp1097
sg75
g435
sg68
(lp1098
g61
(g82
g63
NtRp1099
(dp1100
g66
(dp1101
g86
g87
ssg75
g1095
sg68
(lp1102
S'web2py_version'
p1103
asbag61
(g82
g63
NtRp1104
(dp1105
g66
(dp1106
g93
g94
ssg75
g1095
sg68
(lp1107
S':'
asbag61
(g82
g63
NtRp1108
(dp1109
g66
(dp1110
sg75
g1095
sg68
(lp1111
g61
(g62
g63
NtRp1112
(dp1113
g66
(dp1114
g74
I4
ssg75
g1108
sg68
(lp1115
g61
(g70
g63
NtRp1116
(dp1117
g66
(dp1118
g74
I3
ssg75
Nsg68
(lp1119
g61
(g77
g63
NtRp1120
(dp1121
g66
(dp1122
sg75
g1116
sg68
(lp1123
g61
(g82
g63
NtRp1124
(dp1125
g66
(dp1126
sg75
g1120
sg68
(lp1127
g61
(g62
g63
NtRp1128
(dp1129
g66
(dp1130
g74
I3
ssg75
g1124
sg68
(lp1131
S'1'
asbasbasbag61
(g77
g63
NtRp1132
(dp1133
g66
(dp1134
sg75
g1116
sg68
(lp1135
g61
(g82
g63
NtRp1136
(dp1137
g66
(dp1138
sg75
g1132
sg68
(lp1139
g61
(g62
g63
NtRp1140
(dp1141
g66
(dp1142
g74
I3
ssg75
g1136
sg68
(lp1143
S'99'
p1144
asbasbasbag61
(g77
g63
NtRp1145
(dp1146
g66
(dp1147
sg75
g1116
sg68
(lp1148
g61
(g82
g63
NtRp1149
(dp1150
g66
(dp1151
sg75
g1145
sg68
(lp1152
g61
(g62
g63
NtRp1153
(dp1154
g66
(dp1155
g74
I3
ssg75
g1149
sg68
(lp1156
S'7'
asbasbasbag61
(g77
g63
NtRp1157
(dp1158
g66
(dp1159
sg75
g1116
sg68
(lp1160
g61
(g82
g63
NtRp1161
(dp1162
g66
(dp1163
sg75
g1157
sg68
(lp1164
g61
(g62
g63
NtRp1165
(dp1166
g66
(dp1167
g74
I3
ssg75
g1161
sg68
(lp1168
S'datetime.datetime(2012, 3, 4, 22, 12, 8)'
p1169
asbasbasbag61
(g77
g63
NtRp1170
(dp1171
g66
(dp1172
sg75
g1116
sg68
(lp1173
g61
(g82
g63
NtRp1174
(dp1175
g66
(dp1176
sg75
g1170
sg68
(lp1177
g61
(g62
g63
NtRp1178
(dp1179
g66
(dp1180
g74
I3
ssg75
g1174
sg68
(lp1181
S'stable'
p1182
asbasbasbasbasbasbasbag61
(g77
g63
NtRp1183
(dp1184
g66
(dp1185
sg75
g435
sg68
(lp1186
g61
(g82
g63
NtRp1187
(dp1188
g66
(dp1189
g86
g87
ssg75
g1183
sg68
(lp1190
S'wsgi_errors'
p1191
asbag61
(g82
g63
NtRp1192
(dp1193
g66
(dp1194
g93
g94
ssg75
g1183
sg68
(lp1195
S':'
asbag61
(g82
g63
NtRp1196
(dp1197
g66
(dp1198
sg75
g1183
sg68
(lp1199
g61
(g62
g63
NtRp1200
(dp1201
g66
(dp1202
g74
I4
ssg75
g1196
sg68
(lp1203
S"<open file '<stderr>', mode 'w' at 0x006500B0>"
p1204
asbasbasbag61
(g77
g63
NtRp1205
(dp1206
g66
(dp1207
sg75
g435
sg68
(lp1208
g61
(g82
g63
NtRp1209
(dp1210
g66
(dp1211
g86
g87
ssg75
g1205
sg68
(lp1212
S'wsgi_file_wrapper'
p1213
asbag61
(g82
g63
NtRp1214
(dp1215
g66
(dp1216
g93
g94
ssg75
g1205
sg68
(lp1217
S':'
asbag61
(g82
g63
NtRp1218
(dp1219
g66
(dp1220
sg75
g1205
sg68
(lp1221
g61
(g62
g63
NtRp1222
(dp1223
g66
(dp1224
g74
I4
ssg75
g1218
sg68
(lp1225
S'<class wsgiref.util.FileWrapper at 0x02BF68D0>'
p1226
asbasbasbag61
(g77
g63
NtRp1227
(dp1228
g66
(dp1229
sg75
g435
sg68
(lp1230
g61
(g82
g63
NtRp1231
(dp1232
g66
(dp1233
g86
g87
ssg75
g1227
sg68
(lp1234
S'wsgi_input'
p1235
asbag61
(g82
g63
NtRp1236
(dp1237
g66
(dp1238
g93
g94
ssg75
g1227
sg68
(lp1239
S':'
asbag61
(g82
g63
NtRp1240
(dp1241
g66
(dp1242
sg75
g1227
sg68
(lp1243
g61
(g62
g63
NtRp1244
(dp1245
g66
(dp1246
g74
I4
ssg75
g1240
sg68
(lp1247
S'<socket._fileobject object at 0x07B076B0>'
p1248
asbasbasbag61
(g77
g63
NtRp1249
(dp1250
g66
(dp1251
sg75
g435
sg68
(lp1252
g61
(g82
g63
NtRp1253
(dp1254
g66
(dp1255
g86
g87
ssg75
g1249
sg68
(lp1256
S'wsgi_multiprocess'
p1257
asbag61
(g82
g63
NtRp1258
(dp1259
g66
(dp1260
g93
g94
ssg75
g1249
sg68
(lp1261
S':'
asbag61
(g82
g63
NtRp1262
(dp1263
g66
(dp1264
sg75
g1249
sg68
(lp1265
g61
(g62
g63
NtRp1266
(dp1267
g66
(dp1268
g74
I4
ssg75
g1262
sg68
(lp1269
g104
asbasbasbag61
(g77
g63
NtRp1270
(dp1271
g66
(dp1272
sg75
g435
sg68
(lp1273
g61
(g82
g63
NtRp1274
(dp1275
g66
(dp1276
g86
g87
ssg75
g1270
sg68
(lp1277
S'wsgi_multithread'
p1278
asbag61
(g82
g63
NtRp1279
(dp1280
g66
(dp1281
g93
g94
ssg75
g1270
sg68
(lp1282
S':'
asbag61
(g82
g63
NtRp1283
(dp1284
g66
(dp1285
sg75
g1270
sg68
(lp1286
g61
(g62
g63
NtRp1287
(dp1288
g66
(dp1289
g74
I4
ssg75
g1283
sg68
(lp1290
g573
asbasbasbag61
(g77
g63
NtRp1291
(dp1292
g66
(dp1293
sg75
g435
sg68
(lp1294
g61
(g82
g63
NtRp1295
(dp1296
g66
(dp1297
g86
g87
ssg75
g1291
sg68
(lp1298
S'wsgi_run_once'
p1299
asbag61
(g82
g63
NtRp1300
(dp1301
g66
(dp1302
g93
g94
ssg75
g1291
sg68
(lp1303
S':'
asbag61
(g82
g63
NtRp1304
(dp1305
g66
(dp1306
sg75
g1291
sg68
(lp1307
g61
(g62
g63
NtRp1308
(dp1309
g66
(dp1310
g74
I4
ssg75
g1304
sg68
(lp1311
g104
asbasbasbag61
(g77
g63
NtRp1312
(dp1313
g66
(dp1314
sg75
g435
sg68
(lp1315
g61
(g82
g63
NtRp1316
(dp1317
g66
(dp1318
g86
g87
ssg75
g1312
sg68
(lp1319
S'wsgi_url_scheme'
p1320
asbag61
(g82
g63
NtRp1321
(dp1322
g66
(dp1323
g93
g94
ssg75
g1312
sg68
(lp1324
S':'
asbag61
(g82
g63
NtRp1325
(dp1326
g66
(dp1327
sg75
g1312
sg68
(lp1328
g61
(g62
g63
NtRp1329
(dp1330
g66
(dp1331
g74
I4
ssg75
g1325
sg68
(lp1332
S'http'
p1333
asbasbasbag61
(g77
g63
NtRp1334
(dp1335
g66
(dp1336
sg75
g435
sg68
(lp1337
g61
(g82
g63
NtRp1338
(dp1339
g66
(dp1340
g86
g87
ssg75
g1334
sg68
(lp1341
S'wsgi_version'
p1342
asbag61
(g82
g63
NtRp1343
(dp1344
g66
(dp1345
g93
g94
ssg75
g1334
sg68
(lp1346
S':'
asbag61
(g82
g63
NtRp1347
(dp1348
g66
(dp1349
sg75
g1334
sg68
(lp1350
g61
(g62
g63
NtRp1351
(dp1352
g66
(dp1353
g74
I4
ssg75
g1347
sg68
(lp1354
g61
(g70
g63
NtRp1355
(dp1356
g66
(dp1357
g74
I3
ssg75
Nsg68
(lp1358
g61
(g77
g63
NtRp1359
(dp1360
g66
(dp1361
sg75
g1355
sg68
(lp1362
g61
(g82
g63
NtRp1363
(dp1364
g66
(dp1365
sg75
g1359
sg68
(lp1366
g61
(g62
g63
NtRp1367
(dp1368
g66
(dp1369
g74
I3
ssg75
g1363
sg68
(lp1370
S'1'
asbasbasbag61
(g77
g63
NtRp1371
(dp1372
g66
(dp1373
sg75
g1355
sg68
(lp1374
g61
(g82
g63
NtRp1375
(dp1376
g66
(dp1377
sg75
g1371
sg68
(lp1378
g61
(g62
g63
NtRp1379
(dp1380
g66
(dp1381
g74
I3
ssg75
g1375
sg68
(lp1382
S'0'
asbasbasbasbasbasbasbasbasbasbasbag61
(g77
g63
NtRp1383
(dp1384
g66
(dp1385
sg75
g71
sg68
(lp1386
g61
(g82
g63
NtRp1387
(dp1388
g66
(dp1389
g86
g87
ssg75
g1383
sg68
(lp1390
S'extension'
p1391
asbag61
(g82
g63
NtRp1392
(dp1393
g66
(dp1394
g93
g94
ssg75
g1383
sg68
(lp1395
S':'
asbag61
(g82
g63
NtRp1396
(dp1397
g66
(dp1398
sg75
g1383
sg68
(lp1399
g61
(g62
g63
NtRp1400
(dp1401
g66
(dp1402
g74
I5
ssg75
g1396
sg68
(lp1403
S'html'
p1404
asbasbasbag61
(g77
g63
NtRp1405
(dp1406
g66
(dp1407
sg75
g71
sg68
(lp1408
g61
(g82
g63
NtRp1409
(dp1410
g66
(dp1411
g86
g87
ssg75
g1405
sg68
(lp1412
S'folder'
p1413
asbag61
(g82
g63
NtRp1414
(dp1415
g66
(dp1416
g93
g94
ssg75
g1405
sg68
(lp1417
S':'
asbag61
(g82
g63
NtRp1418
(dp1419
g66
(dp1420
sg75
g1405
sg68
(lp1421
g61
(g62
g63
NtRp1422
(dp1423
g66
(dp1424
g74
I5
ssg75
g1418
sg68
(lp1425
S'C:\\Users\\Bussiere\\Dropbox\\Projets\\Yuki\\web2py\\applications\\init\\'
p1426
asbasbasbag61
(g77
g63
NtRp1427
(dp1428
g66
(dp1429
sg75
g71
sg68
(lp1430
g61
(g82
g63
NtRp1431
(dp1432
g66
(dp1433
g86
g87
ssg75
g1427
sg68
(lp1434
S'function'
p1435
asbag61
(g82
g63
NtRp1436
(dp1437
g66
(dp1438
g93
g94
ssg75
g1427
sg68
(lp1439
S':'
asbag61
(g82
g63
NtRp1440
(dp1441
g66
(dp1442
sg75
g1427
sg68
(lp1443
g61
(g62
g63
NtRp1444
(dp1445
g66
(dp1446
g74
I5
ssg75
g1440
sg68
(lp1447
S'index'
p1448
asbasbasbag61
(g77
g63
NtRp1449
(dp1450
g66
(dp1451
sg75
g71
sg68
(lp1452
g61
(g82
g63
NtRp1453
(dp1454
g66
(dp1455
g86
g87
ssg75
g1449
sg68
(lp1456
S'get_vars'
p1457
asbag61
(g82
g63
NtRp1458
(dp1459
g66
(dp1460
g93
g94
ssg75
g1449
sg68
(lp1461
S':'
asbag61
(g82
g63
NtRp1462
(dp1463
g66
(dp1464
sg75
g1449
sg68
(lp1465
g61
(g62
g63
NtRp1466
(dp1467
g66
(dp1468
g74
I5
ssg75
g1462
sg68
(lp1469
g61
(g70
g63
NtRp1470
(dp1471
g66
(dp1472
g74
I4
ssg75
Nsg68
(lp1473
sbasbasbasbag61
(g77
g63
NtRp1474
(dp1475
g66
(dp1476
sg75
g71
sg68
(lp1477
g61
(g82
g63
NtRp1478
(dp1479
g66
(dp1480
g86
g87
ssg75
g1474
sg68
(lp1481
S'global_settings'
p1482
asbag61
(g82
g63
NtRp1483
(dp1484
g66
(dp1485
g93
g94
ssg75
g1474
sg68
(lp1486
S':'
asbag61
(g82
g63
NtRp1487
(dp1488
g66
(dp1489
sg75
g1474
sg68
(lp1490
g61
(g62
g63
NtRp1491
(dp1492
g66
(dp1493
g74
I5
ssg75
g1487
sg68
(lp1494
g61
(g70
g63
NtRp1495
(dp1496
g66
(dp1497
g74
I4
ssg75
Nsg68
(lp1498
g61
(g77
g63
NtRp1499
(dp1500
g66
(dp1501
sg75
g1495
sg68
(lp1502
g61
(g82
g63
NtRp1503
(dp1504
g66
(dp1505
g86
g87
ssg75
g1499
sg68
(lp1506
g447
asbag61
(g82
g63
NtRp1507
(dp1508
g66
(dp1509
g93
g94
ssg75
g1499
sg68
(lp1510
S':'
asbag61
(g82
g63
NtRp1511
(dp1512
g66
(dp1513
sg75
g1499
sg68
(lp1514
g61
(g62
g63
NtRp1515
(dp1516
g66
(dp1517
g74
I4
ssg75
g1511
sg68
(lp1518
S"set(['C:\\\\Users\\\\Bussiere\\\\Dropbox\\\\Projets\\\\Yuki\\\\web2py\\\\applications\\\\init\\\\', 'C:\\\\Users\\\\Bussiere\\\\Dropbox\\\\Projets\\\\Yuki\\\\web2py\\\\applications\\\\admin\\\\'])"
p1519
asbasbasbag61
(g77
g63
NtRp1520
(dp1521
g66
(dp1522
sg75
g1495
sg68
(lp1523
g61
(g82
g63
NtRp1524
(dp1525
g66
(dp1526
g86
g87
ssg75
g1520
sg68
(lp1527
g469
asbag61
(g82
g63
NtRp1528
(dp1529
g66
(dp1530
g93
g94
ssg75
g1520
sg68
(lp1531
S':'
asbag61
(g82
g63
NtRp1532
(dp1533
g66
(dp1534
sg75
g1520
sg68
(lp1535
g61
(g62
g63
NtRp1536
(dp1537
g66
(dp1538
g74
I4
ssg75
g1532
sg68
(lp1539
g482
asbasbasbag61
(g77
g63
NtRp1540
(dp1541
g66
(dp1542
sg75
g1495
sg68
(lp1543
g61
(g82
g63
NtRp1544
(dp1545
g66
(dp1546
g86
g87
ssg75
g1540
sg68
(lp1547
g491
asbag61
(g82
g63
NtRp1548
(dp1549
g66
(dp1550
g93
g94
ssg75
g1540
sg68
(lp1551
S':'
asbag61
(g82
g63
NtRp1552
(dp1553
g66
(dp1554
sg75
g1540
sg68
(lp1555
g61
(g62
g63
NtRp1556
(dp1557
g66
(dp1558
g74
I4
ssg75
g1552
sg68
(lp1559
g61
(g70
g63
NtRp1560
(dp1561
g66
(dp1562
g74
I3
ssg75
Nsg68
(lp1563
sbasbasbasbag61
(g77
g63
NtRp1564
(dp1565
g66
(dp1566
sg75
g1495
sg68
(lp1567
g61
(g82
g63
NtRp1568
(dp1569
g66
(dp1570
g86
g87
ssg75
g1564
sg68
(lp1571
g516
asbag61
(g82
g63
NtRp1572
(dp1573
g66
(dp1574
g93
g94
ssg75
g1564
sg68
(lp1575
S':'
asbag61
(g82
g63
NtRp1576
(dp1577
g66
(dp1578
sg75
g1564
sg68
(lp1579
g61
(g62
g63
NtRp1580
(dp1581
g66
(dp1582
g74
I4
ssg75
g1576
sg68
(lp1583
S"<Values at 0x3b54f58: {'verbose': False, 'ip': '127.0.0.1', 'shutdown_timeout': 5, 'taskbar': False, 'nocron': False, 'pid_filename': 'httpserver.pid', 'maxthreads': None, 'softcron': False, 'server_name': 'Batou', 'bpython': False, 'nogui': False, 'port': 8000, 'extcron': False, 'debuglevel': 30, 'test': None, 'folder': 'C:\\\\Users\\\\Bussiere\\\\Dropbox\\\\Projets\\\\Yuki\\\\web2py', 'config': '', 'import_models': False, 'winservice': '', 'shell': None, 'run': '', 'log_filename': 'httpserver.log', 'args': [''], 'socket_timeout': 5, 'ssl_ca_certificate': None, 'scheduler': None, 'profiler_filename': None, 'ssl_private_key': '', 'password': '<ask>', 'request_queue_size': 5, 'ssl_certificate': '', 'cronjob': False, 'numthreads': None, 'quiet': False, 'interfaces': None, 'minthreads': None, 'timeout': 10, 'plain': False, 'nobanner': False}>"
p1584
asbasbasbag61
(g77
g63
NtRp1585
(dp1586
g66
(dp1587
sg75
g1495
sg68
(lp1588
g61
(g82
g63
NtRp1589
(dp1590
g66
(dp1591
g86
g87
ssg75
g1585
sg68
(lp1592
g538
asbag61
(g82
g63
NtRp1593
(dp1594
g66
(dp1595
g93
g94
ssg75
g1585
sg68
(lp1596
S':'
asbag61
(g82
g63
NtRp1597
(dp1598
g66
(dp1599
sg75
g1585
sg68
(lp1600
g61
(g62
g63
NtRp1601
(dp1602
g66
(dp1603
g74
I4
ssg75
g1597
sg68
(lp1604
S'set([])'
p1605
asbasbasbag61
(g77
g63
NtRp1606
(dp1607
g66
(dp1608
sg75
g1495
sg68
(lp1609
g61
(g82
g63
NtRp1610
(dp1611
g66
(dp1612
g86
g87
ssg75
g1606
sg68
(lp1613
g560
asbag61
(g82
g63
NtRp1614
(dp1615
g66
(dp1616
g93
g94
ssg75
g1606
sg68
(lp1617
S':'
asbag61
(g82
g63
NtRp1618
(dp1619
g66
(dp1620
sg75
g1606
sg68
(lp1621
g61
(g62
g63
NtRp1622
(dp1623
g66
(dp1624
g74
I4
ssg75
g1618
sg68
(lp1625
g573
asbasbasbag61
(g77
g63
NtRp1626
(dp1627
g66
(dp1628
sg75
g1495
sg68
(lp1629
g61
(g82
g63
NtRp1630
(dp1631
g66
(dp1632
g86
g87
ssg75
g1626
sg68
(lp1633
g582
asbag61
(g82
g63
NtRp1634
(dp1635
g66
(dp1636
g93
g94
ssg75
g1626
sg68
(lp1637
S':'
asbag61
(g82
g63
NtRp1638
(dp1639
g66
(dp1640
sg75
g1626
sg68
(lp1641
g61
(g62
g63
NtRp1642
(dp1643
g66
(dp1644
g74
I4
ssg75
g1638
sg68
(lp1645
g595
asbasbasbag61
(g77
g63
NtRp1646
(dp1647
g66
(dp1648
sg75
g1495
sg68
(lp1649
g61
(g82
g63
NtRp1650
(dp1651
g66
(dp1652
g86
g87
ssg75
g1646
sg68
(lp1653
g802
asbag61
(g82
g63
NtRp1654
(dp1655
g66
(dp1656
g93
g94
ssg75
g1646
sg68
(lp1657
S':'
asbag61
(g82
g63
NtRp1658
(dp1659
g66
(dp1660
sg75
g1646
sg68
(lp1661
g61
(g62
g63
NtRp1662
(dp1663
g66
(dp1664
g74
I4
ssg75
g1658
sg68
(lp1665
g104
asbasbasbag61
(g77
g63
NtRp1666
(dp1667
g66
(dp1668
sg75
g1495
sg68
(lp1669
g61
(g82
g63
NtRp1670
(dp1671
g66
(dp1672
g86
g87
ssg75
g1666
sg68
(lp1673
g823
asbag61
(g82
g63
NtRp1674
(dp1675
g66
(dp1676
g93
g94
ssg75
g1666
sg68
(lp1677
S':'
asbag61
(g82
g63
NtRp1678
(dp1679
g66
(dp1680
sg75
g1666
sg68
(lp1681
g61
(g62
g63
NtRp1682
(dp1683
g66
(dp1684
g74
I4
ssg75
g1678
sg68
(lp1685
g104
asbasbasbag61
(g77
g63
NtRp1686
(dp1687
g66
(dp1688
sg75
g1495
sg68
(lp1689
g61
(g82
g63
NtRp1690
(dp1691
g66
(dp1692
g86
g87
ssg75
g1686
sg68
(lp1693
g1060
asbag61
(g82
g63
NtRp1694
(dp1695
g66
(dp1696
g93
g94
ssg75
g1686
sg68
(lp1697
S':'
asbag61
(g82
g63
NtRp1698
(dp1699
g66
(dp1700
sg75
g1686
sg68
(lp1701
g61
(g62
g63
NtRp1702
(dp1703
g66
(dp1704
g74
I4
ssg75
g1698
sg68
(lp1705
g1073
asbasbasbag61
(g77
g63
NtRp1706
(dp1707
g66
(dp1708
sg75
g1495
sg68
(lp1709
g61
(g82
g63
NtRp1710
(dp1711
g66
(dp1712
g86
g87
ssg75
g1706
sg68
(lp1713
g1103
asbag61
(g82
g63
NtRp1714
(dp1715
g66
(dp1716
g93
g94
ssg75
g1706
sg68
(lp1717
S':'
asbag61
(g82
g63
NtRp1718
(dp1719
g66
(dp1720
sg75
g1706
sg68
(lp1721
g61
(g62
g63
NtRp1722
(dp1723
g66
(dp1724
g74
I4
ssg75
g1718
sg68
(lp1725
g61
(g70
g63
NtRp1726
(dp1727
g66
(dp1728
g74
I3
ssg75
Nsg68
(lp1729
g61
(g77
g63
NtRp1730
(dp1731
g66
(dp1732
sg75
g1726
sg68
(lp1733
g61
(g82
g63
NtRp1734
(dp1735
g66
(dp1736
sg75
g1730
sg68
(lp1737
g61
(g62
g63
NtRp1738
(dp1739
g66
(dp1740
g74
I3
ssg75
g1734
sg68
(lp1741
S'1'
asbasbasbag61
(g77
g63
NtRp1742
(dp1743
g66
(dp1744
sg75
g1726
sg68
(lp1745
g61
(g82
g63
NtRp1746
(dp1747
g66
(dp1748
sg75
g1742
sg68
(lp1749
g61
(g62
g63
NtRp1750
(dp1751
g66
(dp1752
g74
I3
ssg75
g1746
sg68
(lp1753
S'99'
p1754
asbasbasbag61
(g77
g63
NtRp1755
(dp1756
g66
(dp1757
sg75
g1726
sg68
(lp1758
g61
(g82
g63
NtRp1759
(dp1760
g66
(dp1761
sg75
g1755
sg68
(lp1762
g61
(g62
g63
NtRp1763
(dp1764
g66
(dp1765
g74
I3
ssg75
g1759
sg68
(lp1766
S'7'
asbasbasbag61
(g77
g63
NtRp1767
(dp1768
g66
(dp1769
sg75
g1726
sg68
(lp1770
g61
(g82
g63
NtRp1771
(dp1772
g66
(dp1773
sg75
g1767
sg68
(lp1774
g61
(g62
g63
NtRp1775
(dp1776
g66
(dp1777
g74
I3
ssg75
g1771
sg68
(lp1778
S'datetime.datetime(2012, 3, 4, 22, 12, 8)'
p1779
asbasbasbag61
(g77
g63
NtRp1780
(dp1781
g66
(dp1782
sg75
g1726
sg68
(lp1783
g61
(g82
g63
NtRp1784
(dp1785
g66
(dp1786
sg75
g1780
sg68
(lp1787
g61
(g62
g63
NtRp1788
(dp1789
g66
(dp1790
g74
I3
ssg75
g1784
sg68
(lp1791
g1182
asbasbasbasbasbasbasbasbasbasbasbag61
(g77
g63
NtRp1792
(dp1793
g66
(dp1794
sg75
g71
sg68
(lp1795
g61
(g82
g63
NtRp1796
(dp1797
g66
(dp1798
g86
g87
ssg75
g1792
sg68
(lp1799
S'is_https'
p1800
asbag61
(g82
g63
NtRp1801
(dp1802
g66
(dp1803
g93
g94
ssg75
g1792
sg68
(lp1804
S':'
asbag61
(g82
g63
NtRp1805
(dp1806
g66
(dp1807
sg75
g1792
sg68
(lp1808
g61
(g62
g63
NtRp1809
(dp1810
g66
(dp1811
g74
I5
ssg75
g1805
sg68
(lp1812
g104
asbasbasbag61
(g77
g63
NtRp1813
(dp1814
g66
(dp1815
sg75
g71
sg68
(lp1816
g61
(g82
g63
NtRp1817
(dp1818
g66
(dp1819
g86
g87
ssg75
g1813
sg68
(lp1820
S'is_local'
p1821
asbag61
(g82
g63
NtRp1822
(dp1823
g66
(dp1824
g93
g94
ssg75
g1813
sg68
(lp1825
S':'
asbag61
(g82
g63
NtRp1826
(dp1827
g66
(dp1828
sg75
g1813
sg68
(lp1829
g61
(g62
g63
NtRp1830
(dp1831
g66
(dp1832
g74
I5
ssg75
g1826
sg68
(lp1833
g573
asbasbasbag61
(g77
g63
NtRp1834
(dp1835
g66
(dp1836
sg75
g71
sg68
(lp1837
g61
(g82
g63
NtRp1838
(dp1839
g66
(dp1840
g86
g87
ssg75
g1834
sg68
(lp1841
S'is_restful'
p1842
asbag61
(g82
g63
NtRp1843
(dp1844
g66
(dp1845
g93
g94
ssg75
g1834
sg68
(lp1846
S':'
asbag61
(g82
g63
NtRp1847
(dp1848
g66
(dp1849
sg75
g1834
sg68
(lp1850
g61
(g62
g63
NtRp1851
(dp1852
g66
(dp1853
g74
I5
ssg75
g1847
sg68
(lp1854
g104
asbasbasbag61
(g77
g63
NtRp1855
(dp1856
g66
(dp1857
sg75
g71
sg68
(lp1858
g61
(g82
g63
NtRp1859
(dp1860
g66
(dp1861
g86
g87
ssg75
g1855
sg68
(lp1862
S'now'
p1863
asbag61
(g82
g63
NtRp1864
(dp1865
g66
(dp1866
g93
g94
ssg75
g1855
sg68
(lp1867
S':'
asbag61
(g82
g63
NtRp1868
(dp1869
g66
(dp1870
sg75
g1855
sg68
(lp1871
g61
(g62
g63
NtRp1872
(dp1873
g66
(dp1874
g74
I5
ssg75
g1868
sg68
(lp1875
S'datetime.datetime(2012, 3, 11, 10, 11, 20, 728000)'
p1876
asbasbasbag61
(g77
g63
NtRp1877
(dp1878
g66
(dp1879
sg75
g71
sg68
(lp1880
g61
(g82
g63
NtRp1881
(dp1882
g66
(dp1883
g86
g87
ssg75
g1877
sg68
(lp1884
S'post_vars'
p1885
asbag61
(g82
g63
NtRp1886
(dp1887
g66
(dp1888
g93
g94
ssg75
g1877
sg68
(lp1889
S':'
asbag61
(g82
g63
NtRp1890
(dp1891
g66
(dp1892
sg75
g1877
sg68
(lp1893
g61
(g62
g63
NtRp1894
(dp1895
g66
(dp1896
g74
I5
ssg75
g1890
sg68
(lp1897
g61
(g70
g63
NtRp1898
(dp1899
g66
(dp1900
g74
I4
ssg75
Nsg68
(lp1901
sbasbasbasbag61
(g77
g63
NtRp1902
(dp1903
g66
(dp1904
sg75
g71
sg68
(lp1905
g61
(g82
g63
NtRp1906
(dp1907
g66
(dp1908
g86
g87
ssg75
g1902
sg68
(lp1909
S'url'
p1910
asbag61
(g82
g63
NtRp1911
(dp1912
g66
(dp1913
g93
g94
ssg75
g1902
sg68
(lp1914
S':'
asbag61
(g82
g63
NtRp1915
(dp1916
g66
(dp1917
sg75
g1902
sg68
(lp1918
g61
(g62
g63
NtRp1919
(dp1920
g66
(dp1921
g74
I5
ssg75
g1915
sg68
(lp1922
S'/init/default/index'
p1923
asbasbasbag61
(g77
g63
NtRp1924
(dp1925
g66
(dp1926
sg75
g71
sg68
(lp1927
g61
(g82
g63
NtRp1928
(dp1929
g66
(dp1930
g86
g87
ssg75
g1924
sg68
(lp1931
S'utcnow'
p1932
asbag61
(g82
g63
NtRp1933
(dp1934
g66
(dp1935
g93
g94
ssg75
g1924
sg68
(lp1936
S':'
asbag61
(g82
g63
NtRp1937
(dp1938
g66
(dp1939
sg75
g1924
sg68
(lp1940
g61
(g62
g63
NtRp1941
(dp1942
g66
(dp1943
g74
I5
ssg75
g1937
sg68
(lp1944
S'datetime.datetime(2012, 3, 11, 9, 11, 20, 728000)'
p1945
asbasbasbag61
(g77
g63
NtRp1946
(dp1947
g66
(dp1948
sg75
g71
sg68
(lp1949
g61
(g82
g63
NtRp1950
(dp1951
g66
(dp1952
g86
g87
ssg75
g1946
sg68
(lp1953
S'uuid'
p1954
asbag61
(g82
g63
NtRp1955
(dp1956
g66
(dp1957
g93
g94
ssg75
g1946
sg68
(lp1958
S':'
asbag61
(g82
g63
NtRp1959
(dp1960
g66
(dp1961
sg75
g1946
sg68
(lp1962
g61
(g62
g63
NtRp1963
(dp1964
g66
(dp1965
g74
I5
ssg75
g1959
sg68
(lp1966
S'init/127.0.0.1.2012-03-11.10-11-20.83742606-591f-4155-89e2-1b628ab7929e'
p1967
asbasbasbag61
(g77
g63
NtRp1968
(dp1969
g66
(dp1970
sg75
g71
sg68
(lp1971
g61
(g82
g63
NtRp1972
(dp1973
g66
(dp1974
g86
g87
ssg75
g1968
sg68
(lp1975
S'vars'
p1976
asbag61
(g82
g63
NtRp1977
(dp1978
g66
(dp1979
g93
g94
ssg75
g1968
sg68
(lp1980
S':'
asbag61
(g82
g63
NtRp1981
(dp1982
g66
(dp1983
sg75
g1968
sg68
(lp1984
g61
(g62
g63
NtRp1985
(dp1986
g66
(dp1987
g74
I5
ssg75
g1981
sg68
(lp1988
g61
(g70
g63
NtRp1989
(dp1990
g66
(dp1991
g74
I4
ssg75
Nsg68
(lp1992
sbasbasbasbag61
(g77
g63
NtRp1993
(dp1994
g66
(dp1995
sg75
g71
sg68
(lp1996
g61
(g82
g63
NtRp1997
(dp1998
g66
(dp1999
g86
g87
ssg75
g1993
sg68
(lp2000
S'wsgi'
p2001
asbag61
(g82
g63
NtRp2002
(dp2003
g66
(dp2004
g93
g94
ssg75
g1993
sg68
(lp2005
S':'
asbag61
(g82
g63
NtRp2006
(dp2007
g66
(dp2008
sg75
g1993
sg68
(lp2009
g61
(g62
g63
NtRp2010
(dp2011
g66
(dp2012
g74
I5
ssg75
g2006
sg68
(lp2013
g61
(g70
g63
NtRp2014
(dp2015
g66
(dp2016
g74
I4
ssg75
Nsg68
(lp2017
g61
(g77
g63
NtRp2018
(dp2019
g66
(dp2020
sg75
g2014
sg68
(lp2021
g61
(g82
g63
NtRp2022
(dp2023
g66
(dp2024
g86
g87
ssg75
g2018
sg68
(lp2025
S'environ'
p2026
asbag61
(g82
g63
NtRp2027
(dp2028
g66
(dp2029
g93
g94
ssg75
g2018
sg68
(lp2030
S':'
asbag61
(g82
g63
NtRp2031
(dp2032
g66
(dp2033
sg75
g2018
sg68
(lp2034
g61
(g62
g63
NtRp2035
(dp2036
g66
(dp2037
g74
I4
ssg75
g2031
sg68
(lp2038
g61
(g70
g63
NtRp2039
(dp2040
g66
(dp2041
g74
I3
ssg75
Nsg68
(lp2042
g61
(g77
g63
NtRp2043
(dp2044
g66
(dp2045
sg75
g2039
sg68
(lp2046
g61
(g82
g63
NtRp2047
(dp2048
g66
(dp2049
g86
g87
ssg75
g2043
sg68
(lp2050
S'HTTP_ACCEPT'
p2051
asbag61
(g82
g63
NtRp2052
(dp2053
g66
(dp2054
g93
g94
ssg75
g2043
sg68
(lp2055
S':'
asbag61
(g82
g63
NtRp2056
(dp2057
g66
(dp2058
sg75
g2043
sg68
(lp2059
g61
(g62
g63
NtRp2060
(dp2061
g66
(dp2062
g74
I3
ssg75
g2056
sg68
(lp2063
g617
asbasbasbag61
(g77
g63
NtRp2064
(dp2065
g66
(dp2066
sg75
g2039
sg68
(lp2067
g61
(g82
g63
NtRp2068
(dp2069
g66
(dp2070
g86
g87
ssg75
g2064
sg68
(lp2071
S'HTTP_ACCEPT_CHARSET'
p2072
asbag61
(g82
g63
NtRp2073
(dp2074
g66
(dp2075
g93
g94
ssg75
g2064
sg68
(lp2076
S':'
asbag61
(g82
g63
NtRp2077
(dp2078
g66
(dp2079
sg75
g2064
sg68
(lp2080
g61
(g62
g63
NtRp2081
(dp2082
g66
(dp2083
g74
I3
ssg75
g2077
sg68
(lp2084
g639
asbasbasbag61
(g77
g63
NtRp2085
(dp2086
g66
(dp2087
sg75
g2039
sg68
(lp2088
g61
(g82
g63
NtRp2089
(dp2090
g66
(dp2091
g86
g87
ssg75
g2085
sg68
(lp2092
S'HTTP_ACCEPT_ENCODING'
p2093
asbag61
(g82
g63
NtRp2094
(dp2095
g66
(dp2096
g93
g94
ssg75
g2085
sg68
(lp2097
S':'
asbag61
(g82
g63
NtRp2098
(dp2099
g66
(dp2100
sg75
g2085
sg68
(lp2101
g61
(g62
g63
NtRp2102
(dp2103
g66
(dp2104
g74
I3
ssg75
g2098
sg68
(lp2105
g661
asbasbasbag61
(g77
g63
NtRp2106
(dp2107
g66
(dp2108
sg75
g2039
sg68
(lp2109
g61
(g82
g63
NtRp2110
(dp2111
g66
(dp2112
g86
g87
ssg75
g2106
sg68
(lp2113
S'HTTP_ACCEPT_LANGUAGE'
p2114
asbag61
(g82
g63
NtRp2115
(dp2116
g66
(dp2117
g93
g94
ssg75
g2106
sg68
(lp2118
S':'
asbag61
(g82
g63
NtRp2119
(dp2120
g66
(dp2121
sg75
g2106
sg68
(lp2122
g61
(g62
g63
NtRp2123
(dp2124
g66
(dp2125
g74
I3
ssg75
g2119
sg68
(lp2126
g683
asbasbasbag61
(g77
g63
NtRp2127
(dp2128
g66
(dp2129
sg75
g2039
sg68
(lp2130
g61
(g82
g63
NtRp2131
(dp2132
g66
(dp2133
g86
g87
ssg75
g2127
sg68
(lp2134
S'HTTP_CACHE_CONTROL'
p2135
asbag61
(g82
g63
NtRp2136
(dp2137
g66
(dp2138
g93
g94
ssg75
g2127
sg68
(lp2139
S':'
asbag61
(g82
g63
NtRp2140
(dp2141
g66
(dp2142
sg75
g2127
sg68
(lp2143
g61
(g62
g63
NtRp2144
(dp2145
g66
(dp2146
g74
I3
ssg75
g2140
sg68
(lp2147
g705
asbasbasbag61
(g77
g63
NtRp2148
(dp2149
g66
(dp2150
sg75
g2039
sg68
(lp2151
g61
(g82
g63
NtRp2152
(dp2153
g66
(dp2154
g86
g87
ssg75
g2148
sg68
(lp2155
S'HTTP_CONNECTION'
p2156
asbag61
(g82
g63
NtRp2157
(dp2158
g66
(dp2159
g93
g94
ssg75
g2148
sg68
(lp2160
S':'
asbag61
(g82
g63
NtRp2161
(dp2162
g66
(dp2163
sg75
g2148
sg68
(lp2164
g61
(g62
g63
NtRp2165
(dp2166
g66
(dp2167
g74
I3
ssg75
g2161
sg68
(lp2168
g727
asbasbasbag61
(g77
g63
NtRp2169
(dp2170
g66
(dp2171
sg75
g2039
sg68
(lp2172
g61
(g82
g63
NtRp2173
(dp2174
g66
(dp2175
g86
g87
ssg75
g2169
sg68
(lp2176
S'HTTP_COOKIE'
p2177
asbag61
(g82
g63
NtRp2178
(dp2179
g66
(dp2180
g93
g94
ssg75
g2169
sg68
(lp2181
S':'
asbag61
(g82
g63
NtRp2182
(dp2183
g66
(dp2184
sg75
g2169
sg68
(lp2185
g61
(g62
g63
NtRp2186
(dp2187
g66
(dp2188
g74
I3
ssg75
g2182
sg68
(lp2189
g749
asbasbasbag61
(g77
g63
NtRp2190
(dp2191
g66
(dp2192
sg75
g2039
sg68
(lp2193
g61
(g82
g63
NtRp2194
(dp2195
g66
(dp2196
g86
g87
ssg75
g2190
sg68
(lp2197
S'HTTP_HOST'
p2198
asbag61
(g82
g63
NtRp2199
(dp2200
g66
(dp2201
g93
g94
ssg75
g2190
sg68
(lp2202
S':'
asbag61
(g82
g63
NtRp2203
(dp2204
g66
(dp2205
sg75
g2190
sg68
(lp2206
g61
(g62
g63
NtRp2207
(dp2208
g66
(dp2209
g74
I3
ssg75
g2203
sg68
(lp2210
g771
asbasbasbag61
(g77
g63
NtRp2211
(dp2212
g66
(dp2213
sg75
g2039
sg68
(lp2214
g61
(g82
g63
NtRp2215
(dp2216
g66
(dp2217
g86
g87
ssg75
g2211
sg68
(lp2218
S'HTTP_USER_AGENT'
p2219
asbag61
(g82
g63
NtRp2220
(dp2221
g66
(dp2222
g93
g94
ssg75
g2211
sg68
(lp2223
S':'
asbag61
(g82
g63
NtRp2224
(dp2225
g66
(dp2226
sg75
g2211
sg68
(lp2227
g61
(g62
g63
NtRp2228
(dp2229
g66
(dp2230
g74
I3
ssg75
g2224
sg68
(lp2231
g793
asbasbasbag61
(g77
g63
NtRp2232
(dp2233
g66
(dp2234
sg75
g2039
sg68
(lp2235
g61
(g82
g63
NtRp2236
(dp2237
g66
(dp2238
g86
g87
ssg75
g2232
sg68
(lp2239
S'PATH_INFO'
p2240
asbag61
(g82
g63
NtRp2241
(dp2242
g66
(dp2243
g93
g94
ssg75
g2232
sg68
(lp2244
S':'
asbag61
(g82
g63
NtRp2245
(dp2246
g66
(dp2247
sg75
g2232
sg68
(lp2248
g61
(g62
g63
NtRp2249
(dp2250
g66
(dp2251
g74
I3
ssg75
g2245
sg68
(lp2252
S'/'
asbasbasbag61
(g77
g63
NtRp2253
(dp2254
g66
(dp2255
sg75
g2039
sg68
(lp2256
g61
(g82
g63
NtRp2257
(dp2258
g66
(dp2259
g86
g87
ssg75
g2253
sg68
(lp2260
S'QUERY_STRING'
p2261
asbag61
(g82
g63
NtRp2262
(dp2263
g66
(dp2264
g93
g94
ssg75
g2253
sg68
(lp2265
S':'
asbag61
(g82
g63
NtRp2266
(dp2267
g66
(dp2268
sg75
g2253
sg68
(lp2269
g61
(g62
g63
NtRp2270
(dp2271
g66
(dp2272
g74
I3
ssg75
g2266
sg68
(lp2273
S''
asbasbasbag61
(g77
g63
NtRp2274
(dp2275
g66
(dp2276
sg75
g2039
sg68
(lp2277
g61
(g82
g63
NtRp2278
(dp2279
g66
(dp2280
g86
g87
ssg75
g2274
sg68
(lp2281
S'REMOTE_ADDR'
p2282
asbag61
(g82
g63
NtRp2283
(dp2284
g66
(dp2285
g93
g94
ssg75
g2274
sg68
(lp2286
S':'
asbag61
(g82
g63
NtRp2287
(dp2288
g66
(dp2289
sg75
g2274
sg68
(lp2290
g61
(g62
g63
NtRp2291
(dp2292
g66
(dp2293
g74
I3
ssg75
g2287
sg68
(lp2294
g194
asbasbasbag61
(g77
g63
NtRp2295
(dp2296
g66
(dp2297
sg75
g2039
sg68
(lp2298
g61
(g82
g63
NtRp2299
(dp2300
g66
(dp2301
g86
g87
ssg75
g2295
sg68
(lp2302
S'REMOTE_PORT'
p2303
asbag61
(g82
g63
NtRp2304
(dp2305
g66
(dp2306
g93
g94
ssg75
g2295
sg68
(lp2307
S':'
asbag61
(g82
g63
NtRp2308
(dp2309
g66
(dp2310
sg75
g2295
sg68
(lp2311
g61
(g62
g63
NtRp2312
(dp2313
g66
(dp2314
g74
I3
ssg75
g2308
sg68
(lp2315
g920
asbasbasbag61
(g77
g63
NtRp2316
(dp2317
g66
(dp2318
sg75
g2039
sg68
(lp2319
g61
(g82
g63
NtRp2320
(dp2321
g66
(dp2322
g86
g87
ssg75
g2316
sg68
(lp2323
S'REQUEST_METHOD'
p2324
asbag61
(g82
g63
NtRp2325
(dp2326
g66
(dp2327
g93
g94
ssg75
g2316
sg68
(lp2328
S':'
asbag61
(g82
g63
NtRp2329
(dp2330
g66
(dp2331
sg75
g2316
sg68
(lp2332
g61
(g62
g63
NtRp2333
(dp2334
g66
(dp2335
g74
I3
ssg75
g2329
sg68
(lp2336
g942
asbasbasbag61
(g77
g63
NtRp2337
(dp2338
g66
(dp2339
sg75
g2039
sg68
(lp2340
g61
(g82
g63
NtRp2341
(dp2342
g66
(dp2343
g86
g87
ssg75
g2337
sg68
(lp2344
S'SCRIPT_NAME'
p2345
asbag61
(g82
g63
NtRp2346
(dp2347
g66
(dp2348
g93
g94
ssg75
g2337
sg68
(lp2349
S':'
asbag61
(g82
g63
NtRp2350
(dp2351
g66
(dp2352
sg75
g2337
sg68
(lp2353
g61
(g62
g63
NtRp2354
(dp2355
g66
(dp2356
g74
I3
ssg75
g2350
sg68
(lp2357
S''
asbasbasbag61
(g77
g63
NtRp2358
(dp2359
g66
(dp2360
sg75
g2039
sg68
(lp2361
g61
(g82
g63
NtRp2362
(dp2363
g66
(dp2364
g86
g87
ssg75
g2358
sg68
(lp2365
S'SERVER_NAME'
p2366
asbag61
(g82
g63
NtRp2367
(dp2368
g66
(dp2369
g93
g94
ssg75
g2358
sg68
(lp2370
S':'
asbag61
(g82
g63
NtRp2371
(dp2372
g66
(dp2373
sg75
g2358
sg68
(lp2374
g61
(g62
g63
NtRp2375
(dp2376
g66
(dp2377
g74
I3
ssg75
g2371
sg68
(lp2378
g985
asbasbasbag61
(g77
g63
NtRp2379
(dp2380
g66
(dp2381
sg75
g2039
sg68
(lp2382
g61
(g82
g63
NtRp2383
(dp2384
g66
(dp2385
g86
g87
ssg75
g2379
sg68
(lp2386
S'SERVER_PORT'
p2387
asbag61
(g82
g63
NtRp2388
(dp2389
g66
(dp2390
g93
g94
ssg75
g2379
sg68
(lp2391
S':'
asbag61
(g82
g63
NtRp2392
(dp2393
g66
(dp2394
sg75
g2379
sg68
(lp2395
g61
(g62
g63
NtRp2396
(dp2397
g66
(dp2398
g74
I3
ssg75
g2392
sg68
(lp2399
g1007
asbasbasbag61
(g77
g63
NtRp2400
(dp2401
g66
(dp2402
sg75
g2039
sg68
(lp2403
g61
(g82
g63
NtRp2404
(dp2405
g66
(dp2406
g86
g87
ssg75
g2400
sg68
(lp2407
S'SERVER_PROTOCOL'
p2408
asbag61
(g82
g63
NtRp2409
(dp2410
g66
(dp2411
g93
g94
ssg75
g2400
sg68
(lp2412
S':'
asbag61
(g82
g63
NtRp2413
(dp2414
g66
(dp2415
sg75
g2400
sg68
(lp2416
g61
(g62
g63
NtRp2417
(dp2418
g66
(dp2419
g74
I3
ssg75
g2413
sg68
(lp2420
g1029
asbasbasbag61
(g77
g63
NtRp2421
(dp2422
g66
(dp2423
sg75
g2039
sg68
(lp2424
g61
(g82
g63
NtRp2425
(dp2426
g66
(dp2427
g86
g87
ssg75
g2421
sg68
(lp2428
S'SERVER_SOFTWARE'
p2429
asbag61
(g82
g63
NtRp2430
(dp2431
g66
(dp2432
g93
g94
ssg75
g2421
sg68
(lp2433
S':'
asbag61
(g82
g63
NtRp2434
(dp2435
g66
(dp2436
sg75
g2421
sg68
(lp2437
g61
(g62
g63
NtRp2438
(dp2439
g66
(dp2440
g74
I3
ssg75
g2434
sg68
(lp2441
g1051
asbasbasbag61
(g77
g63
NtRp2442
(dp2443
g66
(dp2444
sg75
g2039
sg68
(lp2445
g61
(g82
g63
NtRp2446
(dp2447
g66
(dp2448
g86
g87
ssg75
g2442
sg68
(lp2449
S'wsgi.errors'
p2450
asbag61
(g82
g63
NtRp2451
(dp2452
g66
(dp2453
g93
g94
ssg75
g2442
sg68
(lp2454
S':'
asbag61
(g82
g63
NtRp2455
(dp2456
g66
(dp2457
sg75
g2442
sg68
(lp2458
g61
(g62
g63
NtRp2459
(dp2460
g66
(dp2461
g74
I3
ssg75
g2455
sg68
(lp2462
S"<open file '<stderr>', mode 'w' at 0x006500B0>"
p2463
asbasbasbag61
(g77
g63
NtRp2464
(dp2465
g66
(dp2466
sg75
g2039
sg68
(lp2467
g61
(g82
g63
NtRp2468
(dp2469
g66
(dp2470
g86
g87
ssg75
g2464
sg68
(lp2471
S'wsgi.file_wrapper'
p2472
asbag61
(g82
g63
NtRp2473
(dp2474
g66
(dp2475
g93
g94
ssg75
g2464
sg68
(lp2476
S':'
asbag61
(g82
g63
NtRp2477
(dp2478
g66
(dp2479
sg75
g2464
sg68
(lp2480
g61
(g62
g63
NtRp2481
(dp2482
g66
(dp2483
g74
I3
ssg75
g2477
sg68
(lp2484
S'<class wsgiref.util.FileWrapper at 0x02BF68D0>'
p2485
asbasbasbag61
(g77
g63
NtRp2486
(dp2487
g66
(dp2488
sg75
g2039
sg68
(lp2489
g61
(g82
g63
NtRp2490
(dp2491
g66
(dp2492
g86
g87
ssg75
g2486
sg68
(lp2493
S'wsgi.input'
p2494
asbag61
(g82
g63
NtRp2495
(dp2496
g66
(dp2497
g93
g94
ssg75
g2486
sg68
(lp2498
S':'
asbag61
(g82
g63
NtRp2499
(dp2500
g66
(dp2501
sg75
g2486
sg68
(lp2502
g61
(g62
g63
NtRp2503
(dp2504
g66
(dp2505
g74
I3
ssg75
g2499
sg68
(lp2506
S'<cStringIO.StringO object at 0x07B7C220>'
p2507
asbasbasbag61
(g77
g63
NtRp2508
(dp2509
g66
(dp2510
sg75
g2039
sg68
(lp2511
g61
(g82
g63
NtRp2512
(dp2513
g66
(dp2514
g86
g87
ssg75
g2508
sg68
(lp2515
S'wsgi.multiprocess'
p2516
asbag61
(g82
g63
NtRp2517
(dp2518
g66
(dp2519
g93
g94
ssg75
g2508
sg68
(lp2520
S':'
asbag61
(g82
g63
NtRp2521
(dp2522
g66
(dp2523
sg75
g2508
sg68
(lp2524
g61
(g62
g63
NtRp2525
(dp2526
g66
(dp2527
g74
I3
ssg75
g2521
sg68
(lp2528
g104
asbasbasbag61
(g77
g63
NtRp2529
(dp2530
g66
(dp2531
sg75
g2039
sg68
(lp2532
g61
(g82
g63
NtRp2533
(dp2534
g66
(dp2535
g86
g87
ssg75
g2529
sg68
(lp2536
S'wsgi.multithread'
p2537
asbag61
(g82
g63
NtRp2538
(dp2539
g66
(dp2540
g93
g94
ssg75
g2529
sg68
(lp2541
S':'
asbag61
(g82
g63
NtRp2542
(dp2543
g66
(dp2544
sg75
g2529
sg68
(lp2545
g61
(g62
g63
NtRp2546
(dp2547
g66
(dp2548
g74
I3
ssg75
g2542
sg68
(lp2549
g573
asbasbasbag61
(g77
g63
NtRp2550
(dp2551
g66
(dp2552
sg75
g2039
sg68
(lp2553
g61
(g82
g63
NtRp2554
(dp2555
g66
(dp2556
g86
g87
ssg75
g2550
sg68
(lp2557
S'wsgi.run_once'
p2558
asbag61
(g82
g63
NtRp2559
(dp2560
g66
(dp2561
g93
g94
ssg75
g2550
sg68
(lp2562
S':'
asbag61
(g82
g63
NtRp2563
(dp2564
g66
(dp2565
sg75
g2550
sg68
(lp2566
g61
(g62
g63
NtRp2567
(dp2568
g66
(dp2569
g74
I3
ssg75
g2563
sg68
(lp2570
g104
asbasbasbag61
(g77
g63
NtRp2571
(dp2572
g66
(dp2573
sg75
g2039
sg68
(lp2574
g61
(g82
g63
NtRp2575
(dp2576
g66
(dp2577
g86
g87
ssg75
g2571
sg68
(lp2578
S'wsgi.url_scheme'
p2579
asbag61
(g82
g63
NtRp2580
(dp2581
g66
(dp2582
g93
g94
ssg75
g2571
sg68
(lp2583
S':'
asbag61
(g82
g63
NtRp2584
(dp2585
g66
(dp2586
sg75
g2571
sg68
(lp2587
g61
(g62
g63
NtRp2588
(dp2589
g66
(dp2590
g74
I3
ssg75
g2584
sg68
(lp2591
g1333
asbasbasbag61
(g77
g63
NtRp2592
(dp2593
g66
(dp2594
sg75
g2039
sg68
(lp2595
g61
(g82
g63
NtRp2596
(dp2597
g66
(dp2598
g86
g87
ssg75
g2592
sg68
(lp2599
S'wsgi.version'
p2600
asbag61
(g82
g63
NtRp2601
(dp2602
g66
(dp2603
g93
g94
ssg75
g2592
sg68
(lp2604
S':'
asbag61
(g82
g63
NtRp2605
(dp2606
g66
(dp2607
sg75
g2592
sg68
(lp2608
g61
(g62
g63
NtRp2609
(dp2610
g66
(dp2611
g74
I3
ssg75
g2605
sg68
(lp2612
S'1'
asbasbasbasbasbasbasbasbasbasbasbasbasbsS'frames'
p2613
(lp2614
(dp2615
S'file'
p2616
S'C:\\Users\\Bussiere\\Dropbox\\Projets\\Yuki\\web2py\\gluon\\restricted.py'
p2617
sS'dump'
p2618
(dp2619
sS'lnum'
p2620
I205
sS'lines'
p2621
(dp2622
I200
S'    try:'
p2623
sI201
S'        if type(code) == types.CodeType:'
p2624
sI202
S'            ccode = code'
p2625
sI203
S'        else:'
p2626
sI204
S'            ccode = compile2(code,layer)'
p2627
sI205
S'        exec ccode in environment'
p2628
sI206
S'    except HTTP:'
p2629
sI207
S'        raise'
p2630
sI208
S'    except RestrictedError:'
p2631
sI209
S'        # do not encapsulate (obfuscate) the original RestrictedError'
p2632
ssS'call'
p2633
S"(code='# -*- coding: utf-8 -*-\\n\\n#######################...#####################################\\n\\n#########\\n', environment={'A': <class 'gluon.html.A'>, 'Auth': <class 'gluon.tools.Auth'>, 'B': <class 'gluon.html.B'>, 'BEAUTIFY': <class 'gluon.html.BEAUTIFY'>, 'BODY': <class 'gluon.html.BODY'>, 'BR': <class 'gluon.html.BR'>, 'BUTTON': <class 'gluon.html.BUTTON'>, 'CAT': <class 'gluon.html.CAT'>, 'CENTER': <class 'gluon.html.CENTER'>, 'CLEANUP': <class 'gluon.validators.CLEANUP'>, ...}, layer=r'C:\\Users\\Bussiere\\Dropbox\\Projets\\Yuki\\web2py\\applications\\init\\models\\db.py')"
p2634
sS'func'
p2635
S'restricted'
p2636
sa(dp2637
g2616
S'C:\\Users\\Bussiere\\Dropbox\\Projets\\Yuki\\web2py\\applications\\init\\models\\db.py'
p2638
sg2618
(dp2639
sg2620
I326
sg2621
(dp2640
I321
S"   format = '%(title)s')"
p2641
sI322
S''
sI323
S''
sI324
S"db.define_table('Cour',"
p2642
sI325
S"    Field('Price', 'float'),"
p2643
sI326
S"    format = '%(Price)s')"
p2644
sI327
S''
sI328
S"db.define_table('Currency',"
p2645
sI329
S"   Field('Name', unique=True),"
p2646
sI330
S"   Field('Cour', db.Cour),"
p2647
ssg2633
S'()'
p2648
sg2635
S'<module>'
p2649
sa(dp2650
g2616
S'C:\\Users\\Bussiere\\Dropbox\\Projets\\Yuki\\web2py\\gluon\\dal.py'
p2651
sg2618
(dp2652
sg2620
I6320
sg2621
(dp2653
I6315
S"        if migrate or self._adapter.dbengine=='google:datastore':"
p2654
sI6316
S'            try:'
p2655
sI6317
S'                sql_locker.acquire()'
p2656
sI6318
S'                self._adapter.create_table(t,migrate=migrate,'
p2657
sI6319
S'                                           fake_migrate=fake_migrate,'
p2658
sI6320
S'                                           polymodel=polymodel)'
p2659
sI6321
S'            finally:'
p2660
sI6322
S'                sql_locker.release()'
p2661
sI6323
S'        else:'
p2662
sI6324
S'            t._dbt = None'
p2663
ssg2633
S"(self=<DAL {'auth_event': <Table {'origin': <gluon.dal..._key': <gluon.dal.Field object at 0x0463BD10>}>}>, tablename='Cour', *fields=(<gluon.dal.Field object at 0x03DDE3B0>,), **args={'format': '%(Price)s'})"
p2664
sg2635
S'define_table'
p2665
sa(dp2666
g2616
S'C:\\Users\\Bussiere\\Dropbox\\Projets\\Yuki\\web2py\\gluon\\dal.py'
p2667
sg2618
(dp2668
sg2620
I638
sg2621
(dp2669
I640
S'                ftype = self.types[field.type]\\'
p2670
sI641
S'                     % dict(length=field.length)'
p2671
sI642
S"            if not field.type.startswith('id') and not field.type.startswith('reference'):"
p2672
sI633
S"                precision, scale = map(int,field.type[8:-1].split(','))"
p2673
sI634
S'                ftype = self.types[field.type[:7]] % \\'
p2674
sI635
S'                    dict(precision=precision,scale=scale)'
p2675
sI636
S'            elif not field.type in self.types:'
p2676
sI637
S"                raise SyntaxError, 'Field: unknown field type: %s for %s' % \\"
p2677
sI638
S'                    (field.type, field.name)'
p2678
sI639
S'            else:'
p2679
ssg2633
S"(self=<gluon.dal.SQLiteAdapter object at 0x0463B3D0>, table=<Table {'ALL': <gluon.dal.SQLALL object at 0x041...>, 'id': <gluon.dal.Field object at 0x04140BB0>}>, migrate=True, fake_migrate=False, polymodel=None)"
p2680
sg2635
S'create_table'
p2681
sasS'pyver'
p2682
S'Python 2.5.4: C:\\Users\\Bussiere\\Dropbox\\Projets\\Yuki\\web2py\\web2py.exe'
p2683
sS'session'
p2684
g61
(g62
g63
NtRp2685
(dp2686
g66
(dp2687
sg68
(lp2688
g61
(g70
g63
NtRp2689
(dp2690
g66
(dp2691
g74
I5
ssg75
Nsg68
(lp2692
sbasbsS'etype'
p2693
S"<type 'exceptions.SyntaxError'>"
p2694
sS'date'
p2695
S'Sun Mar 11 10:11:22 2012'
p2696
sS'response'
p2697
g61
(g62
g63
NtRp2698
(dp2699
g66
(dp2700
sg68
(lp2701
g61
(g70
g63
NtRp2702
(dp2703
g66
(dp2704
g74
I5
ssg75
Nsg68
(lp2705
g61
(g77
g63
NtRp2706
(dp2707
g66
(dp2708
sg75
g2702
sg68
(lp2709
g61
(g82
g63
NtRp2710
(dp2711
g66
(dp2712
g86
g87
ssg75
g2706
sg68
(lp2713
g159
asbag61
(g82
g63
NtRp2714
(dp2715
g66
(dp2716
g93
g94
ssg75
g2706
sg68
(lp2717
S':'
asbag61
(g82
g63
NtRp2718
(dp2719
g66
(dp2720
sg75
g2706
sg68
(lp2721
g61
(g62
g63
NtRp2722
(dp2723
g66
(dp2724
g74
I5
ssg75
g2718
sg68
(lp2725
S'<cStringIO.StringO object at 0x07B7C180>'
p2726
asbasbasbag61
(g77
g63
NtRp2727
(dp2728
g66
(dp2729
sg75
g2702
sg68
(lp2730
g61
(g82
g63
NtRp2731
(dp2732
g66
(dp2733
g86
g87
ssg75
g2727
sg68
(lp2734
g225
asbag61
(g82
g63
NtRp2735
(dp2736
g66
(dp2737
g93
g94
ssg75
g2727
sg68
(lp2738
S':'
asbag61
(g82
g63
NtRp2739
(dp2740
g66
(dp2741
sg75
g2727
sg68
(lp2742
g61
(g62
g63
NtRp2743
(dp2744
g66
(dp2745
g74
I5
ssg75
g2739
sg68
(lp2746
g61
(g70
g63
NtRp2747
(dp2748
g66
(dp2749
g74
I4
ssg75
Nsg68
(lp2750
g61
(g77
g63
NtRp2751
(dp2752
g66
(dp2753
sg75
g2747
sg68
(lp2754
g61
(g82
g63
NtRp2755
(dp2756
g66
(dp2757
g86
g87
ssg75
g2751
sg68
(lp2758
S'session_id_init'
p2759
asbag61
(g82
g63
NtRp2760
(dp2761
g66
(dp2762
g93
g94
ssg75
g2751
sg68
(lp2763
S':'
asbag61
(g82
g63
NtRp2764
(dp2765
g66
(dp2766
sg75
g2751
sg68
(lp2767
g61
(g62
g63
NtRp2768
(dp2769
g66
(dp2770
g74
I4
ssg75
g2764
sg68
(lp2771
g61
(g70
g63
NtRp2772
(dp2773
g66
(dp2774
g74
I3
ssg75
Nsg68
(lp2775
g61
(g77
g63
NtRp2776
(dp2777
g66
(dp2778
sg75
g2772
sg68
(lp2779
g61
(g82
g63
NtRp2780
(dp2781
g66
(dp2782
g86
g87
ssg75
g2776
sg68
(lp2783
g275
asbag61
(g82
g63
NtRp2784
(dp2785
g66
(dp2786
g93
g94
ssg75
g2776
sg68
(lp2787
S':'
asbag61
(g82
g63
NtRp2788
(dp2789
g66
(dp2790
sg75
g2776
sg68
(lp2791
g61
(g62
g63
NtRp2792
(dp2793
g66
(dp2794
g74
I3
ssg75
g2788
sg68
(lp2795
S''
asbasbasbag61
(g77
g63
NtRp2796
(dp2797
g66
(dp2798
sg75
g2772
sg68
(lp2799
g61
(g82
g63
NtRp2800
(dp2801
g66
(dp2802
g86
g87
ssg75
g2796
sg68
(lp2803
g296
asbag61
(g82
g63
NtRp2804
(dp2805
g66
(dp2806
g93
g94
ssg75
g2796
sg68
(lp2807
S':'
asbag61
(g82
g63
NtRp2808
(dp2809
g66
(dp2810
sg75
g2796
sg68
(lp2811
g61
(g62
g63
NtRp2812
(dp2813
g66
(dp2814
g74
I3
ssg75
g2808
sg68
(lp2815
S''
asbasbasbag61
(g77
g63
NtRp2816
(dp2817
g66
(dp2818
sg75
g2772
sg68
(lp2819
g61
(g82
g63
NtRp2820
(dp2821
g66
(dp2822
g86
g87
ssg75
g2816
sg68
(lp2823
g317
asbag61
(g82
g63
NtRp2824
(dp2825
g66
(dp2826
g93
g94
ssg75
g2816
sg68
(lp2827
S':'
asbag61
(g82
g63
NtRp2828
(dp2829
g66
(dp2830
sg75
g2816
sg68
(lp2831
g61
(g62
g63
NtRp2832
(dp2833
g66
(dp2834
g74
I3
ssg75
g2828
sg68
(lp2835
S''
asbasbasbag61
(g77
g63
NtRp2836
(dp2837
g66
(dp2838
sg75
g2772
sg68
(lp2839
g61
(g82
g63
NtRp2840
(dp2841
g66
(dp2842
g86
g87
ssg75
g2836
sg68
(lp2843
g338
asbag61
(g82
g63
NtRp2844
(dp2845
g66
(dp2846
g93
g94
ssg75
g2836
sg68
(lp2847
S':'
asbag61
(g82
g63
NtRp2848
(dp2849
g66
(dp2850
sg75
g2836
sg68
(lp2851
g61
(g62
g63
NtRp2852
(dp2853
g66
(dp2854
g74
I3
ssg75
g2848
sg68
(lp2855
S''
asbasbasbag61
(g77
g63
NtRp2856
(dp2857
g66
(dp2858
sg75
g2772
sg68
(lp2859
g61
(g82
g63
NtRp2860
(dp2861
g66
(dp2862
g86
g87
ssg75
g2856
sg68
(lp2863
g359
asbag61
(g82
g63
NtRp2864
(dp2865
g66
(dp2866
g93
g94
ssg75
g2856
sg68
(lp2867
S':'
asbag61
(g82
g63
NtRp2868
(dp2869
g66
(dp2870
sg75
g2856
sg68
(lp2871
g61
(g62
g63
NtRp2872
(dp2873
g66
(dp2874
g74
I3
ssg75
g2868
sg68
(lp2875
S'/'
asbasbasbag61
(g77
g63
NtRp2876
(dp2877
g66
(dp2878
sg75
g2772
sg68
(lp2879
g61
(g82
g63
NtRp2880
(dp2881
g66
(dp2882
g86
g87
ssg75
g2876
sg68
(lp2883
g380
asbag61
(g82
g63
NtRp2884
(dp2885
g66
(dp2886
g93
g94
ssg75
g2876
sg68
(lp2887
S':'
asbag61
(g82
g63
NtRp2888
(dp2889
g66
(dp2890
sg75
g2876
sg68
(lp2891
g61
(g62
g63
NtRp2892
(dp2893
g66
(dp2894
g74
I3
ssg75
g2888
sg68
(lp2895
S''
asbasbasbag61
(g77
g63
NtRp2896
(dp2897
g66
(dp2898
sg75
g2772
sg68
(lp2899
g61
(g82
g63
NtRp2900
(dp2901
g66
(dp2902
g86
g87
ssg75
g2896
sg68
(lp2903
g401
asbag61
(g82
g63
NtRp2904
(dp2905
g66
(dp2906
g93
g94
ssg75
g2896
sg68
(lp2907
S':'
asbag61
(g82
g63
NtRp2908
(dp2909
g66
(dp2910
sg75
g2896
sg68
(lp2911
g61
(g62
g63
NtRp2912
(dp2913
g66
(dp2914
g74
I3
ssg75
g2908
sg68
(lp2915
S''
asbasbasbasbasbasbasbasbasbasbasbag61
(g77
g63
NtRp2916
(dp2917
g66
(dp2918
sg75
g2702
sg68
(lp2919
g61
(g82
g63
NtRp2920
(dp2921
g66
(dp2922
g86
g87
ssg75
g2916
sg68
(lp2923
S'delimiters'
p2924
asbag61
(g82
g63
NtRp2925
(dp2926
g66
(dp2927
g93
g94
ssg75
g2916
sg68
(lp2928
S':'
asbag61
(g82
g63
NtRp2929
(dp2930
g66
(dp2931
sg75
g2916
sg68
(lp2932
g61
(g62
g63
NtRp2933
(dp2934
g66
(dp2935
g74
I5
ssg75
g2929
sg68
(lp2936
g61
(g70
g63
NtRp2937
(dp2938
g66
(dp2939
g74
I4
ssg75
Nsg68
(lp2940
g61
(g77
g63
NtRp2941
(dp2942
g66
(dp2943
sg75
g2937
sg68
(lp2944
g61
(g82
g63
NtRp2945
(dp2946
g66
(dp2947
sg75
g2941
sg68
(lp2948
g61
(g62
g63
NtRp2949
(dp2950
g66
(dp2951
g74
I4
ssg75
g2945
sg68
(lp2952
S'{{'
p2953
asbasbasbag61
(g77
g63
NtRp2954
(dp2955
g66
(dp2956
sg75
g2937
sg68
(lp2957
g61
(g82
g63
NtRp2958
(dp2959
g66
(dp2960
sg75
g2954
sg68
(lp2961
g61
(g62
g63
NtRp2962
(dp2963
g66
(dp2964
g74
I4
ssg75
g2958
sg68
(lp2965
S'}}'
p2966
asbasbasbasbasbasbasbag61
(g77
g63
NtRp2967
(dp2968
g66
(dp2969
sg75
g2702
sg68
(lp2970
g61
(g82
g63
NtRp2971
(dp2972
g66
(dp2973
g86
g87
ssg75
g2967
sg68
(lp2974
S'files'
p2975
asbag61
(g82
g63
NtRp2976
(dp2977
g66
(dp2978
g93
g94
ssg75
g2967
sg68
(lp2979
S':'
asbag61
(g82
g63
NtRp2980
(dp2981
g66
(dp2982
sg75
g2967
sg68
(lp2983
g61
(g62
g63
NtRp2984
(dp2985
g66
(dp2986
g74
I5
ssg75
g2980
sg68
(lp2987
g61
(g70
g63
NtRp2988
(dp2989
g66
(dp2990
g74
I4
ssg75
Nsg68
(lp2991
sbasbasbasbag61
(g77
g63
NtRp2992
(dp2993
g66
(dp2994
sg75
g2702
sg68
(lp2995
g61
(g82
g63
NtRp2996
(dp2997
g66
(dp2998
g86
g87
ssg75
g2992
sg68
(lp2999
S'flash'
p3000
asbag61
(g82
g63
NtRp3001
(dp3002
g66
(dp3003
g93
g94
ssg75
g2992
sg68
(lp3004
S':'
asbag61
(g82
g63
NtRp3005
(dp3006
g66
(dp3007
sg75
g2992
sg68
(lp3008
g61
(g62
g63
NtRp3009
(dp3010
g66
(dp3011
g74
I5
ssg75
g3005
sg68
(lp3012
S''
asbasbasbag61
(g77
g63
NtRp3013
(dp3014
g66
(dp3015
sg75
g2702
sg68
(lp3016
g61
(g82
g63
NtRp3017
(dp3018
g66
(dp3019
g86
g87
ssg75
g3013
sg68
(lp3020
S'generic_patterns'
p3021
asbag61
(g82
g63
NtRp3022
(dp3023
g66
(dp3024
g93
g94
ssg75
g3013
sg68
(lp3025
S':'
asbag61
(g82
g63
NtRp3026
(dp3027
g66
(dp3028
sg75
g3013
sg68
(lp3029
g61
(g62
g63
NtRp3030
(dp3031
g66
(dp3032
g74
I5
ssg75
g3026
sg68
(lp3033
g61
(g70
g63
NtRp3034
(dp3035
g66
(dp3036
g74
I4
ssg75
Nsg68
(lp3037
g61
(g77
g63
NtRp3038
(dp3039
g66
(dp3040
sg75
g3034
sg68
(lp3041
g61
(g82
g63
NtRp3042
(dp3043
g66
(dp3044
sg75
g3038
sg68
(lp3045
g61
(g62
g63
NtRp3046
(dp3047
g66
(dp3048
g74
I4
ssg75
g3042
sg68
(lp3049
S'*'
asbasbasbasbasbasbasbag61
(g77
g63
NtRp3050
(dp3051
g66
(dp3052
sg75
g2702
sg68
(lp3053
g61
(g82
g63
NtRp3054
(dp3055
g66
(dp3056
g86
g87
ssg75
g3050
sg68
(lp3057
S'headers'
p3058
asbag61
(g82
g63
NtRp3059
(dp3060
g66
(dp3061
g93
g94
ssg75
g3050
sg68
(lp3062
S':'
asbag61
(g82
g63
NtRp3063
(dp3064
g66
(dp3065
sg75
g3050
sg68
(lp3066
g61
(g62
g63
NtRp3067
(dp3068
g66
(dp3069
g74
I5
ssg75
g3063
sg68
(lp3070
g61
(g70
g63
NtRp3071
(dp3072
g66
(dp3073
g74
I4
ssg75
Nsg68
(lp3074
g61
(g77
g63
NtRp3075
(dp3076
g66
(dp3077
sg75
g3071
sg68
(lp3078
g61
(g82
g63
NtRp3079
(dp3080
g66
(dp3081
g86
g87
ssg75
g3075
sg68
(lp3082
S'Cache-Control'
p3083
asbag61
(g82
g63
NtRp3084
(dp3085
g66
(dp3086
g93
g94
ssg75
g3075
sg68
(lp3087
S':'
asbag61
(g82
g63
NtRp3088
(dp3089
g66
(dp3090
sg75
g3075
sg68
(lp3091
g61
(g62
g63
NtRp3092
(dp3093
g66
(dp3094
g74
I4
ssg75
g3088
sg68
(lp3095
S'no-store, no-cache, must-revalidate, post-check=0, pre-check=0'
p3096
asbasbasbag61
(g77
g63
NtRp3097
(dp3098
g66
(dp3099
sg75
g3071
sg68
(lp3100
g61
(g82
g63
NtRp3101
(dp3102
g66
(dp3103
g86
g87
ssg75
g3097
sg68
(lp3104
S'Content-Type'
p3105
asbag61
(g82
g63
NtRp3106
(dp3107
g66
(dp3108
g93
g94
ssg75
g3097
sg68
(lp3109
S':'
asbag61
(g82
g63
NtRp3110
(dp3111
g66
(dp3112
sg75
g3097
sg68
(lp3113
g61
(g62
g63
NtRp3114
(dp3115
g66
(dp3116
g74
I4
ssg75
g3110
sg68
(lp3117
S'text/html; charset=utf-8'
p3118
asbasbasbag61
(g77
g63
NtRp3119
(dp3120
g66
(dp3121
sg75
g3071
sg68
(lp3122
g61
(g82
g63
NtRp3123
(dp3124
g66
(dp3125
g86
g87
ssg75
g3119
sg68
(lp3126
S'Expires'
p3127
asbag61
(g82
g63
NtRp3128
(dp3129
g66
(dp3130
g93
g94
ssg75
g3119
sg68
(lp3131
S':'
asbag61
(g82
g63
NtRp3132
(dp3133
g66
(dp3134
sg75
g3119
sg68
(lp3135
g61
(g62
g63
NtRp3136
(dp3137
g66
(dp3138
g74
I4
ssg75
g3132
sg68
(lp3139
S'Sun, 11 Mar 2012 09:11:20 GMT'
p3140
asbasbasbag61
(g77
g63
NtRp3141
(dp3142
g66
(dp3143
sg75
g3071
sg68
(lp3144
g61
(g82
g63
NtRp3145
(dp3146
g66
(dp3147
g86
g87
ssg75
g3141
sg68
(lp3148
S'Pragma'
p3149
asbag61
(g82
g63
NtRp3150
(dp3151
g66
(dp3152
g93
g94
ssg75
g3141
sg68
(lp3153
S':'
asbag61
(g82
g63
NtRp3154
(dp3155
g66
(dp3156
sg75
g3141
sg68
(lp3157
g61
(g62
g63
NtRp3158
(dp3159
g66
(dp3160
g74
I4
ssg75
g3154
sg68
(lp3161
S'no-cache'
p3162
asbasbasbag61
(g77
g63
NtRp3163
(dp3164
g66
(dp3165
sg75
g3071
sg68
(lp3166
g61
(g82
g63
NtRp3167
(dp3168
g66
(dp3169
g86
g87
ssg75
g3163
sg68
(lp3170
S'X-Powered-By'
p3171
asbag61
(g82
g63
NtRp3172
(dp3173
g66
(dp3174
g93
g94
ssg75
g3163
sg68
(lp3175
S':'
asbag61
(g82
g63
NtRp3176
(dp3177
g66
(dp3178
sg75
g3163
sg68
(lp3179
g61
(g62
g63
NtRp3180
(dp3181
g66
(dp3182
g74
I4
ssg75
g3176
sg68
(lp3183
S'web2py'
p3184
asbasbasbasbasbasbasbag61
(g77
g63
NtRp3185
(dp3186
g66
(dp3187
sg75
g2702
sg68
(lp3188
g61
(g82
g63
NtRp3189
(dp3190
g66
(dp3191
g86
g87
ssg75
g3185
sg68
(lp3192
S'menu'
p3193
asbag61
(g82
g63
NtRp3194
(dp3195
g66
(dp3196
g93
g94
ssg75
g3185
sg68
(lp3197
S':'
asbag61
(g82
g63
NtRp3198
(dp3199
g66
(dp3200
sg75
g3185
sg68
(lp3201
g61
(g62
g63
NtRp3202
(dp3203
g66
(dp3204
g74
I5
ssg75
g3198
sg68
(lp3205
g61
(g70
g63
NtRp3206
(dp3207
g66
(dp3208
g74
I4
ssg75
Nsg68
(lp3209
sbasbasbasbag61
(g77
g63
NtRp3210
(dp3211
g66
(dp3212
sg75
g2702
sg68
(lp3213
g61
(g82
g63
NtRp3214
(dp3215
g66
(dp3216
g86
g87
ssg75
g3210
sg68
(lp3217
S'meta'
p3218
asbag61
(g82
g63
NtRp3219
(dp3220
g66
(dp3221
g93
g94
ssg75
g3210
sg68
(lp3222
S':'
asbag61
(g82
g63
NtRp3223
(dp3224
g66
(dp3225
sg75
g3210
sg68
(lp3226
g61
(g62
g63
NtRp3227
(dp3228
g66
(dp3229
g74
I5
ssg75
g3223
sg68
(lp3230
g61
(g70
g63
NtRp3231
(dp3232
g66
(dp3233
g74
I4
ssg75
Nsg68
(lp3234
sbasbasbasbag61
(g77
g63
NtRp3235
(dp3236
g66
(dp3237
sg75
g2702
sg68
(lp3238
g61
(g82
g63
NtRp3239
(dp3240
g66
(dp3241
g86
g87
ssg75
g3235
sg68
(lp3242
S'postprocessing'
p3243
asbag61
(g82
g63
NtRp3244
(dp3245
g66
(dp3246
g93
g94
ssg75
g3235
sg68
(lp3247
S':'
asbag61
(g82
g63
NtRp3248
(dp3249
g66
(dp3250
sg75
g3235
sg68
(lp3251
g61
(g62
g63
NtRp3252
(dp3253
g66
(dp3254
g74
I5
ssg75
g3248
sg68
(lp3255
g61
(g70
g63
NtRp3256
(dp3257
g66
(dp3258
g74
I4
ssg75
Nsg68
(lp3259
sbasbasbasbag61
(g77
g63
NtRp3260
(dp3261
g66
(dp3262
sg75
g2702
sg68
(lp3263
g61
(g82
g63
NtRp3264
(dp3265
g66
(dp3266
g86
g87
ssg75
g3260
sg68
(lp3267
S'session_filename'
p3268
asbag61
(g82
g63
NtRp3269
(dp3270
g66
(dp3271
g93
g94
ssg75
g3260
sg68
(lp3272
S':'
asbag61
(g82
g63
NtRp3273
(dp3274
g66
(dp3275
sg75
g3260
sg68
(lp3276
g61
(g62
g63
NtRp3277
(dp3278
g66
(dp3279
g74
I5
ssg75
g3273
sg68
(lp3280
S'C:\\Users\\Bussiere\\Dropbox\\Projets\\Yuki\\web2py\\applications\\init\\sessions\\127.0.0.1-565d7893-6d11-436d-869f-7be034cfdd4b'
p3281
asbasbasbag61
(g77
g63
NtRp3282
(dp3283
g66
(dp3284
sg75
g2702
sg68
(lp3285
g61
(g82
g63
NtRp3286
(dp3287
g66
(dp3288
g86
g87
ssg75
g3282
sg68
(lp3289
S'session_id'
p3290
asbag61
(g82
g63
NtRp3291
(dp3292
g66
(dp3293
g93
g94
ssg75
g3282
sg68
(lp3294
S':'
asbag61
(g82
g63
NtRp3295
(dp3296
g66
(dp3297
sg75
g3282
sg68
(lp3298
g61
(g62
g63
NtRp3299
(dp3300
g66
(dp3301
g74
I5
ssg75
g3295
sg68
(lp3302
S'127.0.0.1-565d7893-6d11-436d-869f-7be034cfdd4b'
p3303
asbasbasbag61
(g77
g63
NtRp3304
(dp3305
g66
(dp3306
sg75
g2702
sg68
(lp3307
g61
(g82
g63
NtRp3308
(dp3309
g66
(dp3310
g86
g87
ssg75
g3304
sg68
(lp3311
S'session_id_name'
p3312
asbag61
(g82
g63
NtRp3313
(dp3314
g66
(dp3315
g93
g94
ssg75
g3304
sg68
(lp3316
S':'
asbag61
(g82
g63
NtRp3317
(dp3318
g66
(dp3319
sg75
g3304
sg68
(lp3320
g61
(g62
g63
NtRp3321
(dp3322
g66
(dp3323
g74
I5
ssg75
g3317
sg68
(lp3324
g2759
asbasbasbag61
(g77
g63
NtRp3325
(dp3326
g66
(dp3327
sg75
g2702
sg68
(lp3328
g61
(g82
g63
NtRp3329
(dp3330
g66
(dp3331
g86
g87
ssg75
g3325
sg68
(lp3332
S'session_new'
p3333
asbag61
(g82
g63
NtRp3334
(dp3335
g66
(dp3336
g93
g94
ssg75
g3325
sg68
(lp3337
S':'
asbag61
(g82
g63
NtRp3338
(dp3339
g66
(dp3340
sg75
g3325
sg68
(lp3341
g61
(g62
g63
NtRp3342
(dp3343
g66
(dp3344
g74
I5
ssg75
g3338
sg68
(lp3345
g573
asbasbasbag61
(g77
g63
NtRp3346
(dp3347
g66
(dp3348
sg75
g2702
sg68
(lp3349
g61
(g82
g63
NtRp3350
(dp3351
g66
(dp3352
g86
g87
ssg75
g3346
sg68
(lp3353
S'status'
p3354
asbag61
(g82
g63
NtRp3355
(dp3356
g66
(dp3357
g93
g94
ssg75
g3346
sg68
(lp3358
S':'
asbag61
(g82
g63
NtRp3359
(dp3360
g66
(dp3361
sg75
g3346
sg68
(lp3362
g61
(g62
g63
NtRp3363
(dp3364
g66
(dp3365
g74
I5
ssg75
g3359
sg68
(lp3366
S'200'
p3367
asbasbasbag61
(g77
g63
NtRp3368
(dp3369
g66
(dp3370
sg75
g2702
sg68
(lp3371
g61
(g82
g63
NtRp3372
(dp3373
g66
(dp3374
g86
g87
ssg75
g3368
sg68
(lp3375
g1954
asbag61
(g82
g63
NtRp3376
(dp3377
g66
(dp3378
g93
g94
ssg75
g3368
sg68
(lp3379
S':'
asbag61
(g82
g63
NtRp3380
(dp3381
g66
(dp3382
sg75
g3368
sg68
(lp3383
g61
(g62
g63
NtRp3384
(dp3385
g66
(dp3386
g74
I5
ssg75
g3380
sg68
(lp3387
g1967
asbasbasbag61
(g77
g63
NtRp3388
(dp3389
g66
(dp3390
sg75
g2702
sg68
(lp3391
g61
(g82
g63
NtRp3392
(dp3393
g66
(dp3394
g86
g87
ssg75
g3388
sg68
(lp3395
S'view'
p3396
asbag61
(g82
g63
NtRp3397
(dp3398
g66
(dp3399
g93
g94
ssg75
g3388
sg68
(lp3400
S':'
asbag61
(g82
g63
NtRp3401
(dp3402
g66
(dp3403
sg75
g3388
sg68
(lp3404
g61
(g62
g63
NtRp3405
(dp3406
g66
(dp3407
g74
I5
ssg75
g3401
sg68
(lp3408
S'default/index.html'
p3409
asbasbasbasbasbsS'locals'
p3410
(dp3411
S'polymodel'
p3412
S'None'
p3413
sS'sortable'
p3414
S'2'
sS'sql_fields_aux'
p3415
S"{'id': {'sql': 'INTEGER PRIMARY KEY AUTOINCREMENT'}}"
p3416
sS'TFK'
p3417
g21
sS'migrate'
p3418
g573
sS'fields'
p3419
S"['id INTEGER PRIMARY KEY AUTOINCREMENT']"
p3420
sS'self'
p3421
S'<gluon.dal.SQLiteAdapter object at 0x0463B3D0>'
p3422
sS'tablename'
p3423
S"'Cour'"
p3424
sS'fake_migrate'
p3425
g104
sS'field'
p3426
S'<gluon.dal.Field object at 0x03DDE3B0>'
p3427
sS'ftype'
p3428
S"'INTEGER PRIMARY KEY AUTOINCREMENT'"
p3429
sS'table'
p3430
S"<Table {'ALL': <gluon.dal.SQLALL object at 0x041...>, 'id': <gluon.dal.Field object at 0x04140BB0>}>"
p3431
sS'sql_fields'
p3432
S"{'id': {'sortable': 1, 'sql': 'INTEGER PRIMARY KEY AUTOINCREMENT', 'type': 'id'}}"
p3433
sS'k'
S"'Price'"
p3434
sssS'traceback'
p3435
S'Traceback (most recent call last):\n  File "gluon/restricted.py", line 205, in restricted\n  File "C:\\Users\\Bussiere\\Dropbox\\Projets\\Yuki\\web2py\\applications\\init\\models\\db.py", line 326, in <module>\n  File "gluon/dal.py", line 6320, in define_table\n  File "gluon/dal.py", line 638, in create_table\nSyntaxError: Field: unknown field type: float for Price\n'
p3436
s.