(dp1
S'output'
p2
S"<type 'exceptions.AttributeError'> 'NoneType' object has no attribute 'replace'"
p3
sS'layer'
p4
S'C:\\Users\\Bussiere\\Dropbox\\Projets\\Yuki\\web2py\\applications\\init\\views\\default/addBarcode.html'
p5
sS'code'
p6
S'response.write(\'<!DOCTYPE html>\\n<!-- paulirish.com/2008/conditional-stylesheets-vs-css-hacks-answer-neither/ -->\\n<!--[if lt IE 7]><html class="ie ie6 ie-lte9 ie-lte8 ie-lte7 no-js" lang="\', escape=False)\nresponse.write(T.accepted_language or \'en\')\nresponse.write(\'"> <![endif]-->\\n<!--[if IE 7]><html class="ie ie7 ie-lte9 ie-lte8 ie-lte7 no-js" lang="\', escape=False)\nresponse.write(T.accepted_language or \'en\')\nresponse.write(\'"> <![endif]-->\\n<!--[if IE 8]><html class="ie ie8 ie-lte9 ie-lte8 no-js" lang="\', escape=False)\nresponse.write(T.accepted_language or \'en\')\nresponse.write(\'"> <![endif]-->\\n<!--[if IE 9]><html class="ie9 ie-lte9 no-js" lang="\', escape=False)\nresponse.write(T.accepted_language or \'en\')\nresponse.write(\'"> <![endif]-->\\n<!--[if (gt IE 9)|!(IE)]><!--> <html class="no-js" lang="\', escape=False)\nresponse.write(T.accepted_language or \'en\')\nresponse.write(\'"> <!--<![endif]-->\\n<head>\\n  <meta charset="utf-8" />\\n  <!-- www.phpied.com/conditional-comments-block-downloads/ -->\\n  <!-- Always force latest IE rendering engine\\n\\t   (even in intranet) & Chrome Frame\\n\\t   Remove this if you use the .htaccess -->\\n  <!--[if IE]>\\n    <meta http-equiv="X-UA-Compatible" content="IE=edge\', escape=False)\nresponse.write(not request.is_local and \',chrome=1\' or \'\')\nresponse.write(\'">\\n  <![endif]-->\\n  \\n  <title>\', escape=False)\nresponse.write(response.title or request.application)\nresponse.write(\'</title>\\n  \\n  <!-- http://dev.w3.org/html5/markup/meta.name.html -->\\n  <meta name="application-name" content="\', escape=False)\nresponse.write(request.application)\nresponse.write(\'" />\\n  \\n  <!-- Speaking of Google, don\\\'t forget to set your site up:\\n\\t   http://google.com/webmasters -->\\n  <meta name="google-site-verification" content="" />\\n\\n  <!--  Mobile Viewport Fix\\n\\t  j.mp/mobileviewport & davidbcalhoun.com/2010/viewport-metatag\\n\\t  device-width: Occupy full width of the screen in its current orientation\\n\\t  initial-scale = 1.0 retains dimensions instead of zooming out if page height > device height\\n\\t  user-scalable = yes allows the user to zoom in -->\\n  <meta name="viewport" content="width=device-width, initial-scale=1.0, user-scalable=yes">\\n  \\n  <!-- Place favicon.ico and apple-touch-icon.png in the root of your domain and delete these references -->\\n  <link rel="shortcut icon" href="\', escape=False)\nresponse.write(URL(\'static\',\'favicon.ico\'))\nresponse.write(\'" type="image/x-icon">\\n  <link rel="apple-touch-icon" href="\', escape=False)\nresponse.write(URL(\'static\',\'favicon.png\'))\nresponse.write(\'">\\n\\n  <!-- All JavaScript at the bottom, except for Modernizr which enables \\n\\t   HTML5 elements & feature detects -->\\n  <script src="\', escape=False)\nresponse.write(URL(\'static\',\'js/modernizr.custom.js\'))\nresponse.write(\'"></script>  \\n\\n  <!-- include stylesheets -->\\n  \', escape=False)\nresponse.files.append(URL(\'static\',\'css/skeleton.css\'))\nresponse.files.append(URL(\'static\',\'css/web2py.css\'))\nif response.menu:\n    response.files.append(URL(\'static\',\'css/superfish.css\'))\n    response.files.append(URL(\'static\',\'js/superfish.js\'))\n    pass\nresponse.write(\'\\n\\n  \', escape=False)\nresponse.write(\'<script type="text/javascript"><!--\\n    // These variables are used by the web2py_ajax_init function in web2py_ajax.js (which is loaded below).\\n    var w2p_ajax_confirm_message = "\', escape=False)\nresponse.write(T(\'Are you sure you want to delete this object?\'))\nresponse.write(\'";\\n    var w2p_ajax_date_format = "\', escape=False)\nresponse.write(T(\'%Y-%m-%d\'))\nresponse.write(\'";\\n    var w2p_ajax_datetime_format = "\', escape=False)\nresponse.write(T(\'%Y-%m-%d %H:%M:%S\'))\nresponse.write(\'";\\n    //--></script>\\n\', escape=False)\nresponse.files.insert(0,URL(\'static\',\'js/jquery.js\'))\nresponse.files.insert(1,URL(\'static\',\'css/calendar.css\'))\nresponse.files.insert(2,URL(\'static\',\'js/calendar.js\'))\nresponse.files.insert(3,URL(\'static\',\'js/web2py.js\'))\nresponse.include_meta()\nresponse.include_files()\nresponse.write(\'\\n\', escape=False)\nresponse.write(\'\\n\\n  \', escape=False)\nif response.menu:\n    response.write(\'\\n  <script type="text/javascript">\\n    jQuery(function(){ jQuery(\\\'ul.sf-menu\\\').supersubs({minWidth:12,maxWidth:30,extraWidth:3}).superfish(); });\\n  </script>\\n  \', escape=False)\n    pass\nresponse.write(\'\\n\\n  \', escape=False)\n# using sidebars need to know what sidebar you want to use\nleft_sidebar_enabled = globals().get(\'left_sidebar_enabled\',False)\nright_sidebar_enabled = globals().get(\'right_sidebar_enabled\',False)\nmiddle_columns = {0:\'sixteen\',1:\'twelve\',2:\'eight\'}[\n(left_sidebar_enabled and 1 or 0)+(right_sidebar_enabled and 1 or 0)]\nresponse.write(\'\\n\\n  <!-- uncomment here to load jquery-ui\\n  <link rel="stylesheet" href="http://ajax.googleapis.com/ajax/libs/jqueryui/1.8.16/themes/base/jquery-ui.css" type="text/css" media="all" />\\n  <script src="http://ajax.googleapis.com/ajax/libs/jqueryui/1.8.16/jquery-ui.min.js" type="text/javascript"></script>\\n  uncomment to load jquery-ui //-->\\n</head>\\n<body>\\n  <div class="wrapper"><!-- for sticky footer -->\\n  \\n    <div class="topbar">\\n      <div class="container">    \\n        <div class="sixteen columns">\\n          <div id="navbar">\', escape=False)\nresponse.write(\'auth\' in globals() and auth.navbar(separators=(\' \',\' | \',\'\')))\nresponse.write(\'</div>\\n          \', escape=False)\nis_mobile=request.user_agent().is_mobile\nresponse.write(\'\\n\\t  \', escape=False)\nif response.menu:\n    response.write(\'\\n          <div id="menu">\\n             \', escape=False)\n    response.write(MENU(response.menu, _class=\'mobile-menu\' if is_mobile else \'sf-menu\',mobile=is_mobile))\n    response.write(\'\\n          </div>\\n          \', escape=False)\n    pass\nresponse.write(\'\\n        </div>\\n      </div>\\n    </div><!-- topbar -->\\n    \\n    <div class="flash">\', escape=False)\nresponse.write(response.flash or \'\')\nresponse.write(\'</div>\\n    \\n    <div class="header">\\n      <div class="container">         \\n        <div class="sixteen columns">\\n          <h1 class="remove-bottom" style="margin-top: .5em;">\\n          \', escape=False)\nresponse.write(response.title or request.application)\nresponse.write(\'\\n          </h1>\\n          <h5>\', escape=False)\nresponse.write(response.subtitle or \'\')\nresponse.write(\'</h5>\\n        </div>\\n        <div class="sixteen columns">\\n          <div class="statusbar clearfix">\\n            \', escape=False)\nresponse.write(\'\\n            <div class="breadcrumbs">\', escape=False)\nresponse.write(request.function.replace(\'_\', \' \').title())\nresponse.write(\'</div>\\n            \', escape=False)\nresponse.write(\'\\n            <!-- AddToAny BEGIN -->\\n            <div style="float:right; padding-top: .25em;" class="a2a_kit a2a_default_style">\\n            <a class="a2a_dd" href="http://www.addtoany.com/share_save">Share</a></div>\\n            <script type="text/javascript" src="http://static.addtoany.com/menu/page.js"></script>\\n            <!-- AddToAny END -->\\n          </div>\\n        </div>\\n      </div>\\n    </div>\\n\\n    <div class="main">\\n      <div class="container">                 \\n        \', escape=False)\nif left_sidebar_enabled:\n    response.write(\'\\n        <div class="four columns left-sidebar">\\n          \', escape=False)\n    response.write(\'\\n          <h3>Left Sidebar</h3>\\n          <p></p>\\n          \', escape=False)\n    response.write(\'\\n        </div>\\n        \', escape=False)\n    pass\nresponse.write(\'\\n        \\n        <div class="\', escape=False)\nresponse.write(middle_columns)\nresponse.write(\' columns center">\\n          \', escape=False)\nresponse.write(\'\\n          \', escape=False)\nresponse.write(\'\\n<h2>\', escape=False)\nresponse.write(T( request.args(0).replace(\'_\',\' \').capitalize() ))\nresponse.write(\'</h2>\\n<div id="web2py_user_form">\\n  \', escape=False)\nresponse.write(form)\nresponse.write(\'\\n  \', escape=False)\npass\nresponse.write(\'\\n</div>\\n<script language="javascript"><!--\\n      jQuery("#web2py_user_form input:visible:enabled:first").focus();\\n      //--></script>\\n\', escape=False)\nresponse.write(\'\\n          \', escape=False)\nresponse.write(\'\\n        </div>\\n        \\n        \', escape=False)\nif right_sidebar_enabled:\n    response.write(\'\\n        <div class="four columns">\\n          \', escape=False)\n    response.write(\'\\n          <h3>Right Sidebar</h3>\\n          <p></p>\\n          \', escape=False)\n    response.write(\'\\n        </div>    \\n        \', escape=False)\n    pass\nresponse.write(\'\\n        \\n      </div><!-- container -->\\n    </div><!-- main -->\\n    \\n    <div class="push"></div>\\n  </div><!-- wrapper -->\\n\\n  <div class="footer">\\n    <div class="container">    \\n      <div class="sixteen columns">\\n        \', escape=False)\nresponse.write(\' <!-- this is default footer -->\\n        <div class="footer-content clearfix">\\n          <div class="copyright">\', escape=False)\nresponse.write(T(\'Copyright\'))\nresponse.write(\' &#169; 2011</div>\\n          <div style="float: right;">\\n            <a href="http://www.web2py.com/">\\n            <img style="padding-bottom: 0;" src="\', escape=False)\nresponse.write(URL(\'static\',\'images/poweredby.png\'))\nresponse.write(\'"/>\\n            </a>\\n          </div>\\n        </div>\\n        \', escape=False)\nresponse.write(\'\\t\\n      </div>\\n    </div><!-- container -->\\n  </div><!-- footer -->\\n  \\n  <!--[if lt IE 7 ]>\\n\\t<script src="\', escape=False)\nresponse.write(URL(\'static\',\'js/dd_belatedpng.js\'))\nresponse.write(\'"></script>\\n\\t<script> DD_belatedPNG.fix(\\\'img, .png_bg\\\'); //fix any <img> or .png_bg background-images </script>\\n\\t<![endif]-->\\n  \', escape=False)\nif response.google_analytics_id:\n    response.write(\'<script type="text/javascript"> var _gaq = _gaq || []; _gaq.push([\\\'_setAccount\\\', \\\'\', escape=False)\n    response.write(response.google_analytics_id)\n    response.write("\']); _gaq.push([\'_trackPageview\']); (function() { var ga = document.createElement(\'script\'); ga.type = \'text/javascript\'; ga.async = true; ga.src = (\'https:\' == document.location.protocol ? \'https://ssl\' : \'http://www\') + \'.google-analytics.com/ga.js\'; var s = document.getElementsByTagName(\'script\')[0]; s.parentNode.insertBefore(ga, s); })(); </script> ", escape=False)\n    pass\nresponse.write(\'\\n</body>\\n</html>\\n\', escape=False)'
p7
sS'snapshot'
p8
(dp9
S'exception'
p10
(dp11
S'__hash__'
p12
S"<method-wrapper '__hash__' of exceptions.AttributeError object at 0x078C3D00>"
p13
sS'__setattr__'
p14
S"<method-wrapper '__setattr__' of exceptions.AttributeError object at 0x078C3D00>"
p15
sS'__reduce_ex__'
p16
S'<built-in method __reduce_ex__ of exceptions.AttributeError object at 0x078C3D00>'
p17
sS'__getslice__'
p18
S"<method-wrapper '__getslice__' of exceptions.AttributeError object at 0x078C3D00>"
p19
sS'__getitem__'
p20
S"<method-wrapper '__getitem__' of exceptions.AttributeError object at 0x078C3D00>"
p21
sS'__setstate__'
p22
S'<built-in method __setstate__ of exceptions.AttributeError object at 0x078C3D00>'
p23
sS'__reduce__'
p24
S'<built-in method __reduce__ of exceptions.AttributeError object at 0x078C3D00>'
p25
sS'__str__'
p26
S"<method-wrapper '__str__' of exceptions.AttributeError object at 0x078C3D00>"
p27
sS'args'
p28
S'("\'NoneType\' object has no attribute \'replace\'",)'
p29
sS'__getattribute__'
p30
S"<method-wrapper '__getattribute__' of exceptions.AttributeError object at 0x078C3D00>"
p31
sS'__class__'
p32
S"<type 'exceptions.AttributeError'>"
p33
sS'__delattr__'
p34
S"<method-wrapper '__delattr__' of exceptions.AttributeError object at 0x078C3D00>"
p35
sS'__repr__'
p36
S"<method-wrapper '__repr__' of exceptions.AttributeError object at 0x078C3D00>"
p37
sS'__dict__'
p38
S'{}'
p39
sS'__doc__'
p40
S"'Attribute not found.'"
p41
sS'__init__'
p42
S"<method-wrapper '__init__' of exceptions.AttributeError object at 0x078C3D00>"
p43
sS'__new__'
p44
S'<built-in method __new__ of type object at 0x1E1CDA68>'
p45
ssS'evalue'
p46
S"'NoneType' object has no attribute 'replace'"
p47
sS'request'
p48
ccopy_reg
_reconstructor
p49
(cgluon.html
BEAUTIFY
p50
c__builtin__
object
p51
NtRp52
(dp53
S'attributes'
p54
(dp55
sS'components'
p56
(lp57
g49
(cgluon.html
TABLE
p58
g51
NtRp59
(dp60
g54
(dp61
S'level'
p62
I5
ssS'parent'
p63
Nsg56
(lp64
g49
(cgluon.html
TR
p65
g51
NtRp66
(dp67
g54
(dp68
sg63
g59
sg56
(lp69
g49
(cgluon.html
TD
p70
g51
NtRp71
(dp72
g54
(dp73
S'_style'
p74
S'font-weight:bold;vertical-align:top'
p75
ssg63
g66
sg56
(lp76
S'ajax'
p77
asbag49
(g70
g51
NtRp78
(dp79
g54
(dp80
S'_valign'
p81
S'top'
p82
ssg63
g66
sg56
(lp83
S':'
asbag49
(g70
g51
NtRp84
(dp85
g54
(dp86
sg63
g66
sg56
(lp87
g49
(g50
g51
NtRp88
(dp89
g54
(dp90
g62
I5
ssg63
g84
sg56
(lp91
S'False'
p92
asbasbasbag49
(g65
g51
NtRp93
(dp94
g54
(dp95
sg63
g59
sg56
(lp96
g49
(g70
g51
NtRp97
(dp98
g54
(dp99
g74
g75
ssg63
g93
sg56
(lp100
S'application'
p101
asbag49
(g70
g51
NtRp102
(dp103
g54
(dp104
g81
g82
ssg63
g93
sg56
(lp105
S':'
asbag49
(g70
g51
NtRp106
(dp107
g54
(dp108
sg63
g93
sg56
(lp109
g49
(g50
g51
NtRp110
(dp111
g54
(dp112
g62
I5
ssg63
g106
sg56
(lp113
S'init'
p114
asbasbasbag49
(g65
g51
NtRp115
(dp116
g54
(dp117
sg63
g59
sg56
(lp118
g49
(g70
g51
NtRp119
(dp120
g54
(dp121
g74
g75
ssg63
g115
sg56
(lp122
g28
asbag49
(g70
g51
NtRp123
(dp124
g54
(dp125
g81
g82
ssg63
g115
sg56
(lp126
S':'
asbag49
(g70
g51
NtRp127
(dp128
g54
(dp129
sg63
g115
sg56
(lp130
g49
(g50
g51
NtRp131
(dp132
g54
(dp133
g62
I5
ssg63
g127
sg56
(lp134
g49
(g58
g51
NtRp135
(dp136
g54
(dp137
g62
I4
ssg63
Nsg56
(lp138
sbasbasbasbag49
(g65
g51
NtRp139
(dp140
g54
(dp141
sg63
g59
sg56
(lp142
g49
(g70
g51
NtRp143
(dp144
g54
(dp145
g74
g75
ssg63
g139
sg56
(lp146
S'body'
p147
asbag49
(g70
g51
NtRp148
(dp149
g54
(dp150
g81
g82
ssg63
g139
sg56
(lp151
S':'
asbag49
(g70
g51
NtRp152
(dp153
g54
(dp154
sg63
g139
sg56
(lp155
g49
(g50
g51
NtRp156
(dp157
g54
(dp158
g62
I5
ssg63
g152
sg56
(lp159
S'<cStringIO.StringO object at 0x045B5820>'
p160
asbasbasbag49
(g65
g51
NtRp161
(dp162
g54
(dp163
sg63
g59
sg56
(lp164
g49
(g70
g51
NtRp165
(dp166
g54
(dp167
g74
g75
ssg63
g161
sg56
(lp168
S'client'
p169
asbag49
(g70
g51
NtRp170
(dp171
g54
(dp172
g81
g82
ssg63
g161
sg56
(lp173
S':'
asbag49
(g70
g51
NtRp174
(dp175
g54
(dp176
sg63
g161
sg56
(lp177
g49
(g50
g51
NtRp178
(dp179
g54
(dp180
g62
I5
ssg63
g174
sg56
(lp181
S'127.0.0.1'
p182
asbasbasbag49
(g65
g51
NtRp183
(dp184
g54
(dp185
sg63
g59
sg56
(lp186
g49
(g70
g51
NtRp187
(dp188
g54
(dp189
g74
g75
ssg63
g183
sg56
(lp190
S'controller'
p191
asbag49
(g70
g51
NtRp192
(dp193
g54
(dp194
g81
g82
ssg63
g183
sg56
(lp195
S':'
asbag49
(g70
g51
NtRp196
(dp197
g54
(dp198
sg63
g183
sg56
(lp199
g49
(g50
g51
NtRp200
(dp201
g54
(dp202
g62
I5
ssg63
g196
sg56
(lp203
S'default'
p204
asbasbasbag49
(g65
g51
NtRp205
(dp206
g54
(dp207
sg63
g59
sg56
(lp208
g49
(g70
g51
NtRp209
(dp210
g54
(dp211
g74
g75
ssg63
g205
sg56
(lp212
S'cookies'
p213
asbag49
(g70
g51
NtRp214
(dp215
g54
(dp216
g81
g82
ssg63
g205
sg56
(lp217
S':'
asbag49
(g70
g51
NtRp218
(dp219
g54
(dp220
sg63
g205
sg56
(lp221
g49
(g50
g51
NtRp222
(dp223
g54
(dp224
g62
I5
ssg63
g218
sg56
(lp225
g49
(g58
g51
NtRp226
(dp227
g54
(dp228
g62
I4
ssg63
Nsg56
(lp229
g49
(g65
g51
NtRp230
(dp231
g54
(dp232
sg63
g226
sg56
(lp233
g49
(g70
g51
NtRp234
(dp235
g54
(dp236
g74
g75
ssg63
g230
sg56
(lp237
S'session_id_admin'
p238
asbag49
(g70
g51
NtRp239
(dp240
g54
(dp241
g81
g82
ssg63
g230
sg56
(lp242
S':'
asbag49
(g70
g51
NtRp243
(dp244
g54
(dp245
sg63
g230
sg56
(lp246
g49
(g50
g51
NtRp247
(dp248
g54
(dp249
g62
I4
ssg63
g243
sg56
(lp250
g49
(g58
g51
NtRp251
(dp252
g54
(dp253
g62
I3
ssg63
Nsg56
(lp254
g49
(g65
g51
NtRp255
(dp256
g54
(dp257
sg63
g251
sg56
(lp258
g49
(g70
g51
NtRp259
(dp260
g54
(dp261
g74
g75
ssg63
g255
sg56
(lp262
S'comment'
p263
asbag49
(g70
g51
NtRp264
(dp265
g54
(dp266
g81
g82
ssg63
g255
sg56
(lp267
S':'
asbag49
(g70
g51
NtRp268
(dp269
g54
(dp270
sg63
g255
sg56
(lp271
g49
(g50
g51
NtRp272
(dp273
g54
(dp274
g62
I3
ssg63
g268
sg56
(lp275
S''
asbasbasbag49
(g65
g51
NtRp276
(dp277
g54
(dp278
sg63
g251
sg56
(lp279
g49
(g70
g51
NtRp280
(dp281
g54
(dp282
g74
g75
ssg63
g276
sg56
(lp283
S'domain'
p284
asbag49
(g70
g51
NtRp285
(dp286
g54
(dp287
g81
g82
ssg63
g276
sg56
(lp288
S':'
asbag49
(g70
g51
NtRp289
(dp290
g54
(dp291
sg63
g276
sg56
(lp292
g49
(g50
g51
NtRp293
(dp294
g54
(dp295
g62
I3
ssg63
g289
sg56
(lp296
S''
asbasbasbag49
(g65
g51
NtRp297
(dp298
g54
(dp299
sg63
g251
sg56
(lp300
g49
(g70
g51
NtRp301
(dp302
g54
(dp303
g74
g75
ssg63
g297
sg56
(lp304
S'expires'
p305
asbag49
(g70
g51
NtRp306
(dp307
g54
(dp308
g81
g82
ssg63
g297
sg56
(lp309
S':'
asbag49
(g70
g51
NtRp310
(dp311
g54
(dp312
sg63
g297
sg56
(lp313
g49
(g50
g51
NtRp314
(dp315
g54
(dp316
g62
I3
ssg63
g310
sg56
(lp317
S''
asbasbasbag49
(g65
g51
NtRp318
(dp319
g54
(dp320
sg63
g251
sg56
(lp321
g49
(g70
g51
NtRp322
(dp323
g54
(dp324
g74
g75
ssg63
g318
sg56
(lp325
S'max-age'
p326
asbag49
(g70
g51
NtRp327
(dp328
g54
(dp329
g81
g82
ssg63
g318
sg56
(lp330
S':'
asbag49
(g70
g51
NtRp331
(dp332
g54
(dp333
sg63
g318
sg56
(lp334
g49
(g50
g51
NtRp335
(dp336
g54
(dp337
g62
I3
ssg63
g331
sg56
(lp338
S''
asbasbasbag49
(g65
g51
NtRp339
(dp340
g54
(dp341
sg63
g251
sg56
(lp342
g49
(g70
g51
NtRp343
(dp344
g54
(dp345
g74
g75
ssg63
g339
sg56
(lp346
S'path'
p347
asbag49
(g70
g51
NtRp348
(dp349
g54
(dp350
g81
g82
ssg63
g339
sg56
(lp351
S':'
asbag49
(g70
g51
NtRp352
(dp353
g54
(dp354
sg63
g339
sg56
(lp355
g49
(g50
g51
NtRp356
(dp357
g54
(dp358
g62
I3
ssg63
g352
sg56
(lp359
S''
asbasbasbag49
(g65
g51
NtRp360
(dp361
g54
(dp362
sg63
g251
sg56
(lp363
g49
(g70
g51
NtRp364
(dp365
g54
(dp366
g74
g75
ssg63
g360
sg56
(lp367
S'secure'
p368
asbag49
(g70
g51
NtRp369
(dp370
g54
(dp371
g81
g82
ssg63
g360
sg56
(lp372
S':'
asbag49
(g70
g51
NtRp373
(dp374
g54
(dp375
sg63
g360
sg56
(lp376
g49
(g50
g51
NtRp377
(dp378
g54
(dp379
g62
I3
ssg63
g373
sg56
(lp380
S''
asbasbasbag49
(g65
g51
NtRp381
(dp382
g54
(dp383
sg63
g251
sg56
(lp384
g49
(g70
g51
NtRp385
(dp386
g54
(dp387
g74
g75
ssg63
g381
sg56
(lp388
S'version'
p389
asbag49
(g70
g51
NtRp390
(dp391
g54
(dp392
g81
g82
ssg63
g381
sg56
(lp393
S':'
asbag49
(g70
g51
NtRp394
(dp395
g54
(dp396
sg63
g381
sg56
(lp397
g49
(g50
g51
NtRp398
(dp399
g54
(dp400
g62
I3
ssg63
g394
sg56
(lp401
S''
asbasbasbasbasbasbasbag49
(g65
g51
NtRp402
(dp403
g54
(dp404
sg63
g226
sg56
(lp405
g49
(g70
g51
NtRp406
(dp407
g54
(dp408
g74
g75
ssg63
g402
sg56
(lp409
S'session_id_init'
p410
asbag49
(g70
g51
NtRp411
(dp412
g54
(dp413
g81
g82
ssg63
g402
sg56
(lp414
S':'
asbag49
(g70
g51
NtRp415
(dp416
g54
(dp417
sg63
g402
sg56
(lp418
g49
(g50
g51
NtRp419
(dp420
g54
(dp421
g62
I4
ssg63
g415
sg56
(lp422
g49
(g58
g51
NtRp423
(dp424
g54
(dp425
g62
I3
ssg63
Nsg56
(lp426
g49
(g65
g51
NtRp427
(dp428
g54
(dp429
sg63
g423
sg56
(lp430
g49
(g70
g51
NtRp431
(dp432
g54
(dp433
g74
g75
ssg63
g427
sg56
(lp434
g263
asbag49
(g70
g51
NtRp435
(dp436
g54
(dp437
g81
g82
ssg63
g427
sg56
(lp438
S':'
asbag49
(g70
g51
NtRp439
(dp440
g54
(dp441
sg63
g427
sg56
(lp442
g49
(g50
g51
NtRp443
(dp444
g54
(dp445
g62
I3
ssg63
g439
sg56
(lp446
S''
asbasbasbag49
(g65
g51
NtRp447
(dp448
g54
(dp449
sg63
g423
sg56
(lp450
g49
(g70
g51
NtRp451
(dp452
g54
(dp453
g74
g75
ssg63
g447
sg56
(lp454
g284
asbag49
(g70
g51
NtRp455
(dp456
g54
(dp457
g81
g82
ssg63
g447
sg56
(lp458
S':'
asbag49
(g70
g51
NtRp459
(dp460
g54
(dp461
sg63
g447
sg56
(lp462
g49
(g50
g51
NtRp463
(dp464
g54
(dp465
g62
I3
ssg63
g459
sg56
(lp466
S''
asbasbasbag49
(g65
g51
NtRp467
(dp468
g54
(dp469
sg63
g423
sg56
(lp470
g49
(g70
g51
NtRp471
(dp472
g54
(dp473
g74
g75
ssg63
g467
sg56
(lp474
g305
asbag49
(g70
g51
NtRp475
(dp476
g54
(dp477
g81
g82
ssg63
g467
sg56
(lp478
S':'
asbag49
(g70
g51
NtRp479
(dp480
g54
(dp481
sg63
g467
sg56
(lp482
g49
(g50
g51
NtRp483
(dp484
g54
(dp485
g62
I3
ssg63
g479
sg56
(lp486
S''
asbasbasbag49
(g65
g51
NtRp487
(dp488
g54
(dp489
sg63
g423
sg56
(lp490
g49
(g70
g51
NtRp491
(dp492
g54
(dp493
g74
g75
ssg63
g487
sg56
(lp494
g326
asbag49
(g70
g51
NtRp495
(dp496
g54
(dp497
g81
g82
ssg63
g487
sg56
(lp498
S':'
asbag49
(g70
g51
NtRp499
(dp500
g54
(dp501
sg63
g487
sg56
(lp502
g49
(g50
g51
NtRp503
(dp504
g54
(dp505
g62
I3
ssg63
g499
sg56
(lp506
S''
asbasbasbag49
(g65
g51
NtRp507
(dp508
g54
(dp509
sg63
g423
sg56
(lp510
g49
(g70
g51
NtRp511
(dp512
g54
(dp513
g74
g75
ssg63
g507
sg56
(lp514
g347
asbag49
(g70
g51
NtRp515
(dp516
g54
(dp517
g81
g82
ssg63
g507
sg56
(lp518
S':'
asbag49
(g70
g51
NtRp519
(dp520
g54
(dp521
sg63
g507
sg56
(lp522
g49
(g50
g51
NtRp523
(dp524
g54
(dp525
g62
I3
ssg63
g519
sg56
(lp526
S''
asbasbasbag49
(g65
g51
NtRp527
(dp528
g54
(dp529
sg63
g423
sg56
(lp530
g49
(g70
g51
NtRp531
(dp532
g54
(dp533
g74
g75
ssg63
g527
sg56
(lp534
g368
asbag49
(g70
g51
NtRp535
(dp536
g54
(dp537
g81
g82
ssg63
g527
sg56
(lp538
S':'
asbag49
(g70
g51
NtRp539
(dp540
g54
(dp541
sg63
g527
sg56
(lp542
g49
(g50
g51
NtRp543
(dp544
g54
(dp545
g62
I3
ssg63
g539
sg56
(lp546
S''
asbasbasbag49
(g65
g51
NtRp547
(dp548
g54
(dp549
sg63
g423
sg56
(lp550
g49
(g70
g51
NtRp551
(dp552
g54
(dp553
g74
g75
ssg63
g547
sg56
(lp554
g389
asbag49
(g70
g51
NtRp555
(dp556
g54
(dp557
g81
g82
ssg63
g547
sg56
(lp558
S':'
asbag49
(g70
g51
NtRp559
(dp560
g54
(dp561
sg63
g547
sg56
(lp562
g49
(g50
g51
NtRp563
(dp564
g54
(dp565
g62
I3
ssg63
g559
sg56
(lp566
S''
asbasbasbasbasbasbasbasbasbasbasbag49
(g65
g51
NtRp567
(dp568
g54
(dp569
sg63
g59
sg56
(lp570
g49
(g70
g51
NtRp571
(dp572
g54
(dp573
g74
g75
ssg63
g567
sg56
(lp574
S'env'
p575
asbag49
(g70
g51
NtRp576
(dp577
g54
(dp578
g81
g82
ssg63
g567
sg56
(lp579
S':'
asbag49
(g70
g51
NtRp580
(dp581
g54
(dp582
sg63
g567
sg56
(lp583
g49
(g50
g51
NtRp584
(dp585
g54
(dp586
g62
I5
ssg63
g580
sg56
(lp587
g49
(g58
g51
NtRp588
(dp589
g54
(dp590
g62
I4
ssg63
Nsg56
(lp591
g49
(g65
g51
NtRp592
(dp593
g54
(dp594
sg63
g588
sg56
(lp595
g49
(g70
g51
NtRp596
(dp597
g54
(dp598
g74
g75
ssg63
g592
sg56
(lp599
S'app_folders'
p600
asbag49
(g70
g51
NtRp601
(dp602
g54
(dp603
g81
g82
ssg63
g592
sg56
(lp604
S':'
asbag49
(g70
g51
NtRp605
(dp606
g54
(dp607
sg63
g592
sg56
(lp608
g49
(g50
g51
NtRp609
(dp610
g54
(dp611
g62
I4
ssg63
g605
sg56
(lp612
S"set(['C:\\\\Users\\\\Bussiere\\\\Dropbox\\\\Projets\\\\Yuki\\\\web2py\\\\applications\\\\init\\\\', 'C:\\\\Users\\\\Bussiere\\\\Dropbox\\\\Projets\\\\Yuki\\\\web2py\\\\applications\\\\admin\\\\'])"
p613
asbasbasbag49
(g65
g51
NtRp614
(dp615
g54
(dp616
sg63
g588
sg56
(lp617
g49
(g70
g51
NtRp618
(dp619
g54
(dp620
g74
g75
ssg63
g614
sg56
(lp621
S'applications_parent'
p622
asbag49
(g70
g51
NtRp623
(dp624
g54
(dp625
g81
g82
ssg63
g614
sg56
(lp626
S':'
asbag49
(g70
g51
NtRp627
(dp628
g54
(dp629
sg63
g614
sg56
(lp630
g49
(g50
g51
NtRp631
(dp632
g54
(dp633
g62
I4
ssg63
g627
sg56
(lp634
S'C:\\Users\\Bussiere\\Dropbox\\Projets\\Yuki\\web2py'
p635
asbasbasbag49
(g65
g51
NtRp636
(dp637
g54
(dp638
sg63
g588
sg56
(lp639
g49
(g70
g51
NtRp640
(dp641
g54
(dp642
g74
g75
ssg63
g636
sg56
(lp643
S'cmd_args'
p644
asbag49
(g70
g51
NtRp645
(dp646
g54
(dp647
g81
g82
ssg63
g636
sg56
(lp648
S':'
asbag49
(g70
g51
NtRp649
(dp650
g54
(dp651
sg63
g636
sg56
(lp652
g49
(g50
g51
NtRp653
(dp654
g54
(dp655
g62
I4
ssg63
g649
sg56
(lp656
g49
(g58
g51
NtRp657
(dp658
g54
(dp659
g62
I3
ssg63
Nsg56
(lp660
sbasbasbasbag49
(g65
g51
NtRp661
(dp662
g54
(dp663
sg63
g588
sg56
(lp664
g49
(g70
g51
NtRp665
(dp666
g54
(dp667
g74
g75
ssg63
g661
sg56
(lp668
S'cmd_options'
p669
asbag49
(g70
g51
NtRp670
(dp671
g54
(dp672
g81
g82
ssg63
g661
sg56
(lp673
S':'
asbag49
(g70
g51
NtRp674
(dp675
g54
(dp676
sg63
g661
sg56
(lp677
g49
(g50
g51
NtRp678
(dp679
g54
(dp680
g62
I4
ssg63
g674
sg56
(lp681
S"<Values at 0x3a74f58: {'verbose': False, 'ip': '127.0.0.1', 'shutdown_timeout': 5, 'taskbar': False, 'nocron': False, 'pid_filename': 'httpserver.pid', 'maxthreads': None, 'softcron': False, 'server_name': 'Batou', 'bpython': False, 'nogui': False, 'port': 8000, 'extcron': False, 'debuglevel': 30, 'test': None, 'folder': 'C:\\\\Users\\\\Bussiere\\\\Dropbox\\\\Projets\\\\Yuki\\\\web2py', 'config': '', 'import_models': False, 'winservice': '', 'shell': None, 'run': '', 'log_filename': 'httpserver.log', 'args': [''], 'socket_timeout': 5, 'ssl_ca_certificate': None, 'scheduler': None, 'profiler_filename': None, 'ssl_private_key': '', 'password': '<ask>', 'request_queue_size': 5, 'ssl_certificate': '', 'cronjob': False, 'numthreads': None, 'quiet': False, 'interfaces': None, 'minthreads': None, 'timeout': 10, 'plain': False, 'nobanner': False}>"
p682
asbasbasbag49
(g65
g51
NtRp683
(dp684
g54
(dp685
sg63
g588
sg56
(lp686
g49
(g70
g51
NtRp687
(dp688
g54
(dp689
g74
g75
ssg63
g683
sg56
(lp690
S'db_sessions'
p691
asbag49
(g70
g51
NtRp692
(dp693
g54
(dp694
g81
g82
ssg63
g683
sg56
(lp695
S':'
asbag49
(g70
g51
NtRp696
(dp697
g54
(dp698
sg63
g683
sg56
(lp699
g49
(g50
g51
NtRp700
(dp701
g54
(dp702
g62
I4
ssg63
g696
sg56
(lp703
S'set([])'
p704
asbasbasbag49
(g65
g51
NtRp705
(dp706
g54
(dp707
sg63
g588
sg56
(lp708
g49
(g70
g51
NtRp709
(dp710
g54
(dp711
g74
g75
ssg63
g705
sg56
(lp712
S'debugging'
p713
asbag49
(g70
g51
NtRp714
(dp715
g54
(dp716
g81
g82
ssg63
g705
sg56
(lp717
S':'
asbag49
(g70
g51
NtRp718
(dp719
g54
(dp720
sg63
g705
sg56
(lp721
g49
(g50
g51
NtRp722
(dp723
g54
(dp724
g62
I4
ssg63
g718
sg56
(lp725
S'True'
p726
asbasbasbag49
(g65
g51
NtRp727
(dp728
g54
(dp729
sg63
g588
sg56
(lp730
g49
(g70
g51
NtRp731
(dp732
g54
(dp733
g74
g75
ssg63
g727
sg56
(lp734
S'gluon_parent'
p735
asbag49
(g70
g51
NtRp736
(dp737
g54
(dp738
g81
g82
ssg63
g727
sg56
(lp739
S':'
asbag49
(g70
g51
NtRp740
(dp741
g54
(dp742
sg63
g727
sg56
(lp743
g49
(g50
g51
NtRp744
(dp745
g54
(dp746
g62
I4
ssg63
g740
sg56
(lp747
S'C:\\Users\\Bussiere\\Dropbox\\Projets\\Yuki\\web2py'
p748
asbasbasbag49
(g65
g51
NtRp749
(dp750
g54
(dp751
sg63
g588
sg56
(lp752
g49
(g70
g51
NtRp753
(dp754
g54
(dp755
g74
g75
ssg63
g749
sg56
(lp756
S'http_accept'
p757
asbag49
(g70
g51
NtRp758
(dp759
g54
(dp760
g81
g82
ssg63
g749
sg56
(lp761
S':'
asbag49
(g70
g51
NtRp762
(dp763
g54
(dp764
sg63
g749
sg56
(lp765
g49
(g50
g51
NtRp766
(dp767
g54
(dp768
g62
I4
ssg63
g762
sg56
(lp769
S'text/html,application/xhtml+xml,application/xml;q=0.9,*/*;q=0.8'
p770
asbasbasbag49
(g65
g51
NtRp771
(dp772
g54
(dp773
sg63
g588
sg56
(lp774
g49
(g70
g51
NtRp775
(dp776
g54
(dp777
g74
g75
ssg63
g771
sg56
(lp778
S'http_accept_charset'
p779
asbag49
(g70
g51
NtRp780
(dp781
g54
(dp782
g81
g82
ssg63
g771
sg56
(lp783
S':'
asbag49
(g70
g51
NtRp784
(dp785
g54
(dp786
sg63
g771
sg56
(lp787
g49
(g50
g51
NtRp788
(dp789
g54
(dp790
g62
I4
ssg63
g784
sg56
(lp791
S'ISO-8859-1,utf-8;q=0.7,*;q=0.3'
p792
asbasbasbag49
(g65
g51
NtRp793
(dp794
g54
(dp795
sg63
g588
sg56
(lp796
g49
(g70
g51
NtRp797
(dp798
g54
(dp799
g74
g75
ssg63
g793
sg56
(lp800
S'http_accept_encoding'
p801
asbag49
(g70
g51
NtRp802
(dp803
g54
(dp804
g81
g82
ssg63
g793
sg56
(lp805
S':'
asbag49
(g70
g51
NtRp806
(dp807
g54
(dp808
sg63
g793
sg56
(lp809
g49
(g50
g51
NtRp810
(dp811
g54
(dp812
g62
I4
ssg63
g806
sg56
(lp813
S'gzip,deflate,sdch'
p814
asbasbasbag49
(g65
g51
NtRp815
(dp816
g54
(dp817
sg63
g588
sg56
(lp818
g49
(g70
g51
NtRp819
(dp820
g54
(dp821
g74
g75
ssg63
g815
sg56
(lp822
S'http_accept_language'
p823
asbag49
(g70
g51
NtRp824
(dp825
g54
(dp826
g81
g82
ssg63
g815
sg56
(lp827
S':'
asbag49
(g70
g51
NtRp828
(dp829
g54
(dp830
sg63
g815
sg56
(lp831
g49
(g50
g51
NtRp832
(dp833
g54
(dp834
g62
I4
ssg63
g828
sg56
(lp835
S'fr-FR,fr;q=0.8,en-US;q=0.6,en;q=0.4'
p836
asbasbasbag49
(g65
g51
NtRp837
(dp838
g54
(dp839
sg63
g588
sg56
(lp840
g49
(g70
g51
NtRp841
(dp842
g54
(dp843
g74
g75
ssg63
g837
sg56
(lp844
S'http_cache_control'
p845
asbag49
(g70
g51
NtRp846
(dp847
g54
(dp848
g81
g82
ssg63
g837
sg56
(lp849
S':'
asbag49
(g70
g51
NtRp850
(dp851
g54
(dp852
sg63
g837
sg56
(lp853
g49
(g50
g51
NtRp854
(dp855
g54
(dp856
g62
I4
ssg63
g850
sg56
(lp857
S'max-age=0'
p858
asbasbasbag49
(g65
g51
NtRp859
(dp860
g54
(dp861
sg63
g588
sg56
(lp862
g49
(g70
g51
NtRp863
(dp864
g54
(dp865
g74
g75
ssg63
g859
sg56
(lp866
S'http_connection'
p867
asbag49
(g70
g51
NtRp868
(dp869
g54
(dp870
g81
g82
ssg63
g859
sg56
(lp871
S':'
asbag49
(g70
g51
NtRp872
(dp873
g54
(dp874
sg63
g859
sg56
(lp875
g49
(g50
g51
NtRp876
(dp877
g54
(dp878
g62
I4
ssg63
g872
sg56
(lp879
S'keep-alive'
p880
asbasbasbag49
(g65
g51
NtRp881
(dp882
g54
(dp883
sg63
g588
sg56
(lp884
g49
(g70
g51
NtRp885
(dp886
g54
(dp887
g74
g75
ssg63
g881
sg56
(lp888
S'http_cookie'
p889
asbag49
(g70
g51
NtRp890
(dp891
g54
(dp892
g81
g82
ssg63
g881
sg56
(lp893
S':'
asbag49
(g70
g51
NtRp894
(dp895
g54
(dp896
sg63
g881
sg56
(lp897
g49
(g50
g51
NtRp898
(dp899
g54
(dp900
g62
I4
ssg63
g894
sg56
(lp901
S'session_id_admin=127.0.0.1-5f1365f2-4e7f-48eb-a6f6-e5163dfe27ea; session_id_init=127.0.0.1-05546599-82c3-44a9-b36b-68629a143195'
p902
asbasbasbag49
(g65
g51
NtRp903
(dp904
g54
(dp905
sg63
g588
sg56
(lp906
g49
(g70
g51
NtRp907
(dp908
g54
(dp909
g74
g75
ssg63
g903
sg56
(lp910
S'http_host'
p911
asbag49
(g70
g51
NtRp912
(dp913
g54
(dp914
g81
g82
ssg63
g903
sg56
(lp915
S':'
asbag49
(g70
g51
NtRp916
(dp917
g54
(dp918
sg63
g903
sg56
(lp919
g49
(g50
g51
NtRp920
(dp921
g54
(dp922
g62
I4
ssg63
g916
sg56
(lp923
S'127.0.0.1:8000'
p924
asbasbasbag49
(g65
g51
NtRp925
(dp926
g54
(dp927
sg63
g588
sg56
(lp928
g49
(g70
g51
NtRp929
(dp930
g54
(dp931
g74
g75
ssg63
g925
sg56
(lp932
S'http_user_agent'
p933
asbag49
(g70
g51
NtRp934
(dp935
g54
(dp936
g81
g82
ssg63
g925
sg56
(lp937
S':'
asbag49
(g70
g51
NtRp938
(dp939
g54
(dp940
sg63
g925
sg56
(lp941
g49
(g50
g51
NtRp942
(dp943
g54
(dp944
g62
I4
ssg63
g938
sg56
(lp945
S'Mozilla/5.0 (Windows NT 6.1; WOW64) AppleWebKit/535.2 (KHTML, like Gecko) Chrome/15.0.874.120 Safari/535.2'
p946
asbasbasbag49
(g65
g51
NtRp947
(dp948
g54
(dp949
sg63
g588
sg56
(lp950
g49
(g70
g51
NtRp951
(dp952
g54
(dp953
g74
g75
ssg63
g947
sg56
(lp954
S'is_jython'
p955
asbag49
(g70
g51
NtRp956
(dp957
g54
(dp958
g81
g82
ssg63
g947
sg56
(lp959
S':'
asbag49
(g70
g51
NtRp960
(dp961
g54
(dp962
sg63
g947
sg56
(lp963
g49
(g50
g51
NtRp964
(dp965
g54
(dp966
g62
I4
ssg63
g960
sg56
(lp967
g92
asbasbasbag49
(g65
g51
NtRp968
(dp969
g54
(dp970
sg63
g588
sg56
(lp971
g49
(g70
g51
NtRp972
(dp973
g54
(dp974
g74
g75
ssg63
g968
sg56
(lp975
S'is_pypy'
p976
asbag49
(g70
g51
NtRp977
(dp978
g54
(dp979
g81
g82
ssg63
g968
sg56
(lp980
S':'
asbag49
(g70
g51
NtRp981
(dp982
g54
(dp983
sg63
g968
sg56
(lp984
g49
(g50
g51
NtRp985
(dp986
g54
(dp987
g62
I4
ssg63
g981
sg56
(lp988
g92
asbasbasbag49
(g65
g51
NtRp989
(dp990
g54
(dp991
sg63
g588
sg56
(lp992
g49
(g70
g51
NtRp993
(dp994
g54
(dp995
g74
g75
ssg63
g989
sg56
(lp996
S'path_info'
p997
asbag49
(g70
g51
NtRp998
(dp999
g54
(dp1000
g81
g82
ssg63
g989
sg56
(lp1001
S':'
asbag49
(g70
g51
NtRp1002
(dp1003
g54
(dp1004
sg63
g989
sg56
(lp1005
g49
(g50
g51
NtRp1006
(dp1007
g54
(dp1008
g62
I4
ssg63
g1002
sg56
(lp1009
S'/init/default/addBarcode/'
p1010
asbasbasbag49
(g65
g51
NtRp1011
(dp1012
g54
(dp1013
sg63
g588
sg56
(lp1014
g49
(g70
g51
NtRp1015
(dp1016
g54
(dp1017
g74
g75
ssg63
g1011
sg56
(lp1018
S'query_string'
p1019
asbag49
(g70
g51
NtRp1020
(dp1021
g54
(dp1022
g81
g82
ssg63
g1011
sg56
(lp1023
S':'
asbag49
(g70
g51
NtRp1024
(dp1025
g54
(dp1026
sg63
g1011
sg56
(lp1027
g49
(g50
g51
NtRp1028
(dp1029
g54
(dp1030
g62
I4
ssg63
g1024
sg56
(lp1031
S''
asbasbasbag49
(g65
g51
NtRp1032
(dp1033
g54
(dp1034
sg63
g588
sg56
(lp1035
g49
(g70
g51
NtRp1036
(dp1037
g54
(dp1038
g74
g75
ssg63
g1032
sg56
(lp1039
S'remote_addr'
p1040
asbag49
(g70
g51
NtRp1041
(dp1042
g54
(dp1043
g81
g82
ssg63
g1032
sg56
(lp1044
S':'
asbag49
(g70
g51
NtRp1045
(dp1046
g54
(dp1047
sg63
g1032
sg56
(lp1048
g49
(g50
g51
NtRp1049
(dp1050
g54
(dp1051
g62
I4
ssg63
g1045
sg56
(lp1052
g182
asbasbasbag49
(g65
g51
NtRp1053
(dp1054
g54
(dp1055
sg63
g588
sg56
(lp1056
g49
(g70
g51
NtRp1057
(dp1058
g54
(dp1059
g74
g75
ssg63
g1053
sg56
(lp1060
S'remote_port'
p1061
asbag49
(g70
g51
NtRp1062
(dp1063
g54
(dp1064
g81
g82
ssg63
g1053
sg56
(lp1065
S':'
asbag49
(g70
g51
NtRp1066
(dp1067
g54
(dp1068
sg63
g1053
sg56
(lp1069
g49
(g50
g51
NtRp1070
(dp1071
g54
(dp1072
g62
I4
ssg63
g1066
sg56
(lp1073
S'59919'
p1074
asbasbasbag49
(g65
g51
NtRp1075
(dp1076
g54
(dp1077
sg63
g588
sg56
(lp1078
g49
(g70
g51
NtRp1079
(dp1080
g54
(dp1081
g74
g75
ssg63
g1075
sg56
(lp1082
S'request_method'
p1083
asbag49
(g70
g51
NtRp1084
(dp1085
g54
(dp1086
g81
g82
ssg63
g1075
sg56
(lp1087
S':'
asbag49
(g70
g51
NtRp1088
(dp1089
g54
(dp1090
sg63
g1075
sg56
(lp1091
g49
(g50
g51
NtRp1092
(dp1093
g54
(dp1094
g62
I4
ssg63
g1088
sg56
(lp1095
S'GET'
p1096
asbasbasbag49
(g65
g51
NtRp1097
(dp1098
g54
(dp1099
sg63
g588
sg56
(lp1100
g49
(g70
g51
NtRp1101
(dp1102
g54
(dp1103
g74
g75
ssg63
g1097
sg56
(lp1104
S'script_name'
p1105
asbag49
(g70
g51
NtRp1106
(dp1107
g54
(dp1108
g81
g82
ssg63
g1097
sg56
(lp1109
S':'
asbag49
(g70
g51
NtRp1110
(dp1111
g54
(dp1112
sg63
g1097
sg56
(lp1113
g49
(g50
g51
NtRp1114
(dp1115
g54
(dp1116
g62
I4
ssg63
g1110
sg56
(lp1117
S''
asbasbasbag49
(g65
g51
NtRp1118
(dp1119
g54
(dp1120
sg63
g588
sg56
(lp1121
g49
(g70
g51
NtRp1122
(dp1123
g54
(dp1124
g74
g75
ssg63
g1118
sg56
(lp1125
S'server_name'
p1126
asbag49
(g70
g51
NtRp1127
(dp1128
g54
(dp1129
g81
g82
ssg63
g1118
sg56
(lp1130
S':'
asbag49
(g70
g51
NtRp1131
(dp1132
g54
(dp1133
sg63
g1118
sg56
(lp1134
g49
(g50
g51
NtRp1135
(dp1136
g54
(dp1137
g62
I4
ssg63
g1131
sg56
(lp1138
S'Batou'
p1139
asbasbasbag49
(g65
g51
NtRp1140
(dp1141
g54
(dp1142
sg63
g588
sg56
(lp1143
g49
(g70
g51
NtRp1144
(dp1145
g54
(dp1146
g74
g75
ssg63
g1140
sg56
(lp1147
S'server_port'
p1148
asbag49
(g70
g51
NtRp1149
(dp1150
g54
(dp1151
g81
g82
ssg63
g1140
sg56
(lp1152
S':'
asbag49
(g70
g51
NtRp1153
(dp1154
g54
(dp1155
sg63
g1140
sg56
(lp1156
g49
(g50
g51
NtRp1157
(dp1158
g54
(dp1159
g62
I4
ssg63
g1153
sg56
(lp1160
S'8000'
p1161
asbasbasbag49
(g65
g51
NtRp1162
(dp1163
g54
(dp1164
sg63
g588
sg56
(lp1165
g49
(g70
g51
NtRp1166
(dp1167
g54
(dp1168
g74
g75
ssg63
g1162
sg56
(lp1169
S'server_protocol'
p1170
asbag49
(g70
g51
NtRp1171
(dp1172
g54
(dp1173
g81
g82
ssg63
g1162
sg56
(lp1174
S':'
asbag49
(g70
g51
NtRp1175
(dp1176
g54
(dp1177
sg63
g1162
sg56
(lp1178
g49
(g50
g51
NtRp1179
(dp1180
g54
(dp1181
g62
I4
ssg63
g1175
sg56
(lp1182
S'HTTP/1.1'
p1183
asbasbasbag49
(g65
g51
NtRp1184
(dp1185
g54
(dp1186
sg63
g588
sg56
(lp1187
g49
(g70
g51
NtRp1188
(dp1189
g54
(dp1190
g74
g75
ssg63
g1184
sg56
(lp1191
S'server_software'
p1192
asbag49
(g70
g51
NtRp1193
(dp1194
g54
(dp1195
g81
g82
ssg63
g1184
sg56
(lp1196
S':'
asbag49
(g70
g51
NtRp1197
(dp1198
g54
(dp1199
sg63
g1184
sg56
(lp1200
g49
(g50
g51
NtRp1201
(dp1202
g54
(dp1203
g62
I4
ssg63
g1197
sg56
(lp1204
S'Rocket 1.2.4'
p1205
asbasbasbag49
(g65
g51
NtRp1206
(dp1207
g54
(dp1208
sg63
g588
sg56
(lp1209
g49
(g70
g51
NtRp1210
(dp1211
g54
(dp1212
g74
g75
ssg63
g1206
sg56
(lp1213
S'web2py_crontype'
p1214
asbag49
(g70
g51
NtRp1215
(dp1216
g54
(dp1217
g81
g82
ssg63
g1206
sg56
(lp1218
S':'
asbag49
(g70
g51
NtRp1219
(dp1220
g54
(dp1221
sg63
g1206
sg56
(lp1222
g49
(g50
g51
NtRp1223
(dp1224
g54
(dp1225
g62
I4
ssg63
g1219
sg56
(lp1226
S'hard'
p1227
asbasbasbag49
(g65
g51
NtRp1228
(dp1229
g54
(dp1230
sg63
g588
sg56
(lp1231
g49
(g70
g51
NtRp1232
(dp1233
g54
(dp1234
g74
g75
ssg63
g1228
sg56
(lp1235
S'web2py_path'
p1236
asbag49
(g70
g51
NtRp1237
(dp1238
g54
(dp1239
g81
g82
ssg63
g1228
sg56
(lp1240
S':'
asbag49
(g70
g51
NtRp1241
(dp1242
g54
(dp1243
sg63
g1228
sg56
(lp1244
g49
(g50
g51
NtRp1245
(dp1246
g54
(dp1247
g62
I4
ssg63
g1241
sg56
(lp1248
g635
asbasbasbag49
(g65
g51
NtRp1249
(dp1250
g54
(dp1251
sg63
g588
sg56
(lp1252
g49
(g70
g51
NtRp1253
(dp1254
g54
(dp1255
g74
g75
ssg63
g1249
sg56
(lp1256
S'web2py_version'
p1257
asbag49
(g70
g51
NtRp1258
(dp1259
g54
(dp1260
g81
g82
ssg63
g1249
sg56
(lp1261
S':'
asbag49
(g70
g51
NtRp1262
(dp1263
g54
(dp1264
sg63
g1249
sg56
(lp1265
g49
(g50
g51
NtRp1266
(dp1267
g54
(dp1268
g62
I4
ssg63
g1262
sg56
(lp1269
g49
(g58
g51
NtRp1270
(dp1271
g54
(dp1272
g62
I3
ssg63
Nsg56
(lp1273
g49
(g65
g51
NtRp1274
(dp1275
g54
(dp1276
sg63
g1270
sg56
(lp1277
g49
(g70
g51
NtRp1278
(dp1279
g54
(dp1280
sg63
g1274
sg56
(lp1281
g49
(g50
g51
NtRp1282
(dp1283
g54
(dp1284
g62
I3
ssg63
g1278
sg56
(lp1285
S'1'
asbasbasbag49
(g65
g51
NtRp1286
(dp1287
g54
(dp1288
sg63
g1270
sg56
(lp1289
g49
(g70
g51
NtRp1290
(dp1291
g54
(dp1292
sg63
g1286
sg56
(lp1293
g49
(g50
g51
NtRp1294
(dp1295
g54
(dp1296
g62
I3
ssg63
g1290
sg56
(lp1297
S'99'
p1298
asbasbasbag49
(g65
g51
NtRp1299
(dp1300
g54
(dp1301
sg63
g1270
sg56
(lp1302
g49
(g70
g51
NtRp1303
(dp1304
g54
(dp1305
sg63
g1299
sg56
(lp1306
g49
(g50
g51
NtRp1307
(dp1308
g54
(dp1309
g62
I3
ssg63
g1303
sg56
(lp1310
S'7'
asbasbasbag49
(g65
g51
NtRp1311
(dp1312
g54
(dp1313
sg63
g1270
sg56
(lp1314
g49
(g70
g51
NtRp1315
(dp1316
g54
(dp1317
sg63
g1311
sg56
(lp1318
g49
(g50
g51
NtRp1319
(dp1320
g54
(dp1321
g62
I3
ssg63
g1315
sg56
(lp1322
S'datetime.datetime(2012, 3, 4, 22, 12, 8)'
p1323
asbasbasbag49
(g65
g51
NtRp1324
(dp1325
g54
(dp1326
sg63
g1270
sg56
(lp1327
g49
(g70
g51
NtRp1328
(dp1329
g54
(dp1330
sg63
g1324
sg56
(lp1331
g49
(g50
g51
NtRp1332
(dp1333
g54
(dp1334
g62
I3
ssg63
g1328
sg56
(lp1335
S'stable'
p1336
asbasbasbasbasbasbasbag49
(g65
g51
NtRp1337
(dp1338
g54
(dp1339
sg63
g588
sg56
(lp1340
g49
(g70
g51
NtRp1341
(dp1342
g54
(dp1343
g74
g75
ssg63
g1337
sg56
(lp1344
S'wsgi_errors'
p1345
asbag49
(g70
g51
NtRp1346
(dp1347
g54
(dp1348
g81
g82
ssg63
g1337
sg56
(lp1349
S':'
asbag49
(g70
g51
NtRp1350
(dp1351
g54
(dp1352
sg63
g1337
sg56
(lp1353
g49
(g50
g51
NtRp1354
(dp1355
g54
(dp1356
g62
I4
ssg63
g1350
sg56
(lp1357
S"<open file '<stderr>', mode 'w' at 0x020200B0>"
p1358
asbasbasbag49
(g65
g51
NtRp1359
(dp1360
g54
(dp1361
sg63
g588
sg56
(lp1362
g49
(g70
g51
NtRp1363
(dp1364
g54
(dp1365
g74
g75
ssg63
g1359
sg56
(lp1366
S'wsgi_file_wrapper'
p1367
asbag49
(g70
g51
NtRp1368
(dp1369
g54
(dp1370
g81
g82
ssg63
g1359
sg56
(lp1371
S':'
asbag49
(g70
g51
NtRp1372
(dp1373
g54
(dp1374
sg63
g1359
sg56
(lp1375
g49
(g50
g51
NtRp1376
(dp1377
g54
(dp1378
g62
I4
ssg63
g1372
sg56
(lp1379
S'<class wsgiref.util.FileWrapper at 0x02BF68D0>'
p1380
asbasbasbag49
(g65
g51
NtRp1381
(dp1382
g54
(dp1383
sg63
g588
sg56
(lp1384
g49
(g70
g51
NtRp1385
(dp1386
g54
(dp1387
g74
g75
ssg63
g1381
sg56
(lp1388
S'wsgi_input'
p1389
asbag49
(g70
g51
NtRp1390
(dp1391
g54
(dp1392
g81
g82
ssg63
g1381
sg56
(lp1393
S':'
asbag49
(g70
g51
NtRp1394
(dp1395
g54
(dp1396
sg63
g1381
sg56
(lp1397
g49
(g50
g51
NtRp1398
(dp1399
g54
(dp1400
g62
I4
ssg63
g1394
sg56
(lp1401
S'<socket._fileobject object at 0x04534E30>'
p1402
asbasbasbag49
(g65
g51
NtRp1403
(dp1404
g54
(dp1405
sg63
g588
sg56
(lp1406
g49
(g70
g51
NtRp1407
(dp1408
g54
(dp1409
g74
g75
ssg63
g1403
sg56
(lp1410
S'wsgi_multiprocess'
p1411
asbag49
(g70
g51
NtRp1412
(dp1413
g54
(dp1414
g81
g82
ssg63
g1403
sg56
(lp1415
S':'
asbag49
(g70
g51
NtRp1416
(dp1417
g54
(dp1418
sg63
g1403
sg56
(lp1419
g49
(g50
g51
NtRp1420
(dp1421
g54
(dp1422
g62
I4
ssg63
g1416
sg56
(lp1423
g92
asbasbasbag49
(g65
g51
NtRp1424
(dp1425
g54
(dp1426
sg63
g588
sg56
(lp1427
g49
(g70
g51
NtRp1428
(dp1429
g54
(dp1430
g74
g75
ssg63
g1424
sg56
(lp1431
S'wsgi_multithread'
p1432
asbag49
(g70
g51
NtRp1433
(dp1434
g54
(dp1435
g81
g82
ssg63
g1424
sg56
(lp1436
S':'
asbag49
(g70
g51
NtRp1437
(dp1438
g54
(dp1439
sg63
g1424
sg56
(lp1440
g49
(g50
g51
NtRp1441
(dp1442
g54
(dp1443
g62
I4
ssg63
g1437
sg56
(lp1444
g726
asbasbasbag49
(g65
g51
NtRp1445
(dp1446
g54
(dp1447
sg63
g588
sg56
(lp1448
g49
(g70
g51
NtRp1449
(dp1450
g54
(dp1451
g74
g75
ssg63
g1445
sg56
(lp1452
S'wsgi_run_once'
p1453
asbag49
(g70
g51
NtRp1454
(dp1455
g54
(dp1456
g81
g82
ssg63
g1445
sg56
(lp1457
S':'
asbag49
(g70
g51
NtRp1458
(dp1459
g54
(dp1460
sg63
g1445
sg56
(lp1461
g49
(g50
g51
NtRp1462
(dp1463
g54
(dp1464
g62
I4
ssg63
g1458
sg56
(lp1465
g92
asbasbasbag49
(g65
g51
NtRp1466
(dp1467
g54
(dp1468
sg63
g588
sg56
(lp1469
g49
(g70
g51
NtRp1470
(dp1471
g54
(dp1472
g74
g75
ssg63
g1466
sg56
(lp1473
S'wsgi_url_scheme'
p1474
asbag49
(g70
g51
NtRp1475
(dp1476
g54
(dp1477
g81
g82
ssg63
g1466
sg56
(lp1478
S':'
asbag49
(g70
g51
NtRp1479
(dp1480
g54
(dp1481
sg63
g1466
sg56
(lp1482
g49
(g50
g51
NtRp1483
(dp1484
g54
(dp1485
g62
I4
ssg63
g1479
sg56
(lp1486
S'http'
p1487
asbasbasbag49
(g65
g51
NtRp1488
(dp1489
g54
(dp1490
sg63
g588
sg56
(lp1491
g49
(g70
g51
NtRp1492
(dp1493
g54
(dp1494
g74
g75
ssg63
g1488
sg56
(lp1495
S'wsgi_version'
p1496
asbag49
(g70
g51
NtRp1497
(dp1498
g54
(dp1499
g81
g82
ssg63
g1488
sg56
(lp1500
S':'
asbag49
(g70
g51
NtRp1501
(dp1502
g54
(dp1503
sg63
g1488
sg56
(lp1504
g49
(g50
g51
NtRp1505
(dp1506
g54
(dp1507
g62
I4
ssg63
g1501
sg56
(lp1508
g49
(g58
g51
NtRp1509
(dp1510
g54
(dp1511
g62
I3
ssg63
Nsg56
(lp1512
g49
(g65
g51
NtRp1513
(dp1514
g54
(dp1515
sg63
g1509
sg56
(lp1516
g49
(g70
g51
NtRp1517
(dp1518
g54
(dp1519
sg63
g1513
sg56
(lp1520
g49
(g50
g51
NtRp1521
(dp1522
g54
(dp1523
g62
I3
ssg63
g1517
sg56
(lp1524
S'1'
asbasbasbag49
(g65
g51
NtRp1525
(dp1526
g54
(dp1527
sg63
g1509
sg56
(lp1528
g49
(g70
g51
NtRp1529
(dp1530
g54
(dp1531
sg63
g1525
sg56
(lp1532
g49
(g50
g51
NtRp1533
(dp1534
g54
(dp1535
g62
I3
ssg63
g1529
sg56
(lp1536
S'0'
asbasbasbasbasbasbasbasbasbasbasbag49
(g65
g51
NtRp1537
(dp1538
g54
(dp1539
sg63
g59
sg56
(lp1540
g49
(g70
g51
NtRp1541
(dp1542
g54
(dp1543
g74
g75
ssg63
g1537
sg56
(lp1544
S'extension'
p1545
asbag49
(g70
g51
NtRp1546
(dp1547
g54
(dp1548
g81
g82
ssg63
g1537
sg56
(lp1549
S':'
asbag49
(g70
g51
NtRp1550
(dp1551
g54
(dp1552
sg63
g1537
sg56
(lp1553
g49
(g50
g51
NtRp1554
(dp1555
g54
(dp1556
g62
I5
ssg63
g1550
sg56
(lp1557
S'html'
p1558
asbasbasbag49
(g65
g51
NtRp1559
(dp1560
g54
(dp1561
sg63
g59
sg56
(lp1562
g49
(g70
g51
NtRp1563
(dp1564
g54
(dp1565
g74
g75
ssg63
g1559
sg56
(lp1566
S'folder'
p1567
asbag49
(g70
g51
NtRp1568
(dp1569
g54
(dp1570
g81
g82
ssg63
g1559
sg56
(lp1571
S':'
asbag49
(g70
g51
NtRp1572
(dp1573
g54
(dp1574
sg63
g1559
sg56
(lp1575
g49
(g50
g51
NtRp1576
(dp1577
g54
(dp1578
g62
I5
ssg63
g1572
sg56
(lp1579
S'C:\\Users\\Bussiere\\Dropbox\\Projets\\Yuki\\web2py\\applications\\init\\'
p1580
asbasbasbag49
(g65
g51
NtRp1581
(dp1582
g54
(dp1583
sg63
g59
sg56
(lp1584
g49
(g70
g51
NtRp1585
(dp1586
g54
(dp1587
g74
g75
ssg63
g1581
sg56
(lp1588
S'function'
p1589
asbag49
(g70
g51
NtRp1590
(dp1591
g54
(dp1592
g81
g82
ssg63
g1581
sg56
(lp1593
S':'
asbag49
(g70
g51
NtRp1594
(dp1595
g54
(dp1596
sg63
g1581
sg56
(lp1597
g49
(g50
g51
NtRp1598
(dp1599
g54
(dp1600
g62
I5
ssg63
g1594
sg56
(lp1601
S'addBarcode'
p1602
asbasbasbag49
(g65
g51
NtRp1603
(dp1604
g54
(dp1605
sg63
g59
sg56
(lp1606
g49
(g70
g51
NtRp1607
(dp1608
g54
(dp1609
g74
g75
ssg63
g1603
sg56
(lp1610
S'get_vars'
p1611
asbag49
(g70
g51
NtRp1612
(dp1613
g54
(dp1614
g81
g82
ssg63
g1603
sg56
(lp1615
S':'
asbag49
(g70
g51
NtRp1616
(dp1617
g54
(dp1618
sg63
g1603
sg56
(lp1619
g49
(g50
g51
NtRp1620
(dp1621
g54
(dp1622
g62
I5
ssg63
g1616
sg56
(lp1623
g49
(g58
g51
NtRp1624
(dp1625
g54
(dp1626
g62
I4
ssg63
Nsg56
(lp1627
sbasbasbasbag49
(g65
g51
NtRp1628
(dp1629
g54
(dp1630
sg63
g59
sg56
(lp1631
g49
(g70
g51
NtRp1632
(dp1633
g54
(dp1634
g74
g75
ssg63
g1628
sg56
(lp1635
S'global_settings'
p1636
asbag49
(g70
g51
NtRp1637
(dp1638
g54
(dp1639
g81
g82
ssg63
g1628
sg56
(lp1640
S':'
asbag49
(g70
g51
NtRp1641
(dp1642
g54
(dp1643
sg63
g1628
sg56
(lp1644
g49
(g50
g51
NtRp1645
(dp1646
g54
(dp1647
g62
I5
ssg63
g1641
sg56
(lp1648
g49
(g58
g51
NtRp1649
(dp1650
g54
(dp1651
g62
I4
ssg63
Nsg56
(lp1652
g49
(g65
g51
NtRp1653
(dp1654
g54
(dp1655
sg63
g1649
sg56
(lp1656
g49
(g70
g51
NtRp1657
(dp1658
g54
(dp1659
g74
g75
ssg63
g1653
sg56
(lp1660
g600
asbag49
(g70
g51
NtRp1661
(dp1662
g54
(dp1663
g81
g82
ssg63
g1653
sg56
(lp1664
S':'
asbag49
(g70
g51
NtRp1665
(dp1666
g54
(dp1667
sg63
g1653
sg56
(lp1668
g49
(g50
g51
NtRp1669
(dp1670
g54
(dp1671
g62
I4
ssg63
g1665
sg56
(lp1672
S"set(['C:\\\\Users\\\\Bussiere\\\\Dropbox\\\\Projets\\\\Yuki\\\\web2py\\\\applications\\\\init\\\\', 'C:\\\\Users\\\\Bussiere\\\\Dropbox\\\\Projets\\\\Yuki\\\\web2py\\\\applications\\\\admin\\\\'])"
p1673
asbasbasbag49
(g65
g51
NtRp1674
(dp1675
g54
(dp1676
sg63
g1649
sg56
(lp1677
g49
(g70
g51
NtRp1678
(dp1679
g54
(dp1680
g74
g75
ssg63
g1674
sg56
(lp1681
g622
asbag49
(g70
g51
NtRp1682
(dp1683
g54
(dp1684
g81
g82
ssg63
g1674
sg56
(lp1685
S':'
asbag49
(g70
g51
NtRp1686
(dp1687
g54
(dp1688
sg63
g1674
sg56
(lp1689
g49
(g50
g51
NtRp1690
(dp1691
g54
(dp1692
g62
I4
ssg63
g1686
sg56
(lp1693
g635
asbasbasbag49
(g65
g51
NtRp1694
(dp1695
g54
(dp1696
sg63
g1649
sg56
(lp1697
g49
(g70
g51
NtRp1698
(dp1699
g54
(dp1700
g74
g75
ssg63
g1694
sg56
(lp1701
g644
asbag49
(g70
g51
NtRp1702
(dp1703
g54
(dp1704
g81
g82
ssg63
g1694
sg56
(lp1705
S':'
asbag49
(g70
g51
NtRp1706
(dp1707
g54
(dp1708
sg63
g1694
sg56
(lp1709
g49
(g50
g51
NtRp1710
(dp1711
g54
(dp1712
g62
I4
ssg63
g1706
sg56
(lp1713
g49
(g58
g51
NtRp1714
(dp1715
g54
(dp1716
g62
I3
ssg63
Nsg56
(lp1717
sbasbasbasbag49
(g65
g51
NtRp1718
(dp1719
g54
(dp1720
sg63
g1649
sg56
(lp1721
g49
(g70
g51
NtRp1722
(dp1723
g54
(dp1724
g74
g75
ssg63
g1718
sg56
(lp1725
g669
asbag49
(g70
g51
NtRp1726
(dp1727
g54
(dp1728
g81
g82
ssg63
g1718
sg56
(lp1729
S':'
asbag49
(g70
g51
NtRp1730
(dp1731
g54
(dp1732
sg63
g1718
sg56
(lp1733
g49
(g50
g51
NtRp1734
(dp1735
g54
(dp1736
g62
I4
ssg63
g1730
sg56
(lp1737
S"<Values at 0x3a74f58: {'verbose': False, 'ip': '127.0.0.1', 'shutdown_timeout': 5, 'taskbar': False, 'nocron': False, 'pid_filename': 'httpserver.pid', 'maxthreads': None, 'softcron': False, 'server_name': 'Batou', 'bpython': False, 'nogui': False, 'port': 8000, 'extcron': False, 'debuglevel': 30, 'test': None, 'folder': 'C:\\\\Users\\\\Bussiere\\\\Dropbox\\\\Projets\\\\Yuki\\\\web2py', 'config': '', 'import_models': False, 'winservice': '', 'shell': None, 'run': '', 'log_filename': 'httpserver.log', 'args': [''], 'socket_timeout': 5, 'ssl_ca_certificate': None, 'scheduler': None, 'profiler_filename': None, 'ssl_private_key': '', 'password': '<ask>', 'request_queue_size': 5, 'ssl_certificate': '', 'cronjob': False, 'numthreads': None, 'quiet': False, 'interfaces': None, 'minthreads': None, 'timeout': 10, 'plain': False, 'nobanner': False}>"
p1738
asbasbasbag49
(g65
g51
NtRp1739
(dp1740
g54
(dp1741
sg63
g1649
sg56
(lp1742
g49
(g70
g51
NtRp1743
(dp1744
g54
(dp1745
g74
g75
ssg63
g1739
sg56
(lp1746
g691
asbag49
(g70
g51
NtRp1747
(dp1748
g54
(dp1749
g81
g82
ssg63
g1739
sg56
(lp1750
S':'
asbag49
(g70
g51
NtRp1751
(dp1752
g54
(dp1753
sg63
g1739
sg56
(lp1754
g49
(g50
g51
NtRp1755
(dp1756
g54
(dp1757
g62
I4
ssg63
g1751
sg56
(lp1758
S'set([])'
p1759
asbasbasbag49
(g65
g51
NtRp1760
(dp1761
g54
(dp1762
sg63
g1649
sg56
(lp1763
g49
(g70
g51
NtRp1764
(dp1765
g54
(dp1766
g74
g75
ssg63
g1760
sg56
(lp1767
g713
asbag49
(g70
g51
NtRp1768
(dp1769
g54
(dp1770
g81
g82
ssg63
g1760
sg56
(lp1771
S':'
asbag49
(g70
g51
NtRp1772
(dp1773
g54
(dp1774
sg63
g1760
sg56
(lp1775
g49
(g50
g51
NtRp1776
(dp1777
g54
(dp1778
g62
I4
ssg63
g1772
sg56
(lp1779
g726
asbasbasbag49
(g65
g51
NtRp1780
(dp1781
g54
(dp1782
sg63
g1649
sg56
(lp1783
g49
(g70
g51
NtRp1784
(dp1785
g54
(dp1786
g74
g75
ssg63
g1780
sg56
(lp1787
g735
asbag49
(g70
g51
NtRp1788
(dp1789
g54
(dp1790
g81
g82
ssg63
g1780
sg56
(lp1791
S':'
asbag49
(g70
g51
NtRp1792
(dp1793
g54
(dp1794
sg63
g1780
sg56
(lp1795
g49
(g50
g51
NtRp1796
(dp1797
g54
(dp1798
g62
I4
ssg63
g1792
sg56
(lp1799
g748
asbasbasbag49
(g65
g51
NtRp1800
(dp1801
g54
(dp1802
sg63
g1649
sg56
(lp1803
g49
(g70
g51
NtRp1804
(dp1805
g54
(dp1806
g74
g75
ssg63
g1800
sg56
(lp1807
g955
asbag49
(g70
g51
NtRp1808
(dp1809
g54
(dp1810
g81
g82
ssg63
g1800
sg56
(lp1811
S':'
asbag49
(g70
g51
NtRp1812
(dp1813
g54
(dp1814
sg63
g1800
sg56
(lp1815
g49
(g50
g51
NtRp1816
(dp1817
g54
(dp1818
g62
I4
ssg63
g1812
sg56
(lp1819
g92
asbasbasbag49
(g65
g51
NtRp1820
(dp1821
g54
(dp1822
sg63
g1649
sg56
(lp1823
g49
(g70
g51
NtRp1824
(dp1825
g54
(dp1826
g74
g75
ssg63
g1820
sg56
(lp1827
g976
asbag49
(g70
g51
NtRp1828
(dp1829
g54
(dp1830
g81
g82
ssg63
g1820
sg56
(lp1831
S':'
asbag49
(g70
g51
NtRp1832
(dp1833
g54
(dp1834
sg63
g1820
sg56
(lp1835
g49
(g50
g51
NtRp1836
(dp1837
g54
(dp1838
g62
I4
ssg63
g1832
sg56
(lp1839
g92
asbasbasbag49
(g65
g51
NtRp1840
(dp1841
g54
(dp1842
sg63
g1649
sg56
(lp1843
g49
(g70
g51
NtRp1844
(dp1845
g54
(dp1846
g74
g75
ssg63
g1840
sg56
(lp1847
g1214
asbag49
(g70
g51
NtRp1848
(dp1849
g54
(dp1850
g81
g82
ssg63
g1840
sg56
(lp1851
S':'
asbag49
(g70
g51
NtRp1852
(dp1853
g54
(dp1854
sg63
g1840
sg56
(lp1855
g49
(g50
g51
NtRp1856
(dp1857
g54
(dp1858
g62
I4
ssg63
g1852
sg56
(lp1859
g1227
asbasbasbag49
(g65
g51
NtRp1860
(dp1861
g54
(dp1862
sg63
g1649
sg56
(lp1863
g49
(g70
g51
NtRp1864
(dp1865
g54
(dp1866
g74
g75
ssg63
g1860
sg56
(lp1867
g1257
asbag49
(g70
g51
NtRp1868
(dp1869
g54
(dp1870
g81
g82
ssg63
g1860
sg56
(lp1871
S':'
asbag49
(g70
g51
NtRp1872
(dp1873
g54
(dp1874
sg63
g1860
sg56
(lp1875
g49
(g50
g51
NtRp1876
(dp1877
g54
(dp1878
g62
I4
ssg63
g1872
sg56
(lp1879
g49
(g58
g51
NtRp1880
(dp1881
g54
(dp1882
g62
I3
ssg63
Nsg56
(lp1883
g49
(g65
g51
NtRp1884
(dp1885
g54
(dp1886
sg63
g1880
sg56
(lp1887
g49
(g70
g51
NtRp1888
(dp1889
g54
(dp1890
sg63
g1884
sg56
(lp1891
g49
(g50
g51
NtRp1892
(dp1893
g54
(dp1894
g62
I3
ssg63
g1888
sg56
(lp1895
S'1'
asbasbasbag49
(g65
g51
NtRp1896
(dp1897
g54
(dp1898
sg63
g1880
sg56
(lp1899
g49
(g70
g51
NtRp1900
(dp1901
g54
(dp1902
sg63
g1896
sg56
(lp1903
g49
(g50
g51
NtRp1904
(dp1905
g54
(dp1906
g62
I3
ssg63
g1900
sg56
(lp1907
S'99'
p1908
asbasbasbag49
(g65
g51
NtRp1909
(dp1910
g54
(dp1911
sg63
g1880
sg56
(lp1912
g49
(g70
g51
NtRp1913
(dp1914
g54
(dp1915
sg63
g1909
sg56
(lp1916
g49
(g50
g51
NtRp1917
(dp1918
g54
(dp1919
g62
I3
ssg63
g1913
sg56
(lp1920
S'7'
asbasbasbag49
(g65
g51
NtRp1921
(dp1922
g54
(dp1923
sg63
g1880
sg56
(lp1924
g49
(g70
g51
NtRp1925
(dp1926
g54
(dp1927
sg63
g1921
sg56
(lp1928
g49
(g50
g51
NtRp1929
(dp1930
g54
(dp1931
g62
I3
ssg63
g1925
sg56
(lp1932
S'datetime.datetime(2012, 3, 4, 22, 12, 8)'
p1933
asbasbasbag49
(g65
g51
NtRp1934
(dp1935
g54
(dp1936
sg63
g1880
sg56
(lp1937
g49
(g70
g51
NtRp1938
(dp1939
g54
(dp1940
sg63
g1934
sg56
(lp1941
g49
(g50
g51
NtRp1942
(dp1943
g54
(dp1944
g62
I3
ssg63
g1938
sg56
(lp1945
g1336
asbasbasbasbasbasbasbasbasbasbasbag49
(g65
g51
NtRp1946
(dp1947
g54
(dp1948
sg63
g59
sg56
(lp1949
g49
(g70
g51
NtRp1950
(dp1951
g54
(dp1952
g74
g75
ssg63
g1946
sg56
(lp1953
S'is_https'
p1954
asbag49
(g70
g51
NtRp1955
(dp1956
g54
(dp1957
g81
g82
ssg63
g1946
sg56
(lp1958
S':'
asbag49
(g70
g51
NtRp1959
(dp1960
g54
(dp1961
sg63
g1946
sg56
(lp1962
g49
(g50
g51
NtRp1963
(dp1964
g54
(dp1965
g62
I5
ssg63
g1959
sg56
(lp1966
g92
asbasbasbag49
(g65
g51
NtRp1967
(dp1968
g54
(dp1969
sg63
g59
sg56
(lp1970
g49
(g70
g51
NtRp1971
(dp1972
g54
(dp1973
g74
g75
ssg63
g1967
sg56
(lp1974
S'is_local'
p1975
asbag49
(g70
g51
NtRp1976
(dp1977
g54
(dp1978
g81
g82
ssg63
g1967
sg56
(lp1979
S':'
asbag49
(g70
g51
NtRp1980
(dp1981
g54
(dp1982
sg63
g1967
sg56
(lp1983
g49
(g50
g51
NtRp1984
(dp1985
g54
(dp1986
g62
I5
ssg63
g1980
sg56
(lp1987
g726
asbasbasbag49
(g65
g51
NtRp1988
(dp1989
g54
(dp1990
sg63
g59
sg56
(lp1991
g49
(g70
g51
NtRp1992
(dp1993
g54
(dp1994
g74
g75
ssg63
g1988
sg56
(lp1995
S'is_restful'
p1996
asbag49
(g70
g51
NtRp1997
(dp1998
g54
(dp1999
g81
g82
ssg63
g1988
sg56
(lp2000
S':'
asbag49
(g70
g51
NtRp2001
(dp2002
g54
(dp2003
sg63
g1988
sg56
(lp2004
g49
(g50
g51
NtRp2005
(dp2006
g54
(dp2007
g62
I5
ssg63
g2001
sg56
(lp2008
g92
asbasbasbag49
(g65
g51
NtRp2009
(dp2010
g54
(dp2011
sg63
g59
sg56
(lp2012
g49
(g70
g51
NtRp2013
(dp2014
g54
(dp2015
g74
g75
ssg63
g2009
sg56
(lp2016
S'now'
p2017
asbag49
(g70
g51
NtRp2018
(dp2019
g54
(dp2020
g81
g82
ssg63
g2009
sg56
(lp2021
S':'
asbag49
(g70
g51
NtRp2022
(dp2023
g54
(dp2024
sg63
g2009
sg56
(lp2025
g49
(g50
g51
NtRp2026
(dp2027
g54
(dp2028
g62
I5
ssg63
g2022
sg56
(lp2029
S'datetime.datetime(2012, 3, 11, 18, 10, 48, 785000)'
p2030
asbasbasbag49
(g65
g51
NtRp2031
(dp2032
g54
(dp2033
sg63
g59
sg56
(lp2034
g49
(g70
g51
NtRp2035
(dp2036
g54
(dp2037
g74
g75
ssg63
g2031
sg56
(lp2038
S'post_vars'
p2039
asbag49
(g70
g51
NtRp2040
(dp2041
g54
(dp2042
g81
g82
ssg63
g2031
sg56
(lp2043
S':'
asbag49
(g70
g51
NtRp2044
(dp2045
g54
(dp2046
sg63
g2031
sg56
(lp2047
g49
(g50
g51
NtRp2048
(dp2049
g54
(dp2050
g62
I5
ssg63
g2044
sg56
(lp2051
g49
(g58
g51
NtRp2052
(dp2053
g54
(dp2054
g62
I4
ssg63
Nsg56
(lp2055
sbasbasbasbag49
(g65
g51
NtRp2056
(dp2057
g54
(dp2058
sg63
g59
sg56
(lp2059
g49
(g70
g51
NtRp2060
(dp2061
g54
(dp2062
g74
g75
ssg63
g2056
sg56
(lp2063
S'raw_args'
p2064
asbag49
(g70
g51
NtRp2065
(dp2066
g54
(dp2067
g81
g82
ssg63
g2056
sg56
(lp2068
S':'
asbag49
(g70
g51
NtRp2069
(dp2070
g54
(dp2071
sg63
g2056
sg56
(lp2072
g49
(g50
g51
NtRp2073
(dp2074
g54
(dp2075
g62
I5
ssg63
g2069
sg56
(lp2076
S''
asbasbasbag49
(g65
g51
NtRp2077
(dp2078
g54
(dp2079
sg63
g59
sg56
(lp2080
g49
(g70
g51
NtRp2081
(dp2082
g54
(dp2083
g74
g75
ssg63
g2077
sg56
(lp2084
S'url'
p2085
asbag49
(g70
g51
NtRp2086
(dp2087
g54
(dp2088
g81
g82
ssg63
g2077
sg56
(lp2089
S':'
asbag49
(g70
g51
NtRp2090
(dp2091
g54
(dp2092
sg63
g2077
sg56
(lp2093
g49
(g50
g51
NtRp2094
(dp2095
g54
(dp2096
g62
I5
ssg63
g2090
sg56
(lp2097
S'/init/default/addBarcode'
p2098
asbasbasbag49
(g65
g51
NtRp2099
(dp2100
g54
(dp2101
sg63
g59
sg56
(lp2102
g49
(g70
g51
NtRp2103
(dp2104
g54
(dp2105
g74
g75
ssg63
g2099
sg56
(lp2106
S'utcnow'
p2107
asbag49
(g70
g51
NtRp2108
(dp2109
g54
(dp2110
g81
g82
ssg63
g2099
sg56
(lp2111
S':'
asbag49
(g70
g51
NtRp2112
(dp2113
g54
(dp2114
sg63
g2099
sg56
(lp2115
g49
(g50
g51
NtRp2116
(dp2117
g54
(dp2118
g62
I5
ssg63
g2112
sg56
(lp2119
S'datetime.datetime(2012, 3, 11, 17, 10, 48, 785000)'
p2120
asbasbasbag49
(g65
g51
NtRp2121
(dp2122
g54
(dp2123
sg63
g59
sg56
(lp2124
g49
(g70
g51
NtRp2125
(dp2126
g54
(dp2127
g74
g75
ssg63
g2121
sg56
(lp2128
S'uuid'
p2129
asbag49
(g70
g51
NtRp2130
(dp2131
g54
(dp2132
g81
g82
ssg63
g2121
sg56
(lp2133
S':'
asbag49
(g70
g51
NtRp2134
(dp2135
g54
(dp2136
sg63
g2121
sg56
(lp2137
g49
(g50
g51
NtRp2138
(dp2139
g54
(dp2140
g62
I5
ssg63
g2134
sg56
(lp2141
S'init/127.0.0.1.2012-03-11.18-10-48.1224e481-3815-41a6-8363-d1157915b7d9'
p2142
asbasbasbag49
(g65
g51
NtRp2143
(dp2144
g54
(dp2145
sg63
g59
sg56
(lp2146
g49
(g70
g51
NtRp2147
(dp2148
g54
(dp2149
g74
g75
ssg63
g2143
sg56
(lp2150
S'vars'
p2151
asbag49
(g70
g51
NtRp2152
(dp2153
g54
(dp2154
g81
g82
ssg63
g2143
sg56
(lp2155
S':'
asbag49
(g70
g51
NtRp2156
(dp2157
g54
(dp2158
sg63
g2143
sg56
(lp2159
g49
(g50
g51
NtRp2160
(dp2161
g54
(dp2162
g62
I5
ssg63
g2156
sg56
(lp2163
g49
(g58
g51
NtRp2164
(dp2165
g54
(dp2166
g62
I4
ssg63
Nsg56
(lp2167
sbasbasbasbag49
(g65
g51
NtRp2168
(dp2169
g54
(dp2170
sg63
g59
sg56
(lp2171
g49
(g70
g51
NtRp2172
(dp2173
g54
(dp2174
g74
g75
ssg63
g2168
sg56
(lp2175
S'wsgi'
p2176
asbag49
(g70
g51
NtRp2177
(dp2178
g54
(dp2179
g81
g82
ssg63
g2168
sg56
(lp2180
S':'
asbag49
(g70
g51
NtRp2181
(dp2182
g54
(dp2183
sg63
g2168
sg56
(lp2184
g49
(g50
g51
NtRp2185
(dp2186
g54
(dp2187
g62
I5
ssg63
g2181
sg56
(lp2188
g49
(g58
g51
NtRp2189
(dp2190
g54
(dp2191
g62
I4
ssg63
Nsg56
(lp2192
g49
(g65
g51
NtRp2193
(dp2194
g54
(dp2195
sg63
g2189
sg56
(lp2196
g49
(g70
g51
NtRp2197
(dp2198
g54
(dp2199
g74
g75
ssg63
g2193
sg56
(lp2200
S'environ'
p2201
asbag49
(g70
g51
NtRp2202
(dp2203
g54
(dp2204
g81
g82
ssg63
g2193
sg56
(lp2205
S':'
asbag49
(g70
g51
NtRp2206
(dp2207
g54
(dp2208
sg63
g2193
sg56
(lp2209
g49
(g50
g51
NtRp2210
(dp2211
g54
(dp2212
g62
I4
ssg63
g2206
sg56
(lp2213
g49
(g58
g51
NtRp2214
(dp2215
g54
(dp2216
g62
I3
ssg63
Nsg56
(lp2217
g49
(g65
g51
NtRp2218
(dp2219
g54
(dp2220
sg63
g2214
sg56
(lp2221
g49
(g70
g51
NtRp2222
(dp2223
g54
(dp2224
g74
g75
ssg63
g2218
sg56
(lp2225
S'HTTP_ACCEPT'
p2226
asbag49
(g70
g51
NtRp2227
(dp2228
g54
(dp2229
g81
g82
ssg63
g2218
sg56
(lp2230
S':'
asbag49
(g70
g51
NtRp2231
(dp2232
g54
(dp2233
sg63
g2218
sg56
(lp2234
g49
(g50
g51
NtRp2235
(dp2236
g54
(dp2237
g62
I3
ssg63
g2231
sg56
(lp2238
g770
asbasbasbag49
(g65
g51
NtRp2239
(dp2240
g54
(dp2241
sg63
g2214
sg56
(lp2242
g49
(g70
g51
NtRp2243
(dp2244
g54
(dp2245
g74
g75
ssg63
g2239
sg56
(lp2246
S'HTTP_ACCEPT_CHARSET'
p2247
asbag49
(g70
g51
NtRp2248
(dp2249
g54
(dp2250
g81
g82
ssg63
g2239
sg56
(lp2251
S':'
asbag49
(g70
g51
NtRp2252
(dp2253
g54
(dp2254
sg63
g2239
sg56
(lp2255
g49
(g50
g51
NtRp2256
(dp2257
g54
(dp2258
g62
I3
ssg63
g2252
sg56
(lp2259
g792
asbasbasbag49
(g65
g51
NtRp2260
(dp2261
g54
(dp2262
sg63
g2214
sg56
(lp2263
g49
(g70
g51
NtRp2264
(dp2265
g54
(dp2266
g74
g75
ssg63
g2260
sg56
(lp2267
S'HTTP_ACCEPT_ENCODING'
p2268
asbag49
(g70
g51
NtRp2269
(dp2270
g54
(dp2271
g81
g82
ssg63
g2260
sg56
(lp2272
S':'
asbag49
(g70
g51
NtRp2273
(dp2274
g54
(dp2275
sg63
g2260
sg56
(lp2276
g49
(g50
g51
NtRp2277
(dp2278
g54
(dp2279
g62
I3
ssg63
g2273
sg56
(lp2280
g814
asbasbasbag49
(g65
g51
NtRp2281
(dp2282
g54
(dp2283
sg63
g2214
sg56
(lp2284
g49
(g70
g51
NtRp2285
(dp2286
g54
(dp2287
g74
g75
ssg63
g2281
sg56
(lp2288
S'HTTP_ACCEPT_LANGUAGE'
p2289
asbag49
(g70
g51
NtRp2290
(dp2291
g54
(dp2292
g81
g82
ssg63
g2281
sg56
(lp2293
S':'
asbag49
(g70
g51
NtRp2294
(dp2295
g54
(dp2296
sg63
g2281
sg56
(lp2297
g49
(g50
g51
NtRp2298
(dp2299
g54
(dp2300
g62
I3
ssg63
g2294
sg56
(lp2301
g836
asbasbasbag49
(g65
g51
NtRp2302
(dp2303
g54
(dp2304
sg63
g2214
sg56
(lp2305
g49
(g70
g51
NtRp2306
(dp2307
g54
(dp2308
g74
g75
ssg63
g2302
sg56
(lp2309
S'HTTP_CACHE_CONTROL'
p2310
asbag49
(g70
g51
NtRp2311
(dp2312
g54
(dp2313
g81
g82
ssg63
g2302
sg56
(lp2314
S':'
asbag49
(g70
g51
NtRp2315
(dp2316
g54
(dp2317
sg63
g2302
sg56
(lp2318
g49
(g50
g51
NtRp2319
(dp2320
g54
(dp2321
g62
I3
ssg63
g2315
sg56
(lp2322
g858
asbasbasbag49
(g65
g51
NtRp2323
(dp2324
g54
(dp2325
sg63
g2214
sg56
(lp2326
g49
(g70
g51
NtRp2327
(dp2328
g54
(dp2329
g74
g75
ssg63
g2323
sg56
(lp2330
S'HTTP_CONNECTION'
p2331
asbag49
(g70
g51
NtRp2332
(dp2333
g54
(dp2334
g81
g82
ssg63
g2323
sg56
(lp2335
S':'
asbag49
(g70
g51
NtRp2336
(dp2337
g54
(dp2338
sg63
g2323
sg56
(lp2339
g49
(g50
g51
NtRp2340
(dp2341
g54
(dp2342
g62
I3
ssg63
g2336
sg56
(lp2343
g880
asbasbasbag49
(g65
g51
NtRp2344
(dp2345
g54
(dp2346
sg63
g2214
sg56
(lp2347
g49
(g70
g51
NtRp2348
(dp2349
g54
(dp2350
g74
g75
ssg63
g2344
sg56
(lp2351
S'HTTP_COOKIE'
p2352
asbag49
(g70
g51
NtRp2353
(dp2354
g54
(dp2355
g81
g82
ssg63
g2344
sg56
(lp2356
S':'
asbag49
(g70
g51
NtRp2357
(dp2358
g54
(dp2359
sg63
g2344
sg56
(lp2360
g49
(g50
g51
NtRp2361
(dp2362
g54
(dp2363
g62
I3
ssg63
g2357
sg56
(lp2364
g902
asbasbasbag49
(g65
g51
NtRp2365
(dp2366
g54
(dp2367
sg63
g2214
sg56
(lp2368
g49
(g70
g51
NtRp2369
(dp2370
g54
(dp2371
g74
g75
ssg63
g2365
sg56
(lp2372
S'HTTP_HOST'
p2373
asbag49
(g70
g51
NtRp2374
(dp2375
g54
(dp2376
g81
g82
ssg63
g2365
sg56
(lp2377
S':'
asbag49
(g70
g51
NtRp2378
(dp2379
g54
(dp2380
sg63
g2365
sg56
(lp2381
g49
(g50
g51
NtRp2382
(dp2383
g54
(dp2384
g62
I3
ssg63
g2378
sg56
(lp2385
g924
asbasbasbag49
(g65
g51
NtRp2386
(dp2387
g54
(dp2388
sg63
g2214
sg56
(lp2389
g49
(g70
g51
NtRp2390
(dp2391
g54
(dp2392
g74
g75
ssg63
g2386
sg56
(lp2393
S'HTTP_USER_AGENT'
p2394
asbag49
(g70
g51
NtRp2395
(dp2396
g54
(dp2397
g81
g82
ssg63
g2386
sg56
(lp2398
S':'
asbag49
(g70
g51
NtRp2399
(dp2400
g54
(dp2401
sg63
g2386
sg56
(lp2402
g49
(g50
g51
NtRp2403
(dp2404
g54
(dp2405
g62
I3
ssg63
g2399
sg56
(lp2406
g946
asbasbasbag49
(g65
g51
NtRp2407
(dp2408
g54
(dp2409
sg63
g2214
sg56
(lp2410
g49
(g70
g51
NtRp2411
(dp2412
g54
(dp2413
g74
g75
ssg63
g2407
sg56
(lp2414
S'PATH_INFO'
p2415
asbag49
(g70
g51
NtRp2416
(dp2417
g54
(dp2418
g81
g82
ssg63
g2407
sg56
(lp2419
S':'
asbag49
(g70
g51
NtRp2420
(dp2421
g54
(dp2422
sg63
g2407
sg56
(lp2423
g49
(g50
g51
NtRp2424
(dp2425
g54
(dp2426
g62
I3
ssg63
g2420
sg56
(lp2427
g1010
asbasbasbag49
(g65
g51
NtRp2428
(dp2429
g54
(dp2430
sg63
g2214
sg56
(lp2431
g49
(g70
g51
NtRp2432
(dp2433
g54
(dp2434
g74
g75
ssg63
g2428
sg56
(lp2435
S'QUERY_STRING'
p2436
asbag49
(g70
g51
NtRp2437
(dp2438
g54
(dp2439
g81
g82
ssg63
g2428
sg56
(lp2440
S':'
asbag49
(g70
g51
NtRp2441
(dp2442
g54
(dp2443
sg63
g2428
sg56
(lp2444
g49
(g50
g51
NtRp2445
(dp2446
g54
(dp2447
g62
I3
ssg63
g2441
sg56
(lp2448
S''
asbasbasbag49
(g65
g51
NtRp2449
(dp2450
g54
(dp2451
sg63
g2214
sg56
(lp2452
g49
(g70
g51
NtRp2453
(dp2454
g54
(dp2455
g74
g75
ssg63
g2449
sg56
(lp2456
S'REMOTE_ADDR'
p2457
asbag49
(g70
g51
NtRp2458
(dp2459
g54
(dp2460
g81
g82
ssg63
g2449
sg56
(lp2461
S':'
asbag49
(g70
g51
NtRp2462
(dp2463
g54
(dp2464
sg63
g2449
sg56
(lp2465
g49
(g50
g51
NtRp2466
(dp2467
g54
(dp2468
g62
I3
ssg63
g2462
sg56
(lp2469
g182
asbasbasbag49
(g65
g51
NtRp2470
(dp2471
g54
(dp2472
sg63
g2214
sg56
(lp2473
g49
(g70
g51
NtRp2474
(dp2475
g54
(dp2476
g74
g75
ssg63
g2470
sg56
(lp2477
S'REMOTE_PORT'
p2478
asbag49
(g70
g51
NtRp2479
(dp2480
g54
(dp2481
g81
g82
ssg63
g2470
sg56
(lp2482
S':'
asbag49
(g70
g51
NtRp2483
(dp2484
g54
(dp2485
sg63
g2470
sg56
(lp2486
g49
(g50
g51
NtRp2487
(dp2488
g54
(dp2489
g62
I3
ssg63
g2483
sg56
(lp2490
g1074
asbasbasbag49
(g65
g51
NtRp2491
(dp2492
g54
(dp2493
sg63
g2214
sg56
(lp2494
g49
(g70
g51
NtRp2495
(dp2496
g54
(dp2497
g74
g75
ssg63
g2491
sg56
(lp2498
S'REQUEST_METHOD'
p2499
asbag49
(g70
g51
NtRp2500
(dp2501
g54
(dp2502
g81
g82
ssg63
g2491
sg56
(lp2503
S':'
asbag49
(g70
g51
NtRp2504
(dp2505
g54
(dp2506
sg63
g2491
sg56
(lp2507
g49
(g50
g51
NtRp2508
(dp2509
g54
(dp2510
g62
I3
ssg63
g2504
sg56
(lp2511
g1096
asbasbasbag49
(g65
g51
NtRp2512
(dp2513
g54
(dp2514
sg63
g2214
sg56
(lp2515
g49
(g70
g51
NtRp2516
(dp2517
g54
(dp2518
g74
g75
ssg63
g2512
sg56
(lp2519
S'SCRIPT_NAME'
p2520
asbag49
(g70
g51
NtRp2521
(dp2522
g54
(dp2523
g81
g82
ssg63
g2512
sg56
(lp2524
S':'
asbag49
(g70
g51
NtRp2525
(dp2526
g54
(dp2527
sg63
g2512
sg56
(lp2528
g49
(g50
g51
NtRp2529
(dp2530
g54
(dp2531
g62
I3
ssg63
g2525
sg56
(lp2532
S''
asbasbasbag49
(g65
g51
NtRp2533
(dp2534
g54
(dp2535
sg63
g2214
sg56
(lp2536
g49
(g70
g51
NtRp2537
(dp2538
g54
(dp2539
g74
g75
ssg63
g2533
sg56
(lp2540
S'SERVER_NAME'
p2541
asbag49
(g70
g51
NtRp2542
(dp2543
g54
(dp2544
g81
g82
ssg63
g2533
sg56
(lp2545
S':'
asbag49
(g70
g51
NtRp2546
(dp2547
g54
(dp2548
sg63
g2533
sg56
(lp2549
g49
(g50
g51
NtRp2550
(dp2551
g54
(dp2552
g62
I3
ssg63
g2546
sg56
(lp2553
g1139
asbasbasbag49
(g65
g51
NtRp2554
(dp2555
g54
(dp2556
sg63
g2214
sg56
(lp2557
g49
(g70
g51
NtRp2558
(dp2559
g54
(dp2560
g74
g75
ssg63
g2554
sg56
(lp2561
S'SERVER_PORT'
p2562
asbag49
(g70
g51
NtRp2563
(dp2564
g54
(dp2565
g81
g82
ssg63
g2554
sg56
(lp2566
S':'
asbag49
(g70
g51
NtRp2567
(dp2568
g54
(dp2569
sg63
g2554
sg56
(lp2570
g49
(g50
g51
NtRp2571
(dp2572
g54
(dp2573
g62
I3
ssg63
g2567
sg56
(lp2574
g1161
asbasbasbag49
(g65
g51
NtRp2575
(dp2576
g54
(dp2577
sg63
g2214
sg56
(lp2578
g49
(g70
g51
NtRp2579
(dp2580
g54
(dp2581
g74
g75
ssg63
g2575
sg56
(lp2582
S'SERVER_PROTOCOL'
p2583
asbag49
(g70
g51
NtRp2584
(dp2585
g54
(dp2586
g81
g82
ssg63
g2575
sg56
(lp2587
S':'
asbag49
(g70
g51
NtRp2588
(dp2589
g54
(dp2590
sg63
g2575
sg56
(lp2591
g49
(g50
g51
NtRp2592
(dp2593
g54
(dp2594
g62
I3
ssg63
g2588
sg56
(lp2595
g1183
asbasbasbag49
(g65
g51
NtRp2596
(dp2597
g54
(dp2598
sg63
g2214
sg56
(lp2599
g49
(g70
g51
NtRp2600
(dp2601
g54
(dp2602
g74
g75
ssg63
g2596
sg56
(lp2603
S'SERVER_SOFTWARE'
p2604
asbag49
(g70
g51
NtRp2605
(dp2606
g54
(dp2607
g81
g82
ssg63
g2596
sg56
(lp2608
S':'
asbag49
(g70
g51
NtRp2609
(dp2610
g54
(dp2611
sg63
g2596
sg56
(lp2612
g49
(g50
g51
NtRp2613
(dp2614
g54
(dp2615
g62
I3
ssg63
g2609
sg56
(lp2616
g1205
asbasbasbag49
(g65
g51
NtRp2617
(dp2618
g54
(dp2619
sg63
g2214
sg56
(lp2620
g49
(g70
g51
NtRp2621
(dp2622
g54
(dp2623
g74
g75
ssg63
g2617
sg56
(lp2624
S'wsgi.errors'
p2625
asbag49
(g70
g51
NtRp2626
(dp2627
g54
(dp2628
g81
g82
ssg63
g2617
sg56
(lp2629
S':'
asbag49
(g70
g51
NtRp2630
(dp2631
g54
(dp2632
sg63
g2617
sg56
(lp2633
g49
(g50
g51
NtRp2634
(dp2635
g54
(dp2636
g62
I3
ssg63
g2630
sg56
(lp2637
S"<open file '<stderr>', mode 'w' at 0x020200B0>"
p2638
asbasbasbag49
(g65
g51
NtRp2639
(dp2640
g54
(dp2641
sg63
g2214
sg56
(lp2642
g49
(g70
g51
NtRp2643
(dp2644
g54
(dp2645
g74
g75
ssg63
g2639
sg56
(lp2646
S'wsgi.file_wrapper'
p2647
asbag49
(g70
g51
NtRp2648
(dp2649
g54
(dp2650
g81
g82
ssg63
g2639
sg56
(lp2651
S':'
asbag49
(g70
g51
NtRp2652
(dp2653
g54
(dp2654
sg63
g2639
sg56
(lp2655
g49
(g50
g51
NtRp2656
(dp2657
g54
(dp2658
g62
I3
ssg63
g2652
sg56
(lp2659
S'<class wsgiref.util.FileWrapper at 0x02BF68D0>'
p2660
asbasbasbag49
(g65
g51
NtRp2661
(dp2662
g54
(dp2663
sg63
g2214
sg56
(lp2664
g49
(g70
g51
NtRp2665
(dp2666
g54
(dp2667
g74
g75
ssg63
g2661
sg56
(lp2668
S'wsgi.input'
p2669
asbag49
(g70
g51
NtRp2670
(dp2671
g54
(dp2672
g81
g82
ssg63
g2661
sg56
(lp2673
S':'
asbag49
(g70
g51
NtRp2674
(dp2675
g54
(dp2676
sg63
g2661
sg56
(lp2677
g49
(g50
g51
NtRp2678
(dp2679
g54
(dp2680
g62
I3
ssg63
g2674
sg56
(lp2681
S'<cStringIO.StringO object at 0x045B5820>'
p2682
asbasbasbag49
(g65
g51
NtRp2683
(dp2684
g54
(dp2685
sg63
g2214
sg56
(lp2686
g49
(g70
g51
NtRp2687
(dp2688
g54
(dp2689
g74
g75
ssg63
g2683
sg56
(lp2690
S'wsgi.multiprocess'
p2691
asbag49
(g70
g51
NtRp2692
(dp2693
g54
(dp2694
g81
g82
ssg63
g2683
sg56
(lp2695
S':'
asbag49
(g70
g51
NtRp2696
(dp2697
g54
(dp2698
sg63
g2683
sg56
(lp2699
g49
(g50
g51
NtRp2700
(dp2701
g54
(dp2702
g62
I3
ssg63
g2696
sg56
(lp2703
g92
asbasbasbag49
(g65
g51
NtRp2704
(dp2705
g54
(dp2706
sg63
g2214
sg56
(lp2707
g49
(g70
g51
NtRp2708
(dp2709
g54
(dp2710
g74
g75
ssg63
g2704
sg56
(lp2711
S'wsgi.multithread'
p2712
asbag49
(g70
g51
NtRp2713
(dp2714
g54
(dp2715
g81
g82
ssg63
g2704
sg56
(lp2716
S':'
asbag49
(g70
g51
NtRp2717
(dp2718
g54
(dp2719
sg63
g2704
sg56
(lp2720
g49
(g50
g51
NtRp2721
(dp2722
g54
(dp2723
g62
I3
ssg63
g2717
sg56
(lp2724
g726
asbasbasbag49
(g65
g51
NtRp2725
(dp2726
g54
(dp2727
sg63
g2214
sg56
(lp2728
g49
(g70
g51
NtRp2729
(dp2730
g54
(dp2731
g74
g75
ssg63
g2725
sg56
(lp2732
S'wsgi.run_once'
p2733
asbag49
(g70
g51
NtRp2734
(dp2735
g54
(dp2736
g81
g82
ssg63
g2725
sg56
(lp2737
S':'
asbag49
(g70
g51
NtRp2738
(dp2739
g54
(dp2740
sg63
g2725
sg56
(lp2741
g49
(g50
g51
NtRp2742
(dp2743
g54
(dp2744
g62
I3
ssg63
g2738
sg56
(lp2745
g92
asbasbasbag49
(g65
g51
NtRp2746
(dp2747
g54
(dp2748
sg63
g2214
sg56
(lp2749
g49
(g70
g51
NtRp2750
(dp2751
g54
(dp2752
g74
g75
ssg63
g2746
sg56
(lp2753
S'wsgi.url_scheme'
p2754
asbag49
(g70
g51
NtRp2755
(dp2756
g54
(dp2757
g81
g82
ssg63
g2746
sg56
(lp2758
S':'
asbag49
(g70
g51
NtRp2759
(dp2760
g54
(dp2761
sg63
g2746
sg56
(lp2762
g49
(g50
g51
NtRp2763
(dp2764
g54
(dp2765
g62
I3
ssg63
g2759
sg56
(lp2766
g1487
asbasbasbag49
(g65
g51
NtRp2767
(dp2768
g54
(dp2769
sg63
g2214
sg56
(lp2770
g49
(g70
g51
NtRp2771
(dp2772
g54
(dp2773
g74
g75
ssg63
g2767
sg56
(lp2774
S'wsgi.version'
p2775
asbag49
(g70
g51
NtRp2776
(dp2777
g54
(dp2778
g81
g82
ssg63
g2767
sg56
(lp2779
S':'
asbag49
(g70
g51
NtRp2780
(dp2781
g54
(dp2782
sg63
g2767
sg56
(lp2783
g49
(g50
g51
NtRp2784
(dp2785
g54
(dp2786
g62
I3
ssg63
g2780
sg56
(lp2787
S'1'
asbasbasbasbasbasbasbasbasbasbasbasbasbsS'frames'
p2788
(lp2789
(dp2790
S'file'
p2791
S'C:\\Users\\Bussiere\\Dropbox\\Projets\\Yuki\\web2py\\gluon\\restricted.py'
p2792
sS'dump'
p2793
(dp2794
sS'lnum'
p2795
I205
sS'lines'
p2796
(dp2797
I200
S'    try:'
p2798
sI201
S'        if type(code) == types.CodeType:'
p2799
sI202
S'            ccode = code'
p2800
sI203
S'        else:'
p2801
sI204
S'            ccode = compile2(code,layer)'
p2802
sI205
S'        exec ccode in environment'
p2803
sI206
S'    except HTTP:'
p2804
sI207
S'        raise'
p2805
sI208
S'    except RestrictedError:'
p2806
sI209
S'        # do not encapsulate (obfuscate) the original RestrictedError'
p2807
ssS'call'
p2808
S'(code=r"response.write(\'<!DOCTYPE html>\\n<!-- paulirish....ponse.write(\'\\n</body>\\n</html>\\n\', escape=False)", environment={\'A\': <class \'gluon.html.A\'>, \'Auth\': <class \'gluon.tools.Auth\'>, \'B\': <class \'gluon.html.B\'>, \'BEAUTIFY\': <class \'gluon.html.BEAUTIFY\'>, \'BODY\': <class \'gluon.html.BODY\'>, \'BR\': <class \'gluon.html.BR\'>, \'BUTTON\': <class \'gluon.html.BUTTON\'>, \'CAT\': <class \'gluon.html.CAT\'>, \'CENTER\': <class \'gluon.html.CENTER\'>, \'CLEANUP\': <class \'gluon.validators.CLEANUP\'>, ...}, layer=r\'C:\\Users\\Bussiere\\Dropbox\\Projets\\Yuki\\web2py\\applications\\init\\views\\default/addBarcode.html\')'
p2809
sS'func'
p2810
S'restricted'
p2811
sa(dp2812
g2791
S'C:\\Users\\Bussiere\\Dropbox\\Projets\\Yuki\\web2py\\applications\\init\\views\\default\\addBarcode.html'
p2813
sg2793
(dp2814
sg2795
I86
sg2796
(dp2815
I96
S"    response.write('\\n          <h3>Right Sidebar</h3>\\n          <p></p>\\n          ', escape=False)"
p2816
sI77
S'    response.write(\'\\n        <div class="four columns left-sidebar">\\n          \', escape=False)'
p2817
sI78
S"    response.write('\\n          <h3>Left Sidebar</h3>\\n          <p></p>\\n          ', escape=False)"
p2818
sI79
S"    response.write('\\n        </div>\\n        ', escape=False)"
p2819
sI80
S'    pass'
p2820
sI81
S'response.write(\'\\n        \\n        <div class="\', escape=False)'
p2821
sI82
S'response.write(middle_columns)'
p2822
sI83
S'response.write(\' columns center">\\n          \', escape=False)'
p2823
sI84
S"response.write('\\n          ', escape=False)"
p2824
sI85
S"response.write('\\n<h2>', escape=False)"
p2825
sI86
S"response.write(T( request.args(0).replace('_',' ').capitalize() ))"
p2826
sI87
S'response.write(\'</h2>\\n<div id="web2py_user_form">\\n  \', escape=False)'
p2827
sI88
S'response.write(form)'
p2828
sI89
S"response.write('\\n  ', escape=False)"
p2829
sI90
S'pass'
p2830
sI91
S'response.write(\'\\n</div>\\n<script language="javascript"><!--\\n      jQuery("#web2py_user_form input:visible:enabled:first").focus();\\n      //--></script>\\n\', escape=False)'
p2831
sI92
S"response.write('\\n          ', escape=False)"
p2832
sI93
S"response.write('\\n        </div>\\n        \\n        ', escape=False)"
p2833
sI94
S'if right_sidebar_enabled:'
p2834
sI95
S'    response.write(\'\\n        <div class="four columns">\\n          \', escape=False)'
p2835
ssg2808
S'()'
p2836
sg2810
S'<module>'
p2837
sasS'pyver'
p2838
S'Python 2.5.4: C:\\Users\\Bussiere\\Dropbox\\Projets\\Yuki\\web2py\\web2py.exe'
p2839
sS'session'
p2840
g49
(g50
g51
NtRp2841
(dp2842
g54
(dp2843
sg56
(lp2844
g49
(g58
g51
NtRp2845
(dp2846
g54
(dp2847
g62
I5
ssg63
Nsg56
(lp2848
sbasbsS'etype'
p2849
S"<type 'exceptions.AttributeError'>"
p2850
sS'date'
p2851
S'Sun Mar 11 18:10:49 2012'
p2852
sS'response'
p2853
g49
(g50
g51
NtRp2854
(dp2855
g54
(dp2856
sg56
(lp2857
g49
(g58
g51
NtRp2858
(dp2859
g54
(dp2860
g62
I5
ssg63
Nsg56
(lp2861
g49
(g65
g51
NtRp2862
(dp2863
g54
(dp2864
sg63
g2858
sg56
(lp2865
g49
(g70
g51
NtRp2866
(dp2867
g54
(dp2868
g74
g75
ssg63
g2862
sg56
(lp2869
g147
asbag49
(g70
g51
NtRp2870
(dp2871
g54
(dp2872
g81
g82
ssg63
g2862
sg56
(lp2873
S':'
asbag49
(g70
g51
NtRp2874
(dp2875
g54
(dp2876
sg63
g2862
sg56
(lp2877
g49
(g50
g51
NtRp2878
(dp2879
g54
(dp2880
g62
I5
ssg63
g2874
sg56
(lp2881
S'<cStringIO.StringO object at 0x045B5840>'
p2882
asbasbasbag49
(g65
g51
NtRp2883
(dp2884
g54
(dp2885
sg63
g2858
sg56
(lp2886
g49
(g70
g51
NtRp2887
(dp2888
g54
(dp2889
g74
g75
ssg63
g2883
sg56
(lp2890
g213
asbag49
(g70
g51
NtRp2891
(dp2892
g54
(dp2893
g81
g82
ssg63
g2883
sg56
(lp2894
S':'
asbag49
(g70
g51
NtRp2895
(dp2896
g54
(dp2897
sg63
g2883
sg56
(lp2898
g49
(g50
g51
NtRp2899
(dp2900
g54
(dp2901
g62
I5
ssg63
g2895
sg56
(lp2902
g49
(g58
g51
NtRp2903
(dp2904
g54
(dp2905
g62
I4
ssg63
Nsg56
(lp2906
g49
(g65
g51
NtRp2907
(dp2908
g54
(dp2909
sg63
g2903
sg56
(lp2910
g49
(g70
g51
NtRp2911
(dp2912
g54
(dp2913
g74
g75
ssg63
g2907
sg56
(lp2914
S'session_id_init'
p2915
asbag49
(g70
g51
NtRp2916
(dp2917
g54
(dp2918
g81
g82
ssg63
g2907
sg56
(lp2919
S':'
asbag49
(g70
g51
NtRp2920
(dp2921
g54
(dp2922
sg63
g2907
sg56
(lp2923
g49
(g50
g51
NtRp2924
(dp2925
g54
(dp2926
g62
I4
ssg63
g2920
sg56
(lp2927
g49
(g58
g51
NtRp2928
(dp2929
g54
(dp2930
g62
I3
ssg63
Nsg56
(lp2931
g49
(g65
g51
NtRp2932
(dp2933
g54
(dp2934
sg63
g2928
sg56
(lp2935
g49
(g70
g51
NtRp2936
(dp2937
g54
(dp2938
g74
g75
ssg63
g2932
sg56
(lp2939
g263
asbag49
(g70
g51
NtRp2940
(dp2941
g54
(dp2942
g81
g82
ssg63
g2932
sg56
(lp2943
S':'
asbag49
(g70
g51
NtRp2944
(dp2945
g54
(dp2946
sg63
g2932
sg56
(lp2947
g49
(g50
g51
NtRp2948
(dp2949
g54
(dp2950
g62
I3
ssg63
g2944
sg56
(lp2951
S''
asbasbasbag49
(g65
g51
NtRp2952
(dp2953
g54
(dp2954
sg63
g2928
sg56
(lp2955
g49
(g70
g51
NtRp2956
(dp2957
g54
(dp2958
g74
g75
ssg63
g2952
sg56
(lp2959
g284
asbag49
(g70
g51
NtRp2960
(dp2961
g54
(dp2962
g81
g82
ssg63
g2952
sg56
(lp2963
S':'
asbag49
(g70
g51
NtRp2964
(dp2965
g54
(dp2966
sg63
g2952
sg56
(lp2967
g49
(g50
g51
NtRp2968
(dp2969
g54
(dp2970
g62
I3
ssg63
g2964
sg56
(lp2971
S''
asbasbasbag49
(g65
g51
NtRp2972
(dp2973
g54
(dp2974
sg63
g2928
sg56
(lp2975
g49
(g70
g51
NtRp2976
(dp2977
g54
(dp2978
g74
g75
ssg63
g2972
sg56
(lp2979
g305
asbag49
(g70
g51
NtRp2980
(dp2981
g54
(dp2982
g81
g82
ssg63
g2972
sg56
(lp2983
S':'
asbag49
(g70
g51
NtRp2984
(dp2985
g54
(dp2986
sg63
g2972
sg56
(lp2987
g49
(g50
g51
NtRp2988
(dp2989
g54
(dp2990
g62
I3
ssg63
g2984
sg56
(lp2991
S''
asbasbasbag49
(g65
g51
NtRp2992
(dp2993
g54
(dp2994
sg63
g2928
sg56
(lp2995
g49
(g70
g51
NtRp2996
(dp2997
g54
(dp2998
g74
g75
ssg63
g2992
sg56
(lp2999
g326
asbag49
(g70
g51
NtRp3000
(dp3001
g54
(dp3002
g81
g82
ssg63
g2992
sg56
(lp3003
S':'
asbag49
(g70
g51
NtRp3004
(dp3005
g54
(dp3006
sg63
g2992
sg56
(lp3007
g49
(g50
g51
NtRp3008
(dp3009
g54
(dp3010
g62
I3
ssg63
g3004
sg56
(lp3011
S''
asbasbasbag49
(g65
g51
NtRp3012
(dp3013
g54
(dp3014
sg63
g2928
sg56
(lp3015
g49
(g70
g51
NtRp3016
(dp3017
g54
(dp3018
g74
g75
ssg63
g3012
sg56
(lp3019
g347
asbag49
(g70
g51
NtRp3020
(dp3021
g54
(dp3022
g81
g82
ssg63
g3012
sg56
(lp3023
S':'
asbag49
(g70
g51
NtRp3024
(dp3025
g54
(dp3026
sg63
g3012
sg56
(lp3027
g49
(g50
g51
NtRp3028
(dp3029
g54
(dp3030
g62
I3
ssg63
g3024
sg56
(lp3031
S'/'
asbasbasbag49
(g65
g51
NtRp3032
(dp3033
g54
(dp3034
sg63
g2928
sg56
(lp3035
g49
(g70
g51
NtRp3036
(dp3037
g54
(dp3038
g74
g75
ssg63
g3032
sg56
(lp3039
g368
asbag49
(g70
g51
NtRp3040
(dp3041
g54
(dp3042
g81
g82
ssg63
g3032
sg56
(lp3043
S':'
asbag49
(g70
g51
NtRp3044
(dp3045
g54
(dp3046
sg63
g3032
sg56
(lp3047
g49
(g50
g51
NtRp3048
(dp3049
g54
(dp3050
g62
I3
ssg63
g3044
sg56
(lp3051
S''
asbasbasbag49
(g65
g51
NtRp3052
(dp3053
g54
(dp3054
sg63
g2928
sg56
(lp3055
g49
(g70
g51
NtRp3056
(dp3057
g54
(dp3058
g74
g75
ssg63
g3052
sg56
(lp3059
g389
asbag49
(g70
g51
NtRp3060
(dp3061
g54
(dp3062
g81
g82
ssg63
g3052
sg56
(lp3063
S':'
asbag49
(g70
g51
NtRp3064
(dp3065
g54
(dp3066
sg63
g3052
sg56
(lp3067
g49
(g50
g51
NtRp3068
(dp3069
g54
(dp3070
g62
I3
ssg63
g3064
sg56
(lp3071
S''
asbasbasbasbasbasbasbasbasbasbasbag49
(g65
g51
NtRp3072
(dp3073
g54
(dp3074
sg63
g2858
sg56
(lp3075
g49
(g70
g51
NtRp3076
(dp3077
g54
(dp3078
g74
g75
ssg63
g3072
sg56
(lp3079
S'delimiters'
p3080
asbag49
(g70
g51
NtRp3081
(dp3082
g54
(dp3083
g81
g82
ssg63
g3072
sg56
(lp3084
S':'
asbag49
(g70
g51
NtRp3085
(dp3086
g54
(dp3087
sg63
g3072
sg56
(lp3088
g49
(g50
g51
NtRp3089
(dp3090
g54
(dp3091
g62
I5
ssg63
g3085
sg56
(lp3092
g49
(g58
g51
NtRp3093
(dp3094
g54
(dp3095
g62
I4
ssg63
Nsg56
(lp3096
g49
(g65
g51
NtRp3097
(dp3098
g54
(dp3099
sg63
g3093
sg56
(lp3100
g49
(g70
g51
NtRp3101
(dp3102
g54
(dp3103
sg63
g3097
sg56
(lp3104
g49
(g50
g51
NtRp3105
(dp3106
g54
(dp3107
g62
I4
ssg63
g3101
sg56
(lp3108
S'{{'
p3109
asbasbasbag49
(g65
g51
NtRp3110
(dp3111
g54
(dp3112
sg63
g3093
sg56
(lp3113
g49
(g70
g51
NtRp3114
(dp3115
g54
(dp3116
sg63
g3110
sg56
(lp3117
g49
(g50
g51
NtRp3118
(dp3119
g54
(dp3120
g62
I4
ssg63
g3114
sg56
(lp3121
S'}}'
p3122
asbasbasbasbasbasbasbag49
(g65
g51
NtRp3123
(dp3124
g54
(dp3125
sg63
g2858
sg56
(lp3126
g49
(g70
g51
NtRp3127
(dp3128
g54
(dp3129
g74
g75
ssg63
g3123
sg56
(lp3130
S'files'
p3131
asbag49
(g70
g51
NtRp3132
(dp3133
g54
(dp3134
g81
g82
ssg63
g3123
sg56
(lp3135
S':'
asbag49
(g70
g51
NtRp3136
(dp3137
g54
(dp3138
sg63
g3123
sg56
(lp3139
g49
(g50
g51
NtRp3140
(dp3141
g54
(dp3142
g62
I5
ssg63
g3136
sg56
(lp3143
g49
(g58
g51
NtRp3144
(dp3145
g54
(dp3146
g62
I4
ssg63
Nsg56
(lp3147
g49
(g65
g51
NtRp3148
(dp3149
g54
(dp3150
sg63
g3144
sg56
(lp3151
g49
(g70
g51
NtRp3152
(dp3153
g54
(dp3154
sg63
g3148
sg56
(lp3155
g49
(g50
g51
NtRp3156
(dp3157
g54
(dp3158
g62
I4
ssg63
g3152
sg56
(lp3159
S'/init/static/js/jquery.js'
p3160
asbasbasbag49
(g65
g51
NtRp3161
(dp3162
g54
(dp3163
sg63
g3144
sg56
(lp3164
g49
(g70
g51
NtRp3165
(dp3166
g54
(dp3167
sg63
g3161
sg56
(lp3168
g49
(g50
g51
NtRp3169
(dp3170
g54
(dp3171
g62
I4
ssg63
g3165
sg56
(lp3172
S'/init/static/css/calendar.css'
p3173
asbasbasbag49
(g65
g51
NtRp3174
(dp3175
g54
(dp3176
sg63
g3144
sg56
(lp3177
g49
(g70
g51
NtRp3178
(dp3179
g54
(dp3180
sg63
g3174
sg56
(lp3181
g49
(g50
g51
NtRp3182
(dp3183
g54
(dp3184
g62
I4
ssg63
g3178
sg56
(lp3185
S'/init/static/js/calendar.js'
p3186
asbasbasbag49
(g65
g51
NtRp3187
(dp3188
g54
(dp3189
sg63
g3144
sg56
(lp3190
g49
(g70
g51
NtRp3191
(dp3192
g54
(dp3193
sg63
g3187
sg56
(lp3194
g49
(g50
g51
NtRp3195
(dp3196
g54
(dp3197
g62
I4
ssg63
g3191
sg56
(lp3198
S'/init/static/js/web2py.js'
p3199
asbasbasbag49
(g65
g51
NtRp3200
(dp3201
g54
(dp3202
sg63
g3144
sg56
(lp3203
g49
(g70
g51
NtRp3204
(dp3205
g54
(dp3206
sg63
g3200
sg56
(lp3207
g49
(g50
g51
NtRp3208
(dp3209
g54
(dp3210
g62
I4
ssg63
g3204
sg56
(lp3211
S'/init/static/css/skeleton.css'
p3212
asbasbasbag49
(g65
g51
NtRp3213
(dp3214
g54
(dp3215
sg63
g3144
sg56
(lp3216
g49
(g70
g51
NtRp3217
(dp3218
g54
(dp3219
sg63
g3213
sg56
(lp3220
g49
(g50
g51
NtRp3221
(dp3222
g54
(dp3223
g62
I4
ssg63
g3217
sg56
(lp3224
S'/init/static/css/web2py.css'
p3225
asbasbasbag49
(g65
g51
NtRp3226
(dp3227
g54
(dp3228
sg63
g3144
sg56
(lp3229
g49
(g70
g51
NtRp3230
(dp3231
g54
(dp3232
sg63
g3226
sg56
(lp3233
g49
(g50
g51
NtRp3234
(dp3235
g54
(dp3236
g62
I4
ssg63
g3230
sg56
(lp3237
S'/init/static/css/superfish.css'
p3238
asbasbasbag49
(g65
g51
NtRp3239
(dp3240
g54
(dp3241
sg63
g3144
sg56
(lp3242
g49
(g70
g51
NtRp3243
(dp3244
g54
(dp3245
sg63
g3239
sg56
(lp3246
g49
(g50
g51
NtRp3247
(dp3248
g54
(dp3249
g62
I4
ssg63
g3243
sg56
(lp3250
S'/init/static/js/superfish.js'
p3251
asbasbasbasbasbasbasbag49
(g65
g51
NtRp3252
(dp3253
g54
(dp3254
sg63
g2858
sg56
(lp3255
g49
(g70
g51
NtRp3256
(dp3257
g54
(dp3258
g74
g75
ssg63
g3252
sg56
(lp3259
S'flash'
p3260
asbag49
(g70
g51
NtRp3261
(dp3262
g54
(dp3263
g81
g82
ssg63
g3252
sg56
(lp3264
S':'
asbag49
(g70
g51
NtRp3265
(dp3266
g54
(dp3267
sg63
g3252
sg56
(lp3268
g49
(g50
g51
NtRp3269
(dp3270
g54
(dp3271
g62
I5
ssg63
g3265
sg56
(lp3272
S''
asbasbasbag49
(g65
g51
NtRp3273
(dp3274
g54
(dp3275
sg63
g2858
sg56
(lp3276
g49
(g70
g51
NtRp3277
(dp3278
g54
(dp3279
g74
g75
ssg63
g3273
sg56
(lp3280
S'generic_patterns'
p3281
asbag49
(g70
g51
NtRp3282
(dp3283
g54
(dp3284
g81
g82
ssg63
g3273
sg56
(lp3285
S':'
asbag49
(g70
g51
NtRp3286
(dp3287
g54
(dp3288
sg63
g3273
sg56
(lp3289
g49
(g50
g51
NtRp3290
(dp3291
g54
(dp3292
g62
I5
ssg63
g3286
sg56
(lp3293
g49
(g58
g51
NtRp3294
(dp3295
g54
(dp3296
g62
I4
ssg63
Nsg56
(lp3297
g49
(g65
g51
NtRp3298
(dp3299
g54
(dp3300
sg63
g3294
sg56
(lp3301
g49
(g70
g51
NtRp3302
(dp3303
g54
(dp3304
sg63
g3298
sg56
(lp3305
g49
(g50
g51
NtRp3306
(dp3307
g54
(dp3308
g62
I4
ssg63
g3302
sg56
(lp3309
S'*'
asbasbasbasbasbasbasbag49
(g65
g51
NtRp3310
(dp3311
g54
(dp3312
sg63
g2858
sg56
(lp3313
g49
(g70
g51
NtRp3314
(dp3315
g54
(dp3316
g74
g75
ssg63
g3310
sg56
(lp3317
S'headers'
p3318
asbag49
(g70
g51
NtRp3319
(dp3320
g54
(dp3321
g81
g82
ssg63
g3310
sg56
(lp3322
S':'
asbag49
(g70
g51
NtRp3323
(dp3324
g54
(dp3325
sg63
g3310
sg56
(lp3326
g49
(g50
g51
NtRp3327
(dp3328
g54
(dp3329
g62
I5
ssg63
g3323
sg56
(lp3330
g49
(g58
g51
NtRp3331
(dp3332
g54
(dp3333
g62
I4
ssg63
Nsg56
(lp3334
g49
(g65
g51
NtRp3335
(dp3336
g54
(dp3337
sg63
g3331
sg56
(lp3338
g49
(g70
g51
NtRp3339
(dp3340
g54
(dp3341
g74
g75
ssg63
g3335
sg56
(lp3342
S'Cache-Control'
p3343
asbag49
(g70
g51
NtRp3344
(dp3345
g54
(dp3346
g81
g82
ssg63
g3335
sg56
(lp3347
S':'
asbag49
(g70
g51
NtRp3348
(dp3349
g54
(dp3350
sg63
g3335
sg56
(lp3351
g49
(g50
g51
NtRp3352
(dp3353
g54
(dp3354
g62
I4
ssg63
g3348
sg56
(lp3355
S'no-store, no-cache, must-revalidate, post-check=0, pre-check=0'
p3356
asbasbasbag49
(g65
g51
NtRp3357
(dp3358
g54
(dp3359
sg63
g3331
sg56
(lp3360
g49
(g70
g51
NtRp3361
(dp3362
g54
(dp3363
g74
g75
ssg63
g3357
sg56
(lp3364
S'Content-Type'
p3365
asbag49
(g70
g51
NtRp3366
(dp3367
g54
(dp3368
g81
g82
ssg63
g3357
sg56
(lp3369
S':'
asbag49
(g70
g51
NtRp3370
(dp3371
g54
(dp3372
sg63
g3357
sg56
(lp3373
g49
(g50
g51
NtRp3374
(dp3375
g54
(dp3376
g62
I4
ssg63
g3370
sg56
(lp3377
S'text/html; charset=utf-8'
p3378
asbasbasbag49
(g65
g51
NtRp3379
(dp3380
g54
(dp3381
sg63
g3331
sg56
(lp3382
g49
(g70
g51
NtRp3383
(dp3384
g54
(dp3385
g74
g75
ssg63
g3379
sg56
(lp3386
S'Expires'
p3387
asbag49
(g70
g51
NtRp3388
(dp3389
g54
(dp3390
g81
g82
ssg63
g3379
sg56
(lp3391
S':'
asbag49
(g70
g51
NtRp3392
(dp3393
g54
(dp3394
sg63
g3379
sg56
(lp3395
g49
(g50
g51
NtRp3396
(dp3397
g54
(dp3398
g62
I4
ssg63
g3392
sg56
(lp3399
S'Sun, 11 Mar 2012 17:10:48 GMT'
p3400
asbasbasbag49
(g65
g51
NtRp3401
(dp3402
g54
(dp3403
sg63
g3331
sg56
(lp3404
g49
(g70
g51
NtRp3405
(dp3406
g54
(dp3407
g74
g75
ssg63
g3401
sg56
(lp3408
S'Pragma'
p3409
asbag49
(g70
g51
NtRp3410
(dp3411
g54
(dp3412
g81
g82
ssg63
g3401
sg56
(lp3413
S':'
asbag49
(g70
g51
NtRp3414
(dp3415
g54
(dp3416
sg63
g3401
sg56
(lp3417
g49
(g50
g51
NtRp3418
(dp3419
g54
(dp3420
g62
I4
ssg63
g3414
sg56
(lp3421
S'no-cache'
p3422
asbasbasbag49
(g65
g51
NtRp3423
(dp3424
g54
(dp3425
sg63
g3331
sg56
(lp3426
g49
(g70
g51
NtRp3427
(dp3428
g54
(dp3429
g74
g75
ssg63
g3423
sg56
(lp3430
S'X-Powered-By'
p3431
asbag49
(g70
g51
NtRp3432
(dp3433
g54
(dp3434
g81
g82
ssg63
g3423
sg56
(lp3435
S':'
asbag49
(g70
g51
NtRp3436
(dp3437
g54
(dp3438
sg63
g3423
sg56
(lp3439
g49
(g50
g51
NtRp3440
(dp3441
g54
(dp3442
g62
I4
ssg63
g3436
sg56
(lp3443
S'web2py'
p3444
asbasbasbasbasbasbasbag49
(g65
g51
NtRp3445
(dp3446
g54
(dp3447
sg63
g2858
sg56
(lp3448
g49
(g70
g51
NtRp3449
(dp3450
g54
(dp3451
g74
g75
ssg63
g3445
sg56
(lp3452
S'menu'
p3453
asbag49
(g70
g51
NtRp3454
(dp3455
g54
(dp3456
g81
g82
ssg63
g3445
sg56
(lp3457
S':'
asbag49
(g70
g51
NtRp3458
(dp3459
g54
(dp3460
sg63
g3445
sg56
(lp3461
g49
(g50
g51
NtRp3462
(dp3463
g54
(dp3464
g62
I5
ssg63
g3458
sg56
(lp3465
g49
(g58
g51
NtRp3466
(dp3467
g54
(dp3468
g62
I4
ssg63
Nsg56
(lp3469
g49
(g65
g51
NtRp3470
(dp3471
g54
(dp3472
sg63
g3466
sg56
(lp3473
g49
(g70
g51
NtRp3474
(dp3475
g54
(dp3476
sg63
g3470
sg56
(lp3477
g49
(g50
g51
NtRp3478
(dp3479
g54
(dp3480
g62
I4
ssg63
g3474
sg56
(lp3481
g49
(g58
g51
NtRp3482
(dp3483
g54
(dp3484
g62
I3
ssg63
Nsg56
(lp3485
g49
(g65
g51
NtRp3486
(dp3487
g54
(dp3488
sg63
g3482
sg56
(lp3489
g49
(g70
g51
NtRp3490
(dp3491
g54
(dp3492
sg63
g3486
sg56
(lp3493
g49
(g50
g51
NtRp3494
(dp3495
g54
(dp3496
g62
I3
ssg63
g3490
sg56
(lp3497
cgluon.languages
lazyT_unpickle
p3498
(S't\x07\x00\x00\x00Accueil'
tRp3499
asbasbasbag49
(g65
g51
NtRp3500
(dp3501
g54
(dp3502
sg63
g3482
sg56
(lp3503
g49
(g70
g51
NtRp3504
(dp3505
g54
(dp3506
sg63
g3500
sg56
(lp3507
g49
(g50
g51
NtRp3508
(dp3509
g54
(dp3510
g62
I3
ssg63
g3504
sg56
(lp3511
g92
asbasbasbag49
(g65
g51
NtRp3512
(dp3513
g54
(dp3514
sg63
g3482
sg56
(lp3515
g49
(g70
g51
NtRp3516
(dp3517
g54
(dp3518
sg63
g3512
sg56
(lp3519
g49
(g50
g51
NtRp3520
(dp3521
g54
(dp3522
g62
I3
ssg63
g3516
sg56
(lp3523
S'/init/default/index'
p3524
asbasbasbag49
(g65
g51
NtRp3525
(dp3526
g54
(dp3527
sg63
g3482
sg56
(lp3528
g49
(g70
g51
NtRp3529
(dp3530
g54
(dp3531
sg63
g3525
sg56
(lp3532
g49
(g50
g51
NtRp3533
(dp3534
g54
(dp3535
g62
I3
ssg63
g3529
sg56
(lp3536
g49
(g58
g51
NtRp3537
(dp3538
g54
(dp3539
g62
I2
ssg63
Nsg56
(lp3540
sbasbasbasbasbasbasbasbag49
(g65
g51
NtRp3541
(dp3542
g54
(dp3543
sg63
g3466
sg56
(lp3544
g49
(g70
g51
NtRp3545
(dp3546
g54
(dp3547
sg63
g3541
sg56
(lp3548
g49
(g50
g51
NtRp3549
(dp3550
g54
(dp3551
g62
I4
ssg63
g3545
sg56
(lp3552
g49
(g58
g51
NtRp3553
(dp3554
g54
(dp3555
g62
I3
ssg63
Nsg56
(lp3556
g49
(g65
g51
NtRp3557
(dp3558
g54
(dp3559
sg63
g3553
sg56
(lp3560
g49
(g70
g51
NtRp3561
(dp3562
g54
(dp3563
sg63
g3557
sg56
(lp3564
g49
(g50
g51
NtRp3565
(dp3566
g54
(dp3567
g62
I3
ssg63
g3561
sg56
(lp3568
g49
(cgluon.html
SPAN
p3569
g51
NtRp3570
(dp3571
g54
(dp3572
g74
S'color:yellow'
p3573
ssg63
g49
(cgluon.html
A
p3574
g51
NtRp3575
(dp3576
g54
(dp3577
S'_onclick'
p3578
S'javascript:void(0);return false;'
p3579
sS'_href'
p3580
S'#'
ssg63
g49
(cgluon.html
LI
p3581
g51
NtRp3582
(dp3583
g54
(dp3584
S'_class'
p3585
S'web2py-menu-expand'
p3586
ssg63
g49
(cgluon.html
UL
p3587
g51
NtRp3588
(dp3589
g54
(dp3590
S'mobile'
p3591
I00
sS'li_class'
p3592
g3586
sg3585
S'sf-menu'
p3593
sS'ul_class'
p3594
S'web2py-menu-vertical'
p3595
sS'li_active'
p3596
S'web2py-menu-active'
p3597
ssg63
Nsg56
(lp3598
g49
(g3581
g51
NtRp3599
(dp3600
g54
(dp3601
sg63
g3588
sg56
(lp3602
g49
(g3574
g51
NtRp3603
(dp3604
g54
(dp3605
g3580
g3524
ssg63
g3599
sg56
(lp3606
g3499
asbasbag3582
asbsg56
(lp3607
g3575
ag49
(g3587
g51
NtRp3608
(dp3609
g54
(dp3610
g3585
g3595
ssg63
g3582
sg56
(lp3611
g49
(g3581
g51
NtRp3612
(dp3613
g54
(dp3614
sg63
g3608
sg56
(lp3615
g49
(g3574
g51
NtRp3616
(dp3617
g54
(dp3618
g3580
S'/admin/default/site'
p3619
ssg63
g3612
sg56
(lp3620
g3498
(S's\x08\x00\x00\x00My Sites'
tRp3621
asbasbag49
(g3581
g51
NtRp3622
(dp3623
g54
(dp3624
g3585
g3586
ssg63
g3608
sg56
(lp3625
g49
(g3574
g51
NtRp3626
(dp3627
g54
(dp3628
g3580
S'/admin/default/design/init'
p3629
ssg63
g3622
sg56
(lp3630
g3498
(S's\x0b\x00\x00\x00Cette Appli'
tRp3631
asbag49
(g3587
g51
NtRp3632
(dp3633
g54
(dp3634
g3585
g3595
ssg63
g3622
sg56
(lp3635
g49
(g3581
g51
NtRp3636
(dp3637
g54
(dp3638
sg63
g3632
sg56
(lp3639
g49
(g3574
g51
NtRp3640
(dp3641
g54
(dp3642
g3580
S'/admin/default/edit/init/controllers/default.py'
p3643
ssg63
g3636
sg56
(lp3644
g3498
(S's\x0b\x00\x00\x00Contr\xc3\xb4leur'
tRp3645
asbasbag49
(g3581
g51
NtRp3646
(dp3647
g54
(dp3648
sg63
g3632
sg56
(lp3649
g49
(g3574
g51
NtRp3650
(dp3651
g54
(dp3652
g3580
S'/admin/default/edit/init/views/default/addBarcode.html'
p3653
ssg63
g3646
sg56
(lp3654
g3498
(S's\r\x00\x00\x00Pr\xc3\xa9sentation'
tRp3655
asbasbag49
(g3581
g51
NtRp3656
(dp3657
g54
(dp3658
sg63
g3632
sg56
(lp3659
g49
(g3574
g51
NtRp3660
(dp3661
g54
(dp3662
g3580
S'/admin/default/edit/init/views/layout.html'
p3663
ssg63
g3656
sg56
(lp3664
g3498
(S's\x0c\x00\x00\x00Mise en page'
tRp3665
asbasbag49
(g3581
g51
NtRp3666
(dp3667
g54
(dp3668
sg63
g3632
sg56
(lp3669
g49
(g3574
g51
NtRp3670
(dp3671
g54
(dp3672
g3580
S'/admin/default/edit/init/static/css/web2py.css'
p3673
ssg63
g3666
sg56
(lp3674
g3498
(S's\x10\x00\x00\x00Feuille de style'
tRp3675
asbasbag49
(g3581
g51
NtRp3676
(dp3677
g54
(dp3678
sg63
g3632
sg56
(lp3679
g49
(g3574
g51
NtRp3680
(dp3681
g54
(dp3682
g3580
S'/admin/default/edit/init/models/db.py'
p3683
ssg63
g3676
sg56
(lp3684
g3498
(S's\n\x00\x00\x00Mod\xc3\xa8le DB'
tRp3685
asbasbag49
(g3581
g51
NtRp3686
(dp3687
g54
(dp3688
sg63
g3632
sg56
(lp3689
g49
(g3574
g51
NtRp3690
(dp3691
g54
(dp3692
g3580
S'/admin/default/edit/init/models/menu.py'
p3693
ssg63
g3686
sg56
(lp3694
g3498
(S's\x0c\x00\x00\x00Menu mod\xc3\xa8le'
tRp3695
asbasbag49
(g3581
g51
NtRp3696
(dp3697
g54
(dp3698
sg63
g3632
sg56
(lp3699
g49
(g3574
g51
NtRp3700
(dp3701
g54
(dp3702
g3580
S'/init/appadmin/index'
p3703
ssg63
g3696
sg56
(lp3704
g3498
(S's\x10\x00\x00\x00Base de donn\xc3\xa9es'
tRp3705
asbasbag49
(g3581
g51
NtRp3706
(dp3707
g54
(dp3708
sg63
g3632
sg56
(lp3709
g49
(g3574
g51
NtRp3710
(dp3711
g54
(dp3712
g3580
S'/admin/default/errors/init'
p3713
ssg63
g3706
sg56
(lp3714
g3498
(S't\x07\x00\x00\x00Erreurs'
tRp3715
asbasbag49
(g3581
g51
NtRp3716
(dp3717
g54
(dp3718
sg63
g3632
sg56
(lp3719
g49
(g3574
g51
NtRp3720
(dp3721
g54
(dp3722
g3580
S'/admin/default/about/init'
p3723
ssg63
g3716
sg56
(lp3724
g3498
(S's\t\x00\x00\x00\xc3\x80 propos'
tRp3725
asbasbasbasbag49
(g3581
g51
NtRp3726
(dp3727
g54
(dp3728
g3585
g3586
ssg63
g3608
sg56
(lp3729
g49
(g3574
g51
NtRp3730
(dp3731
g54
(dp3732
g3580
S'http://www.web2py.com'
p3733
ssg63
g3726
sg56
(lp3734
S'web2py.com'
p3735
asbag49
(g3587
g51
NtRp3736
(dp3737
g54
(dp3738
g3585
g3595
ssg63
g3726
sg56
(lp3739
g49
(g3581
g51
NtRp3740
(dp3741
g54
(dp3742
sg63
g3736
sg56
(lp3743
g49
(g3574
g51
NtRp3744
(dp3745
g54
(dp3746
g3580
S'http://www.web2py.com/examples/default/download'
p3747
ssg63
g3740
sg56
(lp3748
g3498
(S's\x10\x00\x00\x00T\xc3\xa9l\xc3\xa9chargement'
tRp3749
asbasbag49
(g3581
g51
NtRp3750
(dp3751
g54
(dp3752
sg63
g3736
sg56
(lp3753
g49
(g3574
g51
NtRp3754
(dp3755
g54
(dp3756
g3580
S'http://www.web2py.com/examples/default/support'
p3757
ssg63
g3750
sg56
(lp3758
g3498
(S't\x07\x00\x00\x00Support'
tRp3759
asbasbag49
(g3581
g51
NtRp3760
(dp3761
g54
(dp3762
sg63
g3736
sg56
(lp3763
g49
(g3574
g51
NtRp3764
(dp3765
g54
(dp3766
g3580
S'http://web2py.com/demo_admin'
p3767
ssg63
g3760
sg56
(lp3768
g3498
(S's\x05\x00\x00\x00D\xc3\xa9mo'
tRp3769
asbasbag49
(g3581
g51
NtRp3770
(dp3771
g54
(dp3772
sg63
g3736
sg56
(lp3773
g49
(g3574
g51
NtRp3774
(dp3775
g54
(dp3776
g3580
S'http://web2py.com/examples/default/examples'
p3777
ssg63
g3770
sg56
(lp3778
g3498
(S's\x10\x00\x00\x00Examples Rapides'
tRp3779
asbasbag49
(g3581
g51
NtRp3780
(dp3781
g54
(dp3782
sg63
g3736
sg56
(lp3783
g49
(g3574
g51
NtRp3784
(dp3785
g54
(dp3786
g3580
S'http://web2py.com/AlterEgo'
p3787
ssg63
g3780
sg56
(lp3788
g3498
(S't\x03\x00\x00\x00FAQ'
tRp3789
asbasbag49
(g3581
g51
NtRp3790
(dp3791
g54
(dp3792
sg63
g3736
sg56
(lp3793
g49
(g3574
g51
NtRp3794
(dp3795
g54
(dp3796
g3580
S'http://www.web2py.com/examples/default/videos/'
p3797
ssg63
g3790
sg56
(lp3798
g3498
(S's\x07\x00\x00\x00Vid\xc3\xa9os'
tRp3799
asbasbag49
(g3581
g51
NtRp3800
(dp3801
g54
(dp3802
sg63
g3736
sg56
(lp3803
g49
(g3574
g51
NtRp3804
(dp3805
g54
(dp3806
g3580
S'http://web2py.com/appliances'
p3807
ssg63
g3800
sg56
(lp3808
g3498
(S's\x16\x00\x00\x00Applications gratuites'
tRp3809
asbasbag49
(g3581
g51
NtRp3810
(dp3811
g54
(dp3812
sg63
g3736
sg56
(lp3813
g49
(g3574
g51
NtRp3814
(dp3815
g54
(dp3816
g3580
S'http://web2py.com/plugins'
p3817
ssg63
g3810
sg56
(lp3818
g3498
(S't\n\x00\x00\x00Plugiciels'
tRp3819
asbasbag49
(g3581
g51
NtRp3820
(dp3821
g54
(dp3822
sg63
g3736
sg56
(lp3823
g49
(g3574
g51
NtRp3824
(dp3825
g54
(dp3826
g3580
S'http://web2py.com/layouts'
p3827
ssg63
g3820
sg56
(lp3828
g3498
(S't\x07\x00\x00\x00Layouts'
tRp3829
asbasbag49
(g3581
g51
NtRp3830
(dp3831
g54
(dp3832
sg63
g3736
sg56
(lp3833
g49
(g3574
g51
NtRp3834
(dp3835
g54
(dp3836
g3580
S'http://web2pyslices.com/'
p3837
ssg63
g3830
sg56
(lp3838
g3498
(S't\x08\x00\x00\x00Recettes'
tRp3839
asbasbag49
(g3581
g51
NtRp3840
(dp3841
g54
(dp3842
sg63
g3736
sg56
(lp3843
g49
(g3574
g51
NtRp3844
(dp3845
g54
(dp3846
g3580
S'http://web2py.com/semantic'
p3847
ssg63
g3840
sg56
(lp3848
g3498
(S's\x0b\x00\x00\x00S\xc3\xa9mantique'
tRp3849
asbasbasbasbag49
(g3581
g51
NtRp3850
(dp3851
g54
(dp3852
g3585
g3586
ssg63
g3608
sg56
(lp3853
g49
(g3574
g51
NtRp3854
(dp3855
g54
(dp3856
g3580
S'http://www.web2py.com/book'
p3857
ssg63
g3850
sg56
(lp3858
g3498
(S't\r\x00\x00\x00Documentation'
tRp3859
asbag49
(g3587
g51
NtRp3860
(dp3861
g54
(dp3862
g3585
g3595
ssg63
g3850
sg56
(lp3863
g49
(g3581
g51
NtRp3864
(dp3865
g54
(dp3866
sg63
g3860
sg56
(lp3867
g49
(g3574
g51
NtRp3868
(dp3869
g54
(dp3870
g3580
S'http://www.web2py.com/book/default/chapter/00'
p3871
ssg63
g3864
sg56
(lp3872
g3498
(S's\x08\x00\x00\x00Pr\xc3\xa9face'
tRp3873
asbasbag49
(g3581
g51
NtRp3874
(dp3875
g54
(dp3876
sg63
g3860
sg56
(lp3877
g49
(g3574
g51
NtRp3878
(dp3879
g54
(dp3880
g3580
S'http://www.web2py.com/book/default/chapter/01'
p3881
ssg63
g3874
sg56
(lp3882
g3498
(S't\x0c\x00\x00\x00Introduction'
tRp3883
asbasbag49
(g3581
g51
NtRp3884
(dp3885
g54
(dp3886
sg63
g3860
sg56
(lp3887
g49
(g3574
g51
NtRp3888
(dp3889
g54
(dp3890
g3580
S'http://www.web2py.com/book/default/chapter/02'
p3891
ssg63
g3884
sg56
(lp3892
g3498
(S't\x06\x00\x00\x00Python'
tRp3893
asbasbag49
(g3581
g51
NtRp3894
(dp3895
g54
(dp3896
sg63
g3860
sg56
(lp3897
g49
(g3574
g51
NtRp3898
(dp3899
g54
(dp3900
g3580
S'http://www.web2py.com/book/default/chapter/03'
p3901
ssg63
g3894
sg56
(lp3902
g3498
(S's\r\x00\x00\x00Pr\xc3\xa9sentation'
tRp3903
asbasbag49
(g3581
g51
NtRp3904
(dp3905
g54
(dp3906
sg63
g3860
sg56
(lp3907
g49
(g3574
g51
NtRp3908
(dp3909
g54
(dp3910
g3580
S'http://www.web2py.com/book/default/chapter/04'
p3911
ssg63
g3904
sg56
(lp3912
g3498
(S's\x08\x00\x00\x00Le noyau'
tRp3913
asbasbag49
(g3581
g51
NtRp3914
(dp3915
g54
(dp3916
sg63
g3860
sg56
(lp3917
g49
(g3574
g51
NtRp3918
(dp3919
g54
(dp3920
g3580
S'http://www.web2py.com/book/default/chapter/05'
p3921
ssg63
g3914
sg56
(lp3922
g3498
(S's\x08\x00\x00\x00Les Vues'
tRp3923
asbasbag49
(g3581
g51
NtRp3924
(dp3925
g54
(dp3926
sg63
g3860
sg56
(lp3927
g49
(g3574
g51
NtRp3928
(dp3929
g54
(dp3930
g3580
S'http://www.web2py.com/book/default/chapter/06'
p3931
ssg63
g3924
sg56
(lp3932
g3498
(S's\x10\x00\x00\x00Base de donn\xc3\xa9es'
tRp3933
asbasbag49
(g3581
g51
NtRp3934
(dp3935
g54
(dp3936
sg63
g3860
sg56
(lp3937
g49
(g3574
g51
NtRp3938
(dp3939
g54
(dp3940
g3580
S'http://www.web2py.com/book/default/chapter/07'
p3941
ssg63
g3934
sg56
(lp3942
g3498
(S's\x1a\x00\x00\x00Formulaires et Validateurs'
tRp3943
asbasbag49
(g3581
g51
NtRp3944
(dp3945
g54
(dp3946
sg63
g3860
sg56
(lp3947
g49
(g3574
g51
NtRp3948
(dp3949
g54
(dp3950
g3580
S'http://www.web2py.com/book/default/chapter/08'
p3951
ssg63
g3944
sg56
(lp3952
g3498
(S's\r\x00\x00\x00Email and SMS'
tRp3953
asbasbag49
(g3581
g51
NtRp3954
(dp3955
g54
(dp3956
sg63
g3860
sg56
(lp3957
g49
(g3574
g51
NtRp3958
(dp3959
g54
(dp3960
g3580
S'http://www.web2py.com/book/default/chapter/09'
p3961
ssg63
g3954
sg56
(lp3962
g3498
(S"s\x12\x00\x00\x00Contr\xc3\xb4le d'acc\xc3\xa8s"
tRp3963
asbasbag49
(g3581
g51
NtRp3964
(dp3965
g54
(dp3966
sg63
g3860
sg56
(lp3967
g49
(g3574
g51
NtRp3968
(dp3969
g54
(dp3970
g3580
S'http://www.web2py.com/book/default/chapter/10'
p3971
ssg63
g3964
sg56
(lp3972
g3498
(S't\x08\x00\x00\x00Services'
tRp3973
asbasbag49
(g3581
g51
NtRp3974
(dp3975
g54
(dp3976
sg63
g3860
sg56
(lp3977
g49
(g3574
g51
NtRp3978
(dp3979
g54
(dp3980
g3580
S'http://www.web2py.com/book/default/chapter/11'
p3981
ssg63
g3974
sg56
(lp3982
g3498
(S's\r\x00\x00\x00Recettes Ajax'
tRp3983
asbasbag49
(g3581
g51
NtRp3984
(dp3985
g54
(dp3986
sg63
g3860
sg56
(lp3987
g49
(g3574
g51
NtRp3988
(dp3989
g54
(dp3990
g3580
S'http://www.web2py.com/book/default/chapter/12'
p3991
ssg63
g3984
sg56
(lp3992
g3498
(S's\x16\x00\x00\x00Components and Plugins'
tRp3993
asbasbag49
(g3581
g51
NtRp3994
(dp3995
g54
(dp3996
sg63
g3860
sg56
(lp3997
g49
(g3574
g51
NtRp3998
(dp3999
g54
(dp4000
g3580
S'http://www.web2py.com/book/default/chapter/13'
p4001
ssg63
g3994
sg56
(lp4002
g3498
(S's\x18\x00\x00\x00Recettes de d\xc3\xa9ploiement'
tRp4003
asbasbag49
(g3581
g51
NtRp4004
(dp4005
g54
(dp4006
sg63
g3860
sg56
(lp4007
g49
(g3574
g51
NtRp4008
(dp4009
g54
(dp4010
g3580
S'http://www.web2py.com/book/default/chapter/14'
p4011
ssg63
g4004
sg56
(lp4012
g3498
(S's\x0f\x00\x00\x00Autres recettes'
tRp4013
asbasbag49
(g3581
g51
NtRp4014
(dp4015
g54
(dp4016
sg63
g3860
sg56
(lp4017
g49
(g3574
g51
NtRp4018
(dp4019
g54
(dp4020
g3580
S'http://stores.lulu.com/web2py'
p4021
ssg63
g4014
sg56
(lp4022
g3498
(S's\x10\x00\x00\x00Acheter ce livre'
tRp4023
asbasbasbasbag49
(g3581
g51
NtRp4024
(dp4025
g54
(dp4026
g3585
g3586
ssg63
g3608
sg56
(lp4027
g49
(g3574
g51
NtRp4028
(dp4029
g54
(dp4030
g3578
g3579
sg3580
S'#'
ssg63
g4024
sg56
(lp4031
g3498
(S's\x0b\x00\x00\x00Communaut\xc3\xa9'
tRp4032
asbag49
(g3587
g51
NtRp4033
(dp4034
g54
(dp4035
g3585
g3595
ssg63
g4024
sg56
(lp4036
g49
(g3581
g51
NtRp4037
(dp4038
g54
(dp4039
sg63
g4033
sg56
(lp4040
g49
(g3574
g51
NtRp4041
(dp4042
g54
(dp4043
g3580
S'http://www.web2py.com/examples/default/usergroups'
p4044
ssg63
g4037
sg56
(lp4045
g3498
(S't\x06\x00\x00\x00Groups'
tRp4046
asbasbag49
(g3581
g51
NtRp4047
(dp4048
g54
(dp4049
sg63
g4033
sg56
(lp4050
g49
(g3574
g51
NtRp4051
(dp4052
g54
(dp4053
g3580
S'http://twitter.com/web2py'
p4054
ssg63
g4047
sg56
(lp4055
g3498
(S't\x07\x00\x00\x00Twitter'
tRp4056
asbasbag49
(g3581
g51
NtRp4057
(dp4058
g54
(dp4059
sg63
g4033
sg56
(lp4060
g49
(g3574
g51
NtRp4061
(dp4062
g54
(dp4063
g3580
S'http://webchat.freenode.net/?channels=web2py'
p4064
ssg63
g4057
sg56
(lp4065
g3498
(S's\t\x00\x00\x00Live Chat'
tRp4066
asbasbasbasbag49
(g3581
g51
NtRp4067
(dp4068
g54
(dp4069
g3585
g3586
ssg63
g3608
sg56
(lp4070
g49
(g3574
g51
NtRp4071
(dp4072
g54
(dp4073
g3578
g3579
sg3580
S'#'
ssg63
g4067
sg56
(lp4074
g3498
(S't\n\x00\x00\x00Plugiciels'
tRp4075
asbag49
(g3587
g51
NtRp4076
(dp4077
g54
(dp4078
g3585
g3595
ssg63
g4067
sg56
(lp4079
g49
(g3581
g51
NtRp4080
(dp4081
g54
(dp4082
sg63
g4076
sg56
(lp4083
g49
(g3574
g51
NtRp4084
(dp4085
g54
(dp4086
g3580
S'http://web2py.com/examples/default/download'
p4087
ssg63
g4080
sg56
(lp4088
S'plugin_wiki'
p4089
asbasbag49
(g3581
g51
NtRp4090
(dp4091
g54
(dp4092
sg63
g4076
sg56
(lp4093
g49
(g3574
g51
NtRp4094
(dp4095
g54
(dp4096
g3580
g3817
ssg63
g4090
sg56
(lp4097
g3498
(S's\r\x00\x00\x00Other Plugins'
tRp4098
asbasbag49
(g3581
g51
NtRp4099
(dp4100
g54
(dp4101
sg63
g4076
sg56
(lp4102
g49
(g3574
g51
NtRp4103
(dp4104
g54
(dp4105
g3580
g3827
ssg63
g4099
sg56
(lp4106
g3498
(S's\x0e\x00\x00\x00Layout Plugins'
tRp4107
asbasbasbasbasbasbsg56
(lp4108
g3570
asbsg56
(lp4109
g3444
asbasbasbasbag49
(g65
g51
NtRp4110
(dp4111
g54
(dp4112
sg63
g3553
sg56
(lp4113
g49
(g70
g51
NtRp4114
(dp4115
g54
(dp4116
sg63
g4110
sg56
(lp4117
g49
(g50
g51
NtRp4118
(dp4119
g54
(dp4120
g62
I3
ssg63
g4114
sg56
(lp4121
g92
asbasbasbag49
(g65
g51
NtRp4122
(dp4123
g54
(dp4124
sg63
g3553
sg56
(lp4125
g49
(g70
g51
NtRp4126
(dp4127
g54
(dp4128
sg63
g4122
sg56
(lp4129
g49
(g50
g51
NtRp4130
(dp4131
g54
(dp4132
g62
I3
ssg63
g4126
sg56
(lp4133
S'None'
p4134
asbasbasbag49
(g65
g51
NtRp4135
(dp4136
g54
(dp4137
sg63
g3553
sg56
(lp4138
g49
(g70
g51
NtRp4139
(dp4140
g54
(dp4141
sg63
g4135
sg56
(lp4142
g49
(g50
g51
NtRp4143
(dp4144
g54
(dp4145
g62
I3
ssg63
g4139
sg56
(lp4146
g49
(g58
g51
NtRp4147
(dp4148
g54
(dp4149
g62
I2
ssg63
Nsg56
(lp4150
g49
(g65
g51
NtRp4151
(dp4152
g54
(dp4153
sg63
g4147
sg56
(lp4154
g49
(g70
g51
NtRp4155
(dp4156
g54
(dp4157
sg63
g4151
sg56
(lp4158
g49
(g50
g51
NtRp4159
(dp4160
g54
(dp4161
g62
I2
ssg63
g4155
sg56
(lp4162
g49
(g58
g51
NtRp4163
(dp4164
g54
(dp4165
g62
I1
ssg63
Nsg56
(lp4166
g49
(g65
g51
NtRp4167
(dp4168
g54
(dp4169
sg63
g4163
sg56
(lp4170
g49
(g70
g51
NtRp4171
(dp4172
g54
(dp4173
sg63
g4167
sg56
(lp4174
g49
(g50
g51
NtRp4175
(dp4176
g54
(dp4177
g62
I1
ssg63
g4171
sg56
(lp4178
g3621
asbasbasbag49
(g65
g51
NtRp4179
(dp4180
g54
(dp4181
sg63
g4163
sg56
(lp4182
g49
(g70
g51
NtRp4183
(dp4184
g54
(dp4185
sg63
g4179
sg56
(lp4186
g49
(g50
g51
NtRp4187
(dp4188
g54
(dp4189
g62
I1
ssg63
g4183
sg56
(lp4190
I00
asbasbasbag49
(g65
g51
NtRp4191
(dp4192
g54
(dp4193
sg63
g4163
sg56
(lp4194
g49
(g70
g51
NtRp4195
(dp4196
g54
(dp4197
sg63
g4191
sg56
(lp4198
g49
(g50
g51
NtRp4199
(dp4200
g54
(dp4201
g62
I1
ssg63
g4195
sg56
(lp4202
g3619
asbasbasbasbasbasbasbag49
(g65
g51
NtRp4203
(dp4204
g54
(dp4205
sg63
g4147
sg56
(lp4206
g49
(g70
g51
NtRp4207
(dp4208
g54
(dp4209
sg63
g4203
sg56
(lp4210
g49
(g50
g51
NtRp4211
(dp4212
g54
(dp4213
g62
I2
ssg63
g4207
sg56
(lp4214
g49
(g58
g51
NtRp4215
(dp4216
g54
(dp4217
g62
I1
ssg63
Nsg56
(lp4218
g49
(g65
g51
NtRp4219
(dp4220
g54
(dp4221
sg63
g4215
sg56
(lp4222
g49
(g70
g51
NtRp4223
(dp4224
g54
(dp4225
sg63
g4219
sg56
(lp4226
g49
(g50
g51
NtRp4227
(dp4228
g54
(dp4229
g62
I1
ssg63
g4223
sg56
(lp4230
g3631
asbasbasbag49
(g65
g51
NtRp4231
(dp4232
g54
(dp4233
sg63
g4215
sg56
(lp4234
g49
(g70
g51
NtRp4235
(dp4236
g54
(dp4237
sg63
g4231
sg56
(lp4238
g49
(g50
g51
NtRp4239
(dp4240
g54
(dp4241
g62
I1
ssg63
g4235
sg56
(lp4242
I00
asbasbasbag49
(g65
g51
NtRp4243
(dp4244
g54
(dp4245
sg63
g4215
sg56
(lp4246
g49
(g70
g51
NtRp4247
(dp4248
g54
(dp4249
sg63
g4243
sg56
(lp4250
g49
(g50
g51
NtRp4251
(dp4252
g54
(dp4253
g62
I1
ssg63
g4247
sg56
(lp4254
g3629
asbasbasbag49
(g65
g51
NtRp4255
(dp4256
g54
(dp4257
sg63
g4215
sg56
(lp4258
g49
(g70
g51
NtRp4259
(dp4260
g54
(dp4261
sg63
g4255
sg56
(lp4262
g49
(g50
g51
NtRp4263
(dp4264
g54
(dp4265
g62
I1
ssg63
g4259
sg56
(lp4266
(lp4267
(g3645
I00
g3643
tp4268
a(g3655
I00
g3653
tp4269
a(g3665
I00
g3663
tp4270
a(g3675
I00
g3673
tp4271
a(g3685
I00
g3683
tp4272
a(g3695
I00
g3693
tp4273
a(g3705
I00
g3703
tp4274
a(g3715
I00
g3713
tp4275
a(g3725
I00
g3723
tp4276
aasbasbasbasbasbasbasbag49
(g65
g51
NtRp4277
(dp4278
g54
(dp4279
sg63
g4147
sg56
(lp4280
g49
(g70
g51
NtRp4281
(dp4282
g54
(dp4283
sg63
g4277
sg56
(lp4284
g49
(g50
g51
NtRp4285
(dp4286
g54
(dp4287
g62
I2
ssg63
g4281
sg56
(lp4288
g49
(g58
g51
NtRp4289
(dp4290
g54
(dp4291
g62
I1
ssg63
Nsg56
(lp4292
g49
(g65
g51
NtRp4293
(dp4294
g54
(dp4295
sg63
g4289
sg56
(lp4296
g49
(g70
g51
NtRp4297
(dp4298
g54
(dp4299
sg63
g4293
sg56
(lp4300
g49
(g50
g51
NtRp4301
(dp4302
g54
(dp4303
g62
I1
ssg63
g4297
sg56
(lp4304
g3735
asbasbasbag49
(g65
g51
NtRp4305
(dp4306
g54
(dp4307
sg63
g4289
sg56
(lp4308
g49
(g70
g51
NtRp4309
(dp4310
g54
(dp4311
sg63
g4305
sg56
(lp4312
g49
(g50
g51
NtRp4313
(dp4314
g54
(dp4315
g62
I1
ssg63
g4309
sg56
(lp4316
I00
asbasbasbag49
(g65
g51
NtRp4317
(dp4318
g54
(dp4319
sg63
g4289
sg56
(lp4320
g49
(g70
g51
NtRp4321
(dp4322
g54
(dp4323
sg63
g4317
sg56
(lp4324
g49
(g50
g51
NtRp4325
(dp4326
g54
(dp4327
g62
I1
ssg63
g4321
sg56
(lp4328
g3733
asbasbasbag49
(g65
g51
NtRp4329
(dp4330
g54
(dp4331
sg63
g4289
sg56
(lp4332
g49
(g70
g51
NtRp4333
(dp4334
g54
(dp4335
sg63
g4329
sg56
(lp4336
g49
(g50
g51
NtRp4337
(dp4338
g54
(dp4339
g62
I1
ssg63
g4333
sg56
(lp4340
(lp4341
(g3749
I00
g3747
tp4342
a(g3759
I00
g3757
tp4343
a(g3769
I00
g3767
tp4344
a(g3779
I00
g3777
tp4345
a(g3789
I00
g3787
tp4346
a(g3799
I00
g3797
tp4347
a(g3809
I00
g3807
tp4348
a(g3819
I00
g3817
tp4349
a(g3829
I00
g3827
tp4350
a(g3839
I00
g3837
tp4351
a(g3849
I00
g3847
tp4352
aasbasbasbasbasbasbasbag49
(g65
g51
NtRp4353
(dp4354
g54
(dp4355
sg63
g4147
sg56
(lp4356
g49
(g70
g51
NtRp4357
(dp4358
g54
(dp4359
sg63
g4353
sg56
(lp4360
g49
(g50
g51
NtRp4361
(dp4362
g54
(dp4363
g62
I2
ssg63
g4357
sg56
(lp4364
g49
(g58
g51
NtRp4365
(dp4366
g54
(dp4367
g62
I1
ssg63
Nsg56
(lp4368
g49
(g65
g51
NtRp4369
(dp4370
g54
(dp4371
sg63
g4365
sg56
(lp4372
g49
(g70
g51
NtRp4373
(dp4374
g54
(dp4375
sg63
g4369
sg56
(lp4376
g49
(g50
g51
NtRp4377
(dp4378
g54
(dp4379
g62
I1
ssg63
g4373
sg56
(lp4380
g3859
asbasbasbag49
(g65
g51
NtRp4381
(dp4382
g54
(dp4383
sg63
g4365
sg56
(lp4384
g49
(g70
g51
NtRp4385
(dp4386
g54
(dp4387
sg63
g4381
sg56
(lp4388
g49
(g50
g51
NtRp4389
(dp4390
g54
(dp4391
g62
I1
ssg63
g4385
sg56
(lp4392
I00
asbasbasbag49
(g65
g51
NtRp4393
(dp4394
g54
(dp4395
sg63
g4365
sg56
(lp4396
g49
(g70
g51
NtRp4397
(dp4398
g54
(dp4399
sg63
g4393
sg56
(lp4400
g49
(g50
g51
NtRp4401
(dp4402
g54
(dp4403
g62
I1
ssg63
g4397
sg56
(lp4404
g3857
asbasbasbag49
(g65
g51
NtRp4405
(dp4406
g54
(dp4407
sg63
g4365
sg56
(lp4408
g49
(g70
g51
NtRp4409
(dp4410
g54
(dp4411
sg63
g4405
sg56
(lp4412
g49
(g50
g51
NtRp4413
(dp4414
g54
(dp4415
g62
I1
ssg63
g4409
sg56
(lp4416
(lp4417
(g3873
I00
g3871
tp4418
a(g3883
I00
g3881
tp4419
a(g3893
I00
g3891
tp4420
a(g3903
I00
g3901
tp4421
a(g3913
I00
g3911
tp4422
a(g3923
I00
g3921
tp4423
a(g3933
I00
g3931
tp4424
a(g3943
I00
g3941
tp4425
a(g3953
I00
g3951
tp4426
a(g3963
I00
g3961
tp4427
a(g3973
I00
g3971
tp4428
a(g3983
I00
g3981
tp4429
a(g3993
I00
g3991
tp4430
a(g4003
I00
g4001
tp4431
a(g4013
I00
g4011
tp4432
a(g4023
I00
g4021
tp4433
aasbasbasbasbasbasbasbag49
(g65
g51
NtRp4434
(dp4435
g54
(dp4436
sg63
g4147
sg56
(lp4437
g49
(g70
g51
NtRp4438
(dp4439
g54
(dp4440
sg63
g4434
sg56
(lp4441
g49
(g50
g51
NtRp4442
(dp4443
g54
(dp4444
g62
I2
ssg63
g4438
sg56
(lp4445
g49
(g58
g51
NtRp4446
(dp4447
g54
(dp4448
g62
I1
ssg63
Nsg56
(lp4449
g49
(g65
g51
NtRp4450
(dp4451
g54
(dp4452
sg63
g4446
sg56
(lp4453
g49
(g70
g51
NtRp4454
(dp4455
g54
(dp4456
sg63
g4450
sg56
(lp4457
g49
(g50
g51
NtRp4458
(dp4459
g54
(dp4460
g62
I1
ssg63
g4454
sg56
(lp4461
g4032
asbasbasbag49
(g65
g51
NtRp4462
(dp4463
g54
(dp4464
sg63
g4446
sg56
(lp4465
g49
(g70
g51
NtRp4466
(dp4467
g54
(dp4468
sg63
g4462
sg56
(lp4469
g49
(g50
g51
NtRp4470
(dp4471
g54
(dp4472
g62
I1
ssg63
g4466
sg56
(lp4473
I00
asbasbasbag49
(g65
g51
NtRp4474
(dp4475
g54
(dp4476
sg63
g4446
sg56
(lp4477
g49
(g70
g51
NtRp4478
(dp4479
g54
(dp4480
sg63
g4474
sg56
(lp4481
g49
(g50
g51
NtRp4482
(dp4483
g54
(dp4484
g62
I1
ssg63
g4478
sg56
(lp4485
Nasbasbasbag49
(g65
g51
NtRp4486
(dp4487
g54
(dp4488
sg63
g4446
sg56
(lp4489
g49
(g70
g51
NtRp4490
(dp4491
g54
(dp4492
sg63
g4486
sg56
(lp4493
g49
(g50
g51
NtRp4494
(dp4495
g54
(dp4496
g62
I1
ssg63
g4490
sg56
(lp4497
(lp4498
(g4046
I00
g4044
tp4499
a(g4056
I00
g4054
tp4500
a(g4066
I00
g4064
tp4501
aasbasbasbasbasbasbasbag49
(g65
g51
NtRp4502
(dp4503
g54
(dp4504
sg63
g4147
sg56
(lp4505
g49
(g70
g51
NtRp4506
(dp4507
g54
(dp4508
sg63
g4502
sg56
(lp4509
g49
(g50
g51
NtRp4510
(dp4511
g54
(dp4512
g62
I2
ssg63
g4506
sg56
(lp4513
g49
(g58
g51
NtRp4514
(dp4515
g54
(dp4516
g62
I1
ssg63
Nsg56
(lp4517
g49
(g65
g51
NtRp4518
(dp4519
g54
(dp4520
sg63
g4514
sg56
(lp4521
g49
(g70
g51
NtRp4522
(dp4523
g54
(dp4524
sg63
g4518
sg56
(lp4525
g49
(g50
g51
NtRp4526
(dp4527
g54
(dp4528
g62
I1
ssg63
g4522
sg56
(lp4529
g4075
asbasbasbag49
(g65
g51
NtRp4530
(dp4531
g54
(dp4532
sg63
g4514
sg56
(lp4533
g49
(g70
g51
NtRp4534
(dp4535
g54
(dp4536
sg63
g4530
sg56
(lp4537
g49
(g50
g51
NtRp4538
(dp4539
g54
(dp4540
g62
I1
ssg63
g4534
sg56
(lp4541
I00
asbasbasbag49
(g65
g51
NtRp4542
(dp4543
g54
(dp4544
sg63
g4514
sg56
(lp4545
g49
(g70
g51
NtRp4546
(dp4547
g54
(dp4548
sg63
g4542
sg56
(lp4549
g49
(g50
g51
NtRp4550
(dp4551
g54
(dp4552
g62
I1
ssg63
g4546
sg56
(lp4553
Nasbasbasbag49
(g65
g51
NtRp4554
(dp4555
g54
(dp4556
sg63
g4514
sg56
(lp4557
g49
(g70
g51
NtRp4558
(dp4559
g54
(dp4560
sg63
g4554
sg56
(lp4561
g49
(g50
g51
NtRp4562
(dp4563
g54
(dp4564
g62
I1
ssg63
g4558
sg56
(lp4565
(lp4566
(g4089
I00
g4087
tp4567
a(g4098
I00
g3817
tp4568
a(g4107
I00
g3827
tp4569
aasbasbasbasbasbasbasbasbasbasbasbasbasbasbasbasbasbasbasbag49
(g65
g51
NtRp4570
(dp4571
g54
(dp4572
sg63
g2858
sg56
(lp4573
g49
(g70
g51
NtRp4574
(dp4575
g54
(dp4576
g74
g75
ssg63
g4570
sg56
(lp4577
S'meta'
p4578
asbag49
(g70
g51
NtRp4579
(dp4580
g54
(dp4581
g81
g82
ssg63
g4570
sg56
(lp4582
S':'
asbag49
(g70
g51
NtRp4583
(dp4584
g54
(dp4585
sg63
g4570
sg56
(lp4586
g49
(g50
g51
NtRp4587
(dp4588
g54
(dp4589
g62
I5
ssg63
g4583
sg56
(lp4590
g49
(g58
g51
NtRp4591
(dp4592
g54
(dp4593
g62
I4
ssg63
Nsg56
(lp4594
g49
(g65
g51
NtRp4595
(dp4596
g54
(dp4597
sg63
g4591
sg56
(lp4598
g49
(g70
g51
NtRp4599
(dp4600
g54
(dp4601
g74
g75
ssg63
g4595
sg56
(lp4602
S'author'
p4603
asbag49
(g70
g51
NtRp4604
(dp4605
g54
(dp4606
g81
g82
ssg63
g4595
sg56
(lp4607
S':'
asbag49
(g70
g51
NtRp4608
(dp4609
g54
(dp4610
sg63
g4595
sg56
(lp4611
g49
(g50
g51
NtRp4612
(dp4613
g54
(dp4614
g62
I4
ssg63
g4608
sg56
(lp4615
S'Your Name <you@example.com>'
p4616
asbasbasbag49
(g65
g51
NtRp4617
(dp4618
g54
(dp4619
sg63
g4591
sg56
(lp4620
g49
(g70
g51
NtRp4621
(dp4622
g54
(dp4623
g74
g75
ssg63
g4617
sg56
(lp4624
S'copyright'
p4625
asbag49
(g70
g51
NtRp4626
(dp4627
g54
(dp4628
g81
g82
ssg63
g4617
sg56
(lp4629
S':'
asbag49
(g70
g51
NtRp4630
(dp4631
g54
(dp4632
sg63
g4617
sg56
(lp4633
g49
(g50
g51
NtRp4634
(dp4635
g54
(dp4636
g62
I4
ssg63
g4630
sg56
(lp4637
S'Copyright 2011'
p4638
asbasbasbag49
(g65
g51
NtRp4639
(dp4640
g54
(dp4641
sg63
g4591
sg56
(lp4642
g49
(g70
g51
NtRp4643
(dp4644
g54
(dp4645
g74
g75
ssg63
g4639
sg56
(lp4646
S'description'
p4647
asbag49
(g70
g51
NtRp4648
(dp4649
g54
(dp4650
g81
g82
ssg63
g4639
sg56
(lp4651
S':'
asbag49
(g70
g51
NtRp4652
(dp4653
g54
(dp4654
sg63
g4639
sg56
(lp4655
g49
(g50
g51
NtRp4656
(dp4657
g54
(dp4658
g62
I4
ssg63
g4652
sg56
(lp4659
S'a cool new app'
p4660
asbasbasbag49
(g65
g51
NtRp4661
(dp4662
g54
(dp4663
sg63
g4591
sg56
(lp4664
g49
(g70
g51
NtRp4665
(dp4666
g54
(dp4667
g74
g75
ssg63
g4661
sg56
(lp4668
S'generator'
p4669
asbag49
(g70
g51
NtRp4670
(dp4671
g54
(dp4672
g81
g82
ssg63
g4661
sg56
(lp4673
S':'
asbag49
(g70
g51
NtRp4674
(dp4675
g54
(dp4676
sg63
g4661
sg56
(lp4677
g49
(g50
g51
NtRp4678
(dp4679
g54
(dp4680
g62
I4
ssg63
g4674
sg56
(lp4681
S'Web2py Web Framework'
p4682
asbasbasbag49
(g65
g51
NtRp4683
(dp4684
g54
(dp4685
sg63
g4591
sg56
(lp4686
g49
(g70
g51
NtRp4687
(dp4688
g54
(dp4689
g74
g75
ssg63
g4683
sg56
(lp4690
S'keywords'
p4691
asbag49
(g70
g51
NtRp4692
(dp4693
g54
(dp4694
g81
g82
ssg63
g4683
sg56
(lp4695
S':'
asbag49
(g70
g51
NtRp4696
(dp4697
g54
(dp4698
sg63
g4683
sg56
(lp4699
g49
(g50
g51
NtRp4700
(dp4701
g54
(dp4702
g62
I4
ssg63
g4696
sg56
(lp4703
S'web2py, python, framework'
p4704
asbasbasbasbasbasbasbag49
(g65
g51
NtRp4705
(dp4706
g54
(dp4707
sg63
g2858
sg56
(lp4708
g49
(g70
g51
NtRp4709
(dp4710
g54
(dp4711
g74
g75
ssg63
g4705
sg56
(lp4712
S'postprocessing'
p4713
asbag49
(g70
g51
NtRp4714
(dp4715
g54
(dp4716
g81
g82
ssg63
g4705
sg56
(lp4717
S':'
asbag49
(g70
g51
NtRp4718
(dp4719
g54
(dp4720
sg63
g4705
sg56
(lp4721
g49
(g50
g51
NtRp4722
(dp4723
g54
(dp4724
g62
I5
ssg63
g4718
sg56
(lp4725
g49
(g58
g51
NtRp4726
(dp4727
g54
(dp4728
g62
I4
ssg63
Nsg56
(lp4729
sbasbasbasbag49
(g65
g51
NtRp4730
(dp4731
g54
(dp4732
sg63
g2858
sg56
(lp4733
g49
(g70
g51
NtRp4734
(dp4735
g54
(dp4736
g74
g75
ssg63
g4730
sg56
(lp4737
S'session_file'
p4738
asbag49
(g70
g51
NtRp4739
(dp4740
g54
(dp4741
g81
g82
ssg63
g4730
sg56
(lp4742
S':'
asbag49
(g70
g51
NtRp4743
(dp4744
g54
(dp4745
sg63
g4730
sg56
(lp4746
g49
(g50
g51
NtRp4747
(dp4748
g54
(dp4749
g62
I5
ssg63
g4743
sg56
(lp4750
S"<open file 'C:\\Users\\Bussiere\\Dropbox\\Projets\\Yuki\\web2py\\applications\\init\\sessions\\127.0.0.1-05546599-82c3-44a9-b36b-68629a143195', mode 'rb+' at 0x077C4EC0>"
p4751
asbasbasbag49
(g65
g51
NtRp4752
(dp4753
g54
(dp4754
sg63
g2858
sg56
(lp4755
g49
(g70
g51
NtRp4756
(dp4757
g54
(dp4758
g74
g75
ssg63
g4752
sg56
(lp4759
S'session_filename'
p4760
asbag49
(g70
g51
NtRp4761
(dp4762
g54
(dp4763
g81
g82
ssg63
g4752
sg56
(lp4764
S':'
asbag49
(g70
g51
NtRp4765
(dp4766
g54
(dp4767
sg63
g4752
sg56
(lp4768
g49
(g50
g51
NtRp4769
(dp4770
g54
(dp4771
g62
I5
ssg63
g4765
sg56
(lp4772
S'C:\\Users\\Bussiere\\Dropbox\\Projets\\Yuki\\web2py\\applications\\init\\sessions\\127.0.0.1-05546599-82c3-44a9-b36b-68629a143195'
p4773
asbasbasbag49
(g65
g51
NtRp4774
(dp4775
g54
(dp4776
sg63
g2858
sg56
(lp4777
g49
(g70
g51
NtRp4778
(dp4779
g54
(dp4780
g74
g75
ssg63
g4774
sg56
(lp4781
S'session_id'
p4782
asbag49
(g70
g51
NtRp4783
(dp4784
g54
(dp4785
g81
g82
ssg63
g4774
sg56
(lp4786
S':'
asbag49
(g70
g51
NtRp4787
(dp4788
g54
(dp4789
sg63
g4774
sg56
(lp4790
g49
(g50
g51
NtRp4791
(dp4792
g54
(dp4793
g62
I5
ssg63
g4787
sg56
(lp4794
S'127.0.0.1-05546599-82c3-44a9-b36b-68629a143195'
p4795
asbasbasbag49
(g65
g51
NtRp4796
(dp4797
g54
(dp4798
sg63
g2858
sg56
(lp4799
g49
(g70
g51
NtRp4800
(dp4801
g54
(dp4802
g74
g75
ssg63
g4796
sg56
(lp4803
S'session_id_name'
p4804
asbag49
(g70
g51
NtRp4805
(dp4806
g54
(dp4807
g81
g82
ssg63
g4796
sg56
(lp4808
S':'
asbag49
(g70
g51
NtRp4809
(dp4810
g54
(dp4811
sg63
g4796
sg56
(lp4812
g49
(g50
g51
NtRp4813
(dp4814
g54
(dp4815
g62
I5
ssg63
g4809
sg56
(lp4816
g2915
asbasbasbag49
(g65
g51
NtRp4817
(dp4818
g54
(dp4819
sg63
g2858
sg56
(lp4820
g49
(g70
g51
NtRp4821
(dp4822
g54
(dp4823
g74
g75
ssg63
g4817
sg56
(lp4824
S'session_locked'
p4825
asbag49
(g70
g51
NtRp4826
(dp4827
g54
(dp4828
g81
g82
ssg63
g4817
sg56
(lp4829
S':'
asbag49
(g70
g51
NtRp4830
(dp4831
g54
(dp4832
sg63
g4817
sg56
(lp4833
g49
(g50
g51
NtRp4834
(dp4835
g54
(dp4836
g62
I5
ssg63
g4830
sg56
(lp4837
g726
asbasbasbag49
(g65
g51
NtRp4838
(dp4839
g54
(dp4840
sg63
g2858
sg56
(lp4841
g49
(g70
g51
NtRp4842
(dp4843
g54
(dp4844
g74
g75
ssg63
g4838
sg56
(lp4845
S'session_new'
p4846
asbag49
(g70
g51
NtRp4847
(dp4848
g54
(dp4849
g81
g82
ssg63
g4838
sg56
(lp4850
S':'
asbag49
(g70
g51
NtRp4851
(dp4852
g54
(dp4853
sg63
g4838
sg56
(lp4854
g49
(g50
g51
NtRp4855
(dp4856
g54
(dp4857
g62
I5
ssg63
g4851
sg56
(lp4858
g92
asbasbasbag49
(g65
g51
NtRp4859
(dp4860
g54
(dp4861
sg63
g2858
sg56
(lp4862
g49
(g70
g51
NtRp4863
(dp4864
g54
(dp4865
g74
g75
ssg63
g4859
sg56
(lp4866
S'status'
p4867
asbag49
(g70
g51
NtRp4868
(dp4869
g54
(dp4870
g81
g82
ssg63
g4859
sg56
(lp4871
S':'
asbag49
(g70
g51
NtRp4872
(dp4873
g54
(dp4874
sg63
g4859
sg56
(lp4875
g49
(g50
g51
NtRp4876
(dp4877
g54
(dp4878
g62
I5
ssg63
g4872
sg56
(lp4879
S'200'
p4880
asbasbasbag49
(g65
g51
NtRp4881
(dp4882
g54
(dp4883
sg63
g2858
sg56
(lp4884
g49
(g70
g51
NtRp4885
(dp4886
g54
(dp4887
g74
g75
ssg63
g4881
sg56
(lp4888
S'subtitle'
p4889
asbag49
(g70
g51
NtRp4890
(dp4891
g54
(dp4892
g81
g82
ssg63
g4881
sg56
(lp4893
S':'
asbag49
(g70
g51
NtRp4894
(dp4895
g54
(dp4896
sg63
g4881
sg56
(lp4897
g49
(g50
g51
NtRp4898
(dp4899
g54
(dp4900
g62
I5
ssg63
g4894
sg56
(lp4901
g3498
(S's\x12\x00\x00\x00personnalisez-moi!'
tRp4902
asbasbasbag49
(g65
g51
NtRp4903
(dp4904
g54
(dp4905
sg63
g2858
sg56
(lp4906
g49
(g70
g51
NtRp4907
(dp4908
g54
(dp4909
g74
g75
ssg63
g4903
sg56
(lp4910
S'title'
p4911
asbag49
(g70
g51
NtRp4912
(dp4913
g54
(dp4914
g81
g82
ssg63
g4903
sg56
(lp4915
S':'
asbag49
(g70
g51
NtRp4916
(dp4917
g54
(dp4918
sg63
g4903
sg56
(lp4919
g49
(g50
g51
NtRp4920
(dp4921
g54
(dp4922
g62
I5
ssg63
g4916
sg56
(lp4923
S'Init'
p4924
asbasbasbag49
(g65
g51
NtRp4925
(dp4926
g54
(dp4927
sg63
g2858
sg56
(lp4928
g49
(g70
g51
NtRp4929
(dp4930
g54
(dp4931
g74
g75
ssg63
g4925
sg56
(lp4932
g2129
asbag49
(g70
g51
NtRp4933
(dp4934
g54
(dp4935
g81
g82
ssg63
g4925
sg56
(lp4936
S':'
asbag49
(g70
g51
NtRp4937
(dp4938
g54
(dp4939
sg63
g4925
sg56
(lp4940
g49
(g50
g51
NtRp4941
(dp4942
g54
(dp4943
g62
I5
ssg63
g4937
sg56
(lp4944
g2142
asbasbasbag49
(g65
g51
NtRp4945
(dp4946
g54
(dp4947
sg63
g2858
sg56
(lp4948
g49
(g70
g51
NtRp4949
(dp4950
g54
(dp4951
g74
g75
ssg63
g4945
sg56
(lp4952
S'view'
p4953
asbag49
(g70
g51
NtRp4954
(dp4955
g54
(dp4956
g81
g82
ssg63
g4945
sg56
(lp4957
S':'
asbag49
(g70
g51
NtRp4958
(dp4959
g54
(dp4960
sg63
g4945
sg56
(lp4961
g49
(g50
g51
NtRp4962
(dp4963
g54
(dp4964
g62
I5
ssg63
g4958
sg56
(lp4965
S'default/addBarcode.html'
p4966
asbasbasbasbasbsS'locals'
p4967
(dp4968
S'Service'
p4969
S"<class 'gluon.tools.Service'>"
p4970
sS'OBJECT'
p4971
S"<class 'gluon.html.OBJECT'>"
p4972
sS'SQLDB'
p4973
S"<class 'gluon.dal.DAL'>"
p4974
sg2840
S"<Storage {'_formkey[register]': '6844d20e-e3be-4...login]': '9af33a7d-c2ca-41c4-b55a-ad8829d3d0fa'}>"
p4975
sS'LINK'
p4976
S"<class 'gluon.html.LINK'>"
p4977
sS'BR'
p4978
S"<class 'gluon.html.BR'>"
p4979
sS'local_import'
p4980
S'<function <lambda> at 0x04534AF0>'
p4981
sS'OPTGROUP'
p4982
S"<class 'gluon.html.OPTGROUP'>"
p4983
sS'PRE'
p4984
S"<class 'gluon.html.PRE'>"
p4985
sS'IS_INT_IN_RANGE'
p4986
S"<class 'gluon.validators.IS_INT_IN_RANGE'>"
p4987
sS'left_sidebar_enabled'
p4988
g92
sS'IS_LOWER'
p4989
S"<class 'gluon.validators.IS_LOWER'>"
p4990
sS'IS_STRONG'
p4991
S"<class 'gluon.validators.IS_STRONG'>"
p4992
sS'cache'
p4993
S'<gluon.cache.Cache object at 0x045B2EF0>'
p4994
sS'IS_IN_DB'
p4995
S"<class 'gluon.validators.IS_IN_DB'>"
p4996
sS'TAG'
p4997
S'<gluon.html.__TAG__ object at 0x02542E70>'
p4998
sS'SQLField'
p4999
S"<class 'gluon.dal.Field'>"
p5000
sS'mail'
p5001
S'<gluon.tools.Mail object at 0x046141D0>'
p5002
sS'BODY'
p5003
S"<class 'gluon.html.BODY'>"
p5004
sS'IS_DATE_IN_RANGE'
p5005
S"<class 'gluon.validators.IS_DATE_IN_RANGE'>"
p5006
sS'TH'
p5007
S"<class 'gluon.html.TH'>"
p5008
sS'URL'
p5009
S'<function URL at 0x025A2DF0>'
p5010
sS'__file__'
p5011
S"r'C:\\Users\\Bussiere\\Dropbox\\Projets\\Yuki\\web2py\\applications\\init\\views\\default/addBarcode.html'"
p5012
sS'db'
p5013
S"<DAL {'comment': <Table {'body': <gluon.dal.Fiel...d object at 0x078BD170>, '_singular': 'Price'}>}>"
p5014
sS'auth'
p5015
S'<gluon.tools.Auth object at 0x04614050>'
p5016
sS'P'
S"<class 'gluon.html.P'>"
p5017
sS'TFOOT'
p5018
S"<class 'gluon.html.TFOOT'>"
p5019
sS'XHTML'
p5020
S"<class 'gluon.html.XHTML'>"
p5021
sS'ON'
p5022
g726
sS'OL'
p5023
S"<class 'gluon.html.OL'>"
p5024
sS'TEXTAREA'
p5025
S"<class 'gluon.html.TEXTAREA'>"
p5026
sS'MENU'
p5027
S"<class 'gluon.html.MENU'>"
p5028
sS'LOAD'
p5029
S'<function LOAD at 0x028916F0>'
p5030
sS'CODE'
p5031
S"<class 'gluon.html.CODE'>"
p5032
sS'HTTP'
p5033
S"<class 'gluon.http.HTTP'>"
p5034
sS'HR'
p5035
S"<class 'gluon.html.HR'>"
p5036
sS'IS_DATETIME'
p5037
S"<class 'gluon.validators.IS_DATETIME'>"
p5038
sS'HEAD'
p5039
S"<class 'gluon.html.HEAD'>"
p5040
sS'LABEL'
p5041
S"<class 'gluon.html.LABEL'>"
p5042
sS'CLEANUP'
p5043
S"<class 'gluon.validators.CLEANUP'>"
p5044
sS'plugins'
p5045
S'<gluon.tools.PluginManager object at 0x03DB0D30>'
p5046
sS'SELECT'
p5047
S"<class 'gluon.html.SELECT'>"
p5048
sS'use_janrain'
p5049
S'<function use_janrain at 0x039B6BF0>'
p5050
sS'CENTER'
p5051
S"<class 'gluon.html.CENTER'>"
p5052
sS'prettydate'
p5053
S'<function prettydate at 0x02E59F70>'
p5054
sS'Crud'
p5055
S"<class 'gluon.tools.Crud'>"
p5056
sS'Auth'
p5057
S"<class 'gluon.tools.Auth'>"
p5058
sS'__builtins__'
p5059
S"{'ArithmeticError': <type 'exceptions.ArithmeticError'>, 'AssertionError': <type 'exceptions.AssertionError'>, 'AttributeError': <type 'exceptions.AttributeError'>, 'BaseException': <type 'exceptions.BaseException'>, 'DeprecationWarning': <type 'exceptions.DeprecationWarning'>, 'EOFError': <type 'exceptions.EOFError'>, 'Ellipsis': Ellipsis, 'EnvironmentError': <type 'exceptions.EnvironmentError'>, 'Exception': <type 'exceptions.Exception'>, 'False': False, ...}"
p5060
sS'HTML'
p5061
S"<class 'gluon.html.HTML'>"
p5062
sS'SQLFORM'
p5063
S"<class 'gluon.sqlhtml.SQLFORM'>"
p5064
sS'EM'
p5065
S"<class 'gluon.html.EM'>"
p5066
sS'redirect'
p5067
S'<function redirect at 0x021C4AB0>'
p5068
sS'FIELDSET'
p5069
S"<class 'gluon.html.FIELDSET'>"
p5070
sS'IS_EQUAL_TO'
p5071
S"<class 'gluon.validators.IS_EQUAL_TO'>"
p5072
sS'embed64'
p5073
S'<function embed64 at 0x025AF930>'
p5074
sS'IS_LIST_OF'
p5075
S"<class 'gluon.validators.IS_LIST_OF'>"
p5076
sS'__name__'
p5077
S"'__restricted__'"
p5078
sS'EMBED'
p5079
S"<class 'gluon.html.EMBED'>"
p5080
sS'_'
S'<function _ at 0x04522B30>'
p5081
sS'FORM'
p5082
S"<class 'gluon.html.FORM'>"
p5083
sS'H2'
p5084
S"<class 'gluon.html.H2'>"
p5085
sS'H3'
p5086
S"<class 'gluon.html.H3'>"
p5087
sS'BUTTON'
p5088
S"<class 'gluon.html.BUTTON'>"
p5089
sS'H1'
p5090
S"<class 'gluon.html.H1'>"
p5091
sS'H6'
p5092
S"<class 'gluon.html.H6'>"
p5093
sS'H4'
p5094
S"<class 'gluon.html.H4'>"
p5095
sS'H5'
p5096
S"<class 'gluon.html.H5'>"
p5097
sS'UL'
p5098
S"<class 'gluon.html.UL'>"
p5099
sS'IS_UPPER'
p5100
S"<class 'gluon.validators.IS_UPPER'>"
p5101
sS'xmlescape'
p5102
S'<function xmlescape at 0x025A2D70>'
p5103
sS'IS_TIME'
p5104
S"<class 'gluon.validators.IS_TIME'>"
p5105
sS'OPTION'
p5106
S"<class 'gluon.html.OPTION'>"
p5107
sS'TITLE'
p5108
S"<class 'gluon.html.TITLE'>"
p5109
sS'CRYPT'
p5110
S"<class 'gluon.validators.CRYPT'>"
p5111
sS'IS_EMPTY_OR'
p5112
S"<class 'gluon.validators.IS_EMPTY_OR'>"
p5113
sS'MARKMIN'
p5114
S"<class 'gluon.html.MARKMIN'>"
p5115
sS'INPUT'
p5116
S"<class 'gluon.html.INPUT'>"
p5117
sS'table'
p5118
S"<Table {'VideoGame': <gluon.dal.Field object at ..., '_id': <gluon.dal.Field object at 0x045EA4B0>}>"
p5119
sS'COL'
p5120
S"<class 'gluon.html.COL'>"
p5121
sS'service'
p5122
S'<gluon.tools.Service object at 0x04614650>'
p5123
sS'SCRIPT'
p5124
S"<class 'gluon.html.SCRIPT'>"
p5125
sS'is_mobile'
p5126
g92
sS'TABLE'
p5127
S"<class 'gluon.html.TABLE'>"
p5128
sS'IS_IPV4'
p5129
S"<class 'gluon.validators.IS_IPV4'>"
p5130
sS'IS_LENGTH'
p5131
S"<class 'gluon.validators.IS_LENGTH'>"
p5132
sS'XML'
p5133
S"<class 'gluon.html.XML'>"
p5134
sS'B'
S"<class 'gluon.html.B'>"
p5135
sS'form'
p5136
S'<gluon.sqlhtml.SQLFORM object at 0x045F2CD0>'
p5137
sS'SQLTABLE'
p5138
S"<class 'gluon.sqlhtml.SQLTABLE'>"
p5139
sS'IS_MATCH'
p5140
S"<class 'gluon.validators.IS_MATCH'>"
p5141
sS'IS_ALPHANUMERIC'
p5142
S"<class 'gluon.validators.IS_ALPHANUMERIC'>"
p5143
sS'SPAN'
p5144
S"<class 'gluon.html.SPAN'>"
p5145
sS'IS_SLUG'
p5146
S"<class 'gluon.validators.IS_SLUG'>"
p5147
sS'BEAUTIFY'
p5148
S"<class 'gluon.html.BEAUTIFY'>"
p5149
sS'META'
p5150
S"<class 'gluon.html.META'>"
p5151
sS'IS_DATE'
p5152
S"<class 'gluon.validators.IS_DATE'>"
p5153
sS'IS_EMAIL'
p5154
S"<class 'gluon.validators.IS_EMAIL'>"
p5155
sS'IS_NOT_EMPTY'
p5156
S"<class 'gluon.validators.IS_NOT_EMPTY'>"
p5157
sS'IS_FLOAT_IN_RANGE'
p5158
S"<class 'gluon.validators.IS_FLOAT_IN_RANGE'>"
p5159
sS'TBODY'
p5160
S"<class 'gluon.html.TBODY'>"
p5161
sS'CAT'
p5162
S"<class 'gluon.html.CAT'>"
p5163
sS'Field'
p5164
S"<class 'gluon.dal.Field'>"
p5165
sS'middle_columns'
p5166
S"'sixteen'"
p5167
sS'DIV'
p5168
S"<class 'gluon.html.DIV'>"
p5169
sS'LEGEND'
p5170
S"<class 'gluon.html.LEGEND'>"
p5171
sS'IMG'
p5172
S"<class 'gluon.html.IMG'>"
p5173
sS'COLGROUP'
p5174
S"<class 'gluon.html.COLGROUP'>"
p5175
sS'DAL'
p5176
S"<class 'gluon.dal.DAL'>"
p5177
sS'TT'
p5178
S"<class 'gluon.html.TT'>"
p5179
sS'TR'
p5180
S"<class 'gluon.html.TR'>"
p5181
sS'LI'
p5182
S"<class 'gluon.html.LI'>"
p5183
sS'right_sidebar_enabled'
p5184
g92
sS'IFRAME'
p5185
S"<class 'gluon.html.IFRAME'>"
p5186
sS'TD'
p5187
S"<class 'gluon.html.TD'>"
p5188
sS'PluginManager'
p5189
S"<class 'gluon.tools.PluginManager'>"
p5190
sS'IS_URL'
p5191
S"<class 'gluon.validators.IS_URL'>"
p5192
sS'A'
S"<class 'gluon.html.A'>"
p5193
sS'STYLE'
p5194
S"<class 'gluon.html.STYLE'>"
p5195
sS'IS_DATETIME_IN_RANGE'
p5196
S"<class 'gluon.validators.IS_DATETIME_IN_RANGE'>"
p5197
sS'IS_IMAGE'
p5198
S"<class 'gluon.validators.IS_IMAGE'>"
p5199
sS'I'
S"<class 'gluon.html.I'>"
p5200
sS'crud'
p5201
S'<gluon.tools.Crud object at 0x04614430>'
p5202
sS'IS_NOT_IN_DB'
p5203
S"<class 'gluon.validators.IS_NOT_IN_DB'>"
p5204
sg2853
S"<Storage {'body': <cStringIO.StringO object at 0... 0x04534CB0>, 'view': 'default/addBarcode.html'}>"
p5205
sS'THEAD'
p5206
S"<class 'gluon.html.THEAD'>"
p5207
sS'IS_NULL_OR'
p5208
S"<class 'gluon.validators.IS_EMPTY_OR'>"
p5209
sg48
S"<Storage {'body': <cStringIO.StringO object at 0..._vars': <Storage {}>, 'post_vars': <Storage {}>}>"
p5210
sS'IS_EXPR'
p5211
S"<class 'gluon.validators.IS_EXPR'>"
p5212
sS'T'
S'<gluon.languages.translator object at 0x045BFBD0>'
p5213
sS'IS_IN_SET'
p5214
S"<class 'gluon.validators.IS_IN_SET'>"
p5215
sS'IS_UPLOAD_FILENAME'
p5216
S"<class 'gluon.validators.IS_UPLOAD_FILENAME'>"
p5217
sS'IS_DECIMAL_IN_RANGE'
p5218
S"<class 'gluon.validators.IS_DECIMAL_IN_RANGE'>"
p5219
sssS'traceback'
p5220
S'Traceback (most recent call last):\n  File "gluon/restricted.py", line 205, in restricted\n  File "C:\\Users\\Bussiere\\Dropbox\\Projets\\Yuki\\web2py\\applications\\init\\views\\default/addBarcode.html", line 86, in <module>\nAttributeError: \'NoneType\' object has no attribute \'replace\'\n'
p5221
s.