(dp1
S'output'
p2
S"<type 'exceptions.KeyError'> 'table'"
p3
sS'layer'
p4
S'C:\\Users\\Bussiere\\Dropbox\\Projets\\Yuki\\web2py\\applications\\init\\views\\default/index.html'
p5
sS'code'
p6
S'form,table=crud.search(db.table)\nresponse.write(\'\\n\', escape=False)\nresponse.write(form)\nresponse.write(\'\\n\', escape=False)\nresponse.write(table)\nresponse.write(\'\\n<a href="../init/default/user/login">login</a><br>\\n<a href="../init/default/user/register">Register</a><br>\\n\', escape=False)'
p7
sS'snapshot'
p8
(dp9
S'exception'
p10
(dp11
S'__hash__'
p12
S"<method-wrapper '__hash__' of exceptions.KeyError object at 0x0436C440>"
p13
sS'__setattr__'
p14
S"<method-wrapper '__setattr__' of exceptions.KeyError object at 0x0436C440>"
p15
sS'__reduce_ex__'
p16
S'<built-in method __reduce_ex__ of exceptions.KeyError object at 0x0436C440>'
p17
sS'__getslice__'
p18
S"<method-wrapper '__getslice__' of exceptions.KeyError object at 0x0436C440>"
p19
sS'__getitem__'
p20
S"<method-wrapper '__getitem__' of exceptions.KeyError object at 0x0436C440>"
p21
sS'__setstate__'
p22
S'<built-in method __setstate__ of exceptions.KeyError object at 0x0436C440>'
p23
sS'__reduce__'
p24
S'<built-in method __reduce__ of exceptions.KeyError object at 0x0436C440>'
p25
sS'__str__'
p26
S"<method-wrapper '__str__' of exceptions.KeyError object at 0x0436C440>"
p27
sS'args'
p28
S"('table',)"
p29
sS'__getattribute__'
p30
S"<method-wrapper '__getattribute__' of exceptions.KeyError object at 0x0436C440>"
p31
sS'__class__'
p32
S"<type 'exceptions.KeyError'>"
p33
sS'__delattr__'
p34
S"<method-wrapper '__delattr__' of exceptions.KeyError object at 0x0436C440>"
p35
sS'__repr__'
p36
S"<method-wrapper '__repr__' of exceptions.KeyError object at 0x0436C440>"
p37
sS'__dict__'
p38
S'{}'
p39
sS'__doc__'
p40
S"'Mapping key not found.'"
p41
sS'__init__'
p42
S"<method-wrapper '__init__' of exceptions.KeyError object at 0x0436C440>"
p43
sS'__new__'
p44
S'<built-in method __new__ of type object at 0x1E1CDFB8>'
p45
ssS'evalue'
p46
S"'table'"
p47
sS'request'
p48
ccopy_reg
_reconstructor
p49
(cgluon.html
BEAUTIFY
p50
c__builtin__
object
p51
NtRp52
(dp53
S'attributes'
p54
(dp55
sS'components'
p56
(lp57
g49
(cgluon.html
TABLE
p58
g51
NtRp59
(dp60
g54
(dp61
S'level'
p62
I5
ssS'parent'
p63
Nsg56
(lp64
g49
(cgluon.html
TR
p65
g51
NtRp66
(dp67
g54
(dp68
sg63
g59
sg56
(lp69
g49
(cgluon.html
TD
p70
g51
NtRp71
(dp72
g54
(dp73
S'_style'
p74
S'font-weight:bold;vertical-align:top'
p75
ssg63
g66
sg56
(lp76
S'ajax'
p77
asbag49
(g70
g51
NtRp78
(dp79
g54
(dp80
S'_valign'
p81
S'top'
p82
ssg63
g66
sg56
(lp83
S':'
asbag49
(g70
g51
NtRp84
(dp85
g54
(dp86
sg63
g66
sg56
(lp87
g49
(g50
g51
NtRp88
(dp89
g54
(dp90
g62
I5
ssg63
g84
sg56
(lp91
S'False'
p92
asbasbasbag49
(g65
g51
NtRp93
(dp94
g54
(dp95
sg63
g59
sg56
(lp96
g49
(g70
g51
NtRp97
(dp98
g54
(dp99
g74
g75
ssg63
g93
sg56
(lp100
S'application'
p101
asbag49
(g70
g51
NtRp102
(dp103
g54
(dp104
g81
g82
ssg63
g93
sg56
(lp105
S':'
asbag49
(g70
g51
NtRp106
(dp107
g54
(dp108
sg63
g93
sg56
(lp109
g49
(g50
g51
NtRp110
(dp111
g54
(dp112
g62
I5
ssg63
g106
sg56
(lp113
S'init'
p114
asbasbasbag49
(g65
g51
NtRp115
(dp116
g54
(dp117
sg63
g59
sg56
(lp118
g49
(g70
g51
NtRp119
(dp120
g54
(dp121
g74
g75
ssg63
g115
sg56
(lp122
g28
asbag49
(g70
g51
NtRp123
(dp124
g54
(dp125
g81
g82
ssg63
g115
sg56
(lp126
S':'
asbag49
(g70
g51
NtRp127
(dp128
g54
(dp129
sg63
g115
sg56
(lp130
g49
(g50
g51
NtRp131
(dp132
g54
(dp133
g62
I5
ssg63
g127
sg56
(lp134
g49
(g58
g51
NtRp135
(dp136
g54
(dp137
g62
I4
ssg63
Nsg56
(lp138
sbasbasbasbag49
(g65
g51
NtRp139
(dp140
g54
(dp141
sg63
g59
sg56
(lp142
g49
(g70
g51
NtRp143
(dp144
g54
(dp145
g74
g75
ssg63
g139
sg56
(lp146
S'body'
p147
asbag49
(g70
g51
NtRp148
(dp149
g54
(dp150
g81
g82
ssg63
g139
sg56
(lp151
S':'
asbag49
(g70
g51
NtRp152
(dp153
g54
(dp154
sg63
g139
sg56
(lp155
g49
(g50
g51
NtRp156
(dp157
g54
(dp158
g62
I5
ssg63
g152
sg56
(lp159
S'<cStringIO.StringO object at 0x07167740>'
p160
asbasbasbag49
(g65
g51
NtRp161
(dp162
g54
(dp163
sg63
g59
sg56
(lp164
g49
(g70
g51
NtRp165
(dp166
g54
(dp167
g74
g75
ssg63
g161
sg56
(lp168
S'client'
p169
asbag49
(g70
g51
NtRp170
(dp171
g54
(dp172
g81
g82
ssg63
g161
sg56
(lp173
S':'
asbag49
(g70
g51
NtRp174
(dp175
g54
(dp176
sg63
g161
sg56
(lp177
g49
(g50
g51
NtRp178
(dp179
g54
(dp180
g62
I5
ssg63
g174
sg56
(lp181
S'127.0.0.1'
p182
asbasbasbag49
(g65
g51
NtRp183
(dp184
g54
(dp185
sg63
g59
sg56
(lp186
g49
(g70
g51
NtRp187
(dp188
g54
(dp189
g74
g75
ssg63
g183
sg56
(lp190
S'controller'
p191
asbag49
(g70
g51
NtRp192
(dp193
g54
(dp194
g81
g82
ssg63
g183
sg56
(lp195
S':'
asbag49
(g70
g51
NtRp196
(dp197
g54
(dp198
sg63
g183
sg56
(lp199
g49
(g50
g51
NtRp200
(dp201
g54
(dp202
g62
I5
ssg63
g196
sg56
(lp203
S'default'
p204
asbasbasbag49
(g65
g51
NtRp205
(dp206
g54
(dp207
sg63
g59
sg56
(lp208
g49
(g70
g51
NtRp209
(dp210
g54
(dp211
g74
g75
ssg63
g205
sg56
(lp212
S'cookies'
p213
asbag49
(g70
g51
NtRp214
(dp215
g54
(dp216
g81
g82
ssg63
g205
sg56
(lp217
S':'
asbag49
(g70
g51
NtRp218
(dp219
g54
(dp220
sg63
g205
sg56
(lp221
g49
(g50
g51
NtRp222
(dp223
g54
(dp224
g62
I5
ssg63
g218
sg56
(lp225
g49
(g58
g51
NtRp226
(dp227
g54
(dp228
g62
I4
ssg63
Nsg56
(lp229
g49
(g65
g51
NtRp230
(dp231
g54
(dp232
sg63
g226
sg56
(lp233
g49
(g70
g51
NtRp234
(dp235
g54
(dp236
g74
g75
ssg63
g230
sg56
(lp237
S'session_id_admin'
p238
asbag49
(g70
g51
NtRp239
(dp240
g54
(dp241
g81
g82
ssg63
g230
sg56
(lp242
S':'
asbag49
(g70
g51
NtRp243
(dp244
g54
(dp245
sg63
g230
sg56
(lp246
g49
(g50
g51
NtRp247
(dp248
g54
(dp249
g62
I4
ssg63
g243
sg56
(lp250
g49
(g58
g51
NtRp251
(dp252
g54
(dp253
g62
I3
ssg63
Nsg56
(lp254
g49
(g65
g51
NtRp255
(dp256
g54
(dp257
sg63
g251
sg56
(lp258
g49
(g70
g51
NtRp259
(dp260
g54
(dp261
g74
g75
ssg63
g255
sg56
(lp262
S'comment'
p263
asbag49
(g70
g51
NtRp264
(dp265
g54
(dp266
g81
g82
ssg63
g255
sg56
(lp267
S':'
asbag49
(g70
g51
NtRp268
(dp269
g54
(dp270
sg63
g255
sg56
(lp271
g49
(g50
g51
NtRp272
(dp273
g54
(dp274
g62
I3
ssg63
g268
sg56
(lp275
S''
asbasbasbag49
(g65
g51
NtRp276
(dp277
g54
(dp278
sg63
g251
sg56
(lp279
g49
(g70
g51
NtRp280
(dp281
g54
(dp282
g74
g75
ssg63
g276
sg56
(lp283
S'domain'
p284
asbag49
(g70
g51
NtRp285
(dp286
g54
(dp287
g81
g82
ssg63
g276
sg56
(lp288
S':'
asbag49
(g70
g51
NtRp289
(dp290
g54
(dp291
sg63
g276
sg56
(lp292
g49
(g50
g51
NtRp293
(dp294
g54
(dp295
g62
I3
ssg63
g289
sg56
(lp296
S''
asbasbasbag49
(g65
g51
NtRp297
(dp298
g54
(dp299
sg63
g251
sg56
(lp300
g49
(g70
g51
NtRp301
(dp302
g54
(dp303
g74
g75
ssg63
g297
sg56
(lp304
S'expires'
p305
asbag49
(g70
g51
NtRp306
(dp307
g54
(dp308
g81
g82
ssg63
g297
sg56
(lp309
S':'
asbag49
(g70
g51
NtRp310
(dp311
g54
(dp312
sg63
g297
sg56
(lp313
g49
(g50
g51
NtRp314
(dp315
g54
(dp316
g62
I3
ssg63
g310
sg56
(lp317
S''
asbasbasbag49
(g65
g51
NtRp318
(dp319
g54
(dp320
sg63
g251
sg56
(lp321
g49
(g70
g51
NtRp322
(dp323
g54
(dp324
g74
g75
ssg63
g318
sg56
(lp325
S'max-age'
p326
asbag49
(g70
g51
NtRp327
(dp328
g54
(dp329
g81
g82
ssg63
g318
sg56
(lp330
S':'
asbag49
(g70
g51
NtRp331
(dp332
g54
(dp333
sg63
g318
sg56
(lp334
g49
(g50
g51
NtRp335
(dp336
g54
(dp337
g62
I3
ssg63
g331
sg56
(lp338
S''
asbasbasbag49
(g65
g51
NtRp339
(dp340
g54
(dp341
sg63
g251
sg56
(lp342
g49
(g70
g51
NtRp343
(dp344
g54
(dp345
g74
g75
ssg63
g339
sg56
(lp346
S'path'
p347
asbag49
(g70
g51
NtRp348
(dp349
g54
(dp350
g81
g82
ssg63
g339
sg56
(lp351
S':'
asbag49
(g70
g51
NtRp352
(dp353
g54
(dp354
sg63
g339
sg56
(lp355
g49
(g50
g51
NtRp356
(dp357
g54
(dp358
g62
I3
ssg63
g352
sg56
(lp359
S''
asbasbasbag49
(g65
g51
NtRp360
(dp361
g54
(dp362
sg63
g251
sg56
(lp363
g49
(g70
g51
NtRp364
(dp365
g54
(dp366
g74
g75
ssg63
g360
sg56
(lp367
S'secure'
p368
asbag49
(g70
g51
NtRp369
(dp370
g54
(dp371
g81
g82
ssg63
g360
sg56
(lp372
S':'
asbag49
(g70
g51
NtRp373
(dp374
g54
(dp375
sg63
g360
sg56
(lp376
g49
(g50
g51
NtRp377
(dp378
g54
(dp379
g62
I3
ssg63
g373
sg56
(lp380
S''
asbasbasbag49
(g65
g51
NtRp381
(dp382
g54
(dp383
sg63
g251
sg56
(lp384
g49
(g70
g51
NtRp385
(dp386
g54
(dp387
g74
g75
ssg63
g381
sg56
(lp388
S'version'
p389
asbag49
(g70
g51
NtRp390
(dp391
g54
(dp392
g81
g82
ssg63
g381
sg56
(lp393
S':'
asbag49
(g70
g51
NtRp394
(dp395
g54
(dp396
sg63
g381
sg56
(lp397
g49
(g50
g51
NtRp398
(dp399
g54
(dp400
g62
I3
ssg63
g394
sg56
(lp401
S''
asbasbasbasbasbasbasbag49
(g65
g51
NtRp402
(dp403
g54
(dp404
sg63
g226
sg56
(lp405
g49
(g70
g51
NtRp406
(dp407
g54
(dp408
g74
g75
ssg63
g402
sg56
(lp409
S'session_id_init'
p410
asbag49
(g70
g51
NtRp411
(dp412
g54
(dp413
g81
g82
ssg63
g402
sg56
(lp414
S':'
asbag49
(g70
g51
NtRp415
(dp416
g54
(dp417
sg63
g402
sg56
(lp418
g49
(g50
g51
NtRp419
(dp420
g54
(dp421
g62
I4
ssg63
g415
sg56
(lp422
g49
(g58
g51
NtRp423
(dp424
g54
(dp425
g62
I3
ssg63
Nsg56
(lp426
g49
(g65
g51
NtRp427
(dp428
g54
(dp429
sg63
g423
sg56
(lp430
g49
(g70
g51
NtRp431
(dp432
g54
(dp433
g74
g75
ssg63
g427
sg56
(lp434
g263
asbag49
(g70
g51
NtRp435
(dp436
g54
(dp437
g81
g82
ssg63
g427
sg56
(lp438
S':'
asbag49
(g70
g51
NtRp439
(dp440
g54
(dp441
sg63
g427
sg56
(lp442
g49
(g50
g51
NtRp443
(dp444
g54
(dp445
g62
I3
ssg63
g439
sg56
(lp446
S''
asbasbasbag49
(g65
g51
NtRp447
(dp448
g54
(dp449
sg63
g423
sg56
(lp450
g49
(g70
g51
NtRp451
(dp452
g54
(dp453
g74
g75
ssg63
g447
sg56
(lp454
g284
asbag49
(g70
g51
NtRp455
(dp456
g54
(dp457
g81
g82
ssg63
g447
sg56
(lp458
S':'
asbag49
(g70
g51
NtRp459
(dp460
g54
(dp461
sg63
g447
sg56
(lp462
g49
(g50
g51
NtRp463
(dp464
g54
(dp465
g62
I3
ssg63
g459
sg56
(lp466
S''
asbasbasbag49
(g65
g51
NtRp467
(dp468
g54
(dp469
sg63
g423
sg56
(lp470
g49
(g70
g51
NtRp471
(dp472
g54
(dp473
g74
g75
ssg63
g467
sg56
(lp474
g305
asbag49
(g70
g51
NtRp475
(dp476
g54
(dp477
g81
g82
ssg63
g467
sg56
(lp478
S':'
asbag49
(g70
g51
NtRp479
(dp480
g54
(dp481
sg63
g467
sg56
(lp482
g49
(g50
g51
NtRp483
(dp484
g54
(dp485
g62
I3
ssg63
g479
sg56
(lp486
S''
asbasbasbag49
(g65
g51
NtRp487
(dp488
g54
(dp489
sg63
g423
sg56
(lp490
g49
(g70
g51
NtRp491
(dp492
g54
(dp493
g74
g75
ssg63
g487
sg56
(lp494
g326
asbag49
(g70
g51
NtRp495
(dp496
g54
(dp497
g81
g82
ssg63
g487
sg56
(lp498
S':'
asbag49
(g70
g51
NtRp499
(dp500
g54
(dp501
sg63
g487
sg56
(lp502
g49
(g50
g51
NtRp503
(dp504
g54
(dp505
g62
I3
ssg63
g499
sg56
(lp506
S''
asbasbasbag49
(g65
g51
NtRp507
(dp508
g54
(dp509
sg63
g423
sg56
(lp510
g49
(g70
g51
NtRp511
(dp512
g54
(dp513
g74
g75
ssg63
g507
sg56
(lp514
g347
asbag49
(g70
g51
NtRp515
(dp516
g54
(dp517
g81
g82
ssg63
g507
sg56
(lp518
S':'
asbag49
(g70
g51
NtRp519
(dp520
g54
(dp521
sg63
g507
sg56
(lp522
g49
(g50
g51
NtRp523
(dp524
g54
(dp525
g62
I3
ssg63
g519
sg56
(lp526
S''
asbasbasbag49
(g65
g51
NtRp527
(dp528
g54
(dp529
sg63
g423
sg56
(lp530
g49
(g70
g51
NtRp531
(dp532
g54
(dp533
g74
g75
ssg63
g527
sg56
(lp534
g368
asbag49
(g70
g51
NtRp535
(dp536
g54
(dp537
g81
g82
ssg63
g527
sg56
(lp538
S':'
asbag49
(g70
g51
NtRp539
(dp540
g54
(dp541
sg63
g527
sg56
(lp542
g49
(g50
g51
NtRp543
(dp544
g54
(dp545
g62
I3
ssg63
g539
sg56
(lp546
S''
asbasbasbag49
(g65
g51
NtRp547
(dp548
g54
(dp549
sg63
g423
sg56
(lp550
g49
(g70
g51
NtRp551
(dp552
g54
(dp553
g74
g75
ssg63
g547
sg56
(lp554
g389
asbag49
(g70
g51
NtRp555
(dp556
g54
(dp557
g81
g82
ssg63
g547
sg56
(lp558
S':'
asbag49
(g70
g51
NtRp559
(dp560
g54
(dp561
sg63
g547
sg56
(lp562
g49
(g50
g51
NtRp563
(dp564
g54
(dp565
g62
I3
ssg63
g559
sg56
(lp566
S''
asbasbasbasbasbasbasbasbasbasbasbag49
(g65
g51
NtRp567
(dp568
g54
(dp569
sg63
g59
sg56
(lp570
g49
(g70
g51
NtRp571
(dp572
g54
(dp573
g74
g75
ssg63
g567
sg56
(lp574
S'env'
p575
asbag49
(g70
g51
NtRp576
(dp577
g54
(dp578
g81
g82
ssg63
g567
sg56
(lp579
S':'
asbag49
(g70
g51
NtRp580
(dp581
g54
(dp582
sg63
g567
sg56
(lp583
g49
(g50
g51
NtRp584
(dp585
g54
(dp586
g62
I5
ssg63
g580
sg56
(lp587
g49
(g58
g51
NtRp588
(dp589
g54
(dp590
g62
I4
ssg63
Nsg56
(lp591
g49
(g65
g51
NtRp592
(dp593
g54
(dp594
sg63
g588
sg56
(lp595
g49
(g70
g51
NtRp596
(dp597
g54
(dp598
g74
g75
ssg63
g592
sg56
(lp599
S'app_folders'
p600
asbag49
(g70
g51
NtRp601
(dp602
g54
(dp603
g81
g82
ssg63
g592
sg56
(lp604
S':'
asbag49
(g70
g51
NtRp605
(dp606
g54
(dp607
sg63
g592
sg56
(lp608
g49
(g50
g51
NtRp609
(dp610
g54
(dp611
g62
I4
ssg63
g605
sg56
(lp612
S"set(['C:\\\\Users\\\\Bussiere\\\\Dropbox\\\\Projets\\\\Yuki\\\\web2py\\\\applications\\\\init\\\\', 'C:\\\\Users\\\\Bussiere\\\\Dropbox\\\\Projets\\\\Yuki\\\\web2py\\\\applications\\\\admin\\\\'])"
p613
asbasbasbag49
(g65
g51
NtRp614
(dp615
g54
(dp616
sg63
g588
sg56
(lp617
g49
(g70
g51
NtRp618
(dp619
g54
(dp620
g74
g75
ssg63
g614
sg56
(lp621
S'applications_parent'
p622
asbag49
(g70
g51
NtRp623
(dp624
g54
(dp625
g81
g82
ssg63
g614
sg56
(lp626
S':'
asbag49
(g70
g51
NtRp627
(dp628
g54
(dp629
sg63
g614
sg56
(lp630
g49
(g50
g51
NtRp631
(dp632
g54
(dp633
g62
I4
ssg63
g627
sg56
(lp634
S'C:\\Users\\Bussiere\\Dropbox\\Projets\\Yuki\\web2py'
p635
asbasbasbag49
(g65
g51
NtRp636
(dp637
g54
(dp638
sg63
g588
sg56
(lp639
g49
(g70
g51
NtRp640
(dp641
g54
(dp642
g74
g75
ssg63
g636
sg56
(lp643
S'cmd_args'
p644
asbag49
(g70
g51
NtRp645
(dp646
g54
(dp647
g81
g82
ssg63
g636
sg56
(lp648
S':'
asbag49
(g70
g51
NtRp649
(dp650
g54
(dp651
sg63
g636
sg56
(lp652
g49
(g50
g51
NtRp653
(dp654
g54
(dp655
g62
I4
ssg63
g649
sg56
(lp656
g49
(g58
g51
NtRp657
(dp658
g54
(dp659
g62
I3
ssg63
Nsg56
(lp660
sbasbasbasbag49
(g65
g51
NtRp661
(dp662
g54
(dp663
sg63
g588
sg56
(lp664
g49
(g70
g51
NtRp665
(dp666
g54
(dp667
g74
g75
ssg63
g661
sg56
(lp668
S'cmd_options'
p669
asbag49
(g70
g51
NtRp670
(dp671
g54
(dp672
g81
g82
ssg63
g661
sg56
(lp673
S':'
asbag49
(g70
g51
NtRp674
(dp675
g54
(dp676
sg63
g661
sg56
(lp677
g49
(g50
g51
NtRp678
(dp679
g54
(dp680
g62
I4
ssg63
g674
sg56
(lp681
S"<Values at 0x3c04f58: {'verbose': False, 'ip': '127.0.0.1', 'shutdown_timeout': 5, 'taskbar': False, 'nocron': False, 'pid_filename': 'httpserver.pid', 'maxthreads': None, 'softcron': False, 'server_name': 'Batou', 'bpython': False, 'nogui': False, 'port': 8000, 'extcron': False, 'debuglevel': 30, 'test': None, 'folder': 'C:\\\\Users\\\\Bussiere\\\\Dropbox\\\\Projets\\\\Yuki\\\\web2py', 'config': '', 'import_models': False, 'winservice': '', 'shell': None, 'run': '', 'log_filename': 'httpserver.log', 'args': [''], 'socket_timeout': 5, 'ssl_ca_certificate': None, 'scheduler': None, 'profiler_filename': None, 'ssl_private_key': '', 'password': '<ask>', 'request_queue_size': 5, 'ssl_certificate': '', 'cronjob': False, 'numthreads': None, 'quiet': False, 'interfaces': None, 'minthreads': None, 'timeout': 10, 'plain': False, 'nobanner': False}>"
p682
asbasbasbag49
(g65
g51
NtRp683
(dp684
g54
(dp685
sg63
g588
sg56
(lp686
g49
(g70
g51
NtRp687
(dp688
g54
(dp689
g74
g75
ssg63
g683
sg56
(lp690
S'db_sessions'
p691
asbag49
(g70
g51
NtRp692
(dp693
g54
(dp694
g81
g82
ssg63
g683
sg56
(lp695
S':'
asbag49
(g70
g51
NtRp696
(dp697
g54
(dp698
sg63
g683
sg56
(lp699
g49
(g50
g51
NtRp700
(dp701
g54
(dp702
g62
I4
ssg63
g696
sg56
(lp703
S'set([])'
p704
asbasbasbag49
(g65
g51
NtRp705
(dp706
g54
(dp707
sg63
g588
sg56
(lp708
g49
(g70
g51
NtRp709
(dp710
g54
(dp711
g74
g75
ssg63
g705
sg56
(lp712
S'debugging'
p713
asbag49
(g70
g51
NtRp714
(dp715
g54
(dp716
g81
g82
ssg63
g705
sg56
(lp717
S':'
asbag49
(g70
g51
NtRp718
(dp719
g54
(dp720
sg63
g705
sg56
(lp721
g49
(g50
g51
NtRp722
(dp723
g54
(dp724
g62
I4
ssg63
g718
sg56
(lp725
S'True'
p726
asbasbasbag49
(g65
g51
NtRp727
(dp728
g54
(dp729
sg63
g588
sg56
(lp730
g49
(g70
g51
NtRp731
(dp732
g54
(dp733
g74
g75
ssg63
g727
sg56
(lp734
S'gluon_parent'
p735
asbag49
(g70
g51
NtRp736
(dp737
g54
(dp738
g81
g82
ssg63
g727
sg56
(lp739
S':'
asbag49
(g70
g51
NtRp740
(dp741
g54
(dp742
sg63
g727
sg56
(lp743
g49
(g50
g51
NtRp744
(dp745
g54
(dp746
g62
I4
ssg63
g740
sg56
(lp747
S'C:\\Users\\Bussiere\\Dropbox\\Projets\\Yuki\\web2py'
p748
asbasbasbag49
(g65
g51
NtRp749
(dp750
g54
(dp751
sg63
g588
sg56
(lp752
g49
(g70
g51
NtRp753
(dp754
g54
(dp755
g74
g75
ssg63
g749
sg56
(lp756
S'http_accept'
p757
asbag49
(g70
g51
NtRp758
(dp759
g54
(dp760
g81
g82
ssg63
g749
sg56
(lp761
S':'
asbag49
(g70
g51
NtRp762
(dp763
g54
(dp764
sg63
g749
sg56
(lp765
g49
(g50
g51
NtRp766
(dp767
g54
(dp768
g62
I4
ssg63
g762
sg56
(lp769
S'text/html,application/xhtml+xml,application/xml;q=0.9,*/*;q=0.8'
p770
asbasbasbag49
(g65
g51
NtRp771
(dp772
g54
(dp773
sg63
g588
sg56
(lp774
g49
(g70
g51
NtRp775
(dp776
g54
(dp777
g74
g75
ssg63
g771
sg56
(lp778
S'http_accept_charset'
p779
asbag49
(g70
g51
NtRp780
(dp781
g54
(dp782
g81
g82
ssg63
g771
sg56
(lp783
S':'
asbag49
(g70
g51
NtRp784
(dp785
g54
(dp786
sg63
g771
sg56
(lp787
g49
(g50
g51
NtRp788
(dp789
g54
(dp790
g62
I4
ssg63
g784
sg56
(lp791
S'ISO-8859-1,utf-8;q=0.7,*;q=0.3'
p792
asbasbasbag49
(g65
g51
NtRp793
(dp794
g54
(dp795
sg63
g588
sg56
(lp796
g49
(g70
g51
NtRp797
(dp798
g54
(dp799
g74
g75
ssg63
g793
sg56
(lp800
S'http_accept_encoding'
p801
asbag49
(g70
g51
NtRp802
(dp803
g54
(dp804
g81
g82
ssg63
g793
sg56
(lp805
S':'
asbag49
(g70
g51
NtRp806
(dp807
g54
(dp808
sg63
g793
sg56
(lp809
g49
(g50
g51
NtRp810
(dp811
g54
(dp812
g62
I4
ssg63
g806
sg56
(lp813
S'gzip,deflate,sdch'
p814
asbasbasbag49
(g65
g51
NtRp815
(dp816
g54
(dp817
sg63
g588
sg56
(lp818
g49
(g70
g51
NtRp819
(dp820
g54
(dp821
g74
g75
ssg63
g815
sg56
(lp822
S'http_accept_language'
p823
asbag49
(g70
g51
NtRp824
(dp825
g54
(dp826
g81
g82
ssg63
g815
sg56
(lp827
S':'
asbag49
(g70
g51
NtRp828
(dp829
g54
(dp830
sg63
g815
sg56
(lp831
g49
(g50
g51
NtRp832
(dp833
g54
(dp834
g62
I4
ssg63
g828
sg56
(lp835
S'en-US,en;q=0.8'
p836
asbasbasbag49
(g65
g51
NtRp837
(dp838
g54
(dp839
sg63
g588
sg56
(lp840
g49
(g70
g51
NtRp841
(dp842
g54
(dp843
g74
g75
ssg63
g837
sg56
(lp844
S'http_cache_control'
p845
asbag49
(g70
g51
NtRp846
(dp847
g54
(dp848
g81
g82
ssg63
g837
sg56
(lp849
S':'
asbag49
(g70
g51
NtRp850
(dp851
g54
(dp852
sg63
g837
sg56
(lp853
g49
(g50
g51
NtRp854
(dp855
g54
(dp856
g62
I4
ssg63
g850
sg56
(lp857
S'max-age=0'
p858
asbasbasbag49
(g65
g51
NtRp859
(dp860
g54
(dp861
sg63
g588
sg56
(lp862
g49
(g70
g51
NtRp863
(dp864
g54
(dp865
g74
g75
ssg63
g859
sg56
(lp866
S'http_connection'
p867
asbag49
(g70
g51
NtRp868
(dp869
g54
(dp870
g81
g82
ssg63
g859
sg56
(lp871
S':'
asbag49
(g70
g51
NtRp872
(dp873
g54
(dp874
sg63
g859
sg56
(lp875
g49
(g50
g51
NtRp876
(dp877
g54
(dp878
g62
I4
ssg63
g872
sg56
(lp879
S'keep-alive'
p880
asbasbasbag49
(g65
g51
NtRp881
(dp882
g54
(dp883
sg63
g588
sg56
(lp884
g49
(g70
g51
NtRp885
(dp886
g54
(dp887
g74
g75
ssg63
g881
sg56
(lp888
S'http_cookie'
p889
asbag49
(g70
g51
NtRp890
(dp891
g54
(dp892
g81
g82
ssg63
g881
sg56
(lp893
S':'
asbag49
(g70
g51
NtRp894
(dp895
g54
(dp896
sg63
g881
sg56
(lp897
g49
(g50
g51
NtRp898
(dp899
g54
(dp900
g62
I4
ssg63
g894
sg56
(lp901
S'session_id_init=127.0.0.1-e491f18b-7b0c-472f-8228-a18d6ec769aa; session_id_admin=127.0.0.1-6531a48e-c307-4ba4-bdc5-14f2cebd3752'
p902
asbasbasbag49
(g65
g51
NtRp903
(dp904
g54
(dp905
sg63
g588
sg56
(lp906
g49
(g70
g51
NtRp907
(dp908
g54
(dp909
g74
g75
ssg63
g903
sg56
(lp910
S'http_host'
p911
asbag49
(g70
g51
NtRp912
(dp913
g54
(dp914
g81
g82
ssg63
g903
sg56
(lp915
S':'
asbag49
(g70
g51
NtRp916
(dp917
g54
(dp918
sg63
g903
sg56
(lp919
g49
(g50
g51
NtRp920
(dp921
g54
(dp922
g62
I4
ssg63
g916
sg56
(lp923
S'127.0.0.1:8000'
p924
asbasbasbag49
(g65
g51
NtRp925
(dp926
g54
(dp927
sg63
g588
sg56
(lp928
g49
(g70
g51
NtRp929
(dp930
g54
(dp931
g74
g75
ssg63
g925
sg56
(lp932
S'http_user_agent'
p933
asbag49
(g70
g51
NtRp934
(dp935
g54
(dp936
g81
g82
ssg63
g925
sg56
(lp937
S':'
asbag49
(g70
g51
NtRp938
(dp939
g54
(dp940
sg63
g925
sg56
(lp941
g49
(g50
g51
NtRp942
(dp943
g54
(dp944
g62
I4
ssg63
g938
sg56
(lp945
S'Mozilla/5.0 (Windows NT 6.1; WOW64) AppleWebKit/535.18 (KHTML, like Gecko) Chrome/18.0.1011.0 Safari/535.18'
p946
asbasbasbag49
(g65
g51
NtRp947
(dp948
g54
(dp949
sg63
g588
sg56
(lp950
g49
(g70
g51
NtRp951
(dp952
g54
(dp953
g74
g75
ssg63
g947
sg56
(lp954
S'is_jython'
p955
asbag49
(g70
g51
NtRp956
(dp957
g54
(dp958
g81
g82
ssg63
g947
sg56
(lp959
S':'
asbag49
(g70
g51
NtRp960
(dp961
g54
(dp962
sg63
g947
sg56
(lp963
g49
(g50
g51
NtRp964
(dp965
g54
(dp966
g62
I4
ssg63
g960
sg56
(lp967
g92
asbasbasbag49
(g65
g51
NtRp968
(dp969
g54
(dp970
sg63
g588
sg56
(lp971
g49
(g70
g51
NtRp972
(dp973
g54
(dp974
g74
g75
ssg63
g968
sg56
(lp975
S'is_pypy'
p976
asbag49
(g70
g51
NtRp977
(dp978
g54
(dp979
g81
g82
ssg63
g968
sg56
(lp980
S':'
asbag49
(g70
g51
NtRp981
(dp982
g54
(dp983
sg63
g968
sg56
(lp984
g49
(g50
g51
NtRp985
(dp986
g54
(dp987
g62
I4
ssg63
g981
sg56
(lp988
g92
asbasbasbag49
(g65
g51
NtRp989
(dp990
g54
(dp991
sg63
g588
sg56
(lp992
g49
(g70
g51
NtRp993
(dp994
g54
(dp995
g74
g75
ssg63
g989
sg56
(lp996
S'path_info'
p997
asbag49
(g70
g51
NtRp998
(dp999
g54
(dp1000
g81
g82
ssg63
g989
sg56
(lp1001
S':'
asbag49
(g70
g51
NtRp1002
(dp1003
g54
(dp1004
sg63
g989
sg56
(lp1005
g49
(g50
g51
NtRp1006
(dp1007
g54
(dp1008
g62
I4
ssg63
g1002
sg56
(lp1009
S'/'
asbasbasbag49
(g65
g51
NtRp1010
(dp1011
g54
(dp1012
sg63
g588
sg56
(lp1013
g49
(g70
g51
NtRp1014
(dp1015
g54
(dp1016
g74
g75
ssg63
g1010
sg56
(lp1017
S'query_string'
p1018
asbag49
(g70
g51
NtRp1019
(dp1020
g54
(dp1021
g81
g82
ssg63
g1010
sg56
(lp1022
S':'
asbag49
(g70
g51
NtRp1023
(dp1024
g54
(dp1025
sg63
g1010
sg56
(lp1026
g49
(g50
g51
NtRp1027
(dp1028
g54
(dp1029
g62
I4
ssg63
g1023
sg56
(lp1030
S''
asbasbasbag49
(g65
g51
NtRp1031
(dp1032
g54
(dp1033
sg63
g588
sg56
(lp1034
g49
(g70
g51
NtRp1035
(dp1036
g54
(dp1037
g74
g75
ssg63
g1031
sg56
(lp1038
S'remote_addr'
p1039
asbag49
(g70
g51
NtRp1040
(dp1041
g54
(dp1042
g81
g82
ssg63
g1031
sg56
(lp1043
S':'
asbag49
(g70
g51
NtRp1044
(dp1045
g54
(dp1046
sg63
g1031
sg56
(lp1047
g49
(g50
g51
NtRp1048
(dp1049
g54
(dp1050
g62
I4
ssg63
g1044
sg56
(lp1051
g182
asbasbasbag49
(g65
g51
NtRp1052
(dp1053
g54
(dp1054
sg63
g588
sg56
(lp1055
g49
(g70
g51
NtRp1056
(dp1057
g54
(dp1058
g74
g75
ssg63
g1052
sg56
(lp1059
S'remote_port'
p1060
asbag49
(g70
g51
NtRp1061
(dp1062
g54
(dp1063
g81
g82
ssg63
g1052
sg56
(lp1064
S':'
asbag49
(g70
g51
NtRp1065
(dp1066
g54
(dp1067
sg63
g1052
sg56
(lp1068
g49
(g50
g51
NtRp1069
(dp1070
g54
(dp1071
g62
I4
ssg63
g1065
sg56
(lp1072
S'54278'
p1073
asbasbasbag49
(g65
g51
NtRp1074
(dp1075
g54
(dp1076
sg63
g588
sg56
(lp1077
g49
(g70
g51
NtRp1078
(dp1079
g54
(dp1080
g74
g75
ssg63
g1074
sg56
(lp1081
S'request_method'
p1082
asbag49
(g70
g51
NtRp1083
(dp1084
g54
(dp1085
g81
g82
ssg63
g1074
sg56
(lp1086
S':'
asbag49
(g70
g51
NtRp1087
(dp1088
g54
(dp1089
sg63
g1074
sg56
(lp1090
g49
(g50
g51
NtRp1091
(dp1092
g54
(dp1093
g62
I4
ssg63
g1087
sg56
(lp1094
S'GET'
p1095
asbasbasbag49
(g65
g51
NtRp1096
(dp1097
g54
(dp1098
sg63
g588
sg56
(lp1099
g49
(g70
g51
NtRp1100
(dp1101
g54
(dp1102
g74
g75
ssg63
g1096
sg56
(lp1103
S'script_name'
p1104
asbag49
(g70
g51
NtRp1105
(dp1106
g54
(dp1107
g81
g82
ssg63
g1096
sg56
(lp1108
S':'
asbag49
(g70
g51
NtRp1109
(dp1110
g54
(dp1111
sg63
g1096
sg56
(lp1112
g49
(g50
g51
NtRp1113
(dp1114
g54
(dp1115
g62
I4
ssg63
g1109
sg56
(lp1116
S''
asbasbasbag49
(g65
g51
NtRp1117
(dp1118
g54
(dp1119
sg63
g588
sg56
(lp1120
g49
(g70
g51
NtRp1121
(dp1122
g54
(dp1123
g74
g75
ssg63
g1117
sg56
(lp1124
S'server_name'
p1125
asbag49
(g70
g51
NtRp1126
(dp1127
g54
(dp1128
g81
g82
ssg63
g1117
sg56
(lp1129
S':'
asbag49
(g70
g51
NtRp1130
(dp1131
g54
(dp1132
sg63
g1117
sg56
(lp1133
g49
(g50
g51
NtRp1134
(dp1135
g54
(dp1136
g62
I4
ssg63
g1130
sg56
(lp1137
S'Batou'
p1138
asbasbasbag49
(g65
g51
NtRp1139
(dp1140
g54
(dp1141
sg63
g588
sg56
(lp1142
g49
(g70
g51
NtRp1143
(dp1144
g54
(dp1145
g74
g75
ssg63
g1139
sg56
(lp1146
S'server_port'
p1147
asbag49
(g70
g51
NtRp1148
(dp1149
g54
(dp1150
g81
g82
ssg63
g1139
sg56
(lp1151
S':'
asbag49
(g70
g51
NtRp1152
(dp1153
g54
(dp1154
sg63
g1139
sg56
(lp1155
g49
(g50
g51
NtRp1156
(dp1157
g54
(dp1158
g62
I4
ssg63
g1152
sg56
(lp1159
S'8000'
p1160
asbasbasbag49
(g65
g51
NtRp1161
(dp1162
g54
(dp1163
sg63
g588
sg56
(lp1164
g49
(g70
g51
NtRp1165
(dp1166
g54
(dp1167
g74
g75
ssg63
g1161
sg56
(lp1168
S'server_protocol'
p1169
asbag49
(g70
g51
NtRp1170
(dp1171
g54
(dp1172
g81
g82
ssg63
g1161
sg56
(lp1173
S':'
asbag49
(g70
g51
NtRp1174
(dp1175
g54
(dp1176
sg63
g1161
sg56
(lp1177
g49
(g50
g51
NtRp1178
(dp1179
g54
(dp1180
g62
I4
ssg63
g1174
sg56
(lp1181
S'HTTP/1.1'
p1182
asbasbasbag49
(g65
g51
NtRp1183
(dp1184
g54
(dp1185
sg63
g588
sg56
(lp1186
g49
(g70
g51
NtRp1187
(dp1188
g54
(dp1189
g74
g75
ssg63
g1183
sg56
(lp1190
S'server_software'
p1191
asbag49
(g70
g51
NtRp1192
(dp1193
g54
(dp1194
g81
g82
ssg63
g1183
sg56
(lp1195
S':'
asbag49
(g70
g51
NtRp1196
(dp1197
g54
(dp1198
sg63
g1183
sg56
(lp1199
g49
(g50
g51
NtRp1200
(dp1201
g54
(dp1202
g62
I4
ssg63
g1196
sg56
(lp1203
S'Rocket 1.2.4'
p1204
asbasbasbag49
(g65
g51
NtRp1205
(dp1206
g54
(dp1207
sg63
g588
sg56
(lp1208
g49
(g70
g51
NtRp1209
(dp1210
g54
(dp1211
g74
g75
ssg63
g1205
sg56
(lp1212
S'web2py_crontype'
p1213
asbag49
(g70
g51
NtRp1214
(dp1215
g54
(dp1216
g81
g82
ssg63
g1205
sg56
(lp1217
S':'
asbag49
(g70
g51
NtRp1218
(dp1219
g54
(dp1220
sg63
g1205
sg56
(lp1221
g49
(g50
g51
NtRp1222
(dp1223
g54
(dp1224
g62
I4
ssg63
g1218
sg56
(lp1225
S'hard'
p1226
asbasbasbag49
(g65
g51
NtRp1227
(dp1228
g54
(dp1229
sg63
g588
sg56
(lp1230
g49
(g70
g51
NtRp1231
(dp1232
g54
(dp1233
g74
g75
ssg63
g1227
sg56
(lp1234
S'web2py_path'
p1235
asbag49
(g70
g51
NtRp1236
(dp1237
g54
(dp1238
g81
g82
ssg63
g1227
sg56
(lp1239
S':'
asbag49
(g70
g51
NtRp1240
(dp1241
g54
(dp1242
sg63
g1227
sg56
(lp1243
g49
(g50
g51
NtRp1244
(dp1245
g54
(dp1246
g62
I4
ssg63
g1240
sg56
(lp1247
g635
asbasbasbag49
(g65
g51
NtRp1248
(dp1249
g54
(dp1250
sg63
g588
sg56
(lp1251
g49
(g70
g51
NtRp1252
(dp1253
g54
(dp1254
g74
g75
ssg63
g1248
sg56
(lp1255
S'web2py_version'
p1256
asbag49
(g70
g51
NtRp1257
(dp1258
g54
(dp1259
g81
g82
ssg63
g1248
sg56
(lp1260
S':'
asbag49
(g70
g51
NtRp1261
(dp1262
g54
(dp1263
sg63
g1248
sg56
(lp1264
g49
(g50
g51
NtRp1265
(dp1266
g54
(dp1267
g62
I4
ssg63
g1261
sg56
(lp1268
g49
(g58
g51
NtRp1269
(dp1270
g54
(dp1271
g62
I3
ssg63
Nsg56
(lp1272
g49
(g65
g51
NtRp1273
(dp1274
g54
(dp1275
sg63
g1269
sg56
(lp1276
g49
(g70
g51
NtRp1277
(dp1278
g54
(dp1279
sg63
g1273
sg56
(lp1280
g49
(g50
g51
NtRp1281
(dp1282
g54
(dp1283
g62
I3
ssg63
g1277
sg56
(lp1284
S'1'
asbasbasbag49
(g65
g51
NtRp1285
(dp1286
g54
(dp1287
sg63
g1269
sg56
(lp1288
g49
(g70
g51
NtRp1289
(dp1290
g54
(dp1291
sg63
g1285
sg56
(lp1292
g49
(g50
g51
NtRp1293
(dp1294
g54
(dp1295
g62
I3
ssg63
g1289
sg56
(lp1296
S'99'
p1297
asbasbasbag49
(g65
g51
NtRp1298
(dp1299
g54
(dp1300
sg63
g1269
sg56
(lp1301
g49
(g70
g51
NtRp1302
(dp1303
g54
(dp1304
sg63
g1298
sg56
(lp1305
g49
(g50
g51
NtRp1306
(dp1307
g54
(dp1308
g62
I3
ssg63
g1302
sg56
(lp1309
S'7'
asbasbasbag49
(g65
g51
NtRp1310
(dp1311
g54
(dp1312
sg63
g1269
sg56
(lp1313
g49
(g70
g51
NtRp1314
(dp1315
g54
(dp1316
sg63
g1310
sg56
(lp1317
g49
(g50
g51
NtRp1318
(dp1319
g54
(dp1320
g62
I3
ssg63
g1314
sg56
(lp1321
S'datetime.datetime(2012, 3, 4, 22, 12, 8)'
p1322
asbasbasbag49
(g65
g51
NtRp1323
(dp1324
g54
(dp1325
sg63
g1269
sg56
(lp1326
g49
(g70
g51
NtRp1327
(dp1328
g54
(dp1329
sg63
g1323
sg56
(lp1330
g49
(g50
g51
NtRp1331
(dp1332
g54
(dp1333
g62
I3
ssg63
g1327
sg56
(lp1334
S'stable'
p1335
asbasbasbasbasbasbasbag49
(g65
g51
NtRp1336
(dp1337
g54
(dp1338
sg63
g588
sg56
(lp1339
g49
(g70
g51
NtRp1340
(dp1341
g54
(dp1342
g74
g75
ssg63
g1336
sg56
(lp1343
S'wsgi_errors'
p1344
asbag49
(g70
g51
NtRp1345
(dp1346
g54
(dp1347
g81
g82
ssg63
g1336
sg56
(lp1348
S':'
asbag49
(g70
g51
NtRp1349
(dp1350
g54
(dp1351
sg63
g1336
sg56
(lp1352
g49
(g50
g51
NtRp1353
(dp1354
g54
(dp1355
g62
I4
ssg63
g1349
sg56
(lp1356
S"<open file '<stderr>', mode 'w' at 0x004200B0>"
p1357
asbasbasbag49
(g65
g51
NtRp1358
(dp1359
g54
(dp1360
sg63
g588
sg56
(lp1361
g49
(g70
g51
NtRp1362
(dp1363
g54
(dp1364
g74
g75
ssg63
g1358
sg56
(lp1365
S'wsgi_file_wrapper'
p1366
asbag49
(g70
g51
NtRp1367
(dp1368
g54
(dp1369
g81
g82
ssg63
g1358
sg56
(lp1370
S':'
asbag49
(g70
g51
NtRp1371
(dp1372
g54
(dp1373
sg63
g1358
sg56
(lp1374
g49
(g50
g51
NtRp1375
(dp1376
g54
(dp1377
g62
I4
ssg63
g1371
sg56
(lp1378
S'<class wsgiref.util.FileWrapper at 0x02B168D0>'
p1379
asbasbasbag49
(g65
g51
NtRp1380
(dp1381
g54
(dp1382
sg63
g588
sg56
(lp1383
g49
(g70
g51
NtRp1384
(dp1385
g54
(dp1386
g74
g75
ssg63
g1380
sg56
(lp1387
S'wsgi_input'
p1388
asbag49
(g70
g51
NtRp1389
(dp1390
g54
(dp1391
g81
g82
ssg63
g1380
sg56
(lp1392
S':'
asbag49
(g70
g51
NtRp1393
(dp1394
g54
(dp1395
sg63
g1380
sg56
(lp1396
g49
(g50
g51
NtRp1397
(dp1398
g54
(dp1399
g62
I4
ssg63
g1393
sg56
(lp1400
S'<socket._fileobject object at 0x041CE0F0>'
p1401
asbasbasbag49
(g65
g51
NtRp1402
(dp1403
g54
(dp1404
sg63
g588
sg56
(lp1405
g49
(g70
g51
NtRp1406
(dp1407
g54
(dp1408
g74
g75
ssg63
g1402
sg56
(lp1409
S'wsgi_multiprocess'
p1410
asbag49
(g70
g51
NtRp1411
(dp1412
g54
(dp1413
g81
g82
ssg63
g1402
sg56
(lp1414
S':'
asbag49
(g70
g51
NtRp1415
(dp1416
g54
(dp1417
sg63
g1402
sg56
(lp1418
g49
(g50
g51
NtRp1419
(dp1420
g54
(dp1421
g62
I4
ssg63
g1415
sg56
(lp1422
g92
asbasbasbag49
(g65
g51
NtRp1423
(dp1424
g54
(dp1425
sg63
g588
sg56
(lp1426
g49
(g70
g51
NtRp1427
(dp1428
g54
(dp1429
g74
g75
ssg63
g1423
sg56
(lp1430
S'wsgi_multithread'
p1431
asbag49
(g70
g51
NtRp1432
(dp1433
g54
(dp1434
g81
g82
ssg63
g1423
sg56
(lp1435
S':'
asbag49
(g70
g51
NtRp1436
(dp1437
g54
(dp1438
sg63
g1423
sg56
(lp1439
g49
(g50
g51
NtRp1440
(dp1441
g54
(dp1442
g62
I4
ssg63
g1436
sg56
(lp1443
g726
asbasbasbag49
(g65
g51
NtRp1444
(dp1445
g54
(dp1446
sg63
g588
sg56
(lp1447
g49
(g70
g51
NtRp1448
(dp1449
g54
(dp1450
g74
g75
ssg63
g1444
sg56
(lp1451
S'wsgi_run_once'
p1452
asbag49
(g70
g51
NtRp1453
(dp1454
g54
(dp1455
g81
g82
ssg63
g1444
sg56
(lp1456
S':'
asbag49
(g70
g51
NtRp1457
(dp1458
g54
(dp1459
sg63
g1444
sg56
(lp1460
g49
(g50
g51
NtRp1461
(dp1462
g54
(dp1463
g62
I4
ssg63
g1457
sg56
(lp1464
g92
asbasbasbag49
(g65
g51
NtRp1465
(dp1466
g54
(dp1467
sg63
g588
sg56
(lp1468
g49
(g70
g51
NtRp1469
(dp1470
g54
(dp1471
g74
g75
ssg63
g1465
sg56
(lp1472
S'wsgi_url_scheme'
p1473
asbag49
(g70
g51
NtRp1474
(dp1475
g54
(dp1476
g81
g82
ssg63
g1465
sg56
(lp1477
S':'
asbag49
(g70
g51
NtRp1478
(dp1479
g54
(dp1480
sg63
g1465
sg56
(lp1481
g49
(g50
g51
NtRp1482
(dp1483
g54
(dp1484
g62
I4
ssg63
g1478
sg56
(lp1485
S'http'
p1486
asbasbasbag49
(g65
g51
NtRp1487
(dp1488
g54
(dp1489
sg63
g588
sg56
(lp1490
g49
(g70
g51
NtRp1491
(dp1492
g54
(dp1493
g74
g75
ssg63
g1487
sg56
(lp1494
S'wsgi_version'
p1495
asbag49
(g70
g51
NtRp1496
(dp1497
g54
(dp1498
g81
g82
ssg63
g1487
sg56
(lp1499
S':'
asbag49
(g70
g51
NtRp1500
(dp1501
g54
(dp1502
sg63
g1487
sg56
(lp1503
g49
(g50
g51
NtRp1504
(dp1505
g54
(dp1506
g62
I4
ssg63
g1500
sg56
(lp1507
g49
(g58
g51
NtRp1508
(dp1509
g54
(dp1510
g62
I3
ssg63
Nsg56
(lp1511
g49
(g65
g51
NtRp1512
(dp1513
g54
(dp1514
sg63
g1508
sg56
(lp1515
g49
(g70
g51
NtRp1516
(dp1517
g54
(dp1518
sg63
g1512
sg56
(lp1519
g49
(g50
g51
NtRp1520
(dp1521
g54
(dp1522
g62
I3
ssg63
g1516
sg56
(lp1523
S'1'
asbasbasbag49
(g65
g51
NtRp1524
(dp1525
g54
(dp1526
sg63
g1508
sg56
(lp1527
g49
(g70
g51
NtRp1528
(dp1529
g54
(dp1530
sg63
g1524
sg56
(lp1531
g49
(g50
g51
NtRp1532
(dp1533
g54
(dp1534
g62
I3
ssg63
g1528
sg56
(lp1535
S'0'
asbasbasbasbasbasbasbasbasbasbasbag49
(g65
g51
NtRp1536
(dp1537
g54
(dp1538
sg63
g59
sg56
(lp1539
g49
(g70
g51
NtRp1540
(dp1541
g54
(dp1542
g74
g75
ssg63
g1536
sg56
(lp1543
S'extension'
p1544
asbag49
(g70
g51
NtRp1545
(dp1546
g54
(dp1547
g81
g82
ssg63
g1536
sg56
(lp1548
S':'
asbag49
(g70
g51
NtRp1549
(dp1550
g54
(dp1551
sg63
g1536
sg56
(lp1552
g49
(g50
g51
NtRp1553
(dp1554
g54
(dp1555
g62
I5
ssg63
g1549
sg56
(lp1556
S'html'
p1557
asbasbasbag49
(g65
g51
NtRp1558
(dp1559
g54
(dp1560
sg63
g59
sg56
(lp1561
g49
(g70
g51
NtRp1562
(dp1563
g54
(dp1564
g74
g75
ssg63
g1558
sg56
(lp1565
S'folder'
p1566
asbag49
(g70
g51
NtRp1567
(dp1568
g54
(dp1569
g81
g82
ssg63
g1558
sg56
(lp1570
S':'
asbag49
(g70
g51
NtRp1571
(dp1572
g54
(dp1573
sg63
g1558
sg56
(lp1574
g49
(g50
g51
NtRp1575
(dp1576
g54
(dp1577
g62
I5
ssg63
g1571
sg56
(lp1578
S'C:\\Users\\Bussiere\\Dropbox\\Projets\\Yuki\\web2py\\applications\\init\\'
p1579
asbasbasbag49
(g65
g51
NtRp1580
(dp1581
g54
(dp1582
sg63
g59
sg56
(lp1583
g49
(g70
g51
NtRp1584
(dp1585
g54
(dp1586
g74
g75
ssg63
g1580
sg56
(lp1587
S'function'
p1588
asbag49
(g70
g51
NtRp1589
(dp1590
g54
(dp1591
g81
g82
ssg63
g1580
sg56
(lp1592
S':'
asbag49
(g70
g51
NtRp1593
(dp1594
g54
(dp1595
sg63
g1580
sg56
(lp1596
g49
(g50
g51
NtRp1597
(dp1598
g54
(dp1599
g62
I5
ssg63
g1593
sg56
(lp1600
S'index'
p1601
asbasbasbag49
(g65
g51
NtRp1602
(dp1603
g54
(dp1604
sg63
g59
sg56
(lp1605
g49
(g70
g51
NtRp1606
(dp1607
g54
(dp1608
g74
g75
ssg63
g1602
sg56
(lp1609
S'get_vars'
p1610
asbag49
(g70
g51
NtRp1611
(dp1612
g54
(dp1613
g81
g82
ssg63
g1602
sg56
(lp1614
S':'
asbag49
(g70
g51
NtRp1615
(dp1616
g54
(dp1617
sg63
g1602
sg56
(lp1618
g49
(g50
g51
NtRp1619
(dp1620
g54
(dp1621
g62
I5
ssg63
g1615
sg56
(lp1622
g49
(g58
g51
NtRp1623
(dp1624
g54
(dp1625
g62
I4
ssg63
Nsg56
(lp1626
sbasbasbasbag49
(g65
g51
NtRp1627
(dp1628
g54
(dp1629
sg63
g59
sg56
(lp1630
g49
(g70
g51
NtRp1631
(dp1632
g54
(dp1633
g74
g75
ssg63
g1627
sg56
(lp1634
S'global_settings'
p1635
asbag49
(g70
g51
NtRp1636
(dp1637
g54
(dp1638
g81
g82
ssg63
g1627
sg56
(lp1639
S':'
asbag49
(g70
g51
NtRp1640
(dp1641
g54
(dp1642
sg63
g1627
sg56
(lp1643
g49
(g50
g51
NtRp1644
(dp1645
g54
(dp1646
g62
I5
ssg63
g1640
sg56
(lp1647
g49
(g58
g51
NtRp1648
(dp1649
g54
(dp1650
g62
I4
ssg63
Nsg56
(lp1651
g49
(g65
g51
NtRp1652
(dp1653
g54
(dp1654
sg63
g1648
sg56
(lp1655
g49
(g70
g51
NtRp1656
(dp1657
g54
(dp1658
g74
g75
ssg63
g1652
sg56
(lp1659
g600
asbag49
(g70
g51
NtRp1660
(dp1661
g54
(dp1662
g81
g82
ssg63
g1652
sg56
(lp1663
S':'
asbag49
(g70
g51
NtRp1664
(dp1665
g54
(dp1666
sg63
g1652
sg56
(lp1667
g49
(g50
g51
NtRp1668
(dp1669
g54
(dp1670
g62
I4
ssg63
g1664
sg56
(lp1671
S"set(['C:\\\\Users\\\\Bussiere\\\\Dropbox\\\\Projets\\\\Yuki\\\\web2py\\\\applications\\\\init\\\\', 'C:\\\\Users\\\\Bussiere\\\\Dropbox\\\\Projets\\\\Yuki\\\\web2py\\\\applications\\\\admin\\\\'])"
p1672
asbasbasbag49
(g65
g51
NtRp1673
(dp1674
g54
(dp1675
sg63
g1648
sg56
(lp1676
g49
(g70
g51
NtRp1677
(dp1678
g54
(dp1679
g74
g75
ssg63
g1673
sg56
(lp1680
g622
asbag49
(g70
g51
NtRp1681
(dp1682
g54
(dp1683
g81
g82
ssg63
g1673
sg56
(lp1684
S':'
asbag49
(g70
g51
NtRp1685
(dp1686
g54
(dp1687
sg63
g1673
sg56
(lp1688
g49
(g50
g51
NtRp1689
(dp1690
g54
(dp1691
g62
I4
ssg63
g1685
sg56
(lp1692
g635
asbasbasbag49
(g65
g51
NtRp1693
(dp1694
g54
(dp1695
sg63
g1648
sg56
(lp1696
g49
(g70
g51
NtRp1697
(dp1698
g54
(dp1699
g74
g75
ssg63
g1693
sg56
(lp1700
g644
asbag49
(g70
g51
NtRp1701
(dp1702
g54
(dp1703
g81
g82
ssg63
g1693
sg56
(lp1704
S':'
asbag49
(g70
g51
NtRp1705
(dp1706
g54
(dp1707
sg63
g1693
sg56
(lp1708
g49
(g50
g51
NtRp1709
(dp1710
g54
(dp1711
g62
I4
ssg63
g1705
sg56
(lp1712
g49
(g58
g51
NtRp1713
(dp1714
g54
(dp1715
g62
I3
ssg63
Nsg56
(lp1716
sbasbasbasbag49
(g65
g51
NtRp1717
(dp1718
g54
(dp1719
sg63
g1648
sg56
(lp1720
g49
(g70
g51
NtRp1721
(dp1722
g54
(dp1723
g74
g75
ssg63
g1717
sg56
(lp1724
g669
asbag49
(g70
g51
NtRp1725
(dp1726
g54
(dp1727
g81
g82
ssg63
g1717
sg56
(lp1728
S':'
asbag49
(g70
g51
NtRp1729
(dp1730
g54
(dp1731
sg63
g1717
sg56
(lp1732
g49
(g50
g51
NtRp1733
(dp1734
g54
(dp1735
g62
I4
ssg63
g1729
sg56
(lp1736
S"<Values at 0x3c04f58: {'verbose': False, 'ip': '127.0.0.1', 'shutdown_timeout': 5, 'taskbar': False, 'nocron': False, 'pid_filename': 'httpserver.pid', 'maxthreads': None, 'softcron': False, 'server_name': 'Batou', 'bpython': False, 'nogui': False, 'port': 8000, 'extcron': False, 'debuglevel': 30, 'test': None, 'folder': 'C:\\\\Users\\\\Bussiere\\\\Dropbox\\\\Projets\\\\Yuki\\\\web2py', 'config': '', 'import_models': False, 'winservice': '', 'shell': None, 'run': '', 'log_filename': 'httpserver.log', 'args': [''], 'socket_timeout': 5, 'ssl_ca_certificate': None, 'scheduler': None, 'profiler_filename': None, 'ssl_private_key': '', 'password': '<ask>', 'request_queue_size': 5, 'ssl_certificate': '', 'cronjob': False, 'numthreads': None, 'quiet': False, 'interfaces': None, 'minthreads': None, 'timeout': 10, 'plain': False, 'nobanner': False}>"
p1737
asbasbasbag49
(g65
g51
NtRp1738
(dp1739
g54
(dp1740
sg63
g1648
sg56
(lp1741
g49
(g70
g51
NtRp1742
(dp1743
g54
(dp1744
g74
g75
ssg63
g1738
sg56
(lp1745
g691
asbag49
(g70
g51
NtRp1746
(dp1747
g54
(dp1748
g81
g82
ssg63
g1738
sg56
(lp1749
S':'
asbag49
(g70
g51
NtRp1750
(dp1751
g54
(dp1752
sg63
g1738
sg56
(lp1753
g49
(g50
g51
NtRp1754
(dp1755
g54
(dp1756
g62
I4
ssg63
g1750
sg56
(lp1757
S'set([])'
p1758
asbasbasbag49
(g65
g51
NtRp1759
(dp1760
g54
(dp1761
sg63
g1648
sg56
(lp1762
g49
(g70
g51
NtRp1763
(dp1764
g54
(dp1765
g74
g75
ssg63
g1759
sg56
(lp1766
g713
asbag49
(g70
g51
NtRp1767
(dp1768
g54
(dp1769
g81
g82
ssg63
g1759
sg56
(lp1770
S':'
asbag49
(g70
g51
NtRp1771
(dp1772
g54
(dp1773
sg63
g1759
sg56
(lp1774
g49
(g50
g51
NtRp1775
(dp1776
g54
(dp1777
g62
I4
ssg63
g1771
sg56
(lp1778
g726
asbasbasbag49
(g65
g51
NtRp1779
(dp1780
g54
(dp1781
sg63
g1648
sg56
(lp1782
g49
(g70
g51
NtRp1783
(dp1784
g54
(dp1785
g74
g75
ssg63
g1779
sg56
(lp1786
g735
asbag49
(g70
g51
NtRp1787
(dp1788
g54
(dp1789
g81
g82
ssg63
g1779
sg56
(lp1790
S':'
asbag49
(g70
g51
NtRp1791
(dp1792
g54
(dp1793
sg63
g1779
sg56
(lp1794
g49
(g50
g51
NtRp1795
(dp1796
g54
(dp1797
g62
I4
ssg63
g1791
sg56
(lp1798
g748
asbasbasbag49
(g65
g51
NtRp1799
(dp1800
g54
(dp1801
sg63
g1648
sg56
(lp1802
g49
(g70
g51
NtRp1803
(dp1804
g54
(dp1805
g74
g75
ssg63
g1799
sg56
(lp1806
g955
asbag49
(g70
g51
NtRp1807
(dp1808
g54
(dp1809
g81
g82
ssg63
g1799
sg56
(lp1810
S':'
asbag49
(g70
g51
NtRp1811
(dp1812
g54
(dp1813
sg63
g1799
sg56
(lp1814
g49
(g50
g51
NtRp1815
(dp1816
g54
(dp1817
g62
I4
ssg63
g1811
sg56
(lp1818
g92
asbasbasbag49
(g65
g51
NtRp1819
(dp1820
g54
(dp1821
sg63
g1648
sg56
(lp1822
g49
(g70
g51
NtRp1823
(dp1824
g54
(dp1825
g74
g75
ssg63
g1819
sg56
(lp1826
g976
asbag49
(g70
g51
NtRp1827
(dp1828
g54
(dp1829
g81
g82
ssg63
g1819
sg56
(lp1830
S':'
asbag49
(g70
g51
NtRp1831
(dp1832
g54
(dp1833
sg63
g1819
sg56
(lp1834
g49
(g50
g51
NtRp1835
(dp1836
g54
(dp1837
g62
I4
ssg63
g1831
sg56
(lp1838
g92
asbasbasbag49
(g65
g51
NtRp1839
(dp1840
g54
(dp1841
sg63
g1648
sg56
(lp1842
g49
(g70
g51
NtRp1843
(dp1844
g54
(dp1845
g74
g75
ssg63
g1839
sg56
(lp1846
g1213
asbag49
(g70
g51
NtRp1847
(dp1848
g54
(dp1849
g81
g82
ssg63
g1839
sg56
(lp1850
S':'
asbag49
(g70
g51
NtRp1851
(dp1852
g54
(dp1853
sg63
g1839
sg56
(lp1854
g49
(g50
g51
NtRp1855
(dp1856
g54
(dp1857
g62
I4
ssg63
g1851
sg56
(lp1858
g1226
asbasbasbag49
(g65
g51
NtRp1859
(dp1860
g54
(dp1861
sg63
g1648
sg56
(lp1862
g49
(g70
g51
NtRp1863
(dp1864
g54
(dp1865
g74
g75
ssg63
g1859
sg56
(lp1866
g1256
asbag49
(g70
g51
NtRp1867
(dp1868
g54
(dp1869
g81
g82
ssg63
g1859
sg56
(lp1870
S':'
asbag49
(g70
g51
NtRp1871
(dp1872
g54
(dp1873
sg63
g1859
sg56
(lp1874
g49
(g50
g51
NtRp1875
(dp1876
g54
(dp1877
g62
I4
ssg63
g1871
sg56
(lp1878
g49
(g58
g51
NtRp1879
(dp1880
g54
(dp1881
g62
I3
ssg63
Nsg56
(lp1882
g49
(g65
g51
NtRp1883
(dp1884
g54
(dp1885
sg63
g1879
sg56
(lp1886
g49
(g70
g51
NtRp1887
(dp1888
g54
(dp1889
sg63
g1883
sg56
(lp1890
g49
(g50
g51
NtRp1891
(dp1892
g54
(dp1893
g62
I3
ssg63
g1887
sg56
(lp1894
S'1'
asbasbasbag49
(g65
g51
NtRp1895
(dp1896
g54
(dp1897
sg63
g1879
sg56
(lp1898
g49
(g70
g51
NtRp1899
(dp1900
g54
(dp1901
sg63
g1895
sg56
(lp1902
g49
(g50
g51
NtRp1903
(dp1904
g54
(dp1905
g62
I3
ssg63
g1899
sg56
(lp1906
S'99'
p1907
asbasbasbag49
(g65
g51
NtRp1908
(dp1909
g54
(dp1910
sg63
g1879
sg56
(lp1911
g49
(g70
g51
NtRp1912
(dp1913
g54
(dp1914
sg63
g1908
sg56
(lp1915
g49
(g50
g51
NtRp1916
(dp1917
g54
(dp1918
g62
I3
ssg63
g1912
sg56
(lp1919
S'7'
asbasbasbag49
(g65
g51
NtRp1920
(dp1921
g54
(dp1922
sg63
g1879
sg56
(lp1923
g49
(g70
g51
NtRp1924
(dp1925
g54
(dp1926
sg63
g1920
sg56
(lp1927
g49
(g50
g51
NtRp1928
(dp1929
g54
(dp1930
g62
I3
ssg63
g1924
sg56
(lp1931
S'datetime.datetime(2012, 3, 4, 22, 12, 8)'
p1932
asbasbasbag49
(g65
g51
NtRp1933
(dp1934
g54
(dp1935
sg63
g1879
sg56
(lp1936
g49
(g70
g51
NtRp1937
(dp1938
g54
(dp1939
sg63
g1933
sg56
(lp1940
g49
(g50
g51
NtRp1941
(dp1942
g54
(dp1943
g62
I3
ssg63
g1937
sg56
(lp1944
g1335
asbasbasbasbasbasbasbasbasbasbasbag49
(g65
g51
NtRp1945
(dp1946
g54
(dp1947
sg63
g59
sg56
(lp1948
g49
(g70
g51
NtRp1949
(dp1950
g54
(dp1951
g74
g75
ssg63
g1945
sg56
(lp1952
S'is_https'
p1953
asbag49
(g70
g51
NtRp1954
(dp1955
g54
(dp1956
g81
g82
ssg63
g1945
sg56
(lp1957
S':'
asbag49
(g70
g51
NtRp1958
(dp1959
g54
(dp1960
sg63
g1945
sg56
(lp1961
g49
(g50
g51
NtRp1962
(dp1963
g54
(dp1964
g62
I5
ssg63
g1958
sg56
(lp1965
g92
asbasbasbag49
(g65
g51
NtRp1966
(dp1967
g54
(dp1968
sg63
g59
sg56
(lp1969
g49
(g70
g51
NtRp1970
(dp1971
g54
(dp1972
g74
g75
ssg63
g1966
sg56
(lp1973
S'is_local'
p1974
asbag49
(g70
g51
NtRp1975
(dp1976
g54
(dp1977
g81
g82
ssg63
g1966
sg56
(lp1978
S':'
asbag49
(g70
g51
NtRp1979
(dp1980
g54
(dp1981
sg63
g1966
sg56
(lp1982
g49
(g50
g51
NtRp1983
(dp1984
g54
(dp1985
g62
I5
ssg63
g1979
sg56
(lp1986
g726
asbasbasbag49
(g65
g51
NtRp1987
(dp1988
g54
(dp1989
sg63
g59
sg56
(lp1990
g49
(g70
g51
NtRp1991
(dp1992
g54
(dp1993
g74
g75
ssg63
g1987
sg56
(lp1994
S'is_restful'
p1995
asbag49
(g70
g51
NtRp1996
(dp1997
g54
(dp1998
g81
g82
ssg63
g1987
sg56
(lp1999
S':'
asbag49
(g70
g51
NtRp2000
(dp2001
g54
(dp2002
sg63
g1987
sg56
(lp2003
g49
(g50
g51
NtRp2004
(dp2005
g54
(dp2006
g62
I5
ssg63
g2000
sg56
(lp2007
g92
asbasbasbag49
(g65
g51
NtRp2008
(dp2009
g54
(dp2010
sg63
g59
sg56
(lp2011
g49
(g70
g51
NtRp2012
(dp2013
g54
(dp2014
g74
g75
ssg63
g2008
sg56
(lp2015
S'now'
p2016
asbag49
(g70
g51
NtRp2017
(dp2018
g54
(dp2019
g81
g82
ssg63
g2008
sg56
(lp2020
S':'
asbag49
(g70
g51
NtRp2021
(dp2022
g54
(dp2023
sg63
g2008
sg56
(lp2024
g49
(g50
g51
NtRp2025
(dp2026
g54
(dp2027
g62
I5
ssg63
g2021
sg56
(lp2028
S'datetime.datetime(2012, 3, 13, 6, 13, 3, 171000)'
p2029
asbasbasbag49
(g65
g51
NtRp2030
(dp2031
g54
(dp2032
sg63
g59
sg56
(lp2033
g49
(g70
g51
NtRp2034
(dp2035
g54
(dp2036
g74
g75
ssg63
g2030
sg56
(lp2037
S'post_vars'
p2038
asbag49
(g70
g51
NtRp2039
(dp2040
g54
(dp2041
g81
g82
ssg63
g2030
sg56
(lp2042
S':'
asbag49
(g70
g51
NtRp2043
(dp2044
g54
(dp2045
sg63
g2030
sg56
(lp2046
g49
(g50
g51
NtRp2047
(dp2048
g54
(dp2049
g62
I5
ssg63
g2043
sg56
(lp2050
g49
(g58
g51
NtRp2051
(dp2052
g54
(dp2053
g62
I4
ssg63
Nsg56
(lp2054
sbasbasbasbag49
(g65
g51
NtRp2055
(dp2056
g54
(dp2057
sg63
g59
sg56
(lp2058
g49
(g70
g51
NtRp2059
(dp2060
g54
(dp2061
g74
g75
ssg63
g2055
sg56
(lp2062
S'url'
p2063
asbag49
(g70
g51
NtRp2064
(dp2065
g54
(dp2066
g81
g82
ssg63
g2055
sg56
(lp2067
S':'
asbag49
(g70
g51
NtRp2068
(dp2069
g54
(dp2070
sg63
g2055
sg56
(lp2071
g49
(g50
g51
NtRp2072
(dp2073
g54
(dp2074
g62
I5
ssg63
g2068
sg56
(lp2075
S'/init/default/index'
p2076
asbasbasbag49
(g65
g51
NtRp2077
(dp2078
g54
(dp2079
sg63
g59
sg56
(lp2080
g49
(g70
g51
NtRp2081
(dp2082
g54
(dp2083
g74
g75
ssg63
g2077
sg56
(lp2084
S'utcnow'
p2085
asbag49
(g70
g51
NtRp2086
(dp2087
g54
(dp2088
g81
g82
ssg63
g2077
sg56
(lp2089
S':'
asbag49
(g70
g51
NtRp2090
(dp2091
g54
(dp2092
sg63
g2077
sg56
(lp2093
g49
(g50
g51
NtRp2094
(dp2095
g54
(dp2096
g62
I5
ssg63
g2090
sg56
(lp2097
S'datetime.datetime(2012, 3, 13, 5, 13, 3, 171000)'
p2098
asbasbasbag49
(g65
g51
NtRp2099
(dp2100
g54
(dp2101
sg63
g59
sg56
(lp2102
g49
(g70
g51
NtRp2103
(dp2104
g54
(dp2105
g74
g75
ssg63
g2099
sg56
(lp2106
S'uuid'
p2107
asbag49
(g70
g51
NtRp2108
(dp2109
g54
(dp2110
g81
g82
ssg63
g2099
sg56
(lp2111
S':'
asbag49
(g70
g51
NtRp2112
(dp2113
g54
(dp2114
sg63
g2099
sg56
(lp2115
g49
(g50
g51
NtRp2116
(dp2117
g54
(dp2118
g62
I5
ssg63
g2112
sg56
(lp2119
S'init/127.0.0.1.2012-03-13.06-13-03.60783238-bf1d-4f13-9c5a-c4121228ce3b'
p2120
asbasbasbag49
(g65
g51
NtRp2121
(dp2122
g54
(dp2123
sg63
g59
sg56
(lp2124
g49
(g70
g51
NtRp2125
(dp2126
g54
(dp2127
g74
g75
ssg63
g2121
sg56
(lp2128
S'vars'
p2129
asbag49
(g70
g51
NtRp2130
(dp2131
g54
(dp2132
g81
g82
ssg63
g2121
sg56
(lp2133
S':'
asbag49
(g70
g51
NtRp2134
(dp2135
g54
(dp2136
sg63
g2121
sg56
(lp2137
g49
(g50
g51
NtRp2138
(dp2139
g54
(dp2140
g62
I5
ssg63
g2134
sg56
(lp2141
g49
(g58
g51
NtRp2142
(dp2143
g54
(dp2144
g62
I4
ssg63
Nsg56
(lp2145
sbasbasbasbag49
(g65
g51
NtRp2146
(dp2147
g54
(dp2148
sg63
g59
sg56
(lp2149
g49
(g70
g51
NtRp2150
(dp2151
g54
(dp2152
g74
g75
ssg63
g2146
sg56
(lp2153
S'wsgi'
p2154
asbag49
(g70
g51
NtRp2155
(dp2156
g54
(dp2157
g81
g82
ssg63
g2146
sg56
(lp2158
S':'
asbag49
(g70
g51
NtRp2159
(dp2160
g54
(dp2161
sg63
g2146
sg56
(lp2162
g49
(g50
g51
NtRp2163
(dp2164
g54
(dp2165
g62
I5
ssg63
g2159
sg56
(lp2166
g49
(g58
g51
NtRp2167
(dp2168
g54
(dp2169
g62
I4
ssg63
Nsg56
(lp2170
g49
(g65
g51
NtRp2171
(dp2172
g54
(dp2173
sg63
g2167
sg56
(lp2174
g49
(g70
g51
NtRp2175
(dp2176
g54
(dp2177
g74
g75
ssg63
g2171
sg56
(lp2178
S'environ'
p2179
asbag49
(g70
g51
NtRp2180
(dp2181
g54
(dp2182
g81
g82
ssg63
g2171
sg56
(lp2183
S':'
asbag49
(g70
g51
NtRp2184
(dp2185
g54
(dp2186
sg63
g2171
sg56
(lp2187
g49
(g50
g51
NtRp2188
(dp2189
g54
(dp2190
g62
I4
ssg63
g2184
sg56
(lp2191
g49
(g58
g51
NtRp2192
(dp2193
g54
(dp2194
g62
I3
ssg63
Nsg56
(lp2195
g49
(g65
g51
NtRp2196
(dp2197
g54
(dp2198
sg63
g2192
sg56
(lp2199
g49
(g70
g51
NtRp2200
(dp2201
g54
(dp2202
g74
g75
ssg63
g2196
sg56
(lp2203
S'HTTP_ACCEPT'
p2204
asbag49
(g70
g51
NtRp2205
(dp2206
g54
(dp2207
g81
g82
ssg63
g2196
sg56
(lp2208
S':'
asbag49
(g70
g51
NtRp2209
(dp2210
g54
(dp2211
sg63
g2196
sg56
(lp2212
g49
(g50
g51
NtRp2213
(dp2214
g54
(dp2215
g62
I3
ssg63
g2209
sg56
(lp2216
g770
asbasbasbag49
(g65
g51
NtRp2217
(dp2218
g54
(dp2219
sg63
g2192
sg56
(lp2220
g49
(g70
g51
NtRp2221
(dp2222
g54
(dp2223
g74
g75
ssg63
g2217
sg56
(lp2224
S'HTTP_ACCEPT_CHARSET'
p2225
asbag49
(g70
g51
NtRp2226
(dp2227
g54
(dp2228
g81
g82
ssg63
g2217
sg56
(lp2229
S':'
asbag49
(g70
g51
NtRp2230
(dp2231
g54
(dp2232
sg63
g2217
sg56
(lp2233
g49
(g50
g51
NtRp2234
(dp2235
g54
(dp2236
g62
I3
ssg63
g2230
sg56
(lp2237
g792
asbasbasbag49
(g65
g51
NtRp2238
(dp2239
g54
(dp2240
sg63
g2192
sg56
(lp2241
g49
(g70
g51
NtRp2242
(dp2243
g54
(dp2244
g74
g75
ssg63
g2238
sg56
(lp2245
S'HTTP_ACCEPT_ENCODING'
p2246
asbag49
(g70
g51
NtRp2247
(dp2248
g54
(dp2249
g81
g82
ssg63
g2238
sg56
(lp2250
S':'
asbag49
(g70
g51
NtRp2251
(dp2252
g54
(dp2253
sg63
g2238
sg56
(lp2254
g49
(g50
g51
NtRp2255
(dp2256
g54
(dp2257
g62
I3
ssg63
g2251
sg56
(lp2258
g814
asbasbasbag49
(g65
g51
NtRp2259
(dp2260
g54
(dp2261
sg63
g2192
sg56
(lp2262
g49
(g70
g51
NtRp2263
(dp2264
g54
(dp2265
g74
g75
ssg63
g2259
sg56
(lp2266
S'HTTP_ACCEPT_LANGUAGE'
p2267
asbag49
(g70
g51
NtRp2268
(dp2269
g54
(dp2270
g81
g82
ssg63
g2259
sg56
(lp2271
S':'
asbag49
(g70
g51
NtRp2272
(dp2273
g54
(dp2274
sg63
g2259
sg56
(lp2275
g49
(g50
g51
NtRp2276
(dp2277
g54
(dp2278
g62
I3
ssg63
g2272
sg56
(lp2279
g836
asbasbasbag49
(g65
g51
NtRp2280
(dp2281
g54
(dp2282
sg63
g2192
sg56
(lp2283
g49
(g70
g51
NtRp2284
(dp2285
g54
(dp2286
g74
g75
ssg63
g2280
sg56
(lp2287
S'HTTP_CACHE_CONTROL'
p2288
asbag49
(g70
g51
NtRp2289
(dp2290
g54
(dp2291
g81
g82
ssg63
g2280
sg56
(lp2292
S':'
asbag49
(g70
g51
NtRp2293
(dp2294
g54
(dp2295
sg63
g2280
sg56
(lp2296
g49
(g50
g51
NtRp2297
(dp2298
g54
(dp2299
g62
I3
ssg63
g2293
sg56
(lp2300
g858
asbasbasbag49
(g65
g51
NtRp2301
(dp2302
g54
(dp2303
sg63
g2192
sg56
(lp2304
g49
(g70
g51
NtRp2305
(dp2306
g54
(dp2307
g74
g75
ssg63
g2301
sg56
(lp2308
S'HTTP_CONNECTION'
p2309
asbag49
(g70
g51
NtRp2310
(dp2311
g54
(dp2312
g81
g82
ssg63
g2301
sg56
(lp2313
S':'
asbag49
(g70
g51
NtRp2314
(dp2315
g54
(dp2316
sg63
g2301
sg56
(lp2317
g49
(g50
g51
NtRp2318
(dp2319
g54
(dp2320
g62
I3
ssg63
g2314
sg56
(lp2321
g880
asbasbasbag49
(g65
g51
NtRp2322
(dp2323
g54
(dp2324
sg63
g2192
sg56
(lp2325
g49
(g70
g51
NtRp2326
(dp2327
g54
(dp2328
g74
g75
ssg63
g2322
sg56
(lp2329
S'HTTP_COOKIE'
p2330
asbag49
(g70
g51
NtRp2331
(dp2332
g54
(dp2333
g81
g82
ssg63
g2322
sg56
(lp2334
S':'
asbag49
(g70
g51
NtRp2335
(dp2336
g54
(dp2337
sg63
g2322
sg56
(lp2338
g49
(g50
g51
NtRp2339
(dp2340
g54
(dp2341
g62
I3
ssg63
g2335
sg56
(lp2342
g902
asbasbasbag49
(g65
g51
NtRp2343
(dp2344
g54
(dp2345
sg63
g2192
sg56
(lp2346
g49
(g70
g51
NtRp2347
(dp2348
g54
(dp2349
g74
g75
ssg63
g2343
sg56
(lp2350
S'HTTP_HOST'
p2351
asbag49
(g70
g51
NtRp2352
(dp2353
g54
(dp2354
g81
g82
ssg63
g2343
sg56
(lp2355
S':'
asbag49
(g70
g51
NtRp2356
(dp2357
g54
(dp2358
sg63
g2343
sg56
(lp2359
g49
(g50
g51
NtRp2360
(dp2361
g54
(dp2362
g62
I3
ssg63
g2356
sg56
(lp2363
g924
asbasbasbag49
(g65
g51
NtRp2364
(dp2365
g54
(dp2366
sg63
g2192
sg56
(lp2367
g49
(g70
g51
NtRp2368
(dp2369
g54
(dp2370
g74
g75
ssg63
g2364
sg56
(lp2371
S'HTTP_USER_AGENT'
p2372
asbag49
(g70
g51
NtRp2373
(dp2374
g54
(dp2375
g81
g82
ssg63
g2364
sg56
(lp2376
S':'
asbag49
(g70
g51
NtRp2377
(dp2378
g54
(dp2379
sg63
g2364
sg56
(lp2380
g49
(g50
g51
NtRp2381
(dp2382
g54
(dp2383
g62
I3
ssg63
g2377
sg56
(lp2384
g946
asbasbasbag49
(g65
g51
NtRp2385
(dp2386
g54
(dp2387
sg63
g2192
sg56
(lp2388
g49
(g70
g51
NtRp2389
(dp2390
g54
(dp2391
g74
g75
ssg63
g2385
sg56
(lp2392
S'PATH_INFO'
p2393
asbag49
(g70
g51
NtRp2394
(dp2395
g54
(dp2396
g81
g82
ssg63
g2385
sg56
(lp2397
S':'
asbag49
(g70
g51
NtRp2398
(dp2399
g54
(dp2400
sg63
g2385
sg56
(lp2401
g49
(g50
g51
NtRp2402
(dp2403
g54
(dp2404
g62
I3
ssg63
g2398
sg56
(lp2405
S'/'
asbasbasbag49
(g65
g51
NtRp2406
(dp2407
g54
(dp2408
sg63
g2192
sg56
(lp2409
g49
(g70
g51
NtRp2410
(dp2411
g54
(dp2412
g74
g75
ssg63
g2406
sg56
(lp2413
S'QUERY_STRING'
p2414
asbag49
(g70
g51
NtRp2415
(dp2416
g54
(dp2417
g81
g82
ssg63
g2406
sg56
(lp2418
S':'
asbag49
(g70
g51
NtRp2419
(dp2420
g54
(dp2421
sg63
g2406
sg56
(lp2422
g49
(g50
g51
NtRp2423
(dp2424
g54
(dp2425
g62
I3
ssg63
g2419
sg56
(lp2426
S''
asbasbasbag49
(g65
g51
NtRp2427
(dp2428
g54
(dp2429
sg63
g2192
sg56
(lp2430
g49
(g70
g51
NtRp2431
(dp2432
g54
(dp2433
g74
g75
ssg63
g2427
sg56
(lp2434
S'REMOTE_ADDR'
p2435
asbag49
(g70
g51
NtRp2436
(dp2437
g54
(dp2438
g81
g82
ssg63
g2427
sg56
(lp2439
S':'
asbag49
(g70
g51
NtRp2440
(dp2441
g54
(dp2442
sg63
g2427
sg56
(lp2443
g49
(g50
g51
NtRp2444
(dp2445
g54
(dp2446
g62
I3
ssg63
g2440
sg56
(lp2447
g182
asbasbasbag49
(g65
g51
NtRp2448
(dp2449
g54
(dp2450
sg63
g2192
sg56
(lp2451
g49
(g70
g51
NtRp2452
(dp2453
g54
(dp2454
g74
g75
ssg63
g2448
sg56
(lp2455
S'REMOTE_PORT'
p2456
asbag49
(g70
g51
NtRp2457
(dp2458
g54
(dp2459
g81
g82
ssg63
g2448
sg56
(lp2460
S':'
asbag49
(g70
g51
NtRp2461
(dp2462
g54
(dp2463
sg63
g2448
sg56
(lp2464
g49
(g50
g51
NtRp2465
(dp2466
g54
(dp2467
g62
I3
ssg63
g2461
sg56
(lp2468
g1073
asbasbasbag49
(g65
g51
NtRp2469
(dp2470
g54
(dp2471
sg63
g2192
sg56
(lp2472
g49
(g70
g51
NtRp2473
(dp2474
g54
(dp2475
g74
g75
ssg63
g2469
sg56
(lp2476
S'REQUEST_METHOD'
p2477
asbag49
(g70
g51
NtRp2478
(dp2479
g54
(dp2480
g81
g82
ssg63
g2469
sg56
(lp2481
S':'
asbag49
(g70
g51
NtRp2482
(dp2483
g54
(dp2484
sg63
g2469
sg56
(lp2485
g49
(g50
g51
NtRp2486
(dp2487
g54
(dp2488
g62
I3
ssg63
g2482
sg56
(lp2489
g1095
asbasbasbag49
(g65
g51
NtRp2490
(dp2491
g54
(dp2492
sg63
g2192
sg56
(lp2493
g49
(g70
g51
NtRp2494
(dp2495
g54
(dp2496
g74
g75
ssg63
g2490
sg56
(lp2497
S'SCRIPT_NAME'
p2498
asbag49
(g70
g51
NtRp2499
(dp2500
g54
(dp2501
g81
g82
ssg63
g2490
sg56
(lp2502
S':'
asbag49
(g70
g51
NtRp2503
(dp2504
g54
(dp2505
sg63
g2490
sg56
(lp2506
g49
(g50
g51
NtRp2507
(dp2508
g54
(dp2509
g62
I3
ssg63
g2503
sg56
(lp2510
S''
asbasbasbag49
(g65
g51
NtRp2511
(dp2512
g54
(dp2513
sg63
g2192
sg56
(lp2514
g49
(g70
g51
NtRp2515
(dp2516
g54
(dp2517
g74
g75
ssg63
g2511
sg56
(lp2518
S'SERVER_NAME'
p2519
asbag49
(g70
g51
NtRp2520
(dp2521
g54
(dp2522
g81
g82
ssg63
g2511
sg56
(lp2523
S':'
asbag49
(g70
g51
NtRp2524
(dp2525
g54
(dp2526
sg63
g2511
sg56
(lp2527
g49
(g50
g51
NtRp2528
(dp2529
g54
(dp2530
g62
I3
ssg63
g2524
sg56
(lp2531
g1138
asbasbasbag49
(g65
g51
NtRp2532
(dp2533
g54
(dp2534
sg63
g2192
sg56
(lp2535
g49
(g70
g51
NtRp2536
(dp2537
g54
(dp2538
g74
g75
ssg63
g2532
sg56
(lp2539
S'SERVER_PORT'
p2540
asbag49
(g70
g51
NtRp2541
(dp2542
g54
(dp2543
g81
g82
ssg63
g2532
sg56
(lp2544
S':'
asbag49
(g70
g51
NtRp2545
(dp2546
g54
(dp2547
sg63
g2532
sg56
(lp2548
g49
(g50
g51
NtRp2549
(dp2550
g54
(dp2551
g62
I3
ssg63
g2545
sg56
(lp2552
g1160
asbasbasbag49
(g65
g51
NtRp2553
(dp2554
g54
(dp2555
sg63
g2192
sg56
(lp2556
g49
(g70
g51
NtRp2557
(dp2558
g54
(dp2559
g74
g75
ssg63
g2553
sg56
(lp2560
S'SERVER_PROTOCOL'
p2561
asbag49
(g70
g51
NtRp2562
(dp2563
g54
(dp2564
g81
g82
ssg63
g2553
sg56
(lp2565
S':'
asbag49
(g70
g51
NtRp2566
(dp2567
g54
(dp2568
sg63
g2553
sg56
(lp2569
g49
(g50
g51
NtRp2570
(dp2571
g54
(dp2572
g62
I3
ssg63
g2566
sg56
(lp2573
g1182
asbasbasbag49
(g65
g51
NtRp2574
(dp2575
g54
(dp2576
sg63
g2192
sg56
(lp2577
g49
(g70
g51
NtRp2578
(dp2579
g54
(dp2580
g74
g75
ssg63
g2574
sg56
(lp2581
S'SERVER_SOFTWARE'
p2582
asbag49
(g70
g51
NtRp2583
(dp2584
g54
(dp2585
g81
g82
ssg63
g2574
sg56
(lp2586
S':'
asbag49
(g70
g51
NtRp2587
(dp2588
g54
(dp2589
sg63
g2574
sg56
(lp2590
g49
(g50
g51
NtRp2591
(dp2592
g54
(dp2593
g62
I3
ssg63
g2587
sg56
(lp2594
g1204
asbasbasbag49
(g65
g51
NtRp2595
(dp2596
g54
(dp2597
sg63
g2192
sg56
(lp2598
g49
(g70
g51
NtRp2599
(dp2600
g54
(dp2601
g74
g75
ssg63
g2595
sg56
(lp2602
S'wsgi.errors'
p2603
asbag49
(g70
g51
NtRp2604
(dp2605
g54
(dp2606
g81
g82
ssg63
g2595
sg56
(lp2607
S':'
asbag49
(g70
g51
NtRp2608
(dp2609
g54
(dp2610
sg63
g2595
sg56
(lp2611
g49
(g50
g51
NtRp2612
(dp2613
g54
(dp2614
g62
I3
ssg63
g2608
sg56
(lp2615
S"<open file '<stderr>', mode 'w' at 0x004200B0>"
p2616
asbasbasbag49
(g65
g51
NtRp2617
(dp2618
g54
(dp2619
sg63
g2192
sg56
(lp2620
g49
(g70
g51
NtRp2621
(dp2622
g54
(dp2623
g74
g75
ssg63
g2617
sg56
(lp2624
S'wsgi.file_wrapper'
p2625
asbag49
(g70
g51
NtRp2626
(dp2627
g54
(dp2628
g81
g82
ssg63
g2617
sg56
(lp2629
S':'
asbag49
(g70
g51
NtRp2630
(dp2631
g54
(dp2632
sg63
g2617
sg56
(lp2633
g49
(g50
g51
NtRp2634
(dp2635
g54
(dp2636
g62
I3
ssg63
g2630
sg56
(lp2637
S'<class wsgiref.util.FileWrapper at 0x02B168D0>'
p2638
asbasbasbag49
(g65
g51
NtRp2639
(dp2640
g54
(dp2641
sg63
g2192
sg56
(lp2642
g49
(g70
g51
NtRp2643
(dp2644
g54
(dp2645
g74
g75
ssg63
g2639
sg56
(lp2646
S'wsgi.input'
p2647
asbag49
(g70
g51
NtRp2648
(dp2649
g54
(dp2650
g81
g82
ssg63
g2639
sg56
(lp2651
S':'
asbag49
(g70
g51
NtRp2652
(dp2653
g54
(dp2654
sg63
g2639
sg56
(lp2655
g49
(g50
g51
NtRp2656
(dp2657
g54
(dp2658
g62
I3
ssg63
g2652
sg56
(lp2659
S'<cStringIO.StringO object at 0x07167740>'
p2660
asbasbasbag49
(g65
g51
NtRp2661
(dp2662
g54
(dp2663
sg63
g2192
sg56
(lp2664
g49
(g70
g51
NtRp2665
(dp2666
g54
(dp2667
g74
g75
ssg63
g2661
sg56
(lp2668
S'wsgi.multiprocess'
p2669
asbag49
(g70
g51
NtRp2670
(dp2671
g54
(dp2672
g81
g82
ssg63
g2661
sg56
(lp2673
S':'
asbag49
(g70
g51
NtRp2674
(dp2675
g54
(dp2676
sg63
g2661
sg56
(lp2677
g49
(g50
g51
NtRp2678
(dp2679
g54
(dp2680
g62
I3
ssg63
g2674
sg56
(lp2681
g92
asbasbasbag49
(g65
g51
NtRp2682
(dp2683
g54
(dp2684
sg63
g2192
sg56
(lp2685
g49
(g70
g51
NtRp2686
(dp2687
g54
(dp2688
g74
g75
ssg63
g2682
sg56
(lp2689
S'wsgi.multithread'
p2690
asbag49
(g70
g51
NtRp2691
(dp2692
g54
(dp2693
g81
g82
ssg63
g2682
sg56
(lp2694
S':'
asbag49
(g70
g51
NtRp2695
(dp2696
g54
(dp2697
sg63
g2682
sg56
(lp2698
g49
(g50
g51
NtRp2699
(dp2700
g54
(dp2701
g62
I3
ssg63
g2695
sg56
(lp2702
g726
asbasbasbag49
(g65
g51
NtRp2703
(dp2704
g54
(dp2705
sg63
g2192
sg56
(lp2706
g49
(g70
g51
NtRp2707
(dp2708
g54
(dp2709
g74
g75
ssg63
g2703
sg56
(lp2710
S'wsgi.run_once'
p2711
asbag49
(g70
g51
NtRp2712
(dp2713
g54
(dp2714
g81
g82
ssg63
g2703
sg56
(lp2715
S':'
asbag49
(g70
g51
NtRp2716
(dp2717
g54
(dp2718
sg63
g2703
sg56
(lp2719
g49
(g50
g51
NtRp2720
(dp2721
g54
(dp2722
g62
I3
ssg63
g2716
sg56
(lp2723
g92
asbasbasbag49
(g65
g51
NtRp2724
(dp2725
g54
(dp2726
sg63
g2192
sg56
(lp2727
g49
(g70
g51
NtRp2728
(dp2729
g54
(dp2730
g74
g75
ssg63
g2724
sg56
(lp2731
S'wsgi.url_scheme'
p2732
asbag49
(g70
g51
NtRp2733
(dp2734
g54
(dp2735
g81
g82
ssg63
g2724
sg56
(lp2736
S':'
asbag49
(g70
g51
NtRp2737
(dp2738
g54
(dp2739
sg63
g2724
sg56
(lp2740
g49
(g50
g51
NtRp2741
(dp2742
g54
(dp2743
g62
I3
ssg63
g2737
sg56
(lp2744
g1486
asbasbasbag49
(g65
g51
NtRp2745
(dp2746
g54
(dp2747
sg63
g2192
sg56
(lp2748
g49
(g70
g51
NtRp2749
(dp2750
g54
(dp2751
g74
g75
ssg63
g2745
sg56
(lp2752
S'wsgi.version'
p2753
asbag49
(g70
g51
NtRp2754
(dp2755
g54
(dp2756
g81
g82
ssg63
g2745
sg56
(lp2757
S':'
asbag49
(g70
g51
NtRp2758
(dp2759
g54
(dp2760
sg63
g2745
sg56
(lp2761
g49
(g50
g51
NtRp2762
(dp2763
g54
(dp2764
g62
I3
ssg63
g2758
sg56
(lp2765
S'1'
asbasbasbasbasbasbasbasbasbasbasbasbasbsS'frames'
p2766
(lp2767
(dp2768
S'file'
p2769
S'C:\\Users\\Bussiere\\Dropbox\\Projets\\Yuki\\web2py\\gluon\\restricted.py'
p2770
sS'dump'
p2771
(dp2772
sS'lnum'
p2773
I205
sS'lines'
p2774
(dp2775
I200
S'    try:'
p2776
sI201
S'        if type(code) == types.CodeType:'
p2777
sI202
S'            ccode = code'
p2778
sI203
S'        else:'
p2779
sI204
S'            ccode = compile2(code,layer)'
p2780
sI205
S'        exec ccode in environment'
p2781
sI206
S'    except HTTP:'
p2782
sI207
S'        raise'
p2783
sI208
S'    except RestrictedError:'
p2784
sI209
S'        # do not encapsulate (obfuscate) the original RestrictedError'
p2785
ssS'call'
p2786
S'(code=\'form,table=crud.search(db.table)\\nresponse.write(...user/register">Register</a><br>\\\\n\\\', escape=False)\', environment={\'A\': <class \'gluon.html.A\'>, \'Auth\': <class \'gluon.tools.Auth\'>, \'B\': <class \'gluon.html.B\'>, \'BEAUTIFY\': <class \'gluon.html.BEAUTIFY\'>, \'BODY\': <class \'gluon.html.BODY\'>, \'BR\': <class \'gluon.html.BR\'>, \'BUTTON\': <class \'gluon.html.BUTTON\'>, \'CAT\': <class \'gluon.html.CAT\'>, \'CENTER\': <class \'gluon.html.CENTER\'>, \'CLEANUP\': <class \'gluon.validators.CLEANUP\'>, ...}, layer=r\'C:\\Users\\Bussiere\\Dropbox\\Projets\\Yuki\\web2py\\applications\\init\\views\\default/index.html\')'
p2787
sS'func'
p2788
S'restricted'
p2789
sa(dp2790
g2769
S'C:\\Users\\Bussiere\\Dropbox\\Projets\\Yuki\\web2py\\applications\\init\\views\\default\\index.html'
p2791
sg2771
(dp2792
sg2773
I1
sg2774
(dp2793
I1
S'form,table=crud.search(db.table)'
p2794
sI2
S"response.write('\\n', escape=False)"
p2795
sI3
S'response.write(form)'
p2796
sI4
S"response.write('\\n', escape=False)"
p2797
sI5
S'response.write(table)'
p2798
sI6
S'response.write(\'\\n<a href="../init/default/user/login">login</a><br>\\n<a href="../init/default/user/register">Register</a><br>\\n\', escape=False)'
p2799
ssg2786
S'()'
p2800
sg2788
S'<module>'
p2801
sa(dp2802
g2769
S'C:\\Users\\Bussiere\\Dropbox\\Projets\\Yuki\\web2py\\gluon\\dal.py'
p2803
sg2771
(dp2804
sg2773
I6343
sg2774
(dp2805
I6338
S''
sI6339
S'    def __setitem__(self, key, value):'
p2806
sI6340
S'        dict.__setitem__(self, str(key), value)'
p2807
sI6341
S''
sI6342
S'    def __getattr__(self, key):'
p2808
sI6343
S'        return self[key]'
p2809
sI6344
S''
sI6345
S'    def __setattr__(self, key, value):'
p2810
sI6346
S"        if key[:1]!='_' and key in self:"
p2811
sI6347
S'            raise SyntaxError, \\'
p2812
ssg2786
S"(self=<DAL {'comment': <Table {'body': <gluon.dal.Fiel...d object at 0x07328430>, '_singular': 'Price'}>}>, key='table')"
p2813
sg2788
S'__getattr__'
p2814
sa(dp2815
g2769
S'C:\\Users\\Bussiere\\Dropbox\\Projets\\Yuki\\web2py\\gluon\\dal.py'
p2816
sg2771
(dp2817
sg2773
I6337
sg2774
(dp2818
I6336
S'    def __getitem__(self, key):'
p2819
sI6337
S'        return dict.__getitem__(self, str(key))'
p2820
sI6338
S''
sI6339
S'    def __setitem__(self, key, value):'
p2821
sI6340
S'        dict.__setitem__(self, str(key), value)'
p2822
sI6341
S''
sI6332
S'    def __iter__(self):'
p2823
sI6333
S'        for tablename in self.tables:'
p2824
sI6334
S'            yield self[tablename]'
p2825
sI6335
S''
ssg2786
S"(self=<DAL {'comment': <Table {'body': <gluon.dal.Fiel...d object at 0x07328430>, '_singular': 'Price'}>}>, key='table')"
p2826
sg2788
g20
sasS'pyver'
p2827
S'Python 2.5.4: C:\\Users\\Bussiere\\Dropbox\\Projets\\Yuki\\web2py\\web2py.exe'
p2828
sS'session'
p2829
g49
(g50
g51
NtRp2830
(dp2831
g54
(dp2832
sg56
(lp2833
g49
(g58
g51
NtRp2834
(dp2835
g54
(dp2836
g62
I5
ssg63
Nsg56
(lp2837
g49
(g65
g51
NtRp2838
(dp2839
g54
(dp2840
sg63
g2834
sg56
(lp2841
g49
(g70
g51
NtRp2842
(dp2843
g54
(dp2844
g74
g75
ssg63
g2838
sg56
(lp2845
S'auth'
p2846
asbag49
(g70
g51
NtRp2847
(dp2848
g54
(dp2849
g81
g82
ssg63
g2838
sg56
(lp2850
S':'
asbag49
(g70
g51
NtRp2851
(dp2852
g54
(dp2853
sg63
g2838
sg56
(lp2854
g49
(g50
g51
NtRp2855
(dp2856
g54
(dp2857
g62
I5
ssg63
g2851
sg56
(lp2858
g49
(g58
g51
NtRp2859
(dp2860
g54
(dp2861
g62
I4
ssg63
Nsg56
(lp2862
g49
(g65
g51
NtRp2863
(dp2864
g54
(dp2865
sg63
g2859
sg56
(lp2866
g49
(g70
g51
NtRp2867
(dp2868
g54
(dp2869
g74
g75
ssg63
g2863
sg56
(lp2870
S'expiration'
p2871
asbag49
(g70
g51
NtRp2872
(dp2873
g54
(dp2874
g81
g82
ssg63
g2863
sg56
(lp2875
S':'
asbag49
(g70
g51
NtRp2876
(dp2877
g54
(dp2878
sg63
g2863
sg56
(lp2879
g49
(g50
g51
NtRp2880
(dp2881
g54
(dp2882
g62
I4
ssg63
g2876
sg56
(lp2883
S'3600'
p2884
asbasbasbag49
(g65
g51
NtRp2885
(dp2886
g54
(dp2887
sg63
g2859
sg56
(lp2888
g49
(g70
g51
NtRp2889
(dp2890
g54
(dp2891
g74
g75
ssg63
g2885
sg56
(lp2892
S'hmac_key'
p2893
asbag49
(g70
g51
NtRp2894
(dp2895
g54
(dp2896
g81
g82
ssg63
g2885
sg56
(lp2897
S':'
asbag49
(g70
g51
NtRp2898
(dp2899
g54
(dp2900
sg63
g2885
sg56
(lp2901
g49
(g50
g51
NtRp2902
(dp2903
g54
(dp2904
g62
I4
ssg63
g2898
sg56
(lp2905
S'f0453de1-1e2e-46cc-9c91-d910efb6421a'
p2906
asbasbasbag49
(g65
g51
NtRp2907
(dp2908
g54
(dp2909
sg63
g2859
sg56
(lp2910
g49
(g70
g51
NtRp2911
(dp2912
g54
(dp2913
g74
g75
ssg63
g2907
sg56
(lp2914
S'last_visit'
p2915
asbag49
(g70
g51
NtRp2916
(dp2917
g54
(dp2918
g81
g82
ssg63
g2907
sg56
(lp2919
S':'
asbag49
(g70
g51
NtRp2920
(dp2921
g54
(dp2922
sg63
g2907
sg56
(lp2923
g49
(g50
g51
NtRp2924
(dp2925
g54
(dp2926
g62
I4
ssg63
g2920
sg56
(lp2927
S'datetime.datetime(2012, 3, 13, 6, 12, 2, 289000)'
p2928
asbasbasbag49
(g65
g51
NtRp2929
(dp2930
g54
(dp2931
sg63
g2859
sg56
(lp2932
g49
(g70
g51
NtRp2933
(dp2934
g54
(dp2935
g74
g75
ssg63
g2929
sg56
(lp2936
S'remember'
p2937
asbag49
(g70
g51
NtRp2938
(dp2939
g54
(dp2940
g81
g82
ssg63
g2929
sg56
(lp2941
S':'
asbag49
(g70
g51
NtRp2942
(dp2943
g54
(dp2944
sg63
g2929
sg56
(lp2945
g49
(g50
g51
NtRp2946
(dp2947
g54
(dp2948
g62
I4
ssg63
g2942
sg56
(lp2949
g92
asbasbasbag49
(g65
g51
NtRp2950
(dp2951
g54
(dp2952
sg63
g2859
sg56
(lp2953
g49
(g70
g51
NtRp2954
(dp2955
g54
(dp2956
g74
g75
ssg63
g2950
sg56
(lp2957
S'user'
p2958
asbag49
(g70
g51
NtRp2959
(dp2960
g54
(dp2961
g81
g82
ssg63
g2950
sg56
(lp2962
S':'
asbag49
(g70
g51
NtRp2963
(dp2964
g54
(dp2965
sg63
g2950
sg56
(lp2966
g49
(g50
g51
NtRp2967
(dp2968
g54
(dp2969
g62
I4
ssg63
g2963
sg56
(lp2970
g49
(g58
g51
NtRp2971
(dp2972
g54
(dp2973
g62
I3
ssg63
Nsg56
(lp2974
g49
(g65
g51
NtRp2975
(dp2976
g54
(dp2977
sg63
g2971
sg56
(lp2978
g49
(g70
g51
NtRp2979
(dp2980
g54
(dp2981
g74
g75
ssg63
g2975
sg56
(lp2982
S'email'
p2983
asbag49
(g70
g51
NtRp2984
(dp2985
g54
(dp2986
g81
g82
ssg63
g2975
sg56
(lp2987
S':'
asbag49
(g70
g51
NtRp2988
(dp2989
g54
(dp2990
sg63
g2975
sg56
(lp2991
g49
(g50
g51
NtRp2992
(dp2993
g54
(dp2994
g62
I3
ssg63
g2988
sg56
(lp2995
S'Bussiere@gmail.com'
p2996
asbasbasbag49
(g65
g51
NtRp2997
(dp2998
g54
(dp2999
sg63
g2971
sg56
(lp3000
g49
(g70
g51
NtRp3001
(dp3002
g54
(dp3003
g74
g75
ssg63
g2997
sg56
(lp3004
S'first_name'
p3005
asbag49
(g70
g51
NtRp3006
(dp3007
g54
(dp3008
g81
g82
ssg63
g2997
sg56
(lp3009
S':'
asbag49
(g70
g51
NtRp3010
(dp3011
g54
(dp3012
sg63
g2997
sg56
(lp3013
g49
(g50
g51
NtRp3014
(dp3015
g54
(dp3016
g62
I3
ssg63
g3010
sg56
(lp3017
S'bussiere'
p3018
asbasbasbag49
(g65
g51
NtRp3019
(dp3020
g54
(dp3021
sg63
g2971
sg56
(lp3022
g49
(g70
g51
NtRp3023
(dp3024
g54
(dp3025
g74
g75
ssg63
g3019
sg56
(lp3026
S'id'
p3027
asbag49
(g70
g51
NtRp3028
(dp3029
g54
(dp3030
g81
g82
ssg63
g3019
sg56
(lp3031
S':'
asbag49
(g70
g51
NtRp3032
(dp3033
g54
(dp3034
sg63
g3019
sg56
(lp3035
g49
(g50
g51
NtRp3036
(dp3037
g54
(dp3038
g62
I3
ssg63
g3032
sg56
(lp3039
S'1'
asbasbasbag49
(g65
g51
NtRp3040
(dp3041
g54
(dp3042
sg63
g2971
sg56
(lp3043
g49
(g70
g51
NtRp3044
(dp3045
g54
(dp3046
g74
g75
ssg63
g3040
sg56
(lp3047
S'last_name'
p3048
asbag49
(g70
g51
NtRp3049
(dp3050
g54
(dp3051
g81
g82
ssg63
g3040
sg56
(lp3052
S':'
asbag49
(g70
g51
NtRp3053
(dp3054
g54
(dp3055
sg63
g3040
sg56
(lp3056
g49
(g50
g51
NtRp3057
(dp3058
g54
(dp3059
g62
I3
ssg63
g3053
sg56
(lp3060
S'test'
p3061
asbasbasbag49
(g65
g51
NtRp3062
(dp3063
g54
(dp3064
sg63
g2971
sg56
(lp3065
g49
(g70
g51
NtRp3066
(dp3067
g54
(dp3068
g74
g75
ssg63
g3062
sg56
(lp3069
S'password'
p3070
asbag49
(g70
g51
NtRp3071
(dp3072
g54
(dp3073
g81
g82
ssg63
g3062
sg56
(lp3074
S':'
asbag49
(g70
g51
NtRp3075
(dp3076
g54
(dp3077
sg63
g3062
sg56
(lp3078
g49
(g50
g51
NtRp3079
(dp3080
g54
(dp3081
g62
I3
ssg63
g3075
sg56
(lp3082
S'12923092f4d9e86e56018b9cdd790947'
p3083
asbasbasbag49
(g65
g51
NtRp3084
(dp3085
g54
(dp3086
sg63
g2971
sg56
(lp3087
g49
(g70
g51
NtRp3088
(dp3089
g54
(dp3090
g74
g75
ssg63
g3084
sg56
(lp3091
S'registration_id'
p3092
asbag49
(g70
g51
NtRp3093
(dp3094
g54
(dp3095
g81
g82
ssg63
g3084
sg56
(lp3096
S':'
asbag49
(g70
g51
NtRp3097
(dp3098
g54
(dp3099
sg63
g3084
sg56
(lp3100
g49
(g50
g51
NtRp3101
(dp3102
g54
(dp3103
g62
I3
ssg63
g3097
sg56
(lp3104
S''
asbasbasbag49
(g65
g51
NtRp3105
(dp3106
g54
(dp3107
sg63
g2971
sg56
(lp3108
g49
(g70
g51
NtRp3109
(dp3110
g54
(dp3111
g74
g75
ssg63
g3105
sg56
(lp3112
S'registration_key'
p3113
asbag49
(g70
g51
NtRp3114
(dp3115
g54
(dp3116
g81
g82
ssg63
g3105
sg56
(lp3117
S':'
asbag49
(g70
g51
NtRp3118
(dp3119
g54
(dp3120
sg63
g3105
sg56
(lp3121
g49
(g50
g51
NtRp3122
(dp3123
g54
(dp3124
g62
I3
ssg63
g3118
sg56
(lp3125
S''
asbasbasbag49
(g65
g51
NtRp3126
(dp3127
g54
(dp3128
sg63
g2971
sg56
(lp3129
g49
(g70
g51
NtRp3130
(dp3131
g54
(dp3132
g74
g75
ssg63
g3126
sg56
(lp3133
S'reset_password_key'
p3134
asbag49
(g70
g51
NtRp3135
(dp3136
g54
(dp3137
g81
g82
ssg63
g3126
sg56
(lp3138
S':'
asbag49
(g70
g51
NtRp3139
(dp3140
g54
(dp3141
sg63
g3126
sg56
(lp3142
g49
(g50
g51
NtRp3143
(dp3144
g54
(dp3145
g62
I3
ssg63
g3139
sg56
(lp3146
S''
asbasbasbasbasbasbasbag49
(g65
g51
NtRp3147
(dp3148
g54
(dp3149
sg63
g2859
sg56
(lp3150
g49
(g70
g51
NtRp3151
(dp3152
g54
(dp3153
g74
g75
ssg63
g3147
sg56
(lp3154
S'user_groups'
p3155
asbag49
(g70
g51
NtRp3156
(dp3157
g54
(dp3158
g81
g82
ssg63
g3147
sg56
(lp3159
S':'
asbag49
(g70
g51
NtRp3160
(dp3161
g54
(dp3162
sg63
g3147
sg56
(lp3163
g49
(g50
g51
NtRp3164
(dp3165
g54
(dp3166
g62
I4
ssg63
g3160
sg56
(lp3167
g49
(g58
g51
NtRp3168
(dp3169
g54
(dp3170
g62
I3
ssg63
Nsg56
(lp3171
g49
(g65
g51
NtRp3172
(dp3173
g54
(dp3174
sg63
g3168
sg56
(lp3175
g49
(g70
g51
NtRp3176
(dp3177
g54
(dp3178
g74
g75
ssg63
g3172
sg56
(lp3179
S'1'
asbag49
(g70
g51
NtRp3180
(dp3181
g54
(dp3182
g81
g82
ssg63
g3172
sg56
(lp3183
S':'
asbag49
(g70
g51
NtRp3184
(dp3185
g54
(dp3186
sg63
g3172
sg56
(lp3187
g49
(g50
g51
NtRp3188
(dp3189
g54
(dp3190
g62
I3
ssg63
g3184
sg56
(lp3191
S'user_1'
p3192
asbasbasbasbasbasbasbasbasbasbasbasbasbsS'etype'
p3193
S"<type 'exceptions.KeyError'>"
p3194
sS'date'
p3195
S'Tue Mar 13 06:13:04 2012'
p3196
sS'response'
p3197
g49
(g50
g51
NtRp3198
(dp3199
g54
(dp3200
sg56
(lp3201
g49
(g58
g51
NtRp3202
(dp3203
g54
(dp3204
g62
I5
ssg63
Nsg56
(lp3205
g49
(g65
g51
NtRp3206
(dp3207
g54
(dp3208
sg63
g3202
sg56
(lp3209
g49
(g70
g51
NtRp3210
(dp3211
g54
(dp3212
g74
g75
ssg63
g3206
sg56
(lp3213
g147
asbag49
(g70
g51
NtRp3214
(dp3215
g54
(dp3216
g81
g82
ssg63
g3206
sg56
(lp3217
S':'
asbag49
(g70
g51
NtRp3218
(dp3219
g54
(dp3220
sg63
g3206
sg56
(lp3221
g49
(g50
g51
NtRp3222
(dp3223
g54
(dp3224
g62
I5
ssg63
g3218
sg56
(lp3225
S'<cStringIO.StringO object at 0x074FCBA0>'
p3226
asbasbasbag49
(g65
g51
NtRp3227
(dp3228
g54
(dp3229
sg63
g3202
sg56
(lp3230
g49
(g70
g51
NtRp3231
(dp3232
g54
(dp3233
g74
g75
ssg63
g3227
sg56
(lp3234
g213
asbag49
(g70
g51
NtRp3235
(dp3236
g54
(dp3237
g81
g82
ssg63
g3227
sg56
(lp3238
S':'
asbag49
(g70
g51
NtRp3239
(dp3240
g54
(dp3241
sg63
g3227
sg56
(lp3242
g49
(g50
g51
NtRp3243
(dp3244
g54
(dp3245
g62
I5
ssg63
g3239
sg56
(lp3246
g49
(g58
g51
NtRp3247
(dp3248
g54
(dp3249
g62
I4
ssg63
Nsg56
(lp3250
g49
(g65
g51
NtRp3251
(dp3252
g54
(dp3253
sg63
g3247
sg56
(lp3254
g49
(g70
g51
NtRp3255
(dp3256
g54
(dp3257
g74
g75
ssg63
g3251
sg56
(lp3258
S'session_id_init'
p3259
asbag49
(g70
g51
NtRp3260
(dp3261
g54
(dp3262
g81
g82
ssg63
g3251
sg56
(lp3263
S':'
asbag49
(g70
g51
NtRp3264
(dp3265
g54
(dp3266
sg63
g3251
sg56
(lp3267
g49
(g50
g51
NtRp3268
(dp3269
g54
(dp3270
g62
I4
ssg63
g3264
sg56
(lp3271
g49
(g58
g51
NtRp3272
(dp3273
g54
(dp3274
g62
I3
ssg63
Nsg56
(lp3275
g49
(g65
g51
NtRp3276
(dp3277
g54
(dp3278
sg63
g3272
sg56
(lp3279
g49
(g70
g51
NtRp3280
(dp3281
g54
(dp3282
g74
g75
ssg63
g3276
sg56
(lp3283
g263
asbag49
(g70
g51
NtRp3284
(dp3285
g54
(dp3286
g81
g82
ssg63
g3276
sg56
(lp3287
S':'
asbag49
(g70
g51
NtRp3288
(dp3289
g54
(dp3290
sg63
g3276
sg56
(lp3291
g49
(g50
g51
NtRp3292
(dp3293
g54
(dp3294
g62
I3
ssg63
g3288
sg56
(lp3295
S''
asbasbasbag49
(g65
g51
NtRp3296
(dp3297
g54
(dp3298
sg63
g3272
sg56
(lp3299
g49
(g70
g51
NtRp3300
(dp3301
g54
(dp3302
g74
g75
ssg63
g3296
sg56
(lp3303
g284
asbag49
(g70
g51
NtRp3304
(dp3305
g54
(dp3306
g81
g82
ssg63
g3296
sg56
(lp3307
S':'
asbag49
(g70
g51
NtRp3308
(dp3309
g54
(dp3310
sg63
g3296
sg56
(lp3311
g49
(g50
g51
NtRp3312
(dp3313
g54
(dp3314
g62
I3
ssg63
g3308
sg56
(lp3315
S''
asbasbasbag49
(g65
g51
NtRp3316
(dp3317
g54
(dp3318
sg63
g3272
sg56
(lp3319
g49
(g70
g51
NtRp3320
(dp3321
g54
(dp3322
g74
g75
ssg63
g3316
sg56
(lp3323
g305
asbag49
(g70
g51
NtRp3324
(dp3325
g54
(dp3326
g81
g82
ssg63
g3316
sg56
(lp3327
S':'
asbag49
(g70
g51
NtRp3328
(dp3329
g54
(dp3330
sg63
g3316
sg56
(lp3331
g49
(g50
g51
NtRp3332
(dp3333
g54
(dp3334
g62
I3
ssg63
g3328
sg56
(lp3335
S''
asbasbasbag49
(g65
g51
NtRp3336
(dp3337
g54
(dp3338
sg63
g3272
sg56
(lp3339
g49
(g70
g51
NtRp3340
(dp3341
g54
(dp3342
g74
g75
ssg63
g3336
sg56
(lp3343
g326
asbag49
(g70
g51
NtRp3344
(dp3345
g54
(dp3346
g81
g82
ssg63
g3336
sg56
(lp3347
S':'
asbag49
(g70
g51
NtRp3348
(dp3349
g54
(dp3350
sg63
g3336
sg56
(lp3351
g49
(g50
g51
NtRp3352
(dp3353
g54
(dp3354
g62
I3
ssg63
g3348
sg56
(lp3355
S''
asbasbasbag49
(g65
g51
NtRp3356
(dp3357
g54
(dp3358
sg63
g3272
sg56
(lp3359
g49
(g70
g51
NtRp3360
(dp3361
g54
(dp3362
g74
g75
ssg63
g3356
sg56
(lp3363
g347
asbag49
(g70
g51
NtRp3364
(dp3365
g54
(dp3366
g81
g82
ssg63
g3356
sg56
(lp3367
S':'
asbag49
(g70
g51
NtRp3368
(dp3369
g54
(dp3370
sg63
g3356
sg56
(lp3371
g49
(g50
g51
NtRp3372
(dp3373
g54
(dp3374
g62
I3
ssg63
g3368
sg56
(lp3375
S'/'
asbasbasbag49
(g65
g51
NtRp3376
(dp3377
g54
(dp3378
sg63
g3272
sg56
(lp3379
g49
(g70
g51
NtRp3380
(dp3381
g54
(dp3382
g74
g75
ssg63
g3376
sg56
(lp3383
g368
asbag49
(g70
g51
NtRp3384
(dp3385
g54
(dp3386
g81
g82
ssg63
g3376
sg56
(lp3387
S':'
asbag49
(g70
g51
NtRp3388
(dp3389
g54
(dp3390
sg63
g3376
sg56
(lp3391
g49
(g50
g51
NtRp3392
(dp3393
g54
(dp3394
g62
I3
ssg63
g3388
sg56
(lp3395
S''
asbasbasbag49
(g65
g51
NtRp3396
(dp3397
g54
(dp3398
sg63
g3272
sg56
(lp3399
g49
(g70
g51
NtRp3400
(dp3401
g54
(dp3402
g74
g75
ssg63
g3396
sg56
(lp3403
g389
asbag49
(g70
g51
NtRp3404
(dp3405
g54
(dp3406
g81
g82
ssg63
g3396
sg56
(lp3407
S':'
asbag49
(g70
g51
NtRp3408
(dp3409
g54
(dp3410
sg63
g3396
sg56
(lp3411
g49
(g50
g51
NtRp3412
(dp3413
g54
(dp3414
g62
I3
ssg63
g3408
sg56
(lp3415
S''
asbasbasbasbasbasbasbasbasbasbasbag49
(g65
g51
NtRp3416
(dp3417
g54
(dp3418
sg63
g3202
sg56
(lp3419
g49
(g70
g51
NtRp3420
(dp3421
g54
(dp3422
g74
g75
ssg63
g3416
sg56
(lp3423
S'delimiters'
p3424
asbag49
(g70
g51
NtRp3425
(dp3426
g54
(dp3427
g81
g82
ssg63
g3416
sg56
(lp3428
S':'
asbag49
(g70
g51
NtRp3429
(dp3430
g54
(dp3431
sg63
g3416
sg56
(lp3432
g49
(g50
g51
NtRp3433
(dp3434
g54
(dp3435
g62
I5
ssg63
g3429
sg56
(lp3436
g49
(g58
g51
NtRp3437
(dp3438
g54
(dp3439
g62
I4
ssg63
Nsg56
(lp3440
g49
(g65
g51
NtRp3441
(dp3442
g54
(dp3443
sg63
g3437
sg56
(lp3444
g49
(g70
g51
NtRp3445
(dp3446
g54
(dp3447
sg63
g3441
sg56
(lp3448
g49
(g50
g51
NtRp3449
(dp3450
g54
(dp3451
g62
I4
ssg63
g3445
sg56
(lp3452
S'{{'
p3453
asbasbasbag49
(g65
g51
NtRp3454
(dp3455
g54
(dp3456
sg63
g3437
sg56
(lp3457
g49
(g70
g51
NtRp3458
(dp3459
g54
(dp3460
sg63
g3454
sg56
(lp3461
g49
(g50
g51
NtRp3462
(dp3463
g54
(dp3464
g62
I4
ssg63
g3458
sg56
(lp3465
S'}}'
p3466
asbasbasbasbasbasbasbag49
(g65
g51
NtRp3467
(dp3468
g54
(dp3469
sg63
g3202
sg56
(lp3470
g49
(g70
g51
NtRp3471
(dp3472
g54
(dp3473
g74
g75
ssg63
g3467
sg56
(lp3474
S'files'
p3475
asbag49
(g70
g51
NtRp3476
(dp3477
g54
(dp3478
g81
g82
ssg63
g3467
sg56
(lp3479
S':'
asbag49
(g70
g51
NtRp3480
(dp3481
g54
(dp3482
sg63
g3467
sg56
(lp3483
g49
(g50
g51
NtRp3484
(dp3485
g54
(dp3486
g62
I5
ssg63
g3480
sg56
(lp3487
g49
(g58
g51
NtRp3488
(dp3489
g54
(dp3490
g62
I4
ssg63
Nsg56
(lp3491
sbasbasbasbag49
(g65
g51
NtRp3492
(dp3493
g54
(dp3494
sg63
g3202
sg56
(lp3495
g49
(g70
g51
NtRp3496
(dp3497
g54
(dp3498
g74
g75
ssg63
g3492
sg56
(lp3499
S'flash'
p3500
asbag49
(g70
g51
NtRp3501
(dp3502
g54
(dp3503
g81
g82
ssg63
g3492
sg56
(lp3504
S':'
asbag49
(g70
g51
NtRp3505
(dp3506
g54
(dp3507
sg63
g3492
sg56
(lp3508
g49
(g50
g51
NtRp3509
(dp3510
g54
(dp3511
g62
I5
ssg63
g3505
sg56
(lp3512
S''
asbasbasbag49
(g65
g51
NtRp3513
(dp3514
g54
(dp3515
sg63
g3202
sg56
(lp3516
g49
(g70
g51
NtRp3517
(dp3518
g54
(dp3519
g74
g75
ssg63
g3513
sg56
(lp3520
S'generic_patterns'
p3521
asbag49
(g70
g51
NtRp3522
(dp3523
g54
(dp3524
g81
g82
ssg63
g3513
sg56
(lp3525
S':'
asbag49
(g70
g51
NtRp3526
(dp3527
g54
(dp3528
sg63
g3513
sg56
(lp3529
g49
(g50
g51
NtRp3530
(dp3531
g54
(dp3532
g62
I5
ssg63
g3526
sg56
(lp3533
g49
(g58
g51
NtRp3534
(dp3535
g54
(dp3536
g62
I4
ssg63
Nsg56
(lp3537
g49
(g65
g51
NtRp3538
(dp3539
g54
(dp3540
sg63
g3534
sg56
(lp3541
g49
(g70
g51
NtRp3542
(dp3543
g54
(dp3544
sg63
g3538
sg56
(lp3545
g49
(g50
g51
NtRp3546
(dp3547
g54
(dp3548
g62
I4
ssg63
g3542
sg56
(lp3549
S'*'
asbasbasbasbasbasbasbag49
(g65
g51
NtRp3550
(dp3551
g54
(dp3552
sg63
g3202
sg56
(lp3553
g49
(g70
g51
NtRp3554
(dp3555
g54
(dp3556
g74
g75
ssg63
g3550
sg56
(lp3557
S'headers'
p3558
asbag49
(g70
g51
NtRp3559
(dp3560
g54
(dp3561
g81
g82
ssg63
g3550
sg56
(lp3562
S':'
asbag49
(g70
g51
NtRp3563
(dp3564
g54
(dp3565
sg63
g3550
sg56
(lp3566
g49
(g50
g51
NtRp3567
(dp3568
g54
(dp3569
g62
I5
ssg63
g3563
sg56
(lp3570
g49
(g58
g51
NtRp3571
(dp3572
g54
(dp3573
g62
I4
ssg63
Nsg56
(lp3574
g49
(g65
g51
NtRp3575
(dp3576
g54
(dp3577
sg63
g3571
sg56
(lp3578
g49
(g70
g51
NtRp3579
(dp3580
g54
(dp3581
g74
g75
ssg63
g3575
sg56
(lp3582
S'Cache-Control'
p3583
asbag49
(g70
g51
NtRp3584
(dp3585
g54
(dp3586
g81
g82
ssg63
g3575
sg56
(lp3587
S':'
asbag49
(g70
g51
NtRp3588
(dp3589
g54
(dp3590
sg63
g3575
sg56
(lp3591
g49
(g50
g51
NtRp3592
(dp3593
g54
(dp3594
g62
I4
ssg63
g3588
sg56
(lp3595
S'no-store, no-cache, must-revalidate, post-check=0, pre-check=0'
p3596
asbasbasbag49
(g65
g51
NtRp3597
(dp3598
g54
(dp3599
sg63
g3571
sg56
(lp3600
g49
(g70
g51
NtRp3601
(dp3602
g54
(dp3603
g74
g75
ssg63
g3597
sg56
(lp3604
S'Content-Type'
p3605
asbag49
(g70
g51
NtRp3606
(dp3607
g54
(dp3608
g81
g82
ssg63
g3597
sg56
(lp3609
S':'
asbag49
(g70
g51
NtRp3610
(dp3611
g54
(dp3612
sg63
g3597
sg56
(lp3613
g49
(g50
g51
NtRp3614
(dp3615
g54
(dp3616
g62
I4
ssg63
g3610
sg56
(lp3617
S'text/html; charset=utf-8'
p3618
asbasbasbag49
(g65
g51
NtRp3619
(dp3620
g54
(dp3621
sg63
g3571
sg56
(lp3622
g49
(g70
g51
NtRp3623
(dp3624
g54
(dp3625
g74
g75
ssg63
g3619
sg56
(lp3626
S'Expires'
p3627
asbag49
(g70
g51
NtRp3628
(dp3629
g54
(dp3630
g81
g82
ssg63
g3619
sg56
(lp3631
S':'
asbag49
(g70
g51
NtRp3632
(dp3633
g54
(dp3634
sg63
g3619
sg56
(lp3635
g49
(g50
g51
NtRp3636
(dp3637
g54
(dp3638
g62
I4
ssg63
g3632
sg56
(lp3639
S'Tue, 13 Mar 2012 05:13:03 GMT'
p3640
asbasbasbag49
(g65
g51
NtRp3641
(dp3642
g54
(dp3643
sg63
g3571
sg56
(lp3644
g49
(g70
g51
NtRp3645
(dp3646
g54
(dp3647
g74
g75
ssg63
g3641
sg56
(lp3648
S'Pragma'
p3649
asbag49
(g70
g51
NtRp3650
(dp3651
g54
(dp3652
g81
g82
ssg63
g3641
sg56
(lp3653
S':'
asbag49
(g70
g51
NtRp3654
(dp3655
g54
(dp3656
sg63
g3641
sg56
(lp3657
g49
(g50
g51
NtRp3658
(dp3659
g54
(dp3660
g62
I4
ssg63
g3654
sg56
(lp3661
S'no-cache'
p3662
asbasbasbag49
(g65
g51
NtRp3663
(dp3664
g54
(dp3665
sg63
g3571
sg56
(lp3666
g49
(g70
g51
NtRp3667
(dp3668
g54
(dp3669
g74
g75
ssg63
g3663
sg56
(lp3670
S'X-Powered-By'
p3671
asbag49
(g70
g51
NtRp3672
(dp3673
g54
(dp3674
g81
g82
ssg63
g3663
sg56
(lp3675
S':'
asbag49
(g70
g51
NtRp3676
(dp3677
g54
(dp3678
sg63
g3663
sg56
(lp3679
g49
(g50
g51
NtRp3680
(dp3681
g54
(dp3682
g62
I4
ssg63
g3676
sg56
(lp3683
S'web2py'
p3684
asbasbasbasbasbasbasbag49
(g65
g51
NtRp3685
(dp3686
g54
(dp3687
sg63
g3202
sg56
(lp3688
g49
(g70
g51
NtRp3689
(dp3690
g54
(dp3691
g74
g75
ssg63
g3685
sg56
(lp3692
S'menu'
p3693
asbag49
(g70
g51
NtRp3694
(dp3695
g54
(dp3696
g81
g82
ssg63
g3685
sg56
(lp3697
S':'
asbag49
(g70
g51
NtRp3698
(dp3699
g54
(dp3700
sg63
g3685
sg56
(lp3701
g49
(g50
g51
NtRp3702
(dp3703
g54
(dp3704
g62
I5
ssg63
g3698
sg56
(lp3705
g49
(g58
g51
NtRp3706
(dp3707
g54
(dp3708
g62
I4
ssg63
Nsg56
(lp3709
g49
(g65
g51
NtRp3710
(dp3711
g54
(dp3712
sg63
g3706
sg56
(lp3713
g49
(g70
g51
NtRp3714
(dp3715
g54
(dp3716
sg63
g3710
sg56
(lp3717
g49
(g50
g51
NtRp3718
(dp3719
g54
(dp3720
g62
I4
ssg63
g3714
sg56
(lp3721
g49
(g58
g51
NtRp3722
(dp3723
g54
(dp3724
g62
I3
ssg63
Nsg56
(lp3725
g49
(g65
g51
NtRp3726
(dp3727
g54
(dp3728
sg63
g3722
sg56
(lp3729
g49
(g70
g51
NtRp3730
(dp3731
g54
(dp3732
sg63
g3726
sg56
(lp3733
g49
(g50
g51
NtRp3734
(dp3735
g54
(dp3736
g62
I3
ssg63
g3730
sg56
(lp3737
cgluon.languages
lazyT_unpickle
p3738
(S's\x04\x00\x00\x00Home'
tRp3739
asbasbasbag49
(g65
g51
NtRp3740
(dp3741
g54
(dp3742
sg63
g3722
sg56
(lp3743
g49
(g70
g51
NtRp3744
(dp3745
g54
(dp3746
sg63
g3740
sg56
(lp3747
g49
(g50
g51
NtRp3748
(dp3749
g54
(dp3750
g62
I3
ssg63
g3744
sg56
(lp3751
g92
asbasbasbag49
(g65
g51
NtRp3752
(dp3753
g54
(dp3754
sg63
g3722
sg56
(lp3755
g49
(g70
g51
NtRp3756
(dp3757
g54
(dp3758
sg63
g3752
sg56
(lp3759
g49
(g50
g51
NtRp3760
(dp3761
g54
(dp3762
g62
I3
ssg63
g3756
sg56
(lp3763
S'/init/default/index'
p3764
asbasbasbag49
(g65
g51
NtRp3765
(dp3766
g54
(dp3767
sg63
g3722
sg56
(lp3768
g49
(g70
g51
NtRp3769
(dp3770
g54
(dp3771
sg63
g3765
sg56
(lp3772
g49
(g50
g51
NtRp3773
(dp3774
g54
(dp3775
g62
I3
ssg63
g3769
sg56
(lp3776
g49
(g58
g51
NtRp3777
(dp3778
g54
(dp3779
g62
I2
ssg63
Nsg56
(lp3780
sbasbasbasbasbasbasbasbag49
(g65
g51
NtRp3781
(dp3782
g54
(dp3783
sg63
g3706
sg56
(lp3784
g49
(g70
g51
NtRp3785
(dp3786
g54
(dp3787
sg63
g3781
sg56
(lp3788
g49
(g50
g51
NtRp3789
(dp3790
g54
(dp3791
g62
I4
ssg63
g3785
sg56
(lp3792
g49
(g58
g51
NtRp3793
(dp3794
g54
(dp3795
g62
I3
ssg63
Nsg56
(lp3796
g49
(g65
g51
NtRp3797
(dp3798
g54
(dp3799
sg63
g3793
sg56
(lp3800
g49
(g70
g51
NtRp3801
(dp3802
g54
(dp3803
sg63
g3797
sg56
(lp3804
g49
(g50
g51
NtRp3805
(dp3806
g54
(dp3807
g62
I3
ssg63
g3801
sg56
(lp3808
g49
(cgluon.html
SPAN
p3809
g51
NtRp3810
(dp3811
g54
(dp3812
g74
S'color:yellow'
p3813
ssg63
Nsg56
(lp3814
g3684
asbasbasbasbag49
(g65
g51
NtRp3815
(dp3816
g54
(dp3817
sg63
g3793
sg56
(lp3818
g49
(g70
g51
NtRp3819
(dp3820
g54
(dp3821
sg63
g3815
sg56
(lp3822
g49
(g50
g51
NtRp3823
(dp3824
g54
(dp3825
g62
I3
ssg63
g3819
sg56
(lp3826
g92
asbasbasbag49
(g65
g51
NtRp3827
(dp3828
g54
(dp3829
sg63
g3793
sg56
(lp3830
g49
(g70
g51
NtRp3831
(dp3832
g54
(dp3833
sg63
g3827
sg56
(lp3834
g49
(g50
g51
NtRp3835
(dp3836
g54
(dp3837
g62
I3
ssg63
g3831
sg56
(lp3838
S'None'
p3839
asbasbasbag49
(g65
g51
NtRp3840
(dp3841
g54
(dp3842
sg63
g3793
sg56
(lp3843
g49
(g70
g51
NtRp3844
(dp3845
g54
(dp3846
sg63
g3840
sg56
(lp3847
g49
(g50
g51
NtRp3848
(dp3849
g54
(dp3850
g62
I3
ssg63
g3844
sg56
(lp3851
g49
(g58
g51
NtRp3852
(dp3853
g54
(dp3854
g62
I2
ssg63
Nsg56
(lp3855
g49
(g65
g51
NtRp3856
(dp3857
g54
(dp3858
sg63
g3852
sg56
(lp3859
g49
(g70
g51
NtRp3860
(dp3861
g54
(dp3862
sg63
g3856
sg56
(lp3863
g49
(g50
g51
NtRp3864
(dp3865
g54
(dp3866
g62
I2
ssg63
g3860
sg56
(lp3867
g49
(g58
g51
NtRp3868
(dp3869
g54
(dp3870
g62
I1
ssg63
Nsg56
(lp3871
g49
(g65
g51
NtRp3872
(dp3873
g54
(dp3874
sg63
g3868
sg56
(lp3875
g49
(g70
g51
NtRp3876
(dp3877
g54
(dp3878
sg63
g3872
sg56
(lp3879
g49
(g50
g51
NtRp3880
(dp3881
g54
(dp3882
g62
I1
ssg63
g3876
sg56
(lp3883
g3738
(S's\x08\x00\x00\x00My Sites'
tRp3884
asbasbasbag49
(g65
g51
NtRp3885
(dp3886
g54
(dp3887
sg63
g3868
sg56
(lp3888
g49
(g70
g51
NtRp3889
(dp3890
g54
(dp3891
sg63
g3885
sg56
(lp3892
g49
(g50
g51
NtRp3893
(dp3894
g54
(dp3895
g62
I1
ssg63
g3889
sg56
(lp3896
I00
asbasbasbag49
(g65
g51
NtRp3897
(dp3898
g54
(dp3899
sg63
g3868
sg56
(lp3900
g49
(g70
g51
NtRp3901
(dp3902
g54
(dp3903
sg63
g3897
sg56
(lp3904
g49
(g50
g51
NtRp3905
(dp3906
g54
(dp3907
g62
I1
ssg63
g3901
sg56
(lp3908
S'/admin/default/site'
p3909
asbasbasbasbasbasbasbag49
(g65
g51
NtRp3910
(dp3911
g54
(dp3912
sg63
g3852
sg56
(lp3913
g49
(g70
g51
NtRp3914
(dp3915
g54
(dp3916
sg63
g3910
sg56
(lp3917
g49
(g50
g51
NtRp3918
(dp3919
g54
(dp3920
g62
I2
ssg63
g3914
sg56
(lp3921
g49
(g58
g51
NtRp3922
(dp3923
g54
(dp3924
g62
I1
ssg63
Nsg56
(lp3925
g49
(g65
g51
NtRp3926
(dp3927
g54
(dp3928
sg63
g3922
sg56
(lp3929
g49
(g70
g51
NtRp3930
(dp3931
g54
(dp3932
sg63
g3926
sg56
(lp3933
g49
(g50
g51
NtRp3934
(dp3935
g54
(dp3936
g62
I1
ssg63
g3930
sg56
(lp3937
g3738
(S's\x08\x00\x00\x00This App'
tRp3938
asbasbasbag49
(g65
g51
NtRp3939
(dp3940
g54
(dp3941
sg63
g3922
sg56
(lp3942
g49
(g70
g51
NtRp3943
(dp3944
g54
(dp3945
sg63
g3939
sg56
(lp3946
g49
(g50
g51
NtRp3947
(dp3948
g54
(dp3949
g62
I1
ssg63
g3943
sg56
(lp3950
I00
asbasbasbag49
(g65
g51
NtRp3951
(dp3952
g54
(dp3953
sg63
g3922
sg56
(lp3954
g49
(g70
g51
NtRp3955
(dp3956
g54
(dp3957
sg63
g3951
sg56
(lp3958
g49
(g50
g51
NtRp3959
(dp3960
g54
(dp3961
g62
I1
ssg63
g3955
sg56
(lp3962
S'/admin/default/design/init'
p3963
asbasbasbag49
(g65
g51
NtRp3964
(dp3965
g54
(dp3966
sg63
g3922
sg56
(lp3967
g49
(g70
g51
NtRp3968
(dp3969
g54
(dp3970
sg63
g3964
sg56
(lp3971
g49
(g50
g51
NtRp3972
(dp3973
g54
(dp3974
g62
I1
ssg63
g3968
sg56
(lp3975
(lp3976
(g3738
(S's\n\x00\x00\x00Controller'
tRp3977
I00
S'/admin/default/edit/init/controllers/default.py'
tp3978
a(g3738
(S's\x04\x00\x00\x00View'
tRp3979
I00
S'/admin/default/edit/init/views/default/index.html'
tp3980
a(g3738
(S's\x06\x00\x00\x00Layout'
tRp3981
I00
S'/admin/default/edit/init/views/layout.html'
tp3982
a(g3738
(S's\n\x00\x00\x00Stylesheet'
tRp3983
I00
S'/admin/default/edit/init/static/css/web2py.css'
tp3984
a(g3738
(S's\x08\x00\x00\x00DB Model'
tRp3985
I00
S'/admin/default/edit/init/models/db.py'
tp3986
a(g3738
(S's\n\x00\x00\x00Menu Model'
tRp3987
I00
S'/admin/default/edit/init/models/menu.py'
tp3988
a(g3738
(S's\x08\x00\x00\x00Database'
tRp3989
I00
S'/init/appadmin/index'
tp3990
a(g3738
(S's\x06\x00\x00\x00Errors'
tRp3991
I00
S'/admin/default/errors/init'
tp3992
a(g3738
(S's\x05\x00\x00\x00About'
tRp3993
I00
S'/admin/default/about/init'
tp3994
aasbasbasbasbasbasbasbag49
(g65
g51
NtRp3995
(dp3996
g54
(dp3997
sg63
g3852
sg56
(lp3998
g49
(g70
g51
NtRp3999
(dp4000
g54
(dp4001
sg63
g3995
sg56
(lp4002
g49
(g50
g51
NtRp4003
(dp4004
g54
(dp4005
g62
I2
ssg63
g3999
sg56
(lp4006
g49
(g58
g51
NtRp4007
(dp4008
g54
(dp4009
g62
I1
ssg63
Nsg56
(lp4010
g49
(g65
g51
NtRp4011
(dp4012
g54
(dp4013
sg63
g4007
sg56
(lp4014
g49
(g70
g51
NtRp4015
(dp4016
g54
(dp4017
sg63
g4011
sg56
(lp4018
g49
(g50
g51
NtRp4019
(dp4020
g54
(dp4021
g62
I1
ssg63
g4015
sg56
(lp4022
S'web2py.com'
p4023
asbasbasbag49
(g65
g51
NtRp4024
(dp4025
g54
(dp4026
sg63
g4007
sg56
(lp4027
g49
(g70
g51
NtRp4028
(dp4029
g54
(dp4030
sg63
g4024
sg56
(lp4031
g49
(g50
g51
NtRp4032
(dp4033
g54
(dp4034
g62
I1
ssg63
g4028
sg56
(lp4035
I00
asbasbasbag49
(g65
g51
NtRp4036
(dp4037
g54
(dp4038
sg63
g4007
sg56
(lp4039
g49
(g70
g51
NtRp4040
(dp4041
g54
(dp4042
sg63
g4036
sg56
(lp4043
g49
(g50
g51
NtRp4044
(dp4045
g54
(dp4046
g62
I1
ssg63
g4040
sg56
(lp4047
S'http://www.web2py.com'
p4048
asbasbasbag49
(g65
g51
NtRp4049
(dp4050
g54
(dp4051
sg63
g4007
sg56
(lp4052
g49
(g70
g51
NtRp4053
(dp4054
g54
(dp4055
sg63
g4049
sg56
(lp4056
g49
(g50
g51
NtRp4057
(dp4058
g54
(dp4059
g62
I1
ssg63
g4053
sg56
(lp4060
(lp4061
(g3738
(S's\x08\x00\x00\x00Download'
tRp4062
I00
S'http://www.web2py.com/examples/default/download'
p4063
tp4064
a(g3738
(S's\x07\x00\x00\x00Support'
tRp4065
I00
S'http://www.web2py.com/examples/default/support'
p4066
tp4067
a(g3738
(S's\x04\x00\x00\x00Demo'
tRp4068
I00
S'http://web2py.com/demo_admin'
p4069
tp4070
a(g3738
(S's\x0e\x00\x00\x00Quick Examples'
tRp4071
I00
S'http://web2py.com/examples/default/examples'
p4072
tp4073
a(g3738
(S's\x03\x00\x00\x00FAQ'
tRp4074
I00
S'http://web2py.com/AlterEgo'
p4075
tp4076
a(g3738
(S's\x06\x00\x00\x00Videos'
tRp4077
I00
S'http://www.web2py.com/examples/default/videos/'
p4078
tp4079
a(g3738
(S's\x11\x00\x00\x00Free Applications'
tRp4080
I00
S'http://web2py.com/appliances'
p4081
tp4082
a(g3738
(S's\x07\x00\x00\x00Plugins'
tRp4083
I00
S'http://web2py.com/plugins'
p4084
tp4085
a(g3738
(S's\x07\x00\x00\x00Layouts'
tRp4086
I00
S'http://web2py.com/layouts'
p4087
tp4088
a(g3738
(S's\x07\x00\x00\x00Recipes'
tRp4089
I00
S'http://web2pyslices.com/'
p4090
tp4091
a(g3738
(S's\x08\x00\x00\x00Semantic'
tRp4092
I00
S'http://web2py.com/semantic'
p4093
tp4094
aasbasbasbasbasbasbasbag49
(g65
g51
NtRp4095
(dp4096
g54
(dp4097
sg63
g3852
sg56
(lp4098
g49
(g70
g51
NtRp4099
(dp4100
g54
(dp4101
sg63
g4095
sg56
(lp4102
g49
(g50
g51
NtRp4103
(dp4104
g54
(dp4105
g62
I2
ssg63
g4099
sg56
(lp4106
g49
(g58
g51
NtRp4107
(dp4108
g54
(dp4109
g62
I1
ssg63
Nsg56
(lp4110
g49
(g65
g51
NtRp4111
(dp4112
g54
(dp4113
sg63
g4107
sg56
(lp4114
g49
(g70
g51
NtRp4115
(dp4116
g54
(dp4117
sg63
g4111
sg56
(lp4118
g49
(g50
g51
NtRp4119
(dp4120
g54
(dp4121
g62
I1
ssg63
g4115
sg56
(lp4122
g3738
(S's\r\x00\x00\x00Documentation'
tRp4123
asbasbasbag49
(g65
g51
NtRp4124
(dp4125
g54
(dp4126
sg63
g4107
sg56
(lp4127
g49
(g70
g51
NtRp4128
(dp4129
g54
(dp4130
sg63
g4124
sg56
(lp4131
g49
(g50
g51
NtRp4132
(dp4133
g54
(dp4134
g62
I1
ssg63
g4128
sg56
(lp4135
I00
asbasbasbag49
(g65
g51
NtRp4136
(dp4137
g54
(dp4138
sg63
g4107
sg56
(lp4139
g49
(g70
g51
NtRp4140
(dp4141
g54
(dp4142
sg63
g4136
sg56
(lp4143
g49
(g50
g51
NtRp4144
(dp4145
g54
(dp4146
g62
I1
ssg63
g4140
sg56
(lp4147
S'http://www.web2py.com/book'
p4148
asbasbasbag49
(g65
g51
NtRp4149
(dp4150
g54
(dp4151
sg63
g4107
sg56
(lp4152
g49
(g70
g51
NtRp4153
(dp4154
g54
(dp4155
sg63
g4149
sg56
(lp4156
g49
(g50
g51
NtRp4157
(dp4158
g54
(dp4159
g62
I1
ssg63
g4153
sg56
(lp4160
(lp4161
(g3738
(S's\x07\x00\x00\x00Preface'
tRp4162
I00
S'http://www.web2py.com/book/default/chapter/00'
p4163
tp4164
a(g3738
(S's\x0c\x00\x00\x00Introduction'
tRp4165
I00
S'http://www.web2py.com/book/default/chapter/01'
p4166
tp4167
a(g3738
(S's\x06\x00\x00\x00Python'
tRp4168
I00
S'http://www.web2py.com/book/default/chapter/02'
p4169
tp4170
a(g3738
(S's\x08\x00\x00\x00Overview'
tRp4171
I00
S'http://www.web2py.com/book/default/chapter/03'
p4172
tp4173
a(g3738
(S's\x08\x00\x00\x00The Core'
tRp4174
I00
S'http://www.web2py.com/book/default/chapter/04'
p4175
tp4176
a(g3738
(S's\t\x00\x00\x00The Views'
tRp4177
I00
S'http://www.web2py.com/book/default/chapter/05'
p4178
tp4179
a(g3738
(S's\x08\x00\x00\x00Database'
tRp4180
I00
S'http://www.web2py.com/book/default/chapter/06'
p4181
tp4182
a(g3738
(S's\x14\x00\x00\x00Forms and Validators'
tRp4183
I00
S'http://www.web2py.com/book/default/chapter/07'
p4184
tp4185
a(g3738
(S's\r\x00\x00\x00Email and SMS'
tRp4186
I00
S'http://www.web2py.com/book/default/chapter/08'
p4187
tp4188
a(g3738
(S's\x0e\x00\x00\x00Access Control'
tRp4189
I00
S'http://www.web2py.com/book/default/chapter/09'
p4190
tp4191
a(g3738
(S's\x08\x00\x00\x00Services'
tRp4192
I00
S'http://www.web2py.com/book/default/chapter/10'
p4193
tp4194
a(g3738
(S's\x0c\x00\x00\x00Ajax Recipes'
tRp4195
I00
S'http://www.web2py.com/book/default/chapter/11'
p4196
tp4197
a(g3738
(S's\x16\x00\x00\x00Components and Plugins'
tRp4198
I00
S'http://www.web2py.com/book/default/chapter/12'
p4199
tp4200
a(g3738
(S's\x12\x00\x00\x00Deployment Recipes'
tRp4201
I00
S'http://www.web2py.com/book/default/chapter/13'
p4202
tp4203
a(g3738
(S's\r\x00\x00\x00Other Recipes'
tRp4204
I00
S'http://www.web2py.com/book/default/chapter/14'
p4205
tp4206
a(g3738
(S's\r\x00\x00\x00Buy this book'
tRp4207
I00
S'http://stores.lulu.com/web2py'
p4208
tp4209
aasbasbasbasbasbasbasbag49
(g65
g51
NtRp4210
(dp4211
g54
(dp4212
sg63
g3852
sg56
(lp4213
g49
(g70
g51
NtRp4214
(dp4215
g54
(dp4216
sg63
g4210
sg56
(lp4217
g49
(g50
g51
NtRp4218
(dp4219
g54
(dp4220
g62
I2
ssg63
g4214
sg56
(lp4221
g49
(g58
g51
NtRp4222
(dp4223
g54
(dp4224
g62
I1
ssg63
Nsg56
(lp4225
g49
(g65
g51
NtRp4226
(dp4227
g54
(dp4228
sg63
g4222
sg56
(lp4229
g49
(g70
g51
NtRp4230
(dp4231
g54
(dp4232
sg63
g4226
sg56
(lp4233
g49
(g50
g51
NtRp4234
(dp4235
g54
(dp4236
g62
I1
ssg63
g4230
sg56
(lp4237
g3738
(S's\t\x00\x00\x00Community'
tRp4238
asbasbasbag49
(g65
g51
NtRp4239
(dp4240
g54
(dp4241
sg63
g4222
sg56
(lp4242
g49
(g70
g51
NtRp4243
(dp4244
g54
(dp4245
sg63
g4239
sg56
(lp4246
g49
(g50
g51
NtRp4247
(dp4248
g54
(dp4249
g62
I1
ssg63
g4243
sg56
(lp4250
I00
asbasbasbag49
(g65
g51
NtRp4251
(dp4252
g54
(dp4253
sg63
g4222
sg56
(lp4254
g49
(g70
g51
NtRp4255
(dp4256
g54
(dp4257
sg63
g4251
sg56
(lp4258
g49
(g50
g51
NtRp4259
(dp4260
g54
(dp4261
g62
I1
ssg63
g4255
sg56
(lp4262
Nasbasbasbag49
(g65
g51
NtRp4263
(dp4264
g54
(dp4265
sg63
g4222
sg56
(lp4266
g49
(g70
g51
NtRp4267
(dp4268
g54
(dp4269
sg63
g4263
sg56
(lp4270
g49
(g50
g51
NtRp4271
(dp4272
g54
(dp4273
g62
I1
ssg63
g4267
sg56
(lp4274
(lp4275
(g3738
(S's\x06\x00\x00\x00Groups'
tRp4276
I00
S'http://www.web2py.com/examples/default/usergroups'
p4277
tp4278
a(g3738
(S's\x07\x00\x00\x00Twitter'
tRp4279
I00
S'http://twitter.com/web2py'
p4280
tp4281
a(g3738
(S's\t\x00\x00\x00Live Chat'
tRp4282
I00
S'http://webchat.freenode.net/?channels=web2py'
p4283
tp4284
aasbasbasbasbasbasbasbag49
(g65
g51
NtRp4285
(dp4286
g54
(dp4287
sg63
g3852
sg56
(lp4288
g49
(g70
g51
NtRp4289
(dp4290
g54
(dp4291
sg63
g4285
sg56
(lp4292
g49
(g50
g51
NtRp4293
(dp4294
g54
(dp4295
g62
I2
ssg63
g4289
sg56
(lp4296
g49
(g58
g51
NtRp4297
(dp4298
g54
(dp4299
g62
I1
ssg63
Nsg56
(lp4300
g49
(g65
g51
NtRp4301
(dp4302
g54
(dp4303
sg63
g4297
sg56
(lp4304
g49
(g70
g51
NtRp4305
(dp4306
g54
(dp4307
sg63
g4301
sg56
(lp4308
g49
(g50
g51
NtRp4309
(dp4310
g54
(dp4311
g62
I1
ssg63
g4305
sg56
(lp4312
g3738
(S's\x07\x00\x00\x00Plugins'
tRp4313
asbasbasbag49
(g65
g51
NtRp4314
(dp4315
g54
(dp4316
sg63
g4297
sg56
(lp4317
g49
(g70
g51
NtRp4318
(dp4319
g54
(dp4320
sg63
g4314
sg56
(lp4321
g49
(g50
g51
NtRp4322
(dp4323
g54
(dp4324
g62
I1
ssg63
g4318
sg56
(lp4325
I00
asbasbasbag49
(g65
g51
NtRp4326
(dp4327
g54
(dp4328
sg63
g4297
sg56
(lp4329
g49
(g70
g51
NtRp4330
(dp4331
g54
(dp4332
sg63
g4326
sg56
(lp4333
g49
(g50
g51
NtRp4334
(dp4335
g54
(dp4336
g62
I1
ssg63
g4330
sg56
(lp4337
Nasbasbasbag49
(g65
g51
NtRp4338
(dp4339
g54
(dp4340
sg63
g4297
sg56
(lp4341
g49
(g70
g51
NtRp4342
(dp4343
g54
(dp4344
sg63
g4338
sg56
(lp4345
g49
(g50
g51
NtRp4346
(dp4347
g54
(dp4348
g62
I1
ssg63
g4342
sg56
(lp4349
(lp4350
(S'plugin_wiki'
p4351
I00
S'http://web2py.com/examples/default/download'
p4352
tp4353
a(g3738
(S's\r\x00\x00\x00Other Plugins'
tRp4354
I00
g4084
tp4355
a(g3738
(S's\x0e\x00\x00\x00Layout Plugins'
tRp4356
I00
g4087
tp4357
aasbasbasbasbasbasbasbasbasbasbasbasbasbasbasbasbasbasbasbag49
(g65
g51
NtRp4358
(dp4359
g54
(dp4360
sg63
g3202
sg56
(lp4361
g49
(g70
g51
NtRp4362
(dp4363
g54
(dp4364
g74
g75
ssg63
g4358
sg56
(lp4365
S'meta'
p4366
asbag49
(g70
g51
NtRp4367
(dp4368
g54
(dp4369
g81
g82
ssg63
g4358
sg56
(lp4370
S':'
asbag49
(g70
g51
NtRp4371
(dp4372
g54
(dp4373
sg63
g4358
sg56
(lp4374
g49
(g50
g51
NtRp4375
(dp4376
g54
(dp4377
g62
I5
ssg63
g4371
sg56
(lp4378
g49
(g58
g51
NtRp4379
(dp4380
g54
(dp4381
g62
I4
ssg63
Nsg56
(lp4382
g49
(g65
g51
NtRp4383
(dp4384
g54
(dp4385
sg63
g4379
sg56
(lp4386
g49
(g70
g51
NtRp4387
(dp4388
g54
(dp4389
g74
g75
ssg63
g4383
sg56
(lp4390
S'author'
p4391
asbag49
(g70
g51
NtRp4392
(dp4393
g54
(dp4394
g81
g82
ssg63
g4383
sg56
(lp4395
S':'
asbag49
(g70
g51
NtRp4396
(dp4397
g54
(dp4398
sg63
g4383
sg56
(lp4399
g49
(g50
g51
NtRp4400
(dp4401
g54
(dp4402
g62
I4
ssg63
g4396
sg56
(lp4403
S'Your Name <you@example.com>'
p4404
asbasbasbag49
(g65
g51
NtRp4405
(dp4406
g54
(dp4407
sg63
g4379
sg56
(lp4408
g49
(g70
g51
NtRp4409
(dp4410
g54
(dp4411
g74
g75
ssg63
g4405
sg56
(lp4412
S'copyright'
p4413
asbag49
(g70
g51
NtRp4414
(dp4415
g54
(dp4416
g81
g82
ssg63
g4405
sg56
(lp4417
S':'
asbag49
(g70
g51
NtRp4418
(dp4419
g54
(dp4420
sg63
g4405
sg56
(lp4421
g49
(g50
g51
NtRp4422
(dp4423
g54
(dp4424
g62
I4
ssg63
g4418
sg56
(lp4425
S'Copyright 2011'
p4426
asbasbasbag49
(g65
g51
NtRp4427
(dp4428
g54
(dp4429
sg63
g4379
sg56
(lp4430
g49
(g70
g51
NtRp4431
(dp4432
g54
(dp4433
g74
g75
ssg63
g4427
sg56
(lp4434
S'description'
p4435
asbag49
(g70
g51
NtRp4436
(dp4437
g54
(dp4438
g81
g82
ssg63
g4427
sg56
(lp4439
S':'
asbag49
(g70
g51
NtRp4440
(dp4441
g54
(dp4442
sg63
g4427
sg56
(lp4443
g49
(g50
g51
NtRp4444
(dp4445
g54
(dp4446
g62
I4
ssg63
g4440
sg56
(lp4447
S'a cool new app'
p4448
asbasbasbag49
(g65
g51
NtRp4449
(dp4450
g54
(dp4451
sg63
g4379
sg56
(lp4452
g49
(g70
g51
NtRp4453
(dp4454
g54
(dp4455
g74
g75
ssg63
g4449
sg56
(lp4456
S'generator'
p4457
asbag49
(g70
g51
NtRp4458
(dp4459
g54
(dp4460
g81
g82
ssg63
g4449
sg56
(lp4461
S':'
asbag49
(g70
g51
NtRp4462
(dp4463
g54
(dp4464
sg63
g4449
sg56
(lp4465
g49
(g50
g51
NtRp4466
(dp4467
g54
(dp4468
g62
I4
ssg63
g4462
sg56
(lp4469
S'Web2py Web Framework'
p4470
asbasbasbag49
(g65
g51
NtRp4471
(dp4472
g54
(dp4473
sg63
g4379
sg56
(lp4474
g49
(g70
g51
NtRp4475
(dp4476
g54
(dp4477
g74
g75
ssg63
g4471
sg56
(lp4478
S'keywords'
p4479
asbag49
(g70
g51
NtRp4480
(dp4481
g54
(dp4482
g81
g82
ssg63
g4471
sg56
(lp4483
S':'
asbag49
(g70
g51
NtRp4484
(dp4485
g54
(dp4486
sg63
g4471
sg56
(lp4487
g49
(g50
g51
NtRp4488
(dp4489
g54
(dp4490
g62
I4
ssg63
g4484
sg56
(lp4491
S'web2py, python, framework'
p4492
asbasbasbasbasbasbasbag49
(g65
g51
NtRp4493
(dp4494
g54
(dp4495
sg63
g3202
sg56
(lp4496
g49
(g70
g51
NtRp4497
(dp4498
g54
(dp4499
g74
g75
ssg63
g4493
sg56
(lp4500
S'postprocessing'
p4501
asbag49
(g70
g51
NtRp4502
(dp4503
g54
(dp4504
g81
g82
ssg63
g4493
sg56
(lp4505
S':'
asbag49
(g70
g51
NtRp4506
(dp4507
g54
(dp4508
sg63
g4493
sg56
(lp4509
g49
(g50
g51
NtRp4510
(dp4511
g54
(dp4512
g62
I5
ssg63
g4506
sg56
(lp4513
g49
(g58
g51
NtRp4514
(dp4515
g54
(dp4516
g62
I4
ssg63
Nsg56
(lp4517
sbasbasbasbag49
(g65
g51
NtRp4518
(dp4519
g54
(dp4520
sg63
g3202
sg56
(lp4521
g49
(g70
g51
NtRp4522
(dp4523
g54
(dp4524
g74
g75
ssg63
g4518
sg56
(lp4525
S'session_file'
p4526
asbag49
(g70
g51
NtRp4527
(dp4528
g54
(dp4529
g81
g82
ssg63
g4518
sg56
(lp4530
S':'
asbag49
(g70
g51
NtRp4531
(dp4532
g54
(dp4533
sg63
g4518
sg56
(lp4534
g49
(g50
g51
NtRp4535
(dp4536
g54
(dp4537
g62
I5
ssg63
g4531
sg56
(lp4538
S"<open file 'C:\\Users\\Bussiere\\Dropbox\\Projets\\Yuki\\web2py\\applications\\init\\sessions\\127.0.0.1-e491f18b-7b0c-472f-8228-a18d6ec769aa', mode 'rb+' at 0x0750A800>"
p4539
asbasbasbag49
(g65
g51
NtRp4540
(dp4541
g54
(dp4542
sg63
g3202
sg56
(lp4543
g49
(g70
g51
NtRp4544
(dp4545
g54
(dp4546
g74
g75
ssg63
g4540
sg56
(lp4547
S'session_filename'
p4548
asbag49
(g70
g51
NtRp4549
(dp4550
g54
(dp4551
g81
g82
ssg63
g4540
sg56
(lp4552
S':'
asbag49
(g70
g51
NtRp4553
(dp4554
g54
(dp4555
sg63
g4540
sg56
(lp4556
g49
(g50
g51
NtRp4557
(dp4558
g54
(dp4559
g62
I5
ssg63
g4553
sg56
(lp4560
S'C:\\Users\\Bussiere\\Dropbox\\Projets\\Yuki\\web2py\\applications\\init\\sessions\\127.0.0.1-e491f18b-7b0c-472f-8228-a18d6ec769aa'
p4561
asbasbasbag49
(g65
g51
NtRp4562
(dp4563
g54
(dp4564
sg63
g3202
sg56
(lp4565
g49
(g70
g51
NtRp4566
(dp4567
g54
(dp4568
g74
g75
ssg63
g4562
sg56
(lp4569
S'session_id'
p4570
asbag49
(g70
g51
NtRp4571
(dp4572
g54
(dp4573
g81
g82
ssg63
g4562
sg56
(lp4574
S':'
asbag49
(g70
g51
NtRp4575
(dp4576
g54
(dp4577
sg63
g4562
sg56
(lp4578
g49
(g50
g51
NtRp4579
(dp4580
g54
(dp4581
g62
I5
ssg63
g4575
sg56
(lp4582
S'127.0.0.1-e491f18b-7b0c-472f-8228-a18d6ec769aa'
p4583
asbasbasbag49
(g65
g51
NtRp4584
(dp4585
g54
(dp4586
sg63
g3202
sg56
(lp4587
g49
(g70
g51
NtRp4588
(dp4589
g54
(dp4590
g74
g75
ssg63
g4584
sg56
(lp4591
S'session_id_name'
p4592
asbag49
(g70
g51
NtRp4593
(dp4594
g54
(dp4595
g81
g82
ssg63
g4584
sg56
(lp4596
S':'
asbag49
(g70
g51
NtRp4597
(dp4598
g54
(dp4599
sg63
g4584
sg56
(lp4600
g49
(g50
g51
NtRp4601
(dp4602
g54
(dp4603
g62
I5
ssg63
g4597
sg56
(lp4604
g3259
asbasbasbag49
(g65
g51
NtRp4605
(dp4606
g54
(dp4607
sg63
g3202
sg56
(lp4608
g49
(g70
g51
NtRp4609
(dp4610
g54
(dp4611
g74
g75
ssg63
g4605
sg56
(lp4612
S'session_locked'
p4613
asbag49
(g70
g51
NtRp4614
(dp4615
g54
(dp4616
g81
g82
ssg63
g4605
sg56
(lp4617
S':'
asbag49
(g70
g51
NtRp4618
(dp4619
g54
(dp4620
sg63
g4605
sg56
(lp4621
g49
(g50
g51
NtRp4622
(dp4623
g54
(dp4624
g62
I5
ssg63
g4618
sg56
(lp4625
g726
asbasbasbag49
(g65
g51
NtRp4626
(dp4627
g54
(dp4628
sg63
g3202
sg56
(lp4629
g49
(g70
g51
NtRp4630
(dp4631
g54
(dp4632
g74
g75
ssg63
g4626
sg56
(lp4633
S'session_new'
p4634
asbag49
(g70
g51
NtRp4635
(dp4636
g54
(dp4637
g81
g82
ssg63
g4626
sg56
(lp4638
S':'
asbag49
(g70
g51
NtRp4639
(dp4640
g54
(dp4641
sg63
g4626
sg56
(lp4642
g49
(g50
g51
NtRp4643
(dp4644
g54
(dp4645
g62
I5
ssg63
g4639
sg56
(lp4646
g92
asbasbasbag49
(g65
g51
NtRp4647
(dp4648
g54
(dp4649
sg63
g3202
sg56
(lp4650
g49
(g70
g51
NtRp4651
(dp4652
g54
(dp4653
g74
g75
ssg63
g4647
sg56
(lp4654
S'status'
p4655
asbag49
(g70
g51
NtRp4656
(dp4657
g54
(dp4658
g81
g82
ssg63
g4647
sg56
(lp4659
S':'
asbag49
(g70
g51
NtRp4660
(dp4661
g54
(dp4662
sg63
g4647
sg56
(lp4663
g49
(g50
g51
NtRp4664
(dp4665
g54
(dp4666
g62
I5
ssg63
g4660
sg56
(lp4667
S'200'
p4668
asbasbasbag49
(g65
g51
NtRp4669
(dp4670
g54
(dp4671
sg63
g3202
sg56
(lp4672
g49
(g70
g51
NtRp4673
(dp4674
g54
(dp4675
g74
g75
ssg63
g4669
sg56
(lp4676
S'subtitle'
p4677
asbag49
(g70
g51
NtRp4678
(dp4679
g54
(dp4680
g81
g82
ssg63
g4669
sg56
(lp4681
S':'
asbag49
(g70
g51
NtRp4682
(dp4683
g54
(dp4684
sg63
g4669
sg56
(lp4685
g49
(g50
g51
NtRp4686
(dp4687
g54
(dp4688
g62
I5
ssg63
g4682
sg56
(lp4689
g3738
(S's\r\x00\x00\x00customize me!'
tRp4690
asbasbasbag49
(g65
g51
NtRp4691
(dp4692
g54
(dp4693
sg63
g3202
sg56
(lp4694
g49
(g70
g51
NtRp4695
(dp4696
g54
(dp4697
g74
g75
ssg63
g4691
sg56
(lp4698
S'title'
p4699
asbag49
(g70
g51
NtRp4700
(dp4701
g54
(dp4702
g81
g82
ssg63
g4691
sg56
(lp4703
S':'
asbag49
(g70
g51
NtRp4704
(dp4705
g54
(dp4706
sg63
g4691
sg56
(lp4707
g49
(g50
g51
NtRp4708
(dp4709
g54
(dp4710
g62
I5
ssg63
g4704
sg56
(lp4711
S'Init'
p4712
asbasbasbag49
(g65
g51
NtRp4713
(dp4714
g54
(dp4715
sg63
g3202
sg56
(lp4716
g49
(g70
g51
NtRp4717
(dp4718
g54
(dp4719
g74
g75
ssg63
g4713
sg56
(lp4720
g2107
asbag49
(g70
g51
NtRp4721
(dp4722
g54
(dp4723
g81
g82
ssg63
g4713
sg56
(lp4724
S':'
asbag49
(g70
g51
NtRp4725
(dp4726
g54
(dp4727
sg63
g4713
sg56
(lp4728
g49
(g50
g51
NtRp4729
(dp4730
g54
(dp4731
g62
I5
ssg63
g4725
sg56
(lp4732
g2120
asbasbasbag49
(g65
g51
NtRp4733
(dp4734
g54
(dp4735
sg63
g3202
sg56
(lp4736
g49
(g70
g51
NtRp4737
(dp4738
g54
(dp4739
g74
g75
ssg63
g4733
sg56
(lp4740
S'view'
p4741
asbag49
(g70
g51
NtRp4742
(dp4743
g54
(dp4744
g81
g82
ssg63
g4733
sg56
(lp4745
S':'
asbag49
(g70
g51
NtRp4746
(dp4747
g54
(dp4748
sg63
g4733
sg56
(lp4749
g49
(g50
g51
NtRp4750
(dp4751
g54
(dp4752
g62
I5
ssg63
g4746
sg56
(lp4753
S'default/index.html'
p4754
asbasbasbasbasbsS'locals'
p4755
(dp4756
S'self'
p4757
S"<DAL {'comment': <Table {'body': <gluon.dal.Fiel...d object at 0x07328430>, '_singular': 'Price'}>}>"
p4758
sS'key'
p4759
S"'table'"
p4760
sssS'traceback'
p4761
S'Traceback (most recent call last):\n  File "gluon/restricted.py", line 205, in restricted\n  File "C:\\Users\\Bussiere\\Dropbox\\Projets\\Yuki\\web2py\\applications\\init\\views\\default/index.html", line 1, in <module>\n  File "gluon/dal.py", line 6343, in __getattr__\n  File "gluon/dal.py", line 6337, in __getitem__\nKeyError: \'table\'\n'
p4762
s.