(dp1
S'output'
p2
S"<type 'exceptions.NameError'> global name 'table' is not defined"
p3
sS'layer'
p4
S'C:\\Users\\Bussiere\\Dropbox\\Projets\\Yuki\\web2py\\applications\\init\\controllers/default.py'
p5
sS'code'
p6
S'# -*- coding: utf-8 -*-\n# this file is released under public domain and you can use without limitations\n\n#########################################################################\n## This is a samples controller\n## - index is the default action of any application\n## - user is required for authentication and authorization\n## - download is for downloading files uploaded in the db (does streaming)\n## - call exposes all registered services (none by default)\n#########################################################################\n\ndef index():\n    """\n    example action using the internationalization operator T and flash\n    rendered by views/default/index.html or views/generic.html\n    """\n    response.flash = "Welcome to web2py!"\n    return dict(message=T(\'Hello World\'))\n\ndef user():\n    """\n    exposes:\n    http://..../[app]/default/user/login\n    http://..../[app]/default/user/logout\n    http://..../[app]/default/user/register\n    http://..../[app]/default/user/profile\n    http://..../[app]/default/user/retrieve_password\n    http://..../[app]/default/user/change_password\n    use @auth.requires_login()\n        @auth.requires_membership(\'group name\')\n        @auth.requires_permission(\'read\',\'table name\',record_id)\n    to decorate functions that need access control\n    """\n    return dict(form=auth())\n\ndef SearchBarcode():\n    image = db.Barcode(request.args(0)) or redirect(URL(\'index\'))\n    db.comment.Barcode_id.default = Barcode.id\n    form = crud.create(db.comment,\n                       message=\'your comment is posted\',\n            next=URL(args=Barcode.id))\n    comments = db(db.comment.Barcode_id==Barcode.id).select()\n    return dict(image=image, comments=comments, form=form)\n\n\ndef showBarcode():\n    image = db.Barcode(request.args(0)) or redirect(URL(\'index\'))\n    db.comment.Barcode_id.default = Barcode.id\n    form = crud.create(db.comment,\n                       message=\'your comment is posted\',\n            next=URL(args=Barcode.id))\n    comments = db(db.comment.Barcode_id==Barcode.id).select()\n    return dict(image=image, comments=comments, form=form)\n\ndef addBarcode():\n    form = SQLFORM(db.Barcode)\n    if form.accepts(request.vars, session):\n        response.flash = T(\'new record inserted\')\n    return dict(form=form,table=db[table])\n\n\ndef download():\n    """\n    allows downloading of uploaded files\n    http://..../[app]/default/download/[filename]\n    """\n    return response.download(request,db)\n\n\ndef call():\n    """\n    exposes services. for example:\n    http://..../[app]/default/call/jsonrpc\n    decorate with @services.jsonrpc the functions to expose\n    supports xml, json, xmlrpc, jsonrpc, amfrpc, rss, csv\n    """\n    return service()\n\n\n@auth.requires_signature()\ndef data():\n    """\n    http://..../[app]/default/data/tables\n    http://..../[app]/default/data/create/[table]\n    http://..../[app]/default/data/read/[table]/[id]\n    http://..../[app]/default/data/update/[table]/[id]\n    http://..../[app]/default/data/delete/[table]/[id]\n    http://..../[app]/default/data/select/[table]\n    http://..../[app]/default/data/search/[table]\n    but URLs must be signed, i.e. linked with\n      A(\'table\',_href=URL(\'data/tables\',user_signature=True))\n    or with the signed load operator\n      LOAD(\'default\',\'data.load\',args=\'tables\',ajax=True,user_signature=True)\n    """\n    return dict(form=crud())\n\n\nresponse._vars=response._caller(addBarcode)\n'
p7
sS'snapshot'
p8
(dp9
S'exception'
p10
(dp11
S'__hash__'
p12
S"<method-wrapper '__hash__' of exceptions.NameError object at 0x078EFC88>"
p13
sS'__setattr__'
p14
S"<method-wrapper '__setattr__' of exceptions.NameError object at 0x078EFC88>"
p15
sS'__reduce_ex__'
p16
S'<built-in method __reduce_ex__ of exceptions.NameError object at 0x078EFC88>'
p17
sS'__getslice__'
p18
S"<method-wrapper '__getslice__' of exceptions.NameError object at 0x078EFC88>"
p19
sS'__getitem__'
p20
S"<method-wrapper '__getitem__' of exceptions.NameError object at 0x078EFC88>"
p21
sS'__setstate__'
p22
S'<built-in method __setstate__ of exceptions.NameError object at 0x078EFC88>'
p23
sS'__reduce__'
p24
S'<built-in method __reduce__ of exceptions.NameError object at 0x078EFC88>'
p25
sS'__str__'
p26
S"<method-wrapper '__str__' of exceptions.NameError object at 0x078EFC88>"
p27
sS'args'
p28
S'("global name \'table\' is not defined",)'
p29
sS'__getattribute__'
p30
S"<method-wrapper '__getattribute__' of exceptions.NameError object at 0x078EFC88>"
p31
sS'__class__'
p32
S"<type 'exceptions.NameError'>"
p33
sS'__delattr__'
p34
S"<method-wrapper '__delattr__' of exceptions.NameError object at 0x078EFC88>"
p35
sS'__repr__'
p36
S"<method-wrapper '__repr__' of exceptions.NameError object at 0x078EFC88>"
p37
sS'__dict__'
p38
S'{}'
p39
sS'__doc__'
p40
S"'Name not found globally.'"
p41
sS'__init__'
p42
S"<method-wrapper '__init__' of exceptions.NameError object at 0x078EFC88>"
p43
sS'__new__'
p44
S'<built-in method __new__ of type object at 0x1E1CD8D8>'
p45
ssS'evalue'
p46
S"global name 'table' is not defined"
p47
sS'request'
p48
ccopy_reg
_reconstructor
p49
(cgluon.html
BEAUTIFY
p50
c__builtin__
object
p51
NtRp52
(dp53
S'attributes'
p54
(dp55
sS'components'
p56
(lp57
g49
(cgluon.html
TABLE
p58
g51
NtRp59
(dp60
g54
(dp61
S'level'
p62
I5
ssS'parent'
p63
Nsg56
(lp64
g49
(cgluon.html
TR
p65
g51
NtRp66
(dp67
g54
(dp68
sg63
g59
sg56
(lp69
g49
(cgluon.html
TD
p70
g51
NtRp71
(dp72
g54
(dp73
S'_style'
p74
S'font-weight:bold;vertical-align:top'
p75
ssg63
g66
sg56
(lp76
S'ajax'
p77
asbag49
(g70
g51
NtRp78
(dp79
g54
(dp80
S'_valign'
p81
S'top'
p82
ssg63
g66
sg56
(lp83
S':'
asbag49
(g70
g51
NtRp84
(dp85
g54
(dp86
sg63
g66
sg56
(lp87
g49
(g50
g51
NtRp88
(dp89
g54
(dp90
g62
I5
ssg63
g84
sg56
(lp91
S'False'
p92
asbasbasbag49
(g65
g51
NtRp93
(dp94
g54
(dp95
sg63
g59
sg56
(lp96
g49
(g70
g51
NtRp97
(dp98
g54
(dp99
g74
g75
ssg63
g93
sg56
(lp100
S'application'
p101
asbag49
(g70
g51
NtRp102
(dp103
g54
(dp104
g81
g82
ssg63
g93
sg56
(lp105
S':'
asbag49
(g70
g51
NtRp106
(dp107
g54
(dp108
sg63
g93
sg56
(lp109
g49
(g50
g51
NtRp110
(dp111
g54
(dp112
g62
I5
ssg63
g106
sg56
(lp113
S'init'
p114
asbasbasbag49
(g65
g51
NtRp115
(dp116
g54
(dp117
sg63
g59
sg56
(lp118
g49
(g70
g51
NtRp119
(dp120
g54
(dp121
g74
g75
ssg63
g115
sg56
(lp122
g28
asbag49
(g70
g51
NtRp123
(dp124
g54
(dp125
g81
g82
ssg63
g115
sg56
(lp126
S':'
asbag49
(g70
g51
NtRp127
(dp128
g54
(dp129
sg63
g115
sg56
(lp130
g49
(g50
g51
NtRp131
(dp132
g54
(dp133
g62
I5
ssg63
g127
sg56
(lp134
g49
(g58
g51
NtRp135
(dp136
g54
(dp137
g62
I4
ssg63
Nsg56
(lp138
sbasbasbasbag49
(g65
g51
NtRp139
(dp140
g54
(dp141
sg63
g59
sg56
(lp142
g49
(g70
g51
NtRp143
(dp144
g54
(dp145
g74
g75
ssg63
g139
sg56
(lp146
S'body'
p147
asbag49
(g70
g51
NtRp148
(dp149
g54
(dp150
g81
g82
ssg63
g139
sg56
(lp151
S':'
asbag49
(g70
g51
NtRp152
(dp153
g54
(dp154
sg63
g139
sg56
(lp155
g49
(g50
g51
NtRp156
(dp157
g54
(dp158
g62
I5
ssg63
g152
sg56
(lp159
S'<cStringIO.StringO object at 0x07926A00>'
p160
asbasbasbag49
(g65
g51
NtRp161
(dp162
g54
(dp163
sg63
g59
sg56
(lp164
g49
(g70
g51
NtRp165
(dp166
g54
(dp167
g74
g75
ssg63
g161
sg56
(lp168
S'client'
p169
asbag49
(g70
g51
NtRp170
(dp171
g54
(dp172
g81
g82
ssg63
g161
sg56
(lp173
S':'
asbag49
(g70
g51
NtRp174
(dp175
g54
(dp176
sg63
g161
sg56
(lp177
g49
(g50
g51
NtRp178
(dp179
g54
(dp180
g62
I5
ssg63
g174
sg56
(lp181
S'127.0.0.1'
p182
asbasbasbag49
(g65
g51
NtRp183
(dp184
g54
(dp185
sg63
g59
sg56
(lp186
g49
(g70
g51
NtRp187
(dp188
g54
(dp189
g74
g75
ssg63
g183
sg56
(lp190
S'controller'
p191
asbag49
(g70
g51
NtRp192
(dp193
g54
(dp194
g81
g82
ssg63
g183
sg56
(lp195
S':'
asbag49
(g70
g51
NtRp196
(dp197
g54
(dp198
sg63
g183
sg56
(lp199
g49
(g50
g51
NtRp200
(dp201
g54
(dp202
g62
I5
ssg63
g196
sg56
(lp203
S'default'
p204
asbasbasbag49
(g65
g51
NtRp205
(dp206
g54
(dp207
sg63
g59
sg56
(lp208
g49
(g70
g51
NtRp209
(dp210
g54
(dp211
g74
g75
ssg63
g205
sg56
(lp212
S'cookies'
p213
asbag49
(g70
g51
NtRp214
(dp215
g54
(dp216
g81
g82
ssg63
g205
sg56
(lp217
S':'
asbag49
(g70
g51
NtRp218
(dp219
g54
(dp220
sg63
g205
sg56
(lp221
g49
(g50
g51
NtRp222
(dp223
g54
(dp224
g62
I5
ssg63
g218
sg56
(lp225
g49
(g58
g51
NtRp226
(dp227
g54
(dp228
g62
I4
ssg63
Nsg56
(lp229
g49
(g65
g51
NtRp230
(dp231
g54
(dp232
sg63
g226
sg56
(lp233
g49
(g70
g51
NtRp234
(dp235
g54
(dp236
g74
g75
ssg63
g230
sg56
(lp237
S'session_id_admin'
p238
asbag49
(g70
g51
NtRp239
(dp240
g54
(dp241
g81
g82
ssg63
g230
sg56
(lp242
S':'
asbag49
(g70
g51
NtRp243
(dp244
g54
(dp245
sg63
g230
sg56
(lp246
g49
(g50
g51
NtRp247
(dp248
g54
(dp249
g62
I4
ssg63
g243
sg56
(lp250
g49
(g58
g51
NtRp251
(dp252
g54
(dp253
g62
I3
ssg63
Nsg56
(lp254
g49
(g65
g51
NtRp255
(dp256
g54
(dp257
sg63
g251
sg56
(lp258
g49
(g70
g51
NtRp259
(dp260
g54
(dp261
g74
g75
ssg63
g255
sg56
(lp262
S'comment'
p263
asbag49
(g70
g51
NtRp264
(dp265
g54
(dp266
g81
g82
ssg63
g255
sg56
(lp267
S':'
asbag49
(g70
g51
NtRp268
(dp269
g54
(dp270
sg63
g255
sg56
(lp271
g49
(g50
g51
NtRp272
(dp273
g54
(dp274
g62
I3
ssg63
g268
sg56
(lp275
S''
asbasbasbag49
(g65
g51
NtRp276
(dp277
g54
(dp278
sg63
g251
sg56
(lp279
g49
(g70
g51
NtRp280
(dp281
g54
(dp282
g74
g75
ssg63
g276
sg56
(lp283
S'domain'
p284
asbag49
(g70
g51
NtRp285
(dp286
g54
(dp287
g81
g82
ssg63
g276
sg56
(lp288
S':'
asbag49
(g70
g51
NtRp289
(dp290
g54
(dp291
sg63
g276
sg56
(lp292
g49
(g50
g51
NtRp293
(dp294
g54
(dp295
g62
I3
ssg63
g289
sg56
(lp296
S''
asbasbasbag49
(g65
g51
NtRp297
(dp298
g54
(dp299
sg63
g251
sg56
(lp300
g49
(g70
g51
NtRp301
(dp302
g54
(dp303
g74
g75
ssg63
g297
sg56
(lp304
S'expires'
p305
asbag49
(g70
g51
NtRp306
(dp307
g54
(dp308
g81
g82
ssg63
g297
sg56
(lp309
S':'
asbag49
(g70
g51
NtRp310
(dp311
g54
(dp312
sg63
g297
sg56
(lp313
g49
(g50
g51
NtRp314
(dp315
g54
(dp316
g62
I3
ssg63
g310
sg56
(lp317
S''
asbasbasbag49
(g65
g51
NtRp318
(dp319
g54
(dp320
sg63
g251
sg56
(lp321
g49
(g70
g51
NtRp322
(dp323
g54
(dp324
g74
g75
ssg63
g318
sg56
(lp325
S'max-age'
p326
asbag49
(g70
g51
NtRp327
(dp328
g54
(dp329
g81
g82
ssg63
g318
sg56
(lp330
S':'
asbag49
(g70
g51
NtRp331
(dp332
g54
(dp333
sg63
g318
sg56
(lp334
g49
(g50
g51
NtRp335
(dp336
g54
(dp337
g62
I3
ssg63
g331
sg56
(lp338
S''
asbasbasbag49
(g65
g51
NtRp339
(dp340
g54
(dp341
sg63
g251
sg56
(lp342
g49
(g70
g51
NtRp343
(dp344
g54
(dp345
g74
g75
ssg63
g339
sg56
(lp346
S'path'
p347
asbag49
(g70
g51
NtRp348
(dp349
g54
(dp350
g81
g82
ssg63
g339
sg56
(lp351
S':'
asbag49
(g70
g51
NtRp352
(dp353
g54
(dp354
sg63
g339
sg56
(lp355
g49
(g50
g51
NtRp356
(dp357
g54
(dp358
g62
I3
ssg63
g352
sg56
(lp359
S''
asbasbasbag49
(g65
g51
NtRp360
(dp361
g54
(dp362
sg63
g251
sg56
(lp363
g49
(g70
g51
NtRp364
(dp365
g54
(dp366
g74
g75
ssg63
g360
sg56
(lp367
S'secure'
p368
asbag49
(g70
g51
NtRp369
(dp370
g54
(dp371
g81
g82
ssg63
g360
sg56
(lp372
S':'
asbag49
(g70
g51
NtRp373
(dp374
g54
(dp375
sg63
g360
sg56
(lp376
g49
(g50
g51
NtRp377
(dp378
g54
(dp379
g62
I3
ssg63
g373
sg56
(lp380
S''
asbasbasbag49
(g65
g51
NtRp381
(dp382
g54
(dp383
sg63
g251
sg56
(lp384
g49
(g70
g51
NtRp385
(dp386
g54
(dp387
g74
g75
ssg63
g381
sg56
(lp388
S'version'
p389
asbag49
(g70
g51
NtRp390
(dp391
g54
(dp392
g81
g82
ssg63
g381
sg56
(lp393
S':'
asbag49
(g70
g51
NtRp394
(dp395
g54
(dp396
sg63
g381
sg56
(lp397
g49
(g50
g51
NtRp398
(dp399
g54
(dp400
g62
I3
ssg63
g394
sg56
(lp401
S''
asbasbasbasbasbasbasbag49
(g65
g51
NtRp402
(dp403
g54
(dp404
sg63
g226
sg56
(lp405
g49
(g70
g51
NtRp406
(dp407
g54
(dp408
g74
g75
ssg63
g402
sg56
(lp409
S'session_id_init'
p410
asbag49
(g70
g51
NtRp411
(dp412
g54
(dp413
g81
g82
ssg63
g402
sg56
(lp414
S':'
asbag49
(g70
g51
NtRp415
(dp416
g54
(dp417
sg63
g402
sg56
(lp418
g49
(g50
g51
NtRp419
(dp420
g54
(dp421
g62
I4
ssg63
g415
sg56
(lp422
g49
(g58
g51
NtRp423
(dp424
g54
(dp425
g62
I3
ssg63
Nsg56
(lp426
g49
(g65
g51
NtRp427
(dp428
g54
(dp429
sg63
g423
sg56
(lp430
g49
(g70
g51
NtRp431
(dp432
g54
(dp433
g74
g75
ssg63
g427
sg56
(lp434
g263
asbag49
(g70
g51
NtRp435
(dp436
g54
(dp437
g81
g82
ssg63
g427
sg56
(lp438
S':'
asbag49
(g70
g51
NtRp439
(dp440
g54
(dp441
sg63
g427
sg56
(lp442
g49
(g50
g51
NtRp443
(dp444
g54
(dp445
g62
I3
ssg63
g439
sg56
(lp446
S''
asbasbasbag49
(g65
g51
NtRp447
(dp448
g54
(dp449
sg63
g423
sg56
(lp450
g49
(g70
g51
NtRp451
(dp452
g54
(dp453
g74
g75
ssg63
g447
sg56
(lp454
g284
asbag49
(g70
g51
NtRp455
(dp456
g54
(dp457
g81
g82
ssg63
g447
sg56
(lp458
S':'
asbag49
(g70
g51
NtRp459
(dp460
g54
(dp461
sg63
g447
sg56
(lp462
g49
(g50
g51
NtRp463
(dp464
g54
(dp465
g62
I3
ssg63
g459
sg56
(lp466
S''
asbasbasbag49
(g65
g51
NtRp467
(dp468
g54
(dp469
sg63
g423
sg56
(lp470
g49
(g70
g51
NtRp471
(dp472
g54
(dp473
g74
g75
ssg63
g467
sg56
(lp474
g305
asbag49
(g70
g51
NtRp475
(dp476
g54
(dp477
g81
g82
ssg63
g467
sg56
(lp478
S':'
asbag49
(g70
g51
NtRp479
(dp480
g54
(dp481
sg63
g467
sg56
(lp482
g49
(g50
g51
NtRp483
(dp484
g54
(dp485
g62
I3
ssg63
g479
sg56
(lp486
S''
asbasbasbag49
(g65
g51
NtRp487
(dp488
g54
(dp489
sg63
g423
sg56
(lp490
g49
(g70
g51
NtRp491
(dp492
g54
(dp493
g74
g75
ssg63
g487
sg56
(lp494
g326
asbag49
(g70
g51
NtRp495
(dp496
g54
(dp497
g81
g82
ssg63
g487
sg56
(lp498
S':'
asbag49
(g70
g51
NtRp499
(dp500
g54
(dp501
sg63
g487
sg56
(lp502
g49
(g50
g51
NtRp503
(dp504
g54
(dp505
g62
I3
ssg63
g499
sg56
(lp506
S''
asbasbasbag49
(g65
g51
NtRp507
(dp508
g54
(dp509
sg63
g423
sg56
(lp510
g49
(g70
g51
NtRp511
(dp512
g54
(dp513
g74
g75
ssg63
g507
sg56
(lp514
g347
asbag49
(g70
g51
NtRp515
(dp516
g54
(dp517
g81
g82
ssg63
g507
sg56
(lp518
S':'
asbag49
(g70
g51
NtRp519
(dp520
g54
(dp521
sg63
g507
sg56
(lp522
g49
(g50
g51
NtRp523
(dp524
g54
(dp525
g62
I3
ssg63
g519
sg56
(lp526
S''
asbasbasbag49
(g65
g51
NtRp527
(dp528
g54
(dp529
sg63
g423
sg56
(lp530
g49
(g70
g51
NtRp531
(dp532
g54
(dp533
g74
g75
ssg63
g527
sg56
(lp534
g368
asbag49
(g70
g51
NtRp535
(dp536
g54
(dp537
g81
g82
ssg63
g527
sg56
(lp538
S':'
asbag49
(g70
g51
NtRp539
(dp540
g54
(dp541
sg63
g527
sg56
(lp542
g49
(g50
g51
NtRp543
(dp544
g54
(dp545
g62
I3
ssg63
g539
sg56
(lp546
S''
asbasbasbag49
(g65
g51
NtRp547
(dp548
g54
(dp549
sg63
g423
sg56
(lp550
g49
(g70
g51
NtRp551
(dp552
g54
(dp553
g74
g75
ssg63
g547
sg56
(lp554
g389
asbag49
(g70
g51
NtRp555
(dp556
g54
(dp557
g81
g82
ssg63
g547
sg56
(lp558
S':'
asbag49
(g70
g51
NtRp559
(dp560
g54
(dp561
sg63
g547
sg56
(lp562
g49
(g50
g51
NtRp563
(dp564
g54
(dp565
g62
I3
ssg63
g559
sg56
(lp566
S''
asbasbasbasbasbasbasbasbasbasbasbag49
(g65
g51
NtRp567
(dp568
g54
(dp569
sg63
g59
sg56
(lp570
g49
(g70
g51
NtRp571
(dp572
g54
(dp573
g74
g75
ssg63
g567
sg56
(lp574
S'env'
p575
asbag49
(g70
g51
NtRp576
(dp577
g54
(dp578
g81
g82
ssg63
g567
sg56
(lp579
S':'
asbag49
(g70
g51
NtRp580
(dp581
g54
(dp582
sg63
g567
sg56
(lp583
g49
(g50
g51
NtRp584
(dp585
g54
(dp586
g62
I5
ssg63
g580
sg56
(lp587
g49
(g58
g51
NtRp588
(dp589
g54
(dp590
g62
I4
ssg63
Nsg56
(lp591
g49
(g65
g51
NtRp592
(dp593
g54
(dp594
sg63
g588
sg56
(lp595
g49
(g70
g51
NtRp596
(dp597
g54
(dp598
g74
g75
ssg63
g592
sg56
(lp599
S'app_folders'
p600
asbag49
(g70
g51
NtRp601
(dp602
g54
(dp603
g81
g82
ssg63
g592
sg56
(lp604
S':'
asbag49
(g70
g51
NtRp605
(dp606
g54
(dp607
sg63
g592
sg56
(lp608
g49
(g50
g51
NtRp609
(dp610
g54
(dp611
g62
I4
ssg63
g605
sg56
(lp612
S"set(['C:\\\\Users\\\\Bussiere\\\\Dropbox\\\\Projets\\\\Yuki\\\\web2py\\\\applications\\\\init\\\\', 'C:\\\\Users\\\\Bussiere\\\\Dropbox\\\\Projets\\\\Yuki\\\\web2py\\\\applications\\\\admin\\\\'])"
p613
asbasbasbag49
(g65
g51
NtRp614
(dp615
g54
(dp616
sg63
g588
sg56
(lp617
g49
(g70
g51
NtRp618
(dp619
g54
(dp620
g74
g75
ssg63
g614
sg56
(lp621
S'applications_parent'
p622
asbag49
(g70
g51
NtRp623
(dp624
g54
(dp625
g81
g82
ssg63
g614
sg56
(lp626
S':'
asbag49
(g70
g51
NtRp627
(dp628
g54
(dp629
sg63
g614
sg56
(lp630
g49
(g50
g51
NtRp631
(dp632
g54
(dp633
g62
I4
ssg63
g627
sg56
(lp634
S'C:\\Users\\Bussiere\\Dropbox\\Projets\\Yuki\\web2py'
p635
asbasbasbag49
(g65
g51
NtRp636
(dp637
g54
(dp638
sg63
g588
sg56
(lp639
g49
(g70
g51
NtRp640
(dp641
g54
(dp642
g74
g75
ssg63
g636
sg56
(lp643
S'cmd_args'
p644
asbag49
(g70
g51
NtRp645
(dp646
g54
(dp647
g81
g82
ssg63
g636
sg56
(lp648
S':'
asbag49
(g70
g51
NtRp649
(dp650
g54
(dp651
sg63
g636
sg56
(lp652
g49
(g50
g51
NtRp653
(dp654
g54
(dp655
g62
I4
ssg63
g649
sg56
(lp656
g49
(g58
g51
NtRp657
(dp658
g54
(dp659
g62
I3
ssg63
Nsg56
(lp660
sbasbasbasbag49
(g65
g51
NtRp661
(dp662
g54
(dp663
sg63
g588
sg56
(lp664
g49
(g70
g51
NtRp665
(dp666
g54
(dp667
g74
g75
ssg63
g661
sg56
(lp668
S'cmd_options'
p669
asbag49
(g70
g51
NtRp670
(dp671
g54
(dp672
g81
g82
ssg63
g661
sg56
(lp673
S':'
asbag49
(g70
g51
NtRp674
(dp675
g54
(dp676
sg63
g661
sg56
(lp677
g49
(g50
g51
NtRp678
(dp679
g54
(dp680
g62
I4
ssg63
g674
sg56
(lp681
S"<Values at 0x3a74f58: {'verbose': False, 'ip': '127.0.0.1', 'shutdown_timeout': 5, 'taskbar': False, 'nocron': False, 'pid_filename': 'httpserver.pid', 'maxthreads': None, 'softcron': False, 'server_name': 'Batou', 'bpython': False, 'nogui': False, 'port': 8000, 'extcron': False, 'debuglevel': 30, 'test': None, 'folder': 'C:\\\\Users\\\\Bussiere\\\\Dropbox\\\\Projets\\\\Yuki\\\\web2py', 'config': '', 'import_models': False, 'winservice': '', 'shell': None, 'run': '', 'log_filename': 'httpserver.log', 'args': [''], 'socket_timeout': 5, 'ssl_ca_certificate': None, 'scheduler': None, 'profiler_filename': None, 'ssl_private_key': '', 'password': '<ask>', 'request_queue_size': 5, 'ssl_certificate': '', 'cronjob': False, 'numthreads': None, 'quiet': False, 'interfaces': None, 'minthreads': None, 'timeout': 10, 'plain': False, 'nobanner': False}>"
p682
asbasbasbag49
(g65
g51
NtRp683
(dp684
g54
(dp685
sg63
g588
sg56
(lp686
g49
(g70
g51
NtRp687
(dp688
g54
(dp689
g74
g75
ssg63
g683
sg56
(lp690
S'db_sessions'
p691
asbag49
(g70
g51
NtRp692
(dp693
g54
(dp694
g81
g82
ssg63
g683
sg56
(lp695
S':'
asbag49
(g70
g51
NtRp696
(dp697
g54
(dp698
sg63
g683
sg56
(lp699
g49
(g50
g51
NtRp700
(dp701
g54
(dp702
g62
I4
ssg63
g696
sg56
(lp703
S'set([])'
p704
asbasbasbag49
(g65
g51
NtRp705
(dp706
g54
(dp707
sg63
g588
sg56
(lp708
g49
(g70
g51
NtRp709
(dp710
g54
(dp711
g74
g75
ssg63
g705
sg56
(lp712
S'debugging'
p713
asbag49
(g70
g51
NtRp714
(dp715
g54
(dp716
g81
g82
ssg63
g705
sg56
(lp717
S':'
asbag49
(g70
g51
NtRp718
(dp719
g54
(dp720
sg63
g705
sg56
(lp721
g49
(g50
g51
NtRp722
(dp723
g54
(dp724
g62
I4
ssg63
g718
sg56
(lp725
S'True'
p726
asbasbasbag49
(g65
g51
NtRp727
(dp728
g54
(dp729
sg63
g588
sg56
(lp730
g49
(g70
g51
NtRp731
(dp732
g54
(dp733
g74
g75
ssg63
g727
sg56
(lp734
S'gluon_parent'
p735
asbag49
(g70
g51
NtRp736
(dp737
g54
(dp738
g81
g82
ssg63
g727
sg56
(lp739
S':'
asbag49
(g70
g51
NtRp740
(dp741
g54
(dp742
sg63
g727
sg56
(lp743
g49
(g50
g51
NtRp744
(dp745
g54
(dp746
g62
I4
ssg63
g740
sg56
(lp747
S'C:\\Users\\Bussiere\\Dropbox\\Projets\\Yuki\\web2py'
p748
asbasbasbag49
(g65
g51
NtRp749
(dp750
g54
(dp751
sg63
g588
sg56
(lp752
g49
(g70
g51
NtRp753
(dp754
g54
(dp755
g74
g75
ssg63
g749
sg56
(lp756
S'http_accept'
p757
asbag49
(g70
g51
NtRp758
(dp759
g54
(dp760
g81
g82
ssg63
g749
sg56
(lp761
S':'
asbag49
(g70
g51
NtRp762
(dp763
g54
(dp764
sg63
g749
sg56
(lp765
g49
(g50
g51
NtRp766
(dp767
g54
(dp768
g62
I4
ssg63
g762
sg56
(lp769
S'text/html,application/xhtml+xml,application/xml;q=0.9,*/*;q=0.8'
p770
asbasbasbag49
(g65
g51
NtRp771
(dp772
g54
(dp773
sg63
g588
sg56
(lp774
g49
(g70
g51
NtRp775
(dp776
g54
(dp777
g74
g75
ssg63
g771
sg56
(lp778
S'http_accept_charset'
p779
asbag49
(g70
g51
NtRp780
(dp781
g54
(dp782
g81
g82
ssg63
g771
sg56
(lp783
S':'
asbag49
(g70
g51
NtRp784
(dp785
g54
(dp786
sg63
g771
sg56
(lp787
g49
(g50
g51
NtRp788
(dp789
g54
(dp790
g62
I4
ssg63
g784
sg56
(lp791
S'ISO-8859-1,utf-8;q=0.7,*;q=0.3'
p792
asbasbasbag49
(g65
g51
NtRp793
(dp794
g54
(dp795
sg63
g588
sg56
(lp796
g49
(g70
g51
NtRp797
(dp798
g54
(dp799
g74
g75
ssg63
g793
sg56
(lp800
S'http_accept_encoding'
p801
asbag49
(g70
g51
NtRp802
(dp803
g54
(dp804
g81
g82
ssg63
g793
sg56
(lp805
S':'
asbag49
(g70
g51
NtRp806
(dp807
g54
(dp808
sg63
g793
sg56
(lp809
g49
(g50
g51
NtRp810
(dp811
g54
(dp812
g62
I4
ssg63
g806
sg56
(lp813
S'gzip,deflate,sdch'
p814
asbasbasbag49
(g65
g51
NtRp815
(dp816
g54
(dp817
sg63
g588
sg56
(lp818
g49
(g70
g51
NtRp819
(dp820
g54
(dp821
g74
g75
ssg63
g815
sg56
(lp822
S'http_accept_language'
p823
asbag49
(g70
g51
NtRp824
(dp825
g54
(dp826
g81
g82
ssg63
g815
sg56
(lp827
S':'
asbag49
(g70
g51
NtRp828
(dp829
g54
(dp830
sg63
g815
sg56
(lp831
g49
(g50
g51
NtRp832
(dp833
g54
(dp834
g62
I4
ssg63
g828
sg56
(lp835
S'fr-FR,fr;q=0.8,en-US;q=0.6,en;q=0.4'
p836
asbasbasbag49
(g65
g51
NtRp837
(dp838
g54
(dp839
sg63
g588
sg56
(lp840
g49
(g70
g51
NtRp841
(dp842
g54
(dp843
g74
g75
ssg63
g837
sg56
(lp844
S'http_cache_control'
p845
asbag49
(g70
g51
NtRp846
(dp847
g54
(dp848
g81
g82
ssg63
g837
sg56
(lp849
S':'
asbag49
(g70
g51
NtRp850
(dp851
g54
(dp852
sg63
g837
sg56
(lp853
g49
(g50
g51
NtRp854
(dp855
g54
(dp856
g62
I4
ssg63
g850
sg56
(lp857
S'max-age=0'
p858
asbasbasbag49
(g65
g51
NtRp859
(dp860
g54
(dp861
sg63
g588
sg56
(lp862
g49
(g70
g51
NtRp863
(dp864
g54
(dp865
g74
g75
ssg63
g859
sg56
(lp866
S'http_connection'
p867
asbag49
(g70
g51
NtRp868
(dp869
g54
(dp870
g81
g82
ssg63
g859
sg56
(lp871
S':'
asbag49
(g70
g51
NtRp872
(dp873
g54
(dp874
sg63
g859
sg56
(lp875
g49
(g50
g51
NtRp876
(dp877
g54
(dp878
g62
I4
ssg63
g872
sg56
(lp879
S'keep-alive'
p880
asbasbasbag49
(g65
g51
NtRp881
(dp882
g54
(dp883
sg63
g588
sg56
(lp884
g49
(g70
g51
NtRp885
(dp886
g54
(dp887
g74
g75
ssg63
g881
sg56
(lp888
S'http_cookie'
p889
asbag49
(g70
g51
NtRp890
(dp891
g54
(dp892
g81
g82
ssg63
g881
sg56
(lp893
S':'
asbag49
(g70
g51
NtRp894
(dp895
g54
(dp896
sg63
g881
sg56
(lp897
g49
(g50
g51
NtRp898
(dp899
g54
(dp900
g62
I4
ssg63
g894
sg56
(lp901
S'session_id_init=127.0.0.1-05546599-82c3-44a9-b36b-68629a143195; session_id_admin=127.0.0.1-5f1365f2-4e7f-48eb-a6f6-e5163dfe27ea'
p902
asbasbasbag49
(g65
g51
NtRp903
(dp904
g54
(dp905
sg63
g588
sg56
(lp906
g49
(g70
g51
NtRp907
(dp908
g54
(dp909
g74
g75
ssg63
g903
sg56
(lp910
S'http_host'
p911
asbag49
(g70
g51
NtRp912
(dp913
g54
(dp914
g81
g82
ssg63
g903
sg56
(lp915
S':'
asbag49
(g70
g51
NtRp916
(dp917
g54
(dp918
sg63
g903
sg56
(lp919
g49
(g50
g51
NtRp920
(dp921
g54
(dp922
g62
I4
ssg63
g916
sg56
(lp923
S'127.0.0.1:8000'
p924
asbasbasbag49
(g65
g51
NtRp925
(dp926
g54
(dp927
sg63
g588
sg56
(lp928
g49
(g70
g51
NtRp929
(dp930
g54
(dp931
g74
g75
ssg63
g925
sg56
(lp932
S'http_user_agent'
p933
asbag49
(g70
g51
NtRp934
(dp935
g54
(dp936
g81
g82
ssg63
g925
sg56
(lp937
S':'
asbag49
(g70
g51
NtRp938
(dp939
g54
(dp940
sg63
g925
sg56
(lp941
g49
(g50
g51
NtRp942
(dp943
g54
(dp944
g62
I4
ssg63
g938
sg56
(lp945
S'Mozilla/5.0 (Windows NT 6.1; WOW64) AppleWebKit/535.2 (KHTML, like Gecko) Chrome/15.0.874.120 Safari/535.2'
p946
asbasbasbag49
(g65
g51
NtRp947
(dp948
g54
(dp949
sg63
g588
sg56
(lp950
g49
(g70
g51
NtRp951
(dp952
g54
(dp953
g74
g75
ssg63
g947
sg56
(lp954
S'is_jython'
p955
asbag49
(g70
g51
NtRp956
(dp957
g54
(dp958
g81
g82
ssg63
g947
sg56
(lp959
S':'
asbag49
(g70
g51
NtRp960
(dp961
g54
(dp962
sg63
g947
sg56
(lp963
g49
(g50
g51
NtRp964
(dp965
g54
(dp966
g62
I4
ssg63
g960
sg56
(lp967
g92
asbasbasbag49
(g65
g51
NtRp968
(dp969
g54
(dp970
sg63
g588
sg56
(lp971
g49
(g70
g51
NtRp972
(dp973
g54
(dp974
g74
g75
ssg63
g968
sg56
(lp975
S'is_pypy'
p976
asbag49
(g70
g51
NtRp977
(dp978
g54
(dp979
g81
g82
ssg63
g968
sg56
(lp980
S':'
asbag49
(g70
g51
NtRp981
(dp982
g54
(dp983
sg63
g968
sg56
(lp984
g49
(g50
g51
NtRp985
(dp986
g54
(dp987
g62
I4
ssg63
g981
sg56
(lp988
g92
asbasbasbag49
(g65
g51
NtRp989
(dp990
g54
(dp991
sg63
g588
sg56
(lp992
g49
(g70
g51
NtRp993
(dp994
g54
(dp995
g74
g75
ssg63
g989
sg56
(lp996
S'path_info'
p997
asbag49
(g70
g51
NtRp998
(dp999
g54
(dp1000
g81
g82
ssg63
g989
sg56
(lp1001
S':'
asbag49
(g70
g51
NtRp1002
(dp1003
g54
(dp1004
sg63
g989
sg56
(lp1005
g49
(g50
g51
NtRp1006
(dp1007
g54
(dp1008
g62
I4
ssg63
g1002
sg56
(lp1009
S'/init/default/addBarcode/'
p1010
asbasbasbag49
(g65
g51
NtRp1011
(dp1012
g54
(dp1013
sg63
g588
sg56
(lp1014
g49
(g70
g51
NtRp1015
(dp1016
g54
(dp1017
g74
g75
ssg63
g1011
sg56
(lp1018
S'query_string'
p1019
asbag49
(g70
g51
NtRp1020
(dp1021
g54
(dp1022
g81
g82
ssg63
g1011
sg56
(lp1023
S':'
asbag49
(g70
g51
NtRp1024
(dp1025
g54
(dp1026
sg63
g1011
sg56
(lp1027
g49
(g50
g51
NtRp1028
(dp1029
g54
(dp1030
g62
I4
ssg63
g1024
sg56
(lp1031
S''
asbasbasbag49
(g65
g51
NtRp1032
(dp1033
g54
(dp1034
sg63
g588
sg56
(lp1035
g49
(g70
g51
NtRp1036
(dp1037
g54
(dp1038
g74
g75
ssg63
g1032
sg56
(lp1039
S'remote_addr'
p1040
asbag49
(g70
g51
NtRp1041
(dp1042
g54
(dp1043
g81
g82
ssg63
g1032
sg56
(lp1044
S':'
asbag49
(g70
g51
NtRp1045
(dp1046
g54
(dp1047
sg63
g1032
sg56
(lp1048
g49
(g50
g51
NtRp1049
(dp1050
g54
(dp1051
g62
I4
ssg63
g1045
sg56
(lp1052
g182
asbasbasbag49
(g65
g51
NtRp1053
(dp1054
g54
(dp1055
sg63
g588
sg56
(lp1056
g49
(g70
g51
NtRp1057
(dp1058
g54
(dp1059
g74
g75
ssg63
g1053
sg56
(lp1060
S'remote_port'
p1061
asbag49
(g70
g51
NtRp1062
(dp1063
g54
(dp1064
g81
g82
ssg63
g1053
sg56
(lp1065
S':'
asbag49
(g70
g51
NtRp1066
(dp1067
g54
(dp1068
sg63
g1053
sg56
(lp1069
g49
(g50
g51
NtRp1070
(dp1071
g54
(dp1072
g62
I4
ssg63
g1066
sg56
(lp1073
S'59182'
p1074
asbasbasbag49
(g65
g51
NtRp1075
(dp1076
g54
(dp1077
sg63
g588
sg56
(lp1078
g49
(g70
g51
NtRp1079
(dp1080
g54
(dp1081
g74
g75
ssg63
g1075
sg56
(lp1082
S'request_method'
p1083
asbag49
(g70
g51
NtRp1084
(dp1085
g54
(dp1086
g81
g82
ssg63
g1075
sg56
(lp1087
S':'
asbag49
(g70
g51
NtRp1088
(dp1089
g54
(dp1090
sg63
g1075
sg56
(lp1091
g49
(g50
g51
NtRp1092
(dp1093
g54
(dp1094
g62
I4
ssg63
g1088
sg56
(lp1095
S'GET'
p1096
asbasbasbag49
(g65
g51
NtRp1097
(dp1098
g54
(dp1099
sg63
g588
sg56
(lp1100
g49
(g70
g51
NtRp1101
(dp1102
g54
(dp1103
g74
g75
ssg63
g1097
sg56
(lp1104
S'script_name'
p1105
asbag49
(g70
g51
NtRp1106
(dp1107
g54
(dp1108
g81
g82
ssg63
g1097
sg56
(lp1109
S':'
asbag49
(g70
g51
NtRp1110
(dp1111
g54
(dp1112
sg63
g1097
sg56
(lp1113
g49
(g50
g51
NtRp1114
(dp1115
g54
(dp1116
g62
I4
ssg63
g1110
sg56
(lp1117
S''
asbasbasbag49
(g65
g51
NtRp1118
(dp1119
g54
(dp1120
sg63
g588
sg56
(lp1121
g49
(g70
g51
NtRp1122
(dp1123
g54
(dp1124
g74
g75
ssg63
g1118
sg56
(lp1125
S'server_name'
p1126
asbag49
(g70
g51
NtRp1127
(dp1128
g54
(dp1129
g81
g82
ssg63
g1118
sg56
(lp1130
S':'
asbag49
(g70
g51
NtRp1131
(dp1132
g54
(dp1133
sg63
g1118
sg56
(lp1134
g49
(g50
g51
NtRp1135
(dp1136
g54
(dp1137
g62
I4
ssg63
g1131
sg56
(lp1138
S'Batou'
p1139
asbasbasbag49
(g65
g51
NtRp1140
(dp1141
g54
(dp1142
sg63
g588
sg56
(lp1143
g49
(g70
g51
NtRp1144
(dp1145
g54
(dp1146
g74
g75
ssg63
g1140
sg56
(lp1147
S'server_port'
p1148
asbag49
(g70
g51
NtRp1149
(dp1150
g54
(dp1151
g81
g82
ssg63
g1140
sg56
(lp1152
S':'
asbag49
(g70
g51
NtRp1153
(dp1154
g54
(dp1155
sg63
g1140
sg56
(lp1156
g49
(g50
g51
NtRp1157
(dp1158
g54
(dp1159
g62
I4
ssg63
g1153
sg56
(lp1160
S'8000'
p1161
asbasbasbag49
(g65
g51
NtRp1162
(dp1163
g54
(dp1164
sg63
g588
sg56
(lp1165
g49
(g70
g51
NtRp1166
(dp1167
g54
(dp1168
g74
g75
ssg63
g1162
sg56
(lp1169
S'server_protocol'
p1170
asbag49
(g70
g51
NtRp1171
(dp1172
g54
(dp1173
g81
g82
ssg63
g1162
sg56
(lp1174
S':'
asbag49
(g70
g51
NtRp1175
(dp1176
g54
(dp1177
sg63
g1162
sg56
(lp1178
g49
(g50
g51
NtRp1179
(dp1180
g54
(dp1181
g62
I4
ssg63
g1175
sg56
(lp1182
S'HTTP/1.1'
p1183
asbasbasbag49
(g65
g51
NtRp1184
(dp1185
g54
(dp1186
sg63
g588
sg56
(lp1187
g49
(g70
g51
NtRp1188
(dp1189
g54
(dp1190
g74
g75
ssg63
g1184
sg56
(lp1191
S'server_software'
p1192
asbag49
(g70
g51
NtRp1193
(dp1194
g54
(dp1195
g81
g82
ssg63
g1184
sg56
(lp1196
S':'
asbag49
(g70
g51
NtRp1197
(dp1198
g54
(dp1199
sg63
g1184
sg56
(lp1200
g49
(g50
g51
NtRp1201
(dp1202
g54
(dp1203
g62
I4
ssg63
g1197
sg56
(lp1204
S'Rocket 1.2.4'
p1205
asbasbasbag49
(g65
g51
NtRp1206
(dp1207
g54
(dp1208
sg63
g588
sg56
(lp1209
g49
(g70
g51
NtRp1210
(dp1211
g54
(dp1212
g74
g75
ssg63
g1206
sg56
(lp1213
S'web2py_crontype'
p1214
asbag49
(g70
g51
NtRp1215
(dp1216
g54
(dp1217
g81
g82
ssg63
g1206
sg56
(lp1218
S':'
asbag49
(g70
g51
NtRp1219
(dp1220
g54
(dp1221
sg63
g1206
sg56
(lp1222
g49
(g50
g51
NtRp1223
(dp1224
g54
(dp1225
g62
I4
ssg63
g1219
sg56
(lp1226
S'hard'
p1227
asbasbasbag49
(g65
g51
NtRp1228
(dp1229
g54
(dp1230
sg63
g588
sg56
(lp1231
g49
(g70
g51
NtRp1232
(dp1233
g54
(dp1234
g74
g75
ssg63
g1228
sg56
(lp1235
S'web2py_path'
p1236
asbag49
(g70
g51
NtRp1237
(dp1238
g54
(dp1239
g81
g82
ssg63
g1228
sg56
(lp1240
S':'
asbag49
(g70
g51
NtRp1241
(dp1242
g54
(dp1243
sg63
g1228
sg56
(lp1244
g49
(g50
g51
NtRp1245
(dp1246
g54
(dp1247
g62
I4
ssg63
g1241
sg56
(lp1248
g635
asbasbasbag49
(g65
g51
NtRp1249
(dp1250
g54
(dp1251
sg63
g588
sg56
(lp1252
g49
(g70
g51
NtRp1253
(dp1254
g54
(dp1255
g74
g75
ssg63
g1249
sg56
(lp1256
S'web2py_version'
p1257
asbag49
(g70
g51
NtRp1258
(dp1259
g54
(dp1260
g81
g82
ssg63
g1249
sg56
(lp1261
S':'
asbag49
(g70
g51
NtRp1262
(dp1263
g54
(dp1264
sg63
g1249
sg56
(lp1265
g49
(g50
g51
NtRp1266
(dp1267
g54
(dp1268
g62
I4
ssg63
g1262
sg56
(lp1269
g49
(g58
g51
NtRp1270
(dp1271
g54
(dp1272
g62
I3
ssg63
Nsg56
(lp1273
g49
(g65
g51
NtRp1274
(dp1275
g54
(dp1276
sg63
g1270
sg56
(lp1277
g49
(g70
g51
NtRp1278
(dp1279
g54
(dp1280
sg63
g1274
sg56
(lp1281
g49
(g50
g51
NtRp1282
(dp1283
g54
(dp1284
g62
I3
ssg63
g1278
sg56
(lp1285
S'1'
asbasbasbag49
(g65
g51
NtRp1286
(dp1287
g54
(dp1288
sg63
g1270
sg56
(lp1289
g49
(g70
g51
NtRp1290
(dp1291
g54
(dp1292
sg63
g1286
sg56
(lp1293
g49
(g50
g51
NtRp1294
(dp1295
g54
(dp1296
g62
I3
ssg63
g1290
sg56
(lp1297
S'99'
p1298
asbasbasbag49
(g65
g51
NtRp1299
(dp1300
g54
(dp1301
sg63
g1270
sg56
(lp1302
g49
(g70
g51
NtRp1303
(dp1304
g54
(dp1305
sg63
g1299
sg56
(lp1306
g49
(g50
g51
NtRp1307
(dp1308
g54
(dp1309
g62
I3
ssg63
g1303
sg56
(lp1310
S'7'
asbasbasbag49
(g65
g51
NtRp1311
(dp1312
g54
(dp1313
sg63
g1270
sg56
(lp1314
g49
(g70
g51
NtRp1315
(dp1316
g54
(dp1317
sg63
g1311
sg56
(lp1318
g49
(g50
g51
NtRp1319
(dp1320
g54
(dp1321
g62
I3
ssg63
g1315
sg56
(lp1322
S'datetime.datetime(2012, 3, 4, 22, 12, 8)'
p1323
asbasbasbag49
(g65
g51
NtRp1324
(dp1325
g54
(dp1326
sg63
g1270
sg56
(lp1327
g49
(g70
g51
NtRp1328
(dp1329
g54
(dp1330
sg63
g1324
sg56
(lp1331
g49
(g50
g51
NtRp1332
(dp1333
g54
(dp1334
g62
I3
ssg63
g1328
sg56
(lp1335
S'stable'
p1336
asbasbasbasbasbasbasbag49
(g65
g51
NtRp1337
(dp1338
g54
(dp1339
sg63
g588
sg56
(lp1340
g49
(g70
g51
NtRp1341
(dp1342
g54
(dp1343
g74
g75
ssg63
g1337
sg56
(lp1344
S'wsgi_errors'
p1345
asbag49
(g70
g51
NtRp1346
(dp1347
g54
(dp1348
g81
g82
ssg63
g1337
sg56
(lp1349
S':'
asbag49
(g70
g51
NtRp1350
(dp1351
g54
(dp1352
sg63
g1337
sg56
(lp1353
g49
(g50
g51
NtRp1354
(dp1355
g54
(dp1356
g62
I4
ssg63
g1350
sg56
(lp1357
S"<open file '<stderr>', mode 'w' at 0x020200B0>"
p1358
asbasbasbag49
(g65
g51
NtRp1359
(dp1360
g54
(dp1361
sg63
g588
sg56
(lp1362
g49
(g70
g51
NtRp1363
(dp1364
g54
(dp1365
g74
g75
ssg63
g1359
sg56
(lp1366
S'wsgi_file_wrapper'
p1367
asbag49
(g70
g51
NtRp1368
(dp1369
g54
(dp1370
g81
g82
ssg63
g1359
sg56
(lp1371
S':'
asbag49
(g70
g51
NtRp1372
(dp1373
g54
(dp1374
sg63
g1359
sg56
(lp1375
g49
(g50
g51
NtRp1376
(dp1377
g54
(dp1378
g62
I4
ssg63
g1372
sg56
(lp1379
S'<class wsgiref.util.FileWrapper at 0x02BF68D0>'
p1380
asbasbasbag49
(g65
g51
NtRp1381
(dp1382
g54
(dp1383
sg63
g588
sg56
(lp1384
g49
(g70
g51
NtRp1385
(dp1386
g54
(dp1387
g74
g75
ssg63
g1381
sg56
(lp1388
S'wsgi_input'
p1389
asbag49
(g70
g51
NtRp1390
(dp1391
g54
(dp1392
g81
g82
ssg63
g1381
sg56
(lp1393
S':'
asbag49
(g70
g51
NtRp1394
(dp1395
g54
(dp1396
sg63
g1381
sg56
(lp1397
g49
(g50
g51
NtRp1398
(dp1399
g54
(dp1400
g62
I4
ssg63
g1394
sg56
(lp1401
S'<socket._fileobject object at 0x04250030>'
p1402
asbasbasbag49
(g65
g51
NtRp1403
(dp1404
g54
(dp1405
sg63
g588
sg56
(lp1406
g49
(g70
g51
NtRp1407
(dp1408
g54
(dp1409
g74
g75
ssg63
g1403
sg56
(lp1410
S'wsgi_multiprocess'
p1411
asbag49
(g70
g51
NtRp1412
(dp1413
g54
(dp1414
g81
g82
ssg63
g1403
sg56
(lp1415
S':'
asbag49
(g70
g51
NtRp1416
(dp1417
g54
(dp1418
sg63
g1403
sg56
(lp1419
g49
(g50
g51
NtRp1420
(dp1421
g54
(dp1422
g62
I4
ssg63
g1416
sg56
(lp1423
g92
asbasbasbag49
(g65
g51
NtRp1424
(dp1425
g54
(dp1426
sg63
g588
sg56
(lp1427
g49
(g70
g51
NtRp1428
(dp1429
g54
(dp1430
g74
g75
ssg63
g1424
sg56
(lp1431
S'wsgi_multithread'
p1432
asbag49
(g70
g51
NtRp1433
(dp1434
g54
(dp1435
g81
g82
ssg63
g1424
sg56
(lp1436
S':'
asbag49
(g70
g51
NtRp1437
(dp1438
g54
(dp1439
sg63
g1424
sg56
(lp1440
g49
(g50
g51
NtRp1441
(dp1442
g54
(dp1443
g62
I4
ssg63
g1437
sg56
(lp1444
g726
asbasbasbag49
(g65
g51
NtRp1445
(dp1446
g54
(dp1447
sg63
g588
sg56
(lp1448
g49
(g70
g51
NtRp1449
(dp1450
g54
(dp1451
g74
g75
ssg63
g1445
sg56
(lp1452
S'wsgi_run_once'
p1453
asbag49
(g70
g51
NtRp1454
(dp1455
g54
(dp1456
g81
g82
ssg63
g1445
sg56
(lp1457
S':'
asbag49
(g70
g51
NtRp1458
(dp1459
g54
(dp1460
sg63
g1445
sg56
(lp1461
g49
(g50
g51
NtRp1462
(dp1463
g54
(dp1464
g62
I4
ssg63
g1458
sg56
(lp1465
g92
asbasbasbag49
(g65
g51
NtRp1466
(dp1467
g54
(dp1468
sg63
g588
sg56
(lp1469
g49
(g70
g51
NtRp1470
(dp1471
g54
(dp1472
g74
g75
ssg63
g1466
sg56
(lp1473
S'wsgi_url_scheme'
p1474
asbag49
(g70
g51
NtRp1475
(dp1476
g54
(dp1477
g81
g82
ssg63
g1466
sg56
(lp1478
S':'
asbag49
(g70
g51
NtRp1479
(dp1480
g54
(dp1481
sg63
g1466
sg56
(lp1482
g49
(g50
g51
NtRp1483
(dp1484
g54
(dp1485
g62
I4
ssg63
g1479
sg56
(lp1486
S'http'
p1487
asbasbasbag49
(g65
g51
NtRp1488
(dp1489
g54
(dp1490
sg63
g588
sg56
(lp1491
g49
(g70
g51
NtRp1492
(dp1493
g54
(dp1494
g74
g75
ssg63
g1488
sg56
(lp1495
S'wsgi_version'
p1496
asbag49
(g70
g51
NtRp1497
(dp1498
g54
(dp1499
g81
g82
ssg63
g1488
sg56
(lp1500
S':'
asbag49
(g70
g51
NtRp1501
(dp1502
g54
(dp1503
sg63
g1488
sg56
(lp1504
g49
(g50
g51
NtRp1505
(dp1506
g54
(dp1507
g62
I4
ssg63
g1501
sg56
(lp1508
g49
(g58
g51
NtRp1509
(dp1510
g54
(dp1511
g62
I3
ssg63
Nsg56
(lp1512
g49
(g65
g51
NtRp1513
(dp1514
g54
(dp1515
sg63
g1509
sg56
(lp1516
g49
(g70
g51
NtRp1517
(dp1518
g54
(dp1519
sg63
g1513
sg56
(lp1520
g49
(g50
g51
NtRp1521
(dp1522
g54
(dp1523
g62
I3
ssg63
g1517
sg56
(lp1524
S'1'
asbasbasbag49
(g65
g51
NtRp1525
(dp1526
g54
(dp1527
sg63
g1509
sg56
(lp1528
g49
(g70
g51
NtRp1529
(dp1530
g54
(dp1531
sg63
g1525
sg56
(lp1532
g49
(g50
g51
NtRp1533
(dp1534
g54
(dp1535
g62
I3
ssg63
g1529
sg56
(lp1536
S'0'
asbasbasbasbasbasbasbasbasbasbasbag49
(g65
g51
NtRp1537
(dp1538
g54
(dp1539
sg63
g59
sg56
(lp1540
g49
(g70
g51
NtRp1541
(dp1542
g54
(dp1543
g74
g75
ssg63
g1537
sg56
(lp1544
S'extension'
p1545
asbag49
(g70
g51
NtRp1546
(dp1547
g54
(dp1548
g81
g82
ssg63
g1537
sg56
(lp1549
S':'
asbag49
(g70
g51
NtRp1550
(dp1551
g54
(dp1552
sg63
g1537
sg56
(lp1553
g49
(g50
g51
NtRp1554
(dp1555
g54
(dp1556
g62
I5
ssg63
g1550
sg56
(lp1557
S'html'
p1558
asbasbasbag49
(g65
g51
NtRp1559
(dp1560
g54
(dp1561
sg63
g59
sg56
(lp1562
g49
(g70
g51
NtRp1563
(dp1564
g54
(dp1565
g74
g75
ssg63
g1559
sg56
(lp1566
S'folder'
p1567
asbag49
(g70
g51
NtRp1568
(dp1569
g54
(dp1570
g81
g82
ssg63
g1559
sg56
(lp1571
S':'
asbag49
(g70
g51
NtRp1572
(dp1573
g54
(dp1574
sg63
g1559
sg56
(lp1575
g49
(g50
g51
NtRp1576
(dp1577
g54
(dp1578
g62
I5
ssg63
g1572
sg56
(lp1579
S'C:\\Users\\Bussiere\\Dropbox\\Projets\\Yuki\\web2py\\applications\\init\\'
p1580
asbasbasbag49
(g65
g51
NtRp1581
(dp1582
g54
(dp1583
sg63
g59
sg56
(lp1584
g49
(g70
g51
NtRp1585
(dp1586
g54
(dp1587
g74
g75
ssg63
g1581
sg56
(lp1588
S'function'
p1589
asbag49
(g70
g51
NtRp1590
(dp1591
g54
(dp1592
g81
g82
ssg63
g1581
sg56
(lp1593
S':'
asbag49
(g70
g51
NtRp1594
(dp1595
g54
(dp1596
sg63
g1581
sg56
(lp1597
g49
(g50
g51
NtRp1598
(dp1599
g54
(dp1600
g62
I5
ssg63
g1594
sg56
(lp1601
S'addBarcode'
p1602
asbasbasbag49
(g65
g51
NtRp1603
(dp1604
g54
(dp1605
sg63
g59
sg56
(lp1606
g49
(g70
g51
NtRp1607
(dp1608
g54
(dp1609
g74
g75
ssg63
g1603
sg56
(lp1610
S'get_vars'
p1611
asbag49
(g70
g51
NtRp1612
(dp1613
g54
(dp1614
g81
g82
ssg63
g1603
sg56
(lp1615
S':'
asbag49
(g70
g51
NtRp1616
(dp1617
g54
(dp1618
sg63
g1603
sg56
(lp1619
g49
(g50
g51
NtRp1620
(dp1621
g54
(dp1622
g62
I5
ssg63
g1616
sg56
(lp1623
g49
(g58
g51
NtRp1624
(dp1625
g54
(dp1626
g62
I4
ssg63
Nsg56
(lp1627
sbasbasbasbag49
(g65
g51
NtRp1628
(dp1629
g54
(dp1630
sg63
g59
sg56
(lp1631
g49
(g70
g51
NtRp1632
(dp1633
g54
(dp1634
g74
g75
ssg63
g1628
sg56
(lp1635
S'global_settings'
p1636
asbag49
(g70
g51
NtRp1637
(dp1638
g54
(dp1639
g81
g82
ssg63
g1628
sg56
(lp1640
S':'
asbag49
(g70
g51
NtRp1641
(dp1642
g54
(dp1643
sg63
g1628
sg56
(lp1644
g49
(g50
g51
NtRp1645
(dp1646
g54
(dp1647
g62
I5
ssg63
g1641
sg56
(lp1648
g49
(g58
g51
NtRp1649
(dp1650
g54
(dp1651
g62
I4
ssg63
Nsg56
(lp1652
g49
(g65
g51
NtRp1653
(dp1654
g54
(dp1655
sg63
g1649
sg56
(lp1656
g49
(g70
g51
NtRp1657
(dp1658
g54
(dp1659
g74
g75
ssg63
g1653
sg56
(lp1660
g600
asbag49
(g70
g51
NtRp1661
(dp1662
g54
(dp1663
g81
g82
ssg63
g1653
sg56
(lp1664
S':'
asbag49
(g70
g51
NtRp1665
(dp1666
g54
(dp1667
sg63
g1653
sg56
(lp1668
g49
(g50
g51
NtRp1669
(dp1670
g54
(dp1671
g62
I4
ssg63
g1665
sg56
(lp1672
S"set(['C:\\\\Users\\\\Bussiere\\\\Dropbox\\\\Projets\\\\Yuki\\\\web2py\\\\applications\\\\init\\\\', 'C:\\\\Users\\\\Bussiere\\\\Dropbox\\\\Projets\\\\Yuki\\\\web2py\\\\applications\\\\admin\\\\'])"
p1673
asbasbasbag49
(g65
g51
NtRp1674
(dp1675
g54
(dp1676
sg63
g1649
sg56
(lp1677
g49
(g70
g51
NtRp1678
(dp1679
g54
(dp1680
g74
g75
ssg63
g1674
sg56
(lp1681
g622
asbag49
(g70
g51
NtRp1682
(dp1683
g54
(dp1684
g81
g82
ssg63
g1674
sg56
(lp1685
S':'
asbag49
(g70
g51
NtRp1686
(dp1687
g54
(dp1688
sg63
g1674
sg56
(lp1689
g49
(g50
g51
NtRp1690
(dp1691
g54
(dp1692
g62
I4
ssg63
g1686
sg56
(lp1693
g635
asbasbasbag49
(g65
g51
NtRp1694
(dp1695
g54
(dp1696
sg63
g1649
sg56
(lp1697
g49
(g70
g51
NtRp1698
(dp1699
g54
(dp1700
g74
g75
ssg63
g1694
sg56
(lp1701
g644
asbag49
(g70
g51
NtRp1702
(dp1703
g54
(dp1704
g81
g82
ssg63
g1694
sg56
(lp1705
S':'
asbag49
(g70
g51
NtRp1706
(dp1707
g54
(dp1708
sg63
g1694
sg56
(lp1709
g49
(g50
g51
NtRp1710
(dp1711
g54
(dp1712
g62
I4
ssg63
g1706
sg56
(lp1713
g49
(g58
g51
NtRp1714
(dp1715
g54
(dp1716
g62
I3
ssg63
Nsg56
(lp1717
sbasbasbasbag49
(g65
g51
NtRp1718
(dp1719
g54
(dp1720
sg63
g1649
sg56
(lp1721
g49
(g70
g51
NtRp1722
(dp1723
g54
(dp1724
g74
g75
ssg63
g1718
sg56
(lp1725
g669
asbag49
(g70
g51
NtRp1726
(dp1727
g54
(dp1728
g81
g82
ssg63
g1718
sg56
(lp1729
S':'
asbag49
(g70
g51
NtRp1730
(dp1731
g54
(dp1732
sg63
g1718
sg56
(lp1733
g49
(g50
g51
NtRp1734
(dp1735
g54
(dp1736
g62
I4
ssg63
g1730
sg56
(lp1737
S"<Values at 0x3a74f58: {'verbose': False, 'ip': '127.0.0.1', 'shutdown_timeout': 5, 'taskbar': False, 'nocron': False, 'pid_filename': 'httpserver.pid', 'maxthreads': None, 'softcron': False, 'server_name': 'Batou', 'bpython': False, 'nogui': False, 'port': 8000, 'extcron': False, 'debuglevel': 30, 'test': None, 'folder': 'C:\\\\Users\\\\Bussiere\\\\Dropbox\\\\Projets\\\\Yuki\\\\web2py', 'config': '', 'import_models': False, 'winservice': '', 'shell': None, 'run': '', 'log_filename': 'httpserver.log', 'args': [''], 'socket_timeout': 5, 'ssl_ca_certificate': None, 'scheduler': None, 'profiler_filename': None, 'ssl_private_key': '', 'password': '<ask>', 'request_queue_size': 5, 'ssl_certificate': '', 'cronjob': False, 'numthreads': None, 'quiet': False, 'interfaces': None, 'minthreads': None, 'timeout': 10, 'plain': False, 'nobanner': False}>"
p1738
asbasbasbag49
(g65
g51
NtRp1739
(dp1740
g54
(dp1741
sg63
g1649
sg56
(lp1742
g49
(g70
g51
NtRp1743
(dp1744
g54
(dp1745
g74
g75
ssg63
g1739
sg56
(lp1746
g691
asbag49
(g70
g51
NtRp1747
(dp1748
g54
(dp1749
g81
g82
ssg63
g1739
sg56
(lp1750
S':'
asbag49
(g70
g51
NtRp1751
(dp1752
g54
(dp1753
sg63
g1739
sg56
(lp1754
g49
(g50
g51
NtRp1755
(dp1756
g54
(dp1757
g62
I4
ssg63
g1751
sg56
(lp1758
S'set([])'
p1759
asbasbasbag49
(g65
g51
NtRp1760
(dp1761
g54
(dp1762
sg63
g1649
sg56
(lp1763
g49
(g70
g51
NtRp1764
(dp1765
g54
(dp1766
g74
g75
ssg63
g1760
sg56
(lp1767
g713
asbag49
(g70
g51
NtRp1768
(dp1769
g54
(dp1770
g81
g82
ssg63
g1760
sg56
(lp1771
S':'
asbag49
(g70
g51
NtRp1772
(dp1773
g54
(dp1774
sg63
g1760
sg56
(lp1775
g49
(g50
g51
NtRp1776
(dp1777
g54
(dp1778
g62
I4
ssg63
g1772
sg56
(lp1779
g726
asbasbasbag49
(g65
g51
NtRp1780
(dp1781
g54
(dp1782
sg63
g1649
sg56
(lp1783
g49
(g70
g51
NtRp1784
(dp1785
g54
(dp1786
g74
g75
ssg63
g1780
sg56
(lp1787
g735
asbag49
(g70
g51
NtRp1788
(dp1789
g54
(dp1790
g81
g82
ssg63
g1780
sg56
(lp1791
S':'
asbag49
(g70
g51
NtRp1792
(dp1793
g54
(dp1794
sg63
g1780
sg56
(lp1795
g49
(g50
g51
NtRp1796
(dp1797
g54
(dp1798
g62
I4
ssg63
g1792
sg56
(lp1799
g748
asbasbasbag49
(g65
g51
NtRp1800
(dp1801
g54
(dp1802
sg63
g1649
sg56
(lp1803
g49
(g70
g51
NtRp1804
(dp1805
g54
(dp1806
g74
g75
ssg63
g1800
sg56
(lp1807
g955
asbag49
(g70
g51
NtRp1808
(dp1809
g54
(dp1810
g81
g82
ssg63
g1800
sg56
(lp1811
S':'
asbag49
(g70
g51
NtRp1812
(dp1813
g54
(dp1814
sg63
g1800
sg56
(lp1815
g49
(g50
g51
NtRp1816
(dp1817
g54
(dp1818
g62
I4
ssg63
g1812
sg56
(lp1819
g92
asbasbasbag49
(g65
g51
NtRp1820
(dp1821
g54
(dp1822
sg63
g1649
sg56
(lp1823
g49
(g70
g51
NtRp1824
(dp1825
g54
(dp1826
g74
g75
ssg63
g1820
sg56
(lp1827
g976
asbag49
(g70
g51
NtRp1828
(dp1829
g54
(dp1830
g81
g82
ssg63
g1820
sg56
(lp1831
S':'
asbag49
(g70
g51
NtRp1832
(dp1833
g54
(dp1834
sg63
g1820
sg56
(lp1835
g49
(g50
g51
NtRp1836
(dp1837
g54
(dp1838
g62
I4
ssg63
g1832
sg56
(lp1839
g92
asbasbasbag49
(g65
g51
NtRp1840
(dp1841
g54
(dp1842
sg63
g1649
sg56
(lp1843
g49
(g70
g51
NtRp1844
(dp1845
g54
(dp1846
g74
g75
ssg63
g1840
sg56
(lp1847
g1214
asbag49
(g70
g51
NtRp1848
(dp1849
g54
(dp1850
g81
g82
ssg63
g1840
sg56
(lp1851
S':'
asbag49
(g70
g51
NtRp1852
(dp1853
g54
(dp1854
sg63
g1840
sg56
(lp1855
g49
(g50
g51
NtRp1856
(dp1857
g54
(dp1858
g62
I4
ssg63
g1852
sg56
(lp1859
g1227
asbasbasbag49
(g65
g51
NtRp1860
(dp1861
g54
(dp1862
sg63
g1649
sg56
(lp1863
g49
(g70
g51
NtRp1864
(dp1865
g54
(dp1866
g74
g75
ssg63
g1860
sg56
(lp1867
g1257
asbag49
(g70
g51
NtRp1868
(dp1869
g54
(dp1870
g81
g82
ssg63
g1860
sg56
(lp1871
S':'
asbag49
(g70
g51
NtRp1872
(dp1873
g54
(dp1874
sg63
g1860
sg56
(lp1875
g49
(g50
g51
NtRp1876
(dp1877
g54
(dp1878
g62
I4
ssg63
g1872
sg56
(lp1879
g49
(g58
g51
NtRp1880
(dp1881
g54
(dp1882
g62
I3
ssg63
Nsg56
(lp1883
g49
(g65
g51
NtRp1884
(dp1885
g54
(dp1886
sg63
g1880
sg56
(lp1887
g49
(g70
g51
NtRp1888
(dp1889
g54
(dp1890
sg63
g1884
sg56
(lp1891
g49
(g50
g51
NtRp1892
(dp1893
g54
(dp1894
g62
I3
ssg63
g1888
sg56
(lp1895
S'1'
asbasbasbag49
(g65
g51
NtRp1896
(dp1897
g54
(dp1898
sg63
g1880
sg56
(lp1899
g49
(g70
g51
NtRp1900
(dp1901
g54
(dp1902
sg63
g1896
sg56
(lp1903
g49
(g50
g51
NtRp1904
(dp1905
g54
(dp1906
g62
I3
ssg63
g1900
sg56
(lp1907
S'99'
p1908
asbasbasbag49
(g65
g51
NtRp1909
(dp1910
g54
(dp1911
sg63
g1880
sg56
(lp1912
g49
(g70
g51
NtRp1913
(dp1914
g54
(dp1915
sg63
g1909
sg56
(lp1916
g49
(g50
g51
NtRp1917
(dp1918
g54
(dp1919
g62
I3
ssg63
g1913
sg56
(lp1920
S'7'
asbasbasbag49
(g65
g51
NtRp1921
(dp1922
g54
(dp1923
sg63
g1880
sg56
(lp1924
g49
(g70
g51
NtRp1925
(dp1926
g54
(dp1927
sg63
g1921
sg56
(lp1928
g49
(g50
g51
NtRp1929
(dp1930
g54
(dp1931
g62
I3
ssg63
g1925
sg56
(lp1932
S'datetime.datetime(2012, 3, 4, 22, 12, 8)'
p1933
asbasbasbag49
(g65
g51
NtRp1934
(dp1935
g54
(dp1936
sg63
g1880
sg56
(lp1937
g49
(g70
g51
NtRp1938
(dp1939
g54
(dp1940
sg63
g1934
sg56
(lp1941
g49
(g50
g51
NtRp1942
(dp1943
g54
(dp1944
g62
I3
ssg63
g1938
sg56
(lp1945
g1336
asbasbasbasbasbasbasbasbasbasbasbag49
(g65
g51
NtRp1946
(dp1947
g54
(dp1948
sg63
g59
sg56
(lp1949
g49
(g70
g51
NtRp1950
(dp1951
g54
(dp1952
g74
g75
ssg63
g1946
sg56
(lp1953
S'is_https'
p1954
asbag49
(g70
g51
NtRp1955
(dp1956
g54
(dp1957
g81
g82
ssg63
g1946
sg56
(lp1958
S':'
asbag49
(g70
g51
NtRp1959
(dp1960
g54
(dp1961
sg63
g1946
sg56
(lp1962
g49
(g50
g51
NtRp1963
(dp1964
g54
(dp1965
g62
I5
ssg63
g1959
sg56
(lp1966
g92
asbasbasbag49
(g65
g51
NtRp1967
(dp1968
g54
(dp1969
sg63
g59
sg56
(lp1970
g49
(g70
g51
NtRp1971
(dp1972
g54
(dp1973
g74
g75
ssg63
g1967
sg56
(lp1974
S'is_local'
p1975
asbag49
(g70
g51
NtRp1976
(dp1977
g54
(dp1978
g81
g82
ssg63
g1967
sg56
(lp1979
S':'
asbag49
(g70
g51
NtRp1980
(dp1981
g54
(dp1982
sg63
g1967
sg56
(lp1983
g49
(g50
g51
NtRp1984
(dp1985
g54
(dp1986
g62
I5
ssg63
g1980
sg56
(lp1987
g726
asbasbasbag49
(g65
g51
NtRp1988
(dp1989
g54
(dp1990
sg63
g59
sg56
(lp1991
g49
(g70
g51
NtRp1992
(dp1993
g54
(dp1994
g74
g75
ssg63
g1988
sg56
(lp1995
S'is_restful'
p1996
asbag49
(g70
g51
NtRp1997
(dp1998
g54
(dp1999
g81
g82
ssg63
g1988
sg56
(lp2000
S':'
asbag49
(g70
g51
NtRp2001
(dp2002
g54
(dp2003
sg63
g1988
sg56
(lp2004
g49
(g50
g51
NtRp2005
(dp2006
g54
(dp2007
g62
I5
ssg63
g2001
sg56
(lp2008
g92
asbasbasbag49
(g65
g51
NtRp2009
(dp2010
g54
(dp2011
sg63
g59
sg56
(lp2012
g49
(g70
g51
NtRp2013
(dp2014
g54
(dp2015
g74
g75
ssg63
g2009
sg56
(lp2016
S'now'
p2017
asbag49
(g70
g51
NtRp2018
(dp2019
g54
(dp2020
g81
g82
ssg63
g2009
sg56
(lp2021
S':'
asbag49
(g70
g51
NtRp2022
(dp2023
g54
(dp2024
sg63
g2009
sg56
(lp2025
g49
(g50
g51
NtRp2026
(dp2027
g54
(dp2028
g62
I5
ssg63
g2022
sg56
(lp2029
S'datetime.datetime(2012, 3, 11, 18, 6, 43, 525000)'
p2030
asbasbasbag49
(g65
g51
NtRp2031
(dp2032
g54
(dp2033
sg63
g59
sg56
(lp2034
g49
(g70
g51
NtRp2035
(dp2036
g54
(dp2037
g74
g75
ssg63
g2031
sg56
(lp2038
S'post_vars'
p2039
asbag49
(g70
g51
NtRp2040
(dp2041
g54
(dp2042
g81
g82
ssg63
g2031
sg56
(lp2043
S':'
asbag49
(g70
g51
NtRp2044
(dp2045
g54
(dp2046
sg63
g2031
sg56
(lp2047
g49
(g50
g51
NtRp2048
(dp2049
g54
(dp2050
g62
I5
ssg63
g2044
sg56
(lp2051
g49
(g58
g51
NtRp2052
(dp2053
g54
(dp2054
g62
I4
ssg63
Nsg56
(lp2055
sbasbasbasbag49
(g65
g51
NtRp2056
(dp2057
g54
(dp2058
sg63
g59
sg56
(lp2059
g49
(g70
g51
NtRp2060
(dp2061
g54
(dp2062
g74
g75
ssg63
g2056
sg56
(lp2063
S'raw_args'
p2064
asbag49
(g70
g51
NtRp2065
(dp2066
g54
(dp2067
g81
g82
ssg63
g2056
sg56
(lp2068
S':'
asbag49
(g70
g51
NtRp2069
(dp2070
g54
(dp2071
sg63
g2056
sg56
(lp2072
g49
(g50
g51
NtRp2073
(dp2074
g54
(dp2075
g62
I5
ssg63
g2069
sg56
(lp2076
S''
asbasbasbag49
(g65
g51
NtRp2077
(dp2078
g54
(dp2079
sg63
g59
sg56
(lp2080
g49
(g70
g51
NtRp2081
(dp2082
g54
(dp2083
g74
g75
ssg63
g2077
sg56
(lp2084
S'url'
p2085
asbag49
(g70
g51
NtRp2086
(dp2087
g54
(dp2088
g81
g82
ssg63
g2077
sg56
(lp2089
S':'
asbag49
(g70
g51
NtRp2090
(dp2091
g54
(dp2092
sg63
g2077
sg56
(lp2093
g49
(g50
g51
NtRp2094
(dp2095
g54
(dp2096
g62
I5
ssg63
g2090
sg56
(lp2097
S'/init/default/addBarcode'
p2098
asbasbasbag49
(g65
g51
NtRp2099
(dp2100
g54
(dp2101
sg63
g59
sg56
(lp2102
g49
(g70
g51
NtRp2103
(dp2104
g54
(dp2105
g74
g75
ssg63
g2099
sg56
(lp2106
S'utcnow'
p2107
asbag49
(g70
g51
NtRp2108
(dp2109
g54
(dp2110
g81
g82
ssg63
g2099
sg56
(lp2111
S':'
asbag49
(g70
g51
NtRp2112
(dp2113
g54
(dp2114
sg63
g2099
sg56
(lp2115
g49
(g50
g51
NtRp2116
(dp2117
g54
(dp2118
g62
I5
ssg63
g2112
sg56
(lp2119
S'datetime.datetime(2012, 3, 11, 17, 6, 43, 525000)'
p2120
asbasbasbag49
(g65
g51
NtRp2121
(dp2122
g54
(dp2123
sg63
g59
sg56
(lp2124
g49
(g70
g51
NtRp2125
(dp2126
g54
(dp2127
g74
g75
ssg63
g2121
sg56
(lp2128
S'uuid'
p2129
asbag49
(g70
g51
NtRp2130
(dp2131
g54
(dp2132
g81
g82
ssg63
g2121
sg56
(lp2133
S':'
asbag49
(g70
g51
NtRp2134
(dp2135
g54
(dp2136
sg63
g2121
sg56
(lp2137
g49
(g50
g51
NtRp2138
(dp2139
g54
(dp2140
g62
I5
ssg63
g2134
sg56
(lp2141
S'init/127.0.0.1.2012-03-11.18-06-43.48be2f7a-6f51-4d2f-b480-0adf0ab823f9'
p2142
asbasbasbag49
(g65
g51
NtRp2143
(dp2144
g54
(dp2145
sg63
g59
sg56
(lp2146
g49
(g70
g51
NtRp2147
(dp2148
g54
(dp2149
g74
g75
ssg63
g2143
sg56
(lp2150
S'vars'
p2151
asbag49
(g70
g51
NtRp2152
(dp2153
g54
(dp2154
g81
g82
ssg63
g2143
sg56
(lp2155
S':'
asbag49
(g70
g51
NtRp2156
(dp2157
g54
(dp2158
sg63
g2143
sg56
(lp2159
g49
(g50
g51
NtRp2160
(dp2161
g54
(dp2162
g62
I5
ssg63
g2156
sg56
(lp2163
g49
(g58
g51
NtRp2164
(dp2165
g54
(dp2166
g62
I4
ssg63
Nsg56
(lp2167
sbasbasbasbag49
(g65
g51
NtRp2168
(dp2169
g54
(dp2170
sg63
g59
sg56
(lp2171
g49
(g70
g51
NtRp2172
(dp2173
g54
(dp2174
g74
g75
ssg63
g2168
sg56
(lp2175
S'wsgi'
p2176
asbag49
(g70
g51
NtRp2177
(dp2178
g54
(dp2179
g81
g82
ssg63
g2168
sg56
(lp2180
S':'
asbag49
(g70
g51
NtRp2181
(dp2182
g54
(dp2183
sg63
g2168
sg56
(lp2184
g49
(g50
g51
NtRp2185
(dp2186
g54
(dp2187
g62
I5
ssg63
g2181
sg56
(lp2188
g49
(g58
g51
NtRp2189
(dp2190
g54
(dp2191
g62
I4
ssg63
Nsg56
(lp2192
g49
(g65
g51
NtRp2193
(dp2194
g54
(dp2195
sg63
g2189
sg56
(lp2196
g49
(g70
g51
NtRp2197
(dp2198
g54
(dp2199
g74
g75
ssg63
g2193
sg56
(lp2200
S'environ'
p2201
asbag49
(g70
g51
NtRp2202
(dp2203
g54
(dp2204
g81
g82
ssg63
g2193
sg56
(lp2205
S':'
asbag49
(g70
g51
NtRp2206
(dp2207
g54
(dp2208
sg63
g2193
sg56
(lp2209
g49
(g50
g51
NtRp2210
(dp2211
g54
(dp2212
g62
I4
ssg63
g2206
sg56
(lp2213
g49
(g58
g51
NtRp2214
(dp2215
g54
(dp2216
g62
I3
ssg63
Nsg56
(lp2217
g49
(g65
g51
NtRp2218
(dp2219
g54
(dp2220
sg63
g2214
sg56
(lp2221
g49
(g70
g51
NtRp2222
(dp2223
g54
(dp2224
g74
g75
ssg63
g2218
sg56
(lp2225
S'HTTP_ACCEPT'
p2226
asbag49
(g70
g51
NtRp2227
(dp2228
g54
(dp2229
g81
g82
ssg63
g2218
sg56
(lp2230
S':'
asbag49
(g70
g51
NtRp2231
(dp2232
g54
(dp2233
sg63
g2218
sg56
(lp2234
g49
(g50
g51
NtRp2235
(dp2236
g54
(dp2237
g62
I3
ssg63
g2231
sg56
(lp2238
g770
asbasbasbag49
(g65
g51
NtRp2239
(dp2240
g54
(dp2241
sg63
g2214
sg56
(lp2242
g49
(g70
g51
NtRp2243
(dp2244
g54
(dp2245
g74
g75
ssg63
g2239
sg56
(lp2246
S'HTTP_ACCEPT_CHARSET'
p2247
asbag49
(g70
g51
NtRp2248
(dp2249
g54
(dp2250
g81
g82
ssg63
g2239
sg56
(lp2251
S':'
asbag49
(g70
g51
NtRp2252
(dp2253
g54
(dp2254
sg63
g2239
sg56
(lp2255
g49
(g50
g51
NtRp2256
(dp2257
g54
(dp2258
g62
I3
ssg63
g2252
sg56
(lp2259
g792
asbasbasbag49
(g65
g51
NtRp2260
(dp2261
g54
(dp2262
sg63
g2214
sg56
(lp2263
g49
(g70
g51
NtRp2264
(dp2265
g54
(dp2266
g74
g75
ssg63
g2260
sg56
(lp2267
S'HTTP_ACCEPT_ENCODING'
p2268
asbag49
(g70
g51
NtRp2269
(dp2270
g54
(dp2271
g81
g82
ssg63
g2260
sg56
(lp2272
S':'
asbag49
(g70
g51
NtRp2273
(dp2274
g54
(dp2275
sg63
g2260
sg56
(lp2276
g49
(g50
g51
NtRp2277
(dp2278
g54
(dp2279
g62
I3
ssg63
g2273
sg56
(lp2280
g814
asbasbasbag49
(g65
g51
NtRp2281
(dp2282
g54
(dp2283
sg63
g2214
sg56
(lp2284
g49
(g70
g51
NtRp2285
(dp2286
g54
(dp2287
g74
g75
ssg63
g2281
sg56
(lp2288
S'HTTP_ACCEPT_LANGUAGE'
p2289
asbag49
(g70
g51
NtRp2290
(dp2291
g54
(dp2292
g81
g82
ssg63
g2281
sg56
(lp2293
S':'
asbag49
(g70
g51
NtRp2294
(dp2295
g54
(dp2296
sg63
g2281
sg56
(lp2297
g49
(g50
g51
NtRp2298
(dp2299
g54
(dp2300
g62
I3
ssg63
g2294
sg56
(lp2301
g836
asbasbasbag49
(g65
g51
NtRp2302
(dp2303
g54
(dp2304
sg63
g2214
sg56
(lp2305
g49
(g70
g51
NtRp2306
(dp2307
g54
(dp2308
g74
g75
ssg63
g2302
sg56
(lp2309
S'HTTP_CACHE_CONTROL'
p2310
asbag49
(g70
g51
NtRp2311
(dp2312
g54
(dp2313
g81
g82
ssg63
g2302
sg56
(lp2314
S':'
asbag49
(g70
g51
NtRp2315
(dp2316
g54
(dp2317
sg63
g2302
sg56
(lp2318
g49
(g50
g51
NtRp2319
(dp2320
g54
(dp2321
g62
I3
ssg63
g2315
sg56
(lp2322
g858
asbasbasbag49
(g65
g51
NtRp2323
(dp2324
g54
(dp2325
sg63
g2214
sg56
(lp2326
g49
(g70
g51
NtRp2327
(dp2328
g54
(dp2329
g74
g75
ssg63
g2323
sg56
(lp2330
S'HTTP_CONNECTION'
p2331
asbag49
(g70
g51
NtRp2332
(dp2333
g54
(dp2334
g81
g82
ssg63
g2323
sg56
(lp2335
S':'
asbag49
(g70
g51
NtRp2336
(dp2337
g54
(dp2338
sg63
g2323
sg56
(lp2339
g49
(g50
g51
NtRp2340
(dp2341
g54
(dp2342
g62
I3
ssg63
g2336
sg56
(lp2343
g880
asbasbasbag49
(g65
g51
NtRp2344
(dp2345
g54
(dp2346
sg63
g2214
sg56
(lp2347
g49
(g70
g51
NtRp2348
(dp2349
g54
(dp2350
g74
g75
ssg63
g2344
sg56
(lp2351
S'HTTP_COOKIE'
p2352
asbag49
(g70
g51
NtRp2353
(dp2354
g54
(dp2355
g81
g82
ssg63
g2344
sg56
(lp2356
S':'
asbag49
(g70
g51
NtRp2357
(dp2358
g54
(dp2359
sg63
g2344
sg56
(lp2360
g49
(g50
g51
NtRp2361
(dp2362
g54
(dp2363
g62
I3
ssg63
g2357
sg56
(lp2364
g902
asbasbasbag49
(g65
g51
NtRp2365
(dp2366
g54
(dp2367
sg63
g2214
sg56
(lp2368
g49
(g70
g51
NtRp2369
(dp2370
g54
(dp2371
g74
g75
ssg63
g2365
sg56
(lp2372
S'HTTP_HOST'
p2373
asbag49
(g70
g51
NtRp2374
(dp2375
g54
(dp2376
g81
g82
ssg63
g2365
sg56
(lp2377
S':'
asbag49
(g70
g51
NtRp2378
(dp2379
g54
(dp2380
sg63
g2365
sg56
(lp2381
g49
(g50
g51
NtRp2382
(dp2383
g54
(dp2384
g62
I3
ssg63
g2378
sg56
(lp2385
g924
asbasbasbag49
(g65
g51
NtRp2386
(dp2387
g54
(dp2388
sg63
g2214
sg56
(lp2389
g49
(g70
g51
NtRp2390
(dp2391
g54
(dp2392
g74
g75
ssg63
g2386
sg56
(lp2393
S'HTTP_USER_AGENT'
p2394
asbag49
(g70
g51
NtRp2395
(dp2396
g54
(dp2397
g81
g82
ssg63
g2386
sg56
(lp2398
S':'
asbag49
(g70
g51
NtRp2399
(dp2400
g54
(dp2401
sg63
g2386
sg56
(lp2402
g49
(g50
g51
NtRp2403
(dp2404
g54
(dp2405
g62
I3
ssg63
g2399
sg56
(lp2406
g946
asbasbasbag49
(g65
g51
NtRp2407
(dp2408
g54
(dp2409
sg63
g2214
sg56
(lp2410
g49
(g70
g51
NtRp2411
(dp2412
g54
(dp2413
g74
g75
ssg63
g2407
sg56
(lp2414
S'PATH_INFO'
p2415
asbag49
(g70
g51
NtRp2416
(dp2417
g54
(dp2418
g81
g82
ssg63
g2407
sg56
(lp2419
S':'
asbag49
(g70
g51
NtRp2420
(dp2421
g54
(dp2422
sg63
g2407
sg56
(lp2423
g49
(g50
g51
NtRp2424
(dp2425
g54
(dp2426
g62
I3
ssg63
g2420
sg56
(lp2427
g1010
asbasbasbag49
(g65
g51
NtRp2428
(dp2429
g54
(dp2430
sg63
g2214
sg56
(lp2431
g49
(g70
g51
NtRp2432
(dp2433
g54
(dp2434
g74
g75
ssg63
g2428
sg56
(lp2435
S'QUERY_STRING'
p2436
asbag49
(g70
g51
NtRp2437
(dp2438
g54
(dp2439
g81
g82
ssg63
g2428
sg56
(lp2440
S':'
asbag49
(g70
g51
NtRp2441
(dp2442
g54
(dp2443
sg63
g2428
sg56
(lp2444
g49
(g50
g51
NtRp2445
(dp2446
g54
(dp2447
g62
I3
ssg63
g2441
sg56
(lp2448
S''
asbasbasbag49
(g65
g51
NtRp2449
(dp2450
g54
(dp2451
sg63
g2214
sg56
(lp2452
g49
(g70
g51
NtRp2453
(dp2454
g54
(dp2455
g74
g75
ssg63
g2449
sg56
(lp2456
S'REMOTE_ADDR'
p2457
asbag49
(g70
g51
NtRp2458
(dp2459
g54
(dp2460
g81
g82
ssg63
g2449
sg56
(lp2461
S':'
asbag49
(g70
g51
NtRp2462
(dp2463
g54
(dp2464
sg63
g2449
sg56
(lp2465
g49
(g50
g51
NtRp2466
(dp2467
g54
(dp2468
g62
I3
ssg63
g2462
sg56
(lp2469
g182
asbasbasbag49
(g65
g51
NtRp2470
(dp2471
g54
(dp2472
sg63
g2214
sg56
(lp2473
g49
(g70
g51
NtRp2474
(dp2475
g54
(dp2476
g74
g75
ssg63
g2470
sg56
(lp2477
S'REMOTE_PORT'
p2478
asbag49
(g70
g51
NtRp2479
(dp2480
g54
(dp2481
g81
g82
ssg63
g2470
sg56
(lp2482
S':'
asbag49
(g70
g51
NtRp2483
(dp2484
g54
(dp2485
sg63
g2470
sg56
(lp2486
g49
(g50
g51
NtRp2487
(dp2488
g54
(dp2489
g62
I3
ssg63
g2483
sg56
(lp2490
g1074
asbasbasbag49
(g65
g51
NtRp2491
(dp2492
g54
(dp2493
sg63
g2214
sg56
(lp2494
g49
(g70
g51
NtRp2495
(dp2496
g54
(dp2497
g74
g75
ssg63
g2491
sg56
(lp2498
S'REQUEST_METHOD'
p2499
asbag49
(g70
g51
NtRp2500
(dp2501
g54
(dp2502
g81
g82
ssg63
g2491
sg56
(lp2503
S':'
asbag49
(g70
g51
NtRp2504
(dp2505
g54
(dp2506
sg63
g2491
sg56
(lp2507
g49
(g50
g51
NtRp2508
(dp2509
g54
(dp2510
g62
I3
ssg63
g2504
sg56
(lp2511
g1096
asbasbasbag49
(g65
g51
NtRp2512
(dp2513
g54
(dp2514
sg63
g2214
sg56
(lp2515
g49
(g70
g51
NtRp2516
(dp2517
g54
(dp2518
g74
g75
ssg63
g2512
sg56
(lp2519
S'SCRIPT_NAME'
p2520
asbag49
(g70
g51
NtRp2521
(dp2522
g54
(dp2523
g81
g82
ssg63
g2512
sg56
(lp2524
S':'
asbag49
(g70
g51
NtRp2525
(dp2526
g54
(dp2527
sg63
g2512
sg56
(lp2528
g49
(g50
g51
NtRp2529
(dp2530
g54
(dp2531
g62
I3
ssg63
g2525
sg56
(lp2532
S''
asbasbasbag49
(g65
g51
NtRp2533
(dp2534
g54
(dp2535
sg63
g2214
sg56
(lp2536
g49
(g70
g51
NtRp2537
(dp2538
g54
(dp2539
g74
g75
ssg63
g2533
sg56
(lp2540
S'SERVER_NAME'
p2541
asbag49
(g70
g51
NtRp2542
(dp2543
g54
(dp2544
g81
g82
ssg63
g2533
sg56
(lp2545
S':'
asbag49
(g70
g51
NtRp2546
(dp2547
g54
(dp2548
sg63
g2533
sg56
(lp2549
g49
(g50
g51
NtRp2550
(dp2551
g54
(dp2552
g62
I3
ssg63
g2546
sg56
(lp2553
g1139
asbasbasbag49
(g65
g51
NtRp2554
(dp2555
g54
(dp2556
sg63
g2214
sg56
(lp2557
g49
(g70
g51
NtRp2558
(dp2559
g54
(dp2560
g74
g75
ssg63
g2554
sg56
(lp2561
S'SERVER_PORT'
p2562
asbag49
(g70
g51
NtRp2563
(dp2564
g54
(dp2565
g81
g82
ssg63
g2554
sg56
(lp2566
S':'
asbag49
(g70
g51
NtRp2567
(dp2568
g54
(dp2569
sg63
g2554
sg56
(lp2570
g49
(g50
g51
NtRp2571
(dp2572
g54
(dp2573
g62
I3
ssg63
g2567
sg56
(lp2574
g1161
asbasbasbag49
(g65
g51
NtRp2575
(dp2576
g54
(dp2577
sg63
g2214
sg56
(lp2578
g49
(g70
g51
NtRp2579
(dp2580
g54
(dp2581
g74
g75
ssg63
g2575
sg56
(lp2582
S'SERVER_PROTOCOL'
p2583
asbag49
(g70
g51
NtRp2584
(dp2585
g54
(dp2586
g81
g82
ssg63
g2575
sg56
(lp2587
S':'
asbag49
(g70
g51
NtRp2588
(dp2589
g54
(dp2590
sg63
g2575
sg56
(lp2591
g49
(g50
g51
NtRp2592
(dp2593
g54
(dp2594
g62
I3
ssg63
g2588
sg56
(lp2595
g1183
asbasbasbag49
(g65
g51
NtRp2596
(dp2597
g54
(dp2598
sg63
g2214
sg56
(lp2599
g49
(g70
g51
NtRp2600
(dp2601
g54
(dp2602
g74
g75
ssg63
g2596
sg56
(lp2603
S'SERVER_SOFTWARE'
p2604
asbag49
(g70
g51
NtRp2605
(dp2606
g54
(dp2607
g81
g82
ssg63
g2596
sg56
(lp2608
S':'
asbag49
(g70
g51
NtRp2609
(dp2610
g54
(dp2611
sg63
g2596
sg56
(lp2612
g49
(g50
g51
NtRp2613
(dp2614
g54
(dp2615
g62
I3
ssg63
g2609
sg56
(lp2616
g1205
asbasbasbag49
(g65
g51
NtRp2617
(dp2618
g54
(dp2619
sg63
g2214
sg56
(lp2620
g49
(g70
g51
NtRp2621
(dp2622
g54
(dp2623
g74
g75
ssg63
g2617
sg56
(lp2624
S'wsgi.errors'
p2625
asbag49
(g70
g51
NtRp2626
(dp2627
g54
(dp2628
g81
g82
ssg63
g2617
sg56
(lp2629
S':'
asbag49
(g70
g51
NtRp2630
(dp2631
g54
(dp2632
sg63
g2617
sg56
(lp2633
g49
(g50
g51
NtRp2634
(dp2635
g54
(dp2636
g62
I3
ssg63
g2630
sg56
(lp2637
S"<open file '<stderr>', mode 'w' at 0x020200B0>"
p2638
asbasbasbag49
(g65
g51
NtRp2639
(dp2640
g54
(dp2641
sg63
g2214
sg56
(lp2642
g49
(g70
g51
NtRp2643
(dp2644
g54
(dp2645
g74
g75
ssg63
g2639
sg56
(lp2646
S'wsgi.file_wrapper'
p2647
asbag49
(g70
g51
NtRp2648
(dp2649
g54
(dp2650
g81
g82
ssg63
g2639
sg56
(lp2651
S':'
asbag49
(g70
g51
NtRp2652
(dp2653
g54
(dp2654
sg63
g2639
sg56
(lp2655
g49
(g50
g51
NtRp2656
(dp2657
g54
(dp2658
g62
I3
ssg63
g2652
sg56
(lp2659
S'<class wsgiref.util.FileWrapper at 0x02BF68D0>'
p2660
asbasbasbag49
(g65
g51
NtRp2661
(dp2662
g54
(dp2663
sg63
g2214
sg56
(lp2664
g49
(g70
g51
NtRp2665
(dp2666
g54
(dp2667
g74
g75
ssg63
g2661
sg56
(lp2668
S'wsgi.input'
p2669
asbag49
(g70
g51
NtRp2670
(dp2671
g54
(dp2672
g81
g82
ssg63
g2661
sg56
(lp2673
S':'
asbag49
(g70
g51
NtRp2674
(dp2675
g54
(dp2676
sg63
g2661
sg56
(lp2677
g49
(g50
g51
NtRp2678
(dp2679
g54
(dp2680
g62
I3
ssg63
g2674
sg56
(lp2681
S'<cStringIO.StringO object at 0x07926A00>'
p2682
asbasbasbag49
(g65
g51
NtRp2683
(dp2684
g54
(dp2685
sg63
g2214
sg56
(lp2686
g49
(g70
g51
NtRp2687
(dp2688
g54
(dp2689
g74
g75
ssg63
g2683
sg56
(lp2690
S'wsgi.multiprocess'
p2691
asbag49
(g70
g51
NtRp2692
(dp2693
g54
(dp2694
g81
g82
ssg63
g2683
sg56
(lp2695
S':'
asbag49
(g70
g51
NtRp2696
(dp2697
g54
(dp2698
sg63
g2683
sg56
(lp2699
g49
(g50
g51
NtRp2700
(dp2701
g54
(dp2702
g62
I3
ssg63
g2696
sg56
(lp2703
g92
asbasbasbag49
(g65
g51
NtRp2704
(dp2705
g54
(dp2706
sg63
g2214
sg56
(lp2707
g49
(g70
g51
NtRp2708
(dp2709
g54
(dp2710
g74
g75
ssg63
g2704
sg56
(lp2711
S'wsgi.multithread'
p2712
asbag49
(g70
g51
NtRp2713
(dp2714
g54
(dp2715
g81
g82
ssg63
g2704
sg56
(lp2716
S':'
asbag49
(g70
g51
NtRp2717
(dp2718
g54
(dp2719
sg63
g2704
sg56
(lp2720
g49
(g50
g51
NtRp2721
(dp2722
g54
(dp2723
g62
I3
ssg63
g2717
sg56
(lp2724
g726
asbasbasbag49
(g65
g51
NtRp2725
(dp2726
g54
(dp2727
sg63
g2214
sg56
(lp2728
g49
(g70
g51
NtRp2729
(dp2730
g54
(dp2731
g74
g75
ssg63
g2725
sg56
(lp2732
S'wsgi.run_once'
p2733
asbag49
(g70
g51
NtRp2734
(dp2735
g54
(dp2736
g81
g82
ssg63
g2725
sg56
(lp2737
S':'
asbag49
(g70
g51
NtRp2738
(dp2739
g54
(dp2740
sg63
g2725
sg56
(lp2741
g49
(g50
g51
NtRp2742
(dp2743
g54
(dp2744
g62
I3
ssg63
g2738
sg56
(lp2745
g92
asbasbasbag49
(g65
g51
NtRp2746
(dp2747
g54
(dp2748
sg63
g2214
sg56
(lp2749
g49
(g70
g51
NtRp2750
(dp2751
g54
(dp2752
g74
g75
ssg63
g2746
sg56
(lp2753
S'wsgi.url_scheme'
p2754
asbag49
(g70
g51
NtRp2755
(dp2756
g54
(dp2757
g81
g82
ssg63
g2746
sg56
(lp2758
S':'
asbag49
(g70
g51
NtRp2759
(dp2760
g54
(dp2761
sg63
g2746
sg56
(lp2762
g49
(g50
g51
NtRp2763
(dp2764
g54
(dp2765
g62
I3
ssg63
g2759
sg56
(lp2766
g1487
asbasbasbag49
(g65
g51
NtRp2767
(dp2768
g54
(dp2769
sg63
g2214
sg56
(lp2770
g49
(g70
g51
NtRp2771
(dp2772
g54
(dp2773
g74
g75
ssg63
g2767
sg56
(lp2774
S'wsgi.version'
p2775
asbag49
(g70
g51
NtRp2776
(dp2777
g54
(dp2778
g81
g82
ssg63
g2767
sg56
(lp2779
S':'
asbag49
(g70
g51
NtRp2780
(dp2781
g54
(dp2782
sg63
g2767
sg56
(lp2783
g49
(g50
g51
NtRp2784
(dp2785
g54
(dp2786
g62
I3
ssg63
g2780
sg56
(lp2787
S'1'
asbasbasbasbasbasbasbasbasbasbasbasbasbsS'frames'
p2788
(lp2789
(dp2790
S'file'
p2791
S'C:\\Users\\Bussiere\\Dropbox\\Projets\\Yuki\\web2py\\gluon\\restricted.py'
p2792
sS'dump'
p2793
(dp2794
sS'lnum'
p2795
I205
sS'lines'
p2796
(dp2797
I200
S'    try:'
p2798
sI201
S'        if type(code) == types.CodeType:'
p2799
sI202
S'            ccode = code'
p2800
sI203
S'        else:'
p2801
sI204
S'            ccode = compile2(code,layer)'
p2802
sI205
S'        exec ccode in environment'
p2803
sI206
S'    except HTTP:'
p2804
sI207
S'        raise'
p2805
sI208
S'    except RestrictedError:'
p2806
sI209
S'        # do not encapsulate (obfuscate) the original RestrictedError'
p2807
ssS'call'
p2808
S"(code='# -*- coding: utf-8 -*-\\n# this file is released ...))\\n\\n\\nresponse._vars=response._caller(addBarcode)\\n', environment={'A': <class 'gluon.html.A'>, 'Auth': <class 'gluon.tools.Auth'>, 'B': <class 'gluon.html.B'>, 'BEAUTIFY': <class 'gluon.html.BEAUTIFY'>, 'BODY': <class 'gluon.html.BODY'>, 'BR': <class 'gluon.html.BR'>, 'BUTTON': <class 'gluon.html.BUTTON'>, 'CAT': <class 'gluon.html.CAT'>, 'CENTER': <class 'gluon.html.CENTER'>, 'CLEANUP': <class 'gluon.validators.CLEANUP'>, ...}, layer=r'C:\\Users\\Bussiere\\Dropbox\\Projets\\Yuki\\web2py\\applications\\init\\controllers/default.py')"
p2809
sS'func'
p2810
S'restricted'
p2811
sa(dp2812
g2791
S'C:\\Users\\Bussiere\\Dropbox\\Projets\\Yuki\\web2py\\applications\\init\\controllers\\default.py'
p2813
sg2793
(dp2814
sg2795
I98
sg2796
(dp2815
I96
S''
sI87
S'    http://..../[app]/default/data/delete/[table]/[id]'
p2816
sI88
S'    http://..../[app]/default/data/select/[table]'
p2817
sI89
S'    http://..../[app]/default/data/search/[table]'
p2818
sI90
S'    but URLs must be signed, i.e. linked with'
p2819
sI91
S"      A('table',_href=URL('data/tables',user_signature=True))"
p2820
sI92
S'    or with the signed load operator'
p2821
sI93
S"      LOAD('default','data.load',args='tables',ajax=True,user_signature=True)"
p2822
sI94
S'    """'
p2823
sI95
S'    return dict(form=crud())'
p2824
ssg2808
S'()'
p2825
sg2810
S'<module>'
p2826
sa(dp2827
g2791
S'C:\\Users\\Bussiere\\Dropbox\\Projets\\Yuki\\web2py\\gluon\\globals.py'
p2828
sg2793
(dp2829
sg2795
I173
sg2796
(dp2830
I168
S'        self.menu = []             # used by the default view layout'
p2831
sI169
S'        self.files = []            # used by web2py_ajax.html'
p2832
sI170
S'        self.generic_patterns = [] # patterns to allow generic views'
p2833
sI171
S"        self.delimiters = ('{{','}}')"
p2834
sI172
S'        self._vars = None'
p2835
sI173
S'        self._caller = lambda f: f()'
p2836
sI174
S'        self._view_environment = None'
p2837
sI175
S'        self._custom_commit = None'
p2838
sI176
S'        self._custom_rollback = None'
p2839
sI177
S''
ssg2808
S'(f=<function addBarcode at 0x07B0D670>)'
p2840
sg2810
S'<lambda>'
p2841
sa(dp2842
g2791
S'C:\\Users\\Bussiere\\Dropbox\\Projets\\Yuki\\web2py\\applications\\init\\controllers\\default.py'
p2843
sg2793
(dp2844
sg2795
I59
sg2796
(dp2845
I54
S''
sI55
S'def addBarcode():'
p2846
sI56
S'    form = SQLFORM(db.Barcode)'
p2847
sI57
S'    if form.accepts(request.vars, session):'
p2848
sI58
S"        response.flash = T('new record inserted')"
p2849
sI59
S'    return dict(form=form,table=db[table])'
p2850
sI60
S''
sI61
S''
sI62
S'def download():'
p2851
sI63
S'    """'
p2852
ssg2808
S'()'
p2853
sg2810
S'addBarcode'
p2854
sasS'pyver'
p2855
S'Python 2.5.4: C:\\Users\\Bussiere\\Dropbox\\Projets\\Yuki\\web2py\\web2py.exe'
p2856
sS'session'
p2857
g49
(g50
g51
NtRp2858
(dp2859
g54
(dp2860
sg56
(lp2861
g49
(g58
g51
NtRp2862
(dp2863
g54
(dp2864
g62
I5
ssg63
Nsg56
(lp2865
sbasbsS'etype'
p2866
S"<type 'exceptions.NameError'>"
p2867
sS'date'
p2868
S'Sun Mar 11 18:06:44 2012'
p2869
sS'response'
p2870
g49
(g50
g51
NtRp2871
(dp2872
g54
(dp2873
sg56
(lp2874
g49
(g58
g51
NtRp2875
(dp2876
g54
(dp2877
g62
I5
ssg63
Nsg56
(lp2878
g49
(g65
g51
NtRp2879
(dp2880
g54
(dp2881
sg63
g2875
sg56
(lp2882
g49
(g70
g51
NtRp2883
(dp2884
g54
(dp2885
g74
g75
ssg63
g2879
sg56
(lp2886
g147
asbag49
(g70
g51
NtRp2887
(dp2888
g54
(dp2889
g81
g82
ssg63
g2879
sg56
(lp2890
S':'
asbag49
(g70
g51
NtRp2891
(dp2892
g54
(dp2893
sg63
g2879
sg56
(lp2894
g49
(g50
g51
NtRp2895
(dp2896
g54
(dp2897
g62
I5
ssg63
g2891
sg56
(lp2898
S'<cStringIO.StringO object at 0x078BDD80>'
p2899
asbasbasbag49
(g65
g51
NtRp2900
(dp2901
g54
(dp2902
sg63
g2875
sg56
(lp2903
g49
(g70
g51
NtRp2904
(dp2905
g54
(dp2906
g74
g75
ssg63
g2900
sg56
(lp2907
g213
asbag49
(g70
g51
NtRp2908
(dp2909
g54
(dp2910
g81
g82
ssg63
g2900
sg56
(lp2911
S':'
asbag49
(g70
g51
NtRp2912
(dp2913
g54
(dp2914
sg63
g2900
sg56
(lp2915
g49
(g50
g51
NtRp2916
(dp2917
g54
(dp2918
g62
I5
ssg63
g2912
sg56
(lp2919
g49
(g58
g51
NtRp2920
(dp2921
g54
(dp2922
g62
I4
ssg63
Nsg56
(lp2923
g49
(g65
g51
NtRp2924
(dp2925
g54
(dp2926
sg63
g2920
sg56
(lp2927
g49
(g70
g51
NtRp2928
(dp2929
g54
(dp2930
g74
g75
ssg63
g2924
sg56
(lp2931
S'session_id_init'
p2932
asbag49
(g70
g51
NtRp2933
(dp2934
g54
(dp2935
g81
g82
ssg63
g2924
sg56
(lp2936
S':'
asbag49
(g70
g51
NtRp2937
(dp2938
g54
(dp2939
sg63
g2924
sg56
(lp2940
g49
(g50
g51
NtRp2941
(dp2942
g54
(dp2943
g62
I4
ssg63
g2937
sg56
(lp2944
g49
(g58
g51
NtRp2945
(dp2946
g54
(dp2947
g62
I3
ssg63
Nsg56
(lp2948
g49
(g65
g51
NtRp2949
(dp2950
g54
(dp2951
sg63
g2945
sg56
(lp2952
g49
(g70
g51
NtRp2953
(dp2954
g54
(dp2955
g74
g75
ssg63
g2949
sg56
(lp2956
g263
asbag49
(g70
g51
NtRp2957
(dp2958
g54
(dp2959
g81
g82
ssg63
g2949
sg56
(lp2960
S':'
asbag49
(g70
g51
NtRp2961
(dp2962
g54
(dp2963
sg63
g2949
sg56
(lp2964
g49
(g50
g51
NtRp2965
(dp2966
g54
(dp2967
g62
I3
ssg63
g2961
sg56
(lp2968
S''
asbasbasbag49
(g65
g51
NtRp2969
(dp2970
g54
(dp2971
sg63
g2945
sg56
(lp2972
g49
(g70
g51
NtRp2973
(dp2974
g54
(dp2975
g74
g75
ssg63
g2969
sg56
(lp2976
g284
asbag49
(g70
g51
NtRp2977
(dp2978
g54
(dp2979
g81
g82
ssg63
g2969
sg56
(lp2980
S':'
asbag49
(g70
g51
NtRp2981
(dp2982
g54
(dp2983
sg63
g2969
sg56
(lp2984
g49
(g50
g51
NtRp2985
(dp2986
g54
(dp2987
g62
I3
ssg63
g2981
sg56
(lp2988
S''
asbasbasbag49
(g65
g51
NtRp2989
(dp2990
g54
(dp2991
sg63
g2945
sg56
(lp2992
g49
(g70
g51
NtRp2993
(dp2994
g54
(dp2995
g74
g75
ssg63
g2989
sg56
(lp2996
g305
asbag49
(g70
g51
NtRp2997
(dp2998
g54
(dp2999
g81
g82
ssg63
g2989
sg56
(lp3000
S':'
asbag49
(g70
g51
NtRp3001
(dp3002
g54
(dp3003
sg63
g2989
sg56
(lp3004
g49
(g50
g51
NtRp3005
(dp3006
g54
(dp3007
g62
I3
ssg63
g3001
sg56
(lp3008
S''
asbasbasbag49
(g65
g51
NtRp3009
(dp3010
g54
(dp3011
sg63
g2945
sg56
(lp3012
g49
(g70
g51
NtRp3013
(dp3014
g54
(dp3015
g74
g75
ssg63
g3009
sg56
(lp3016
g326
asbag49
(g70
g51
NtRp3017
(dp3018
g54
(dp3019
g81
g82
ssg63
g3009
sg56
(lp3020
S':'
asbag49
(g70
g51
NtRp3021
(dp3022
g54
(dp3023
sg63
g3009
sg56
(lp3024
g49
(g50
g51
NtRp3025
(dp3026
g54
(dp3027
g62
I3
ssg63
g3021
sg56
(lp3028
S''
asbasbasbag49
(g65
g51
NtRp3029
(dp3030
g54
(dp3031
sg63
g2945
sg56
(lp3032
g49
(g70
g51
NtRp3033
(dp3034
g54
(dp3035
g74
g75
ssg63
g3029
sg56
(lp3036
g347
asbag49
(g70
g51
NtRp3037
(dp3038
g54
(dp3039
g81
g82
ssg63
g3029
sg56
(lp3040
S':'
asbag49
(g70
g51
NtRp3041
(dp3042
g54
(dp3043
sg63
g3029
sg56
(lp3044
g49
(g50
g51
NtRp3045
(dp3046
g54
(dp3047
g62
I3
ssg63
g3041
sg56
(lp3048
S'/'
asbasbasbag49
(g65
g51
NtRp3049
(dp3050
g54
(dp3051
sg63
g2945
sg56
(lp3052
g49
(g70
g51
NtRp3053
(dp3054
g54
(dp3055
g74
g75
ssg63
g3049
sg56
(lp3056
g368
asbag49
(g70
g51
NtRp3057
(dp3058
g54
(dp3059
g81
g82
ssg63
g3049
sg56
(lp3060
S':'
asbag49
(g70
g51
NtRp3061
(dp3062
g54
(dp3063
sg63
g3049
sg56
(lp3064
g49
(g50
g51
NtRp3065
(dp3066
g54
(dp3067
g62
I3
ssg63
g3061
sg56
(lp3068
S''
asbasbasbag49
(g65
g51
NtRp3069
(dp3070
g54
(dp3071
sg63
g2945
sg56
(lp3072
g49
(g70
g51
NtRp3073
(dp3074
g54
(dp3075
g74
g75
ssg63
g3069
sg56
(lp3076
g389
asbag49
(g70
g51
NtRp3077
(dp3078
g54
(dp3079
g81
g82
ssg63
g3069
sg56
(lp3080
S':'
asbag49
(g70
g51
NtRp3081
(dp3082
g54
(dp3083
sg63
g3069
sg56
(lp3084
g49
(g50
g51
NtRp3085
(dp3086
g54
(dp3087
g62
I3
ssg63
g3081
sg56
(lp3088
S''
asbasbasbasbasbasbasbasbasbasbasbag49
(g65
g51
NtRp3089
(dp3090
g54
(dp3091
sg63
g2875
sg56
(lp3092
g49
(g70
g51
NtRp3093
(dp3094
g54
(dp3095
g74
g75
ssg63
g3089
sg56
(lp3096
S'delimiters'
p3097
asbag49
(g70
g51
NtRp3098
(dp3099
g54
(dp3100
g81
g82
ssg63
g3089
sg56
(lp3101
S':'
asbag49
(g70
g51
NtRp3102
(dp3103
g54
(dp3104
sg63
g3089
sg56
(lp3105
g49
(g50
g51
NtRp3106
(dp3107
g54
(dp3108
g62
I5
ssg63
g3102
sg56
(lp3109
g49
(g58
g51
NtRp3110
(dp3111
g54
(dp3112
g62
I4
ssg63
Nsg56
(lp3113
g49
(g65
g51
NtRp3114
(dp3115
g54
(dp3116
sg63
g3110
sg56
(lp3117
g49
(g70
g51
NtRp3118
(dp3119
g54
(dp3120
sg63
g3114
sg56
(lp3121
g49
(g50
g51
NtRp3122
(dp3123
g54
(dp3124
g62
I4
ssg63
g3118
sg56
(lp3125
S'{{'
p3126
asbasbasbag49
(g65
g51
NtRp3127
(dp3128
g54
(dp3129
sg63
g3110
sg56
(lp3130
g49
(g70
g51
NtRp3131
(dp3132
g54
(dp3133
sg63
g3127
sg56
(lp3134
g49
(g50
g51
NtRp3135
(dp3136
g54
(dp3137
g62
I4
ssg63
g3131
sg56
(lp3138
S'}}'
p3139
asbasbasbasbasbasbasbag49
(g65
g51
NtRp3140
(dp3141
g54
(dp3142
sg63
g2875
sg56
(lp3143
g49
(g70
g51
NtRp3144
(dp3145
g54
(dp3146
g74
g75
ssg63
g3140
sg56
(lp3147
S'files'
p3148
asbag49
(g70
g51
NtRp3149
(dp3150
g54
(dp3151
g81
g82
ssg63
g3140
sg56
(lp3152
S':'
asbag49
(g70
g51
NtRp3153
(dp3154
g54
(dp3155
sg63
g3140
sg56
(lp3156
g49
(g50
g51
NtRp3157
(dp3158
g54
(dp3159
g62
I5
ssg63
g3153
sg56
(lp3160
g49
(g58
g51
NtRp3161
(dp3162
g54
(dp3163
g62
I4
ssg63
Nsg56
(lp3164
sbasbasbasbag49
(g65
g51
NtRp3165
(dp3166
g54
(dp3167
sg63
g2875
sg56
(lp3168
g49
(g70
g51
NtRp3169
(dp3170
g54
(dp3171
g74
g75
ssg63
g3165
sg56
(lp3172
S'flash'
p3173
asbag49
(g70
g51
NtRp3174
(dp3175
g54
(dp3176
g81
g82
ssg63
g3165
sg56
(lp3177
S':'
asbag49
(g70
g51
NtRp3178
(dp3179
g54
(dp3180
sg63
g3165
sg56
(lp3181
g49
(g50
g51
NtRp3182
(dp3183
g54
(dp3184
g62
I5
ssg63
g3178
sg56
(lp3185
S''
asbasbasbag49
(g65
g51
NtRp3186
(dp3187
g54
(dp3188
sg63
g2875
sg56
(lp3189
g49
(g70
g51
NtRp3190
(dp3191
g54
(dp3192
g74
g75
ssg63
g3186
sg56
(lp3193
S'generic_patterns'
p3194
asbag49
(g70
g51
NtRp3195
(dp3196
g54
(dp3197
g81
g82
ssg63
g3186
sg56
(lp3198
S':'
asbag49
(g70
g51
NtRp3199
(dp3200
g54
(dp3201
sg63
g3186
sg56
(lp3202
g49
(g50
g51
NtRp3203
(dp3204
g54
(dp3205
g62
I5
ssg63
g3199
sg56
(lp3206
g49
(g58
g51
NtRp3207
(dp3208
g54
(dp3209
g62
I4
ssg63
Nsg56
(lp3210
g49
(g65
g51
NtRp3211
(dp3212
g54
(dp3213
sg63
g3207
sg56
(lp3214
g49
(g70
g51
NtRp3215
(dp3216
g54
(dp3217
sg63
g3211
sg56
(lp3218
g49
(g50
g51
NtRp3219
(dp3220
g54
(dp3221
g62
I4
ssg63
g3215
sg56
(lp3222
S'*'
asbasbasbasbasbasbasbag49
(g65
g51
NtRp3223
(dp3224
g54
(dp3225
sg63
g2875
sg56
(lp3226
g49
(g70
g51
NtRp3227
(dp3228
g54
(dp3229
g74
g75
ssg63
g3223
sg56
(lp3230
S'headers'
p3231
asbag49
(g70
g51
NtRp3232
(dp3233
g54
(dp3234
g81
g82
ssg63
g3223
sg56
(lp3235
S':'
asbag49
(g70
g51
NtRp3236
(dp3237
g54
(dp3238
sg63
g3223
sg56
(lp3239
g49
(g50
g51
NtRp3240
(dp3241
g54
(dp3242
g62
I5
ssg63
g3236
sg56
(lp3243
g49
(g58
g51
NtRp3244
(dp3245
g54
(dp3246
g62
I4
ssg63
Nsg56
(lp3247
g49
(g65
g51
NtRp3248
(dp3249
g54
(dp3250
sg63
g3244
sg56
(lp3251
g49
(g70
g51
NtRp3252
(dp3253
g54
(dp3254
g74
g75
ssg63
g3248
sg56
(lp3255
S'Cache-Control'
p3256
asbag49
(g70
g51
NtRp3257
(dp3258
g54
(dp3259
g81
g82
ssg63
g3248
sg56
(lp3260
S':'
asbag49
(g70
g51
NtRp3261
(dp3262
g54
(dp3263
sg63
g3248
sg56
(lp3264
g49
(g50
g51
NtRp3265
(dp3266
g54
(dp3267
g62
I4
ssg63
g3261
sg56
(lp3268
S'no-store, no-cache, must-revalidate, post-check=0, pre-check=0'
p3269
asbasbasbag49
(g65
g51
NtRp3270
(dp3271
g54
(dp3272
sg63
g3244
sg56
(lp3273
g49
(g70
g51
NtRp3274
(dp3275
g54
(dp3276
g74
g75
ssg63
g3270
sg56
(lp3277
S'Content-Type'
p3278
asbag49
(g70
g51
NtRp3279
(dp3280
g54
(dp3281
g81
g82
ssg63
g3270
sg56
(lp3282
S':'
asbag49
(g70
g51
NtRp3283
(dp3284
g54
(dp3285
sg63
g3270
sg56
(lp3286
g49
(g50
g51
NtRp3287
(dp3288
g54
(dp3289
g62
I4
ssg63
g3283
sg56
(lp3290
S'text/html; charset=utf-8'
p3291
asbasbasbag49
(g65
g51
NtRp3292
(dp3293
g54
(dp3294
sg63
g3244
sg56
(lp3295
g49
(g70
g51
NtRp3296
(dp3297
g54
(dp3298
g74
g75
ssg63
g3292
sg56
(lp3299
S'Expires'
p3300
asbag49
(g70
g51
NtRp3301
(dp3302
g54
(dp3303
g81
g82
ssg63
g3292
sg56
(lp3304
S':'
asbag49
(g70
g51
NtRp3305
(dp3306
g54
(dp3307
sg63
g3292
sg56
(lp3308
g49
(g50
g51
NtRp3309
(dp3310
g54
(dp3311
g62
I4
ssg63
g3305
sg56
(lp3312
S'Sun, 11 Mar 2012 17:06:43 GMT'
p3313
asbasbasbag49
(g65
g51
NtRp3314
(dp3315
g54
(dp3316
sg63
g3244
sg56
(lp3317
g49
(g70
g51
NtRp3318
(dp3319
g54
(dp3320
g74
g75
ssg63
g3314
sg56
(lp3321
S'Pragma'
p3322
asbag49
(g70
g51
NtRp3323
(dp3324
g54
(dp3325
g81
g82
ssg63
g3314
sg56
(lp3326
S':'
asbag49
(g70
g51
NtRp3327
(dp3328
g54
(dp3329
sg63
g3314
sg56
(lp3330
g49
(g50
g51
NtRp3331
(dp3332
g54
(dp3333
g62
I4
ssg63
g3327
sg56
(lp3334
S'no-cache'
p3335
asbasbasbag49
(g65
g51
NtRp3336
(dp3337
g54
(dp3338
sg63
g3244
sg56
(lp3339
g49
(g70
g51
NtRp3340
(dp3341
g54
(dp3342
g74
g75
ssg63
g3336
sg56
(lp3343
S'X-Powered-By'
p3344
asbag49
(g70
g51
NtRp3345
(dp3346
g54
(dp3347
g81
g82
ssg63
g3336
sg56
(lp3348
S':'
asbag49
(g70
g51
NtRp3349
(dp3350
g54
(dp3351
sg63
g3336
sg56
(lp3352
g49
(g50
g51
NtRp3353
(dp3354
g54
(dp3355
g62
I4
ssg63
g3349
sg56
(lp3356
S'web2py'
p3357
asbasbasbasbasbasbasbag49
(g65
g51
NtRp3358
(dp3359
g54
(dp3360
sg63
g2875
sg56
(lp3361
g49
(g70
g51
NtRp3362
(dp3363
g54
(dp3364
g74
g75
ssg63
g3358
sg56
(lp3365
S'menu'
p3366
asbag49
(g70
g51
NtRp3367
(dp3368
g54
(dp3369
g81
g82
ssg63
g3358
sg56
(lp3370
S':'
asbag49
(g70
g51
NtRp3371
(dp3372
g54
(dp3373
sg63
g3358
sg56
(lp3374
g49
(g50
g51
NtRp3375
(dp3376
g54
(dp3377
g62
I5
ssg63
g3371
sg56
(lp3378
g49
(g58
g51
NtRp3379
(dp3380
g54
(dp3381
g62
I4
ssg63
Nsg56
(lp3382
g49
(g65
g51
NtRp3383
(dp3384
g54
(dp3385
sg63
g3379
sg56
(lp3386
g49
(g70
g51
NtRp3387
(dp3388
g54
(dp3389
sg63
g3383
sg56
(lp3390
g49
(g50
g51
NtRp3391
(dp3392
g54
(dp3393
g62
I4
ssg63
g3387
sg56
(lp3394
g49
(g58
g51
NtRp3395
(dp3396
g54
(dp3397
g62
I3
ssg63
Nsg56
(lp3398
g49
(g65
g51
NtRp3399
(dp3400
g54
(dp3401
sg63
g3395
sg56
(lp3402
g49
(g70
g51
NtRp3403
(dp3404
g54
(dp3405
sg63
g3399
sg56
(lp3406
g49
(g50
g51
NtRp3407
(dp3408
g54
(dp3409
g62
I3
ssg63
g3403
sg56
(lp3410
cgluon.languages
lazyT_unpickle
p3411
(S't\x07\x00\x00\x00Accueil'
tRp3412
asbasbasbag49
(g65
g51
NtRp3413
(dp3414
g54
(dp3415
sg63
g3395
sg56
(lp3416
g49
(g70
g51
NtRp3417
(dp3418
g54
(dp3419
sg63
g3413
sg56
(lp3420
g49
(g50
g51
NtRp3421
(dp3422
g54
(dp3423
g62
I3
ssg63
g3417
sg56
(lp3424
g92
asbasbasbag49
(g65
g51
NtRp3425
(dp3426
g54
(dp3427
sg63
g3395
sg56
(lp3428
g49
(g70
g51
NtRp3429
(dp3430
g54
(dp3431
sg63
g3425
sg56
(lp3432
g49
(g50
g51
NtRp3433
(dp3434
g54
(dp3435
g62
I3
ssg63
g3429
sg56
(lp3436
S'/init/default/index'
p3437
asbasbasbag49
(g65
g51
NtRp3438
(dp3439
g54
(dp3440
sg63
g3395
sg56
(lp3441
g49
(g70
g51
NtRp3442
(dp3443
g54
(dp3444
sg63
g3438
sg56
(lp3445
g49
(g50
g51
NtRp3446
(dp3447
g54
(dp3448
g62
I3
ssg63
g3442
sg56
(lp3449
g49
(g58
g51
NtRp3450
(dp3451
g54
(dp3452
g62
I2
ssg63
Nsg56
(lp3453
sbasbasbasbasbasbasbasbag49
(g65
g51
NtRp3454
(dp3455
g54
(dp3456
sg63
g3379
sg56
(lp3457
g49
(g70
g51
NtRp3458
(dp3459
g54
(dp3460
sg63
g3454
sg56
(lp3461
g49
(g50
g51
NtRp3462
(dp3463
g54
(dp3464
g62
I4
ssg63
g3458
sg56
(lp3465
g49
(g58
g51
NtRp3466
(dp3467
g54
(dp3468
g62
I3
ssg63
Nsg56
(lp3469
g49
(g65
g51
NtRp3470
(dp3471
g54
(dp3472
sg63
g3466
sg56
(lp3473
g49
(g70
g51
NtRp3474
(dp3475
g54
(dp3476
sg63
g3470
sg56
(lp3477
g49
(g50
g51
NtRp3478
(dp3479
g54
(dp3480
g62
I3
ssg63
g3474
sg56
(lp3481
g49
(cgluon.html
SPAN
p3482
g51
NtRp3483
(dp3484
g54
(dp3485
g74
S'color:yellow'
p3486
ssg63
Nsg56
(lp3487
g3357
asbasbasbasbag49
(g65
g51
NtRp3488
(dp3489
g54
(dp3490
sg63
g3466
sg56
(lp3491
g49
(g70
g51
NtRp3492
(dp3493
g54
(dp3494
sg63
g3488
sg56
(lp3495
g49
(g50
g51
NtRp3496
(dp3497
g54
(dp3498
g62
I3
ssg63
g3492
sg56
(lp3499
g92
asbasbasbag49
(g65
g51
NtRp3500
(dp3501
g54
(dp3502
sg63
g3466
sg56
(lp3503
g49
(g70
g51
NtRp3504
(dp3505
g54
(dp3506
sg63
g3500
sg56
(lp3507
g49
(g50
g51
NtRp3508
(dp3509
g54
(dp3510
g62
I3
ssg63
g3504
sg56
(lp3511
S'None'
p3512
asbasbasbag49
(g65
g51
NtRp3513
(dp3514
g54
(dp3515
sg63
g3466
sg56
(lp3516
g49
(g70
g51
NtRp3517
(dp3518
g54
(dp3519
sg63
g3513
sg56
(lp3520
g49
(g50
g51
NtRp3521
(dp3522
g54
(dp3523
g62
I3
ssg63
g3517
sg56
(lp3524
g49
(g58
g51
NtRp3525
(dp3526
g54
(dp3527
g62
I2
ssg63
Nsg56
(lp3528
g49
(g65
g51
NtRp3529
(dp3530
g54
(dp3531
sg63
g3525
sg56
(lp3532
g49
(g70
g51
NtRp3533
(dp3534
g54
(dp3535
sg63
g3529
sg56
(lp3536
g49
(g50
g51
NtRp3537
(dp3538
g54
(dp3539
g62
I2
ssg63
g3533
sg56
(lp3540
g49
(g58
g51
NtRp3541
(dp3542
g54
(dp3543
g62
I1
ssg63
Nsg56
(lp3544
g49
(g65
g51
NtRp3545
(dp3546
g54
(dp3547
sg63
g3541
sg56
(lp3548
g49
(g70
g51
NtRp3549
(dp3550
g54
(dp3551
sg63
g3545
sg56
(lp3552
g49
(g50
g51
NtRp3553
(dp3554
g54
(dp3555
g62
I1
ssg63
g3549
sg56
(lp3556
g3411
(S's\x08\x00\x00\x00My Sites'
tRp3557
asbasbasbag49
(g65
g51
NtRp3558
(dp3559
g54
(dp3560
sg63
g3541
sg56
(lp3561
g49
(g70
g51
NtRp3562
(dp3563
g54
(dp3564
sg63
g3558
sg56
(lp3565
g49
(g50
g51
NtRp3566
(dp3567
g54
(dp3568
g62
I1
ssg63
g3562
sg56
(lp3569
I00
asbasbasbag49
(g65
g51
NtRp3570
(dp3571
g54
(dp3572
sg63
g3541
sg56
(lp3573
g49
(g70
g51
NtRp3574
(dp3575
g54
(dp3576
sg63
g3570
sg56
(lp3577
g49
(g50
g51
NtRp3578
(dp3579
g54
(dp3580
g62
I1
ssg63
g3574
sg56
(lp3581
S'/admin/default/site'
p3582
asbasbasbasbasbasbasbag49
(g65
g51
NtRp3583
(dp3584
g54
(dp3585
sg63
g3525
sg56
(lp3586
g49
(g70
g51
NtRp3587
(dp3588
g54
(dp3589
sg63
g3583
sg56
(lp3590
g49
(g50
g51
NtRp3591
(dp3592
g54
(dp3593
g62
I2
ssg63
g3587
sg56
(lp3594
g49
(g58
g51
NtRp3595
(dp3596
g54
(dp3597
g62
I1
ssg63
Nsg56
(lp3598
g49
(g65
g51
NtRp3599
(dp3600
g54
(dp3601
sg63
g3595
sg56
(lp3602
g49
(g70
g51
NtRp3603
(dp3604
g54
(dp3605
sg63
g3599
sg56
(lp3606
g49
(g50
g51
NtRp3607
(dp3608
g54
(dp3609
g62
I1
ssg63
g3603
sg56
(lp3610
g3411
(S's\x0b\x00\x00\x00Cette Appli'
tRp3611
asbasbasbag49
(g65
g51
NtRp3612
(dp3613
g54
(dp3614
sg63
g3595
sg56
(lp3615
g49
(g70
g51
NtRp3616
(dp3617
g54
(dp3618
sg63
g3612
sg56
(lp3619
g49
(g50
g51
NtRp3620
(dp3621
g54
(dp3622
g62
I1
ssg63
g3616
sg56
(lp3623
I00
asbasbasbag49
(g65
g51
NtRp3624
(dp3625
g54
(dp3626
sg63
g3595
sg56
(lp3627
g49
(g70
g51
NtRp3628
(dp3629
g54
(dp3630
sg63
g3624
sg56
(lp3631
g49
(g50
g51
NtRp3632
(dp3633
g54
(dp3634
g62
I1
ssg63
g3628
sg56
(lp3635
S'/admin/default/design/init'
p3636
asbasbasbag49
(g65
g51
NtRp3637
(dp3638
g54
(dp3639
sg63
g3595
sg56
(lp3640
g49
(g70
g51
NtRp3641
(dp3642
g54
(dp3643
sg63
g3637
sg56
(lp3644
g49
(g50
g51
NtRp3645
(dp3646
g54
(dp3647
g62
I1
ssg63
g3641
sg56
(lp3648
(lp3649
(g3411
(S's\x0b\x00\x00\x00Contr\xc3\xb4leur'
tRp3650
I00
S'/admin/default/edit/init/controllers/default.py'
tp3651
a(g3411
(S's\r\x00\x00\x00Pr\xc3\xa9sentation'
tRp3652
I00
S'/admin/default/edit/init/views/default/addBarcode.html'
tp3653
a(g3411
(S's\x0c\x00\x00\x00Mise en page'
tRp3654
I00
S'/admin/default/edit/init/views/layout.html'
tp3655
a(g3411
(S's\x10\x00\x00\x00Feuille de style'
tRp3656
I00
S'/admin/default/edit/init/static/css/web2py.css'
tp3657
a(g3411
(S's\n\x00\x00\x00Mod\xc3\xa8le DB'
tRp3658
I00
S'/admin/default/edit/init/models/db.py'
tp3659
a(g3411
(S's\x0c\x00\x00\x00Menu mod\xc3\xa8le'
tRp3660
I00
S'/admin/default/edit/init/models/menu.py'
tp3661
a(g3411
(S's\x10\x00\x00\x00Base de donn\xc3\xa9es'
tRp3662
I00
S'/init/appadmin/index'
tp3663
a(g3411
(S't\x07\x00\x00\x00Erreurs'
tRp3664
I00
S'/admin/default/errors/init'
tp3665
a(g3411
(S's\t\x00\x00\x00\xc3\x80 propos'
tRp3666
I00
S'/admin/default/about/init'
tp3667
aasbasbasbasbasbasbasbag49
(g65
g51
NtRp3668
(dp3669
g54
(dp3670
sg63
g3525
sg56
(lp3671
g49
(g70
g51
NtRp3672
(dp3673
g54
(dp3674
sg63
g3668
sg56
(lp3675
g49
(g50
g51
NtRp3676
(dp3677
g54
(dp3678
g62
I2
ssg63
g3672
sg56
(lp3679
g49
(g58
g51
NtRp3680
(dp3681
g54
(dp3682
g62
I1
ssg63
Nsg56
(lp3683
g49
(g65
g51
NtRp3684
(dp3685
g54
(dp3686
sg63
g3680
sg56
(lp3687
g49
(g70
g51
NtRp3688
(dp3689
g54
(dp3690
sg63
g3684
sg56
(lp3691
g49
(g50
g51
NtRp3692
(dp3693
g54
(dp3694
g62
I1
ssg63
g3688
sg56
(lp3695
S'web2py.com'
p3696
asbasbasbag49
(g65
g51
NtRp3697
(dp3698
g54
(dp3699
sg63
g3680
sg56
(lp3700
g49
(g70
g51
NtRp3701
(dp3702
g54
(dp3703
sg63
g3697
sg56
(lp3704
g49
(g50
g51
NtRp3705
(dp3706
g54
(dp3707
g62
I1
ssg63
g3701
sg56
(lp3708
I00
asbasbasbag49
(g65
g51
NtRp3709
(dp3710
g54
(dp3711
sg63
g3680
sg56
(lp3712
g49
(g70
g51
NtRp3713
(dp3714
g54
(dp3715
sg63
g3709
sg56
(lp3716
g49
(g50
g51
NtRp3717
(dp3718
g54
(dp3719
g62
I1
ssg63
g3713
sg56
(lp3720
S'http://www.web2py.com'
p3721
asbasbasbag49
(g65
g51
NtRp3722
(dp3723
g54
(dp3724
sg63
g3680
sg56
(lp3725
g49
(g70
g51
NtRp3726
(dp3727
g54
(dp3728
sg63
g3722
sg56
(lp3729
g49
(g50
g51
NtRp3730
(dp3731
g54
(dp3732
g62
I1
ssg63
g3726
sg56
(lp3733
(lp3734
(g3411
(S's\x10\x00\x00\x00T\xc3\xa9l\xc3\xa9chargement'
tRp3735
I00
S'http://www.web2py.com/examples/default/download'
p3736
tp3737
a(g3411
(S't\x07\x00\x00\x00Support'
tRp3738
I00
S'http://www.web2py.com/examples/default/support'
p3739
tp3740
a(g3411
(S's\x05\x00\x00\x00D\xc3\xa9mo'
tRp3741
I00
S'http://web2py.com/demo_admin'
p3742
tp3743
a(g3411
(S's\x10\x00\x00\x00Examples Rapides'
tRp3744
I00
S'http://web2py.com/examples/default/examples'
p3745
tp3746
a(g3411
(S't\x03\x00\x00\x00FAQ'
tRp3747
I00
S'http://web2py.com/AlterEgo'
p3748
tp3749
a(g3411
(S's\x07\x00\x00\x00Vid\xc3\xa9os'
tRp3750
I00
S'http://www.web2py.com/examples/default/videos/'
p3751
tp3752
a(g3411
(S's\x16\x00\x00\x00Applications gratuites'
tRp3753
I00
S'http://web2py.com/appliances'
p3754
tp3755
a(g3411
(S't\n\x00\x00\x00Plugiciels'
tRp3756
I00
S'http://web2py.com/plugins'
p3757
tp3758
a(g3411
(S't\x07\x00\x00\x00Layouts'
tRp3759
I00
S'http://web2py.com/layouts'
p3760
tp3761
a(g3411
(S't\x08\x00\x00\x00Recettes'
tRp3762
I00
S'http://web2pyslices.com/'
p3763
tp3764
a(g3411
(S's\x0b\x00\x00\x00S\xc3\xa9mantique'
tRp3765
I00
S'http://web2py.com/semantic'
p3766
tp3767
aasbasbasbasbasbasbasbag49
(g65
g51
NtRp3768
(dp3769
g54
(dp3770
sg63
g3525
sg56
(lp3771
g49
(g70
g51
NtRp3772
(dp3773
g54
(dp3774
sg63
g3768
sg56
(lp3775
g49
(g50
g51
NtRp3776
(dp3777
g54
(dp3778
g62
I2
ssg63
g3772
sg56
(lp3779
g49
(g58
g51
NtRp3780
(dp3781
g54
(dp3782
g62
I1
ssg63
Nsg56
(lp3783
g49
(g65
g51
NtRp3784
(dp3785
g54
(dp3786
sg63
g3780
sg56
(lp3787
g49
(g70
g51
NtRp3788
(dp3789
g54
(dp3790
sg63
g3784
sg56
(lp3791
g49
(g50
g51
NtRp3792
(dp3793
g54
(dp3794
g62
I1
ssg63
g3788
sg56
(lp3795
g3411
(S't\r\x00\x00\x00Documentation'
tRp3796
asbasbasbag49
(g65
g51
NtRp3797
(dp3798
g54
(dp3799
sg63
g3780
sg56
(lp3800
g49
(g70
g51
NtRp3801
(dp3802
g54
(dp3803
sg63
g3797
sg56
(lp3804
g49
(g50
g51
NtRp3805
(dp3806
g54
(dp3807
g62
I1
ssg63
g3801
sg56
(lp3808
I00
asbasbasbag49
(g65
g51
NtRp3809
(dp3810
g54
(dp3811
sg63
g3780
sg56
(lp3812
g49
(g70
g51
NtRp3813
(dp3814
g54
(dp3815
sg63
g3809
sg56
(lp3816
g49
(g50
g51
NtRp3817
(dp3818
g54
(dp3819
g62
I1
ssg63
g3813
sg56
(lp3820
S'http://www.web2py.com/book'
p3821
asbasbasbag49
(g65
g51
NtRp3822
(dp3823
g54
(dp3824
sg63
g3780
sg56
(lp3825
g49
(g70
g51
NtRp3826
(dp3827
g54
(dp3828
sg63
g3822
sg56
(lp3829
g49
(g50
g51
NtRp3830
(dp3831
g54
(dp3832
g62
I1
ssg63
g3826
sg56
(lp3833
(lp3834
(g3411
(S's\x08\x00\x00\x00Pr\xc3\xa9face'
tRp3835
I00
S'http://www.web2py.com/book/default/chapter/00'
p3836
tp3837
a(g3411
(S't\x0c\x00\x00\x00Introduction'
tRp3838
I00
S'http://www.web2py.com/book/default/chapter/01'
p3839
tp3840
a(g3411
(S't\x06\x00\x00\x00Python'
tRp3841
I00
S'http://www.web2py.com/book/default/chapter/02'
p3842
tp3843
a(g3411
(S's\r\x00\x00\x00Pr\xc3\xa9sentation'
tRp3844
I00
S'http://www.web2py.com/book/default/chapter/03'
p3845
tp3846
a(g3411
(S's\x08\x00\x00\x00Le noyau'
tRp3847
I00
S'http://www.web2py.com/book/default/chapter/04'
p3848
tp3849
a(g3411
(S's\x08\x00\x00\x00Les Vues'
tRp3850
I00
S'http://www.web2py.com/book/default/chapter/05'
p3851
tp3852
a(g3411
(S's\x10\x00\x00\x00Base de donn\xc3\xa9es'
tRp3853
I00
S'http://www.web2py.com/book/default/chapter/06'
p3854
tp3855
a(g3411
(S's\x1a\x00\x00\x00Formulaires et Validateurs'
tRp3856
I00
S'http://www.web2py.com/book/default/chapter/07'
p3857
tp3858
a(g3411
(S's\r\x00\x00\x00Email and SMS'
tRp3859
I00
S'http://www.web2py.com/book/default/chapter/08'
p3860
tp3861
a(g3411
(S"s\x12\x00\x00\x00Contr\xc3\xb4le d'acc\xc3\xa8s"
tRp3862
I00
S'http://www.web2py.com/book/default/chapter/09'
p3863
tp3864
a(g3411
(S't\x08\x00\x00\x00Services'
tRp3865
I00
S'http://www.web2py.com/book/default/chapter/10'
p3866
tp3867
a(g3411
(S's\r\x00\x00\x00Recettes Ajax'
tRp3868
I00
S'http://www.web2py.com/book/default/chapter/11'
p3869
tp3870
a(g3411
(S's\x16\x00\x00\x00Components and Plugins'
tRp3871
I00
S'http://www.web2py.com/book/default/chapter/12'
p3872
tp3873
a(g3411
(S's\x18\x00\x00\x00Recettes de d\xc3\xa9ploiement'
tRp3874
I00
S'http://www.web2py.com/book/default/chapter/13'
p3875
tp3876
a(g3411
(S's\x0f\x00\x00\x00Autres recettes'
tRp3877
I00
S'http://www.web2py.com/book/default/chapter/14'
p3878
tp3879
a(g3411
(S's\x10\x00\x00\x00Acheter ce livre'
tRp3880
I00
S'http://stores.lulu.com/web2py'
p3881
tp3882
aasbasbasbasbasbasbasbag49
(g65
g51
NtRp3883
(dp3884
g54
(dp3885
sg63
g3525
sg56
(lp3886
g49
(g70
g51
NtRp3887
(dp3888
g54
(dp3889
sg63
g3883
sg56
(lp3890
g49
(g50
g51
NtRp3891
(dp3892
g54
(dp3893
g62
I2
ssg63
g3887
sg56
(lp3894
g49
(g58
g51
NtRp3895
(dp3896
g54
(dp3897
g62
I1
ssg63
Nsg56
(lp3898
g49
(g65
g51
NtRp3899
(dp3900
g54
(dp3901
sg63
g3895
sg56
(lp3902
g49
(g70
g51
NtRp3903
(dp3904
g54
(dp3905
sg63
g3899
sg56
(lp3906
g49
(g50
g51
NtRp3907
(dp3908
g54
(dp3909
g62
I1
ssg63
g3903
sg56
(lp3910
g3411
(S's\x0b\x00\x00\x00Communaut\xc3\xa9'
tRp3911
asbasbasbag49
(g65
g51
NtRp3912
(dp3913
g54
(dp3914
sg63
g3895
sg56
(lp3915
g49
(g70
g51
NtRp3916
(dp3917
g54
(dp3918
sg63
g3912
sg56
(lp3919
g49
(g50
g51
NtRp3920
(dp3921
g54
(dp3922
g62
I1
ssg63
g3916
sg56
(lp3923
I00
asbasbasbag49
(g65
g51
NtRp3924
(dp3925
g54
(dp3926
sg63
g3895
sg56
(lp3927
g49
(g70
g51
NtRp3928
(dp3929
g54
(dp3930
sg63
g3924
sg56
(lp3931
g49
(g50
g51
NtRp3932
(dp3933
g54
(dp3934
g62
I1
ssg63
g3928
sg56
(lp3935
Nasbasbasbag49
(g65
g51
NtRp3936
(dp3937
g54
(dp3938
sg63
g3895
sg56
(lp3939
g49
(g70
g51
NtRp3940
(dp3941
g54
(dp3942
sg63
g3936
sg56
(lp3943
g49
(g50
g51
NtRp3944
(dp3945
g54
(dp3946
g62
I1
ssg63
g3940
sg56
(lp3947
(lp3948
(g3411
(S't\x06\x00\x00\x00Groups'
tRp3949
I00
S'http://www.web2py.com/examples/default/usergroups'
p3950
tp3951
a(g3411
(S't\x07\x00\x00\x00Twitter'
tRp3952
I00
S'http://twitter.com/web2py'
p3953
tp3954
a(g3411
(S's\t\x00\x00\x00Live Chat'
tRp3955
I00
S'http://webchat.freenode.net/?channels=web2py'
p3956
tp3957
aasbasbasbasbasbasbasbag49
(g65
g51
NtRp3958
(dp3959
g54
(dp3960
sg63
g3525
sg56
(lp3961
g49
(g70
g51
NtRp3962
(dp3963
g54
(dp3964
sg63
g3958
sg56
(lp3965
g49
(g50
g51
NtRp3966
(dp3967
g54
(dp3968
g62
I2
ssg63
g3962
sg56
(lp3969
g49
(g58
g51
NtRp3970
(dp3971
g54
(dp3972
g62
I1
ssg63
Nsg56
(lp3973
g49
(g65
g51
NtRp3974
(dp3975
g54
(dp3976
sg63
g3970
sg56
(lp3977
g49
(g70
g51
NtRp3978
(dp3979
g54
(dp3980
sg63
g3974
sg56
(lp3981
g49
(g50
g51
NtRp3982
(dp3983
g54
(dp3984
g62
I1
ssg63
g3978
sg56
(lp3985
g3411
(S't\n\x00\x00\x00Plugiciels'
tRp3986
asbasbasbag49
(g65
g51
NtRp3987
(dp3988
g54
(dp3989
sg63
g3970
sg56
(lp3990
g49
(g70
g51
NtRp3991
(dp3992
g54
(dp3993
sg63
g3987
sg56
(lp3994
g49
(g50
g51
NtRp3995
(dp3996
g54
(dp3997
g62
I1
ssg63
g3991
sg56
(lp3998
I00
asbasbasbag49
(g65
g51
NtRp3999
(dp4000
g54
(dp4001
sg63
g3970
sg56
(lp4002
g49
(g70
g51
NtRp4003
(dp4004
g54
(dp4005
sg63
g3999
sg56
(lp4006
g49
(g50
g51
NtRp4007
(dp4008
g54
(dp4009
g62
I1
ssg63
g4003
sg56
(lp4010
Nasbasbasbag49
(g65
g51
NtRp4011
(dp4012
g54
(dp4013
sg63
g3970
sg56
(lp4014
g49
(g70
g51
NtRp4015
(dp4016
g54
(dp4017
sg63
g4011
sg56
(lp4018
g49
(g50
g51
NtRp4019
(dp4020
g54
(dp4021
g62
I1
ssg63
g4015
sg56
(lp4022
(lp4023
(S'plugin_wiki'
p4024
I00
S'http://web2py.com/examples/default/download'
p4025
tp4026
a(g3411
(S's\r\x00\x00\x00Other Plugins'
tRp4027
I00
g3757
tp4028
a(g3411
(S's\x0e\x00\x00\x00Layout Plugins'
tRp4029
I00
g3760
tp4030
aasbasbasbasbasbasbasbasbasbasbasbasbasbasbasbasbasbasbasbag49
(g65
g51
NtRp4031
(dp4032
g54
(dp4033
sg63
g2875
sg56
(lp4034
g49
(g70
g51
NtRp4035
(dp4036
g54
(dp4037
g74
g75
ssg63
g4031
sg56
(lp4038
S'meta'
p4039
asbag49
(g70
g51
NtRp4040
(dp4041
g54
(dp4042
g81
g82
ssg63
g4031
sg56
(lp4043
S':'
asbag49
(g70
g51
NtRp4044
(dp4045
g54
(dp4046
sg63
g4031
sg56
(lp4047
g49
(g50
g51
NtRp4048
(dp4049
g54
(dp4050
g62
I5
ssg63
g4044
sg56
(lp4051
g49
(g58
g51
NtRp4052
(dp4053
g54
(dp4054
g62
I4
ssg63
Nsg56
(lp4055
g49
(g65
g51
NtRp4056
(dp4057
g54
(dp4058
sg63
g4052
sg56
(lp4059
g49
(g70
g51
NtRp4060
(dp4061
g54
(dp4062
g74
g75
ssg63
g4056
sg56
(lp4063
S'author'
p4064
asbag49
(g70
g51
NtRp4065
(dp4066
g54
(dp4067
g81
g82
ssg63
g4056
sg56
(lp4068
S':'
asbag49
(g70
g51
NtRp4069
(dp4070
g54
(dp4071
sg63
g4056
sg56
(lp4072
g49
(g50
g51
NtRp4073
(dp4074
g54
(dp4075
g62
I4
ssg63
g4069
sg56
(lp4076
S'Your Name <you@example.com>'
p4077
asbasbasbag49
(g65
g51
NtRp4078
(dp4079
g54
(dp4080
sg63
g4052
sg56
(lp4081
g49
(g70
g51
NtRp4082
(dp4083
g54
(dp4084
g74
g75
ssg63
g4078
sg56
(lp4085
S'copyright'
p4086
asbag49
(g70
g51
NtRp4087
(dp4088
g54
(dp4089
g81
g82
ssg63
g4078
sg56
(lp4090
S':'
asbag49
(g70
g51
NtRp4091
(dp4092
g54
(dp4093
sg63
g4078
sg56
(lp4094
g49
(g50
g51
NtRp4095
(dp4096
g54
(dp4097
g62
I4
ssg63
g4091
sg56
(lp4098
S'Copyright 2011'
p4099
asbasbasbag49
(g65
g51
NtRp4100
(dp4101
g54
(dp4102
sg63
g4052
sg56
(lp4103
g49
(g70
g51
NtRp4104
(dp4105
g54
(dp4106
g74
g75
ssg63
g4100
sg56
(lp4107
S'description'
p4108
asbag49
(g70
g51
NtRp4109
(dp4110
g54
(dp4111
g81
g82
ssg63
g4100
sg56
(lp4112
S':'
asbag49
(g70
g51
NtRp4113
(dp4114
g54
(dp4115
sg63
g4100
sg56
(lp4116
g49
(g50
g51
NtRp4117
(dp4118
g54
(dp4119
g62
I4
ssg63
g4113
sg56
(lp4120
S'a cool new app'
p4121
asbasbasbag49
(g65
g51
NtRp4122
(dp4123
g54
(dp4124
sg63
g4052
sg56
(lp4125
g49
(g70
g51
NtRp4126
(dp4127
g54
(dp4128
g74
g75
ssg63
g4122
sg56
(lp4129
S'generator'
p4130
asbag49
(g70
g51
NtRp4131
(dp4132
g54
(dp4133
g81
g82
ssg63
g4122
sg56
(lp4134
S':'
asbag49
(g70
g51
NtRp4135
(dp4136
g54
(dp4137
sg63
g4122
sg56
(lp4138
g49
(g50
g51
NtRp4139
(dp4140
g54
(dp4141
g62
I4
ssg63
g4135
sg56
(lp4142
S'Web2py Web Framework'
p4143
asbasbasbag49
(g65
g51
NtRp4144
(dp4145
g54
(dp4146
sg63
g4052
sg56
(lp4147
g49
(g70
g51
NtRp4148
(dp4149
g54
(dp4150
g74
g75
ssg63
g4144
sg56
(lp4151
S'keywords'
p4152
asbag49
(g70
g51
NtRp4153
(dp4154
g54
(dp4155
g81
g82
ssg63
g4144
sg56
(lp4156
S':'
asbag49
(g70
g51
NtRp4157
(dp4158
g54
(dp4159
sg63
g4144
sg56
(lp4160
g49
(g50
g51
NtRp4161
(dp4162
g54
(dp4163
g62
I4
ssg63
g4157
sg56
(lp4164
S'web2py, python, framework'
p4165
asbasbasbasbasbasbasbag49
(g65
g51
NtRp4166
(dp4167
g54
(dp4168
sg63
g2875
sg56
(lp4169
g49
(g70
g51
NtRp4170
(dp4171
g54
(dp4172
g74
g75
ssg63
g4166
sg56
(lp4173
S'postprocessing'
p4174
asbag49
(g70
g51
NtRp4175
(dp4176
g54
(dp4177
g81
g82
ssg63
g4166
sg56
(lp4178
S':'
asbag49
(g70
g51
NtRp4179
(dp4180
g54
(dp4181
sg63
g4166
sg56
(lp4182
g49
(g50
g51
NtRp4183
(dp4184
g54
(dp4185
g62
I5
ssg63
g4179
sg56
(lp4186
g49
(g58
g51
NtRp4187
(dp4188
g54
(dp4189
g62
I4
ssg63
Nsg56
(lp4190
sbasbasbasbag49
(g65
g51
NtRp4191
(dp4192
g54
(dp4193
sg63
g2875
sg56
(lp4194
g49
(g70
g51
NtRp4195
(dp4196
g54
(dp4197
g74
g75
ssg63
g4191
sg56
(lp4198
S'session_file'
p4199
asbag49
(g70
g51
NtRp4200
(dp4201
g54
(dp4202
g81
g82
ssg63
g4191
sg56
(lp4203
S':'
asbag49
(g70
g51
NtRp4204
(dp4205
g54
(dp4206
sg63
g4191
sg56
(lp4207
g49
(g50
g51
NtRp4208
(dp4209
g54
(dp4210
g62
I5
ssg63
g4204
sg56
(lp4211
S"<open file 'C:\\Users\\Bussiere\\Dropbox\\Projets\\Yuki\\web2py\\applications\\init\\sessions\\127.0.0.1-05546599-82c3-44a9-b36b-68629a143195', mode 'rb+' at 0x07901848>"
p4212
asbasbasbag49
(g65
g51
NtRp4213
(dp4214
g54
(dp4215
sg63
g2875
sg56
(lp4216
g49
(g70
g51
NtRp4217
(dp4218
g54
(dp4219
g74
g75
ssg63
g4213
sg56
(lp4220
S'session_filename'
p4221
asbag49
(g70
g51
NtRp4222
(dp4223
g54
(dp4224
g81
g82
ssg63
g4213
sg56
(lp4225
S':'
asbag49
(g70
g51
NtRp4226
(dp4227
g54
(dp4228
sg63
g4213
sg56
(lp4229
g49
(g50
g51
NtRp4230
(dp4231
g54
(dp4232
g62
I5
ssg63
g4226
sg56
(lp4233
S'C:\\Users\\Bussiere\\Dropbox\\Projets\\Yuki\\web2py\\applications\\init\\sessions\\127.0.0.1-05546599-82c3-44a9-b36b-68629a143195'
p4234
asbasbasbag49
(g65
g51
NtRp4235
(dp4236
g54
(dp4237
sg63
g2875
sg56
(lp4238
g49
(g70
g51
NtRp4239
(dp4240
g54
(dp4241
g74
g75
ssg63
g4235
sg56
(lp4242
S'session_id'
p4243
asbag49
(g70
g51
NtRp4244
(dp4245
g54
(dp4246
g81
g82
ssg63
g4235
sg56
(lp4247
S':'
asbag49
(g70
g51
NtRp4248
(dp4249
g54
(dp4250
sg63
g4235
sg56
(lp4251
g49
(g50
g51
NtRp4252
(dp4253
g54
(dp4254
g62
I5
ssg63
g4248
sg56
(lp4255
S'127.0.0.1-05546599-82c3-44a9-b36b-68629a143195'
p4256
asbasbasbag49
(g65
g51
NtRp4257
(dp4258
g54
(dp4259
sg63
g2875
sg56
(lp4260
g49
(g70
g51
NtRp4261
(dp4262
g54
(dp4263
g74
g75
ssg63
g4257
sg56
(lp4264
S'session_id_name'
p4265
asbag49
(g70
g51
NtRp4266
(dp4267
g54
(dp4268
g81
g82
ssg63
g4257
sg56
(lp4269
S':'
asbag49
(g70
g51
NtRp4270
(dp4271
g54
(dp4272
sg63
g4257
sg56
(lp4273
g49
(g50
g51
NtRp4274
(dp4275
g54
(dp4276
g62
I5
ssg63
g4270
sg56
(lp4277
g2932
asbasbasbag49
(g65
g51
NtRp4278
(dp4279
g54
(dp4280
sg63
g2875
sg56
(lp4281
g49
(g70
g51
NtRp4282
(dp4283
g54
(dp4284
g74
g75
ssg63
g4278
sg56
(lp4285
S'session_locked'
p4286
asbag49
(g70
g51
NtRp4287
(dp4288
g54
(dp4289
g81
g82
ssg63
g4278
sg56
(lp4290
S':'
asbag49
(g70
g51
NtRp4291
(dp4292
g54
(dp4293
sg63
g4278
sg56
(lp4294
g49
(g50
g51
NtRp4295
(dp4296
g54
(dp4297
g62
I5
ssg63
g4291
sg56
(lp4298
g726
asbasbasbag49
(g65
g51
NtRp4299
(dp4300
g54
(dp4301
sg63
g2875
sg56
(lp4302
g49
(g70
g51
NtRp4303
(dp4304
g54
(dp4305
g74
g75
ssg63
g4299
sg56
(lp4306
S'session_new'
p4307
asbag49
(g70
g51
NtRp4308
(dp4309
g54
(dp4310
g81
g82
ssg63
g4299
sg56
(lp4311
S':'
asbag49
(g70
g51
NtRp4312
(dp4313
g54
(dp4314
sg63
g4299
sg56
(lp4315
g49
(g50
g51
NtRp4316
(dp4317
g54
(dp4318
g62
I5
ssg63
g4312
sg56
(lp4319
g92
asbasbasbag49
(g65
g51
NtRp4320
(dp4321
g54
(dp4322
sg63
g2875
sg56
(lp4323
g49
(g70
g51
NtRp4324
(dp4325
g54
(dp4326
g74
g75
ssg63
g4320
sg56
(lp4327
S'status'
p4328
asbag49
(g70
g51
NtRp4329
(dp4330
g54
(dp4331
g81
g82
ssg63
g4320
sg56
(lp4332
S':'
asbag49
(g70
g51
NtRp4333
(dp4334
g54
(dp4335
sg63
g4320
sg56
(lp4336
g49
(g50
g51
NtRp4337
(dp4338
g54
(dp4339
g62
I5
ssg63
g4333
sg56
(lp4340
S'200'
p4341
asbasbasbag49
(g65
g51
NtRp4342
(dp4343
g54
(dp4344
sg63
g2875
sg56
(lp4345
g49
(g70
g51
NtRp4346
(dp4347
g54
(dp4348
g74
g75
ssg63
g4342
sg56
(lp4349
S'subtitle'
p4350
asbag49
(g70
g51
NtRp4351
(dp4352
g54
(dp4353
g81
g82
ssg63
g4342
sg56
(lp4354
S':'
asbag49
(g70
g51
NtRp4355
(dp4356
g54
(dp4357
sg63
g4342
sg56
(lp4358
g49
(g50
g51
NtRp4359
(dp4360
g54
(dp4361
g62
I5
ssg63
g4355
sg56
(lp4362
g3411
(S's\x12\x00\x00\x00personnalisez-moi!'
tRp4363
asbasbasbag49
(g65
g51
NtRp4364
(dp4365
g54
(dp4366
sg63
g2875
sg56
(lp4367
g49
(g70
g51
NtRp4368
(dp4369
g54
(dp4370
g74
g75
ssg63
g4364
sg56
(lp4371
S'title'
p4372
asbag49
(g70
g51
NtRp4373
(dp4374
g54
(dp4375
g81
g82
ssg63
g4364
sg56
(lp4376
S':'
asbag49
(g70
g51
NtRp4377
(dp4378
g54
(dp4379
sg63
g4364
sg56
(lp4380
g49
(g50
g51
NtRp4381
(dp4382
g54
(dp4383
g62
I5
ssg63
g4377
sg56
(lp4384
S'Init'
p4385
asbasbasbag49
(g65
g51
NtRp4386
(dp4387
g54
(dp4388
sg63
g2875
sg56
(lp4389
g49
(g70
g51
NtRp4390
(dp4391
g54
(dp4392
g74
g75
ssg63
g4386
sg56
(lp4393
g2129
asbag49
(g70
g51
NtRp4394
(dp4395
g54
(dp4396
g81
g82
ssg63
g4386
sg56
(lp4397
S':'
asbag49
(g70
g51
NtRp4398
(dp4399
g54
(dp4400
sg63
g4386
sg56
(lp4401
g49
(g50
g51
NtRp4402
(dp4403
g54
(dp4404
g62
I5
ssg63
g4398
sg56
(lp4405
g2142
asbasbasbag49
(g65
g51
NtRp4406
(dp4407
g54
(dp4408
sg63
g2875
sg56
(lp4409
g49
(g70
g51
NtRp4410
(dp4411
g54
(dp4412
g74
g75
ssg63
g4406
sg56
(lp4413
S'view'
p4414
asbag49
(g70
g51
NtRp4415
(dp4416
g54
(dp4417
g81
g82
ssg63
g4406
sg56
(lp4418
S':'
asbag49
(g70
g51
NtRp4419
(dp4420
g54
(dp4421
sg63
g4406
sg56
(lp4422
g49
(g50
g51
NtRp4423
(dp4424
g54
(dp4425
g62
I5
ssg63
g4419
sg56
(lp4426
S'default/addBarcode.html'
p4427
asbasbasbasbasbsS'locals'
p4428
(dp4429
S'form'
p4430
S'<gluon.sqlhtml.SQLFORM object at 0x07A58390>'
p4431
sssS'traceback'
p4432
S'Traceback (most recent call last):\n  File "gluon/restricted.py", line 205, in restricted\n  File "C:\\Users\\Bussiere\\Dropbox\\Projets\\Yuki\\web2py\\applications\\init\\controllers/default.py", line 98, in <module>\n  File "gluon/globals.py", line 173, in <lambda>\n  File "C:\\Users\\Bussiere\\Dropbox\\Projets\\Yuki\\web2py\\applications\\init\\controllers/default.py", line 59, in addBarcode\nNameError: global name \'table\' is not defined\n'
p4433
s.