(dp1
S'output'
p2
S"<type 'exceptions.NameError'> name 'Float' is not defined"
p3
sS'layer'
p4
S'C:\\Users\\Bussiere\\Dropbox\\Projets\\Yuki\\web2py\\applications\\init\\models\\db.py'
p5
sS'code'
p6
S"# -*- coding: utf-8 -*-\n\n#########################################################################\n## This scaffolding model makes your app work on Google App Engine too\n## File is released under public domain and you can use without limitations\n#########################################################################\n\n## if SSL/HTTPS is properly configured and you want all HTTP requests to\n## be redirected to HTTPS, uncomment the line below:\n# request.requires_https()\n\nif not request.env.web2py_runtime_gae:\n    ## if NOT running on Google App Engine use SQLite or other DB\n    db = DAL('sqlite://storage.sqlite')\nelse:\n    ## connect to Google BigTable (optional 'google:datastore://namespace')\n    db = DAL('google:datastore')\n    ## store sessions and tickets there\n    session.connect(request, response, db = db)\n    ## or store session in Memcache, Redis, etc.\n    ## from gluon.contrib.memdb import MEMDB\n    ## from google.appengine.api.memcache import Client\n    ## session.connect(request, response, db = MEMDB(Client()))\n\n## by default give a view/generic.extension to all actions from localhost\n## none otherwise. a pattern can be 'controller/function.extension'\nresponse.generic_patterns = ['*'] if request.is_local else []\n## (optional) optimize handling of static files\n# response.optimize_css = 'concat,minify,inline'\n# response.optimize_js = 'concat,minify,inline'\n\n#########################################################################\n## Here is sample code if you need for\n## - email capabilities\n## - auth_userentication (registration, login, logout, ... )\n## - auth_userorization (role based auth_userorization)\n## - services (xml, csv, json, xmlrpc, jsonrpc, amf, rss)\n## - old style crud actions\n## (more options discussed in gluon/tools.py)\n#########################################################################\n\nfrom gluon.tools import Auth, Crud, Service, PluginManager, prettydate\nauth = Auth(db, hmac_key=Auth.get_or_create_key())\ncrud, service, plugins = Crud(db), Service(), PluginManager()\n\n## create all tables needed by auth_user if not custom tables\nauth.define_tables()\n\n\ndb.define_table('Barcode',\n   Field('Barcode', unique=True),\n   Field('auth_user','list:reference auth_user'),\n   Field('Comment','list:reference Comment'),\n   Field('Seller','list:reference Seller'),\n   Field('Livre','list:reference Livre'),\n   Field('Musique','list:reference Musique'),\n   Field('Video','list:reference Video'),\n   Field('Figur','list:reference Figur'),\n   Field('Goodie','list:reference Goodie'),\n   Field('VideoGame','list:reference VideoGame'),\n   format = '%(Barcodee)s')\n   \ndb.define_table('Comment',\n   Field('Name', unique=True),\n   Field('Texte'),\n   Field('Vote', 'integer'),\n   Field('auth_user',db.auth_user),\n   format = '%(Name)s')\n\n\ndb.define_table('Convention',\n   Field('Nom', unique=True),\n   Field('Localisation','list:reference Localisation'),\n   Field('auth_user','list:reference auth_user'),\n   Field('Comment','list:reference Comment'),\n   Field('Seller','list:reference Seller'),\n   Field('Livre','list:reference Livre'),\n   Field('Musique','list:reference Musique'),\n   Field('Video','list:reference Video'),\n   Field('Figur','list:reference Figur'),\n   Field('Goodie','list:reference Goodie'),\n   Field('Link','list:reference Link'),\n   Field('Tag','list:reference Tag'),\n\n   format = '%(Nom)s')\n\ndb.define_table('auth_useror',\n   Field('Nom', unique=True),\n   Field('Tag','list:reference Tag'),\n   format = '%(Nom)s')\n\ndb.define_table('Character',\n   Field('Nom', unique=True),\n   Field('Tag','list:reference Tag'),\n   format = '%(Nom)s')\n\ndb.define_table('Figur',\n   Field('Name', unique=True),\n   Field('Date'),\n   Field('Characters','list:reference Character'),\n   Field('auth_userors','list:reference auth_useror'),\n   Field('Tag','list:reference Tag'),\n   Field('Price','list:reference Price'),\n   Field('Seller','list:reference Seller'),\n   Field('Convention','list:reference Convention'),\n   Field('Vote','list:reference Vote'),\n   Field('BarCode','list:reference BarCode'),\n   Field('Comment','list:reference Comment'),\n   Field('Link','list:reference Link'),\n   format = '%(Nom)s')\n   \ndb.define_table('TypeMusic',\n   Field('Nom', unique=True),\n   format = '%(Nom)s')\n\n\ndb.define_table('Music',\n   Field('Name', unique=True),\n   Field('Date'),\n   Field('auth_userors','list:reference auth_useror'),\n   Field('Tag','list:reference Tag'),\n   Field('Price','list:reference Price'),\n   Field('Seller','list:reference Seller'),\n   Field('Convention','list:reference Convention'),\n   Field('Vote','list:reference Vote'),\n   Field('BarCode','list:reference BarCode'),\n   Field('Comment','list:reference Comment'),\n   Field('Link','list:reference Link'),\n   format = '%(Nom)s')\n\n\ndb.define_table('TypeVideo',\n   Field('Nom', unique=True),\n   format = '%(Nom)s')\n\n\ndb.define_table('Video',\n   Field('Name', unique=True),\n   Field('Date'),\n   Field('auth_userors','list:reference auth_useror'),\n   Field('Tag','list:reference Tag'),\n   Field('Price','list:reference Price'),\n   Field('Seller','list:reference Seller'),\n   Field('Convention','list:reference Convention'),\n   Field('Vote','list:reference Vote'),\n   Field('BarCode','list:reference BarCode'),\n   Field('Comment','list:reference Comment'),\n   Field('Link','list:reference Link'),  \n   format = '%(Nom)s')\n\ndb.define_table('TypeVideoGame',\n   Field('Nom', unique=True),\n   format = '%(Nom)s')\n\n\ndb.define_table('VideoGame',\n   Field('Name', unique=True),\n   Field('Date'),\n   Field('auth_userors','list:reference auth_useror'),\n   Field('Tag','list:reference Tag'),\n   Field('Price','list:reference Price'),\n   Field('Seller','list:reference Seller'),\n   Field('Convention','list:reference Convention'),\n   Field('Vote','list:reference Vote'),\n   Field('BarCode','list:reference BarCode'),\n   Field('Comment','list:reference Comment'),\n   Field('Link','list:reference Link'),\n   format = '%(Nom)s')\n\ndb.define_table('TypeBook',\n   Field('Nom', unique=True),\n   format = '%(Nom)s')\n\n\ndb.define_table('Book',\n   Field('Name', unique=True),\n   Field('Date'),\n   Field('auth_userors','list:reference auth_useror'),\n   Field('Tag','list:reference Tag'),\n   Field('Price','list:reference Price'),\n   Field('Seller','list:reference Seller'),\n   Field('Convention','list:reference Convention'),\n   Field('Vote','list:reference Vote'),\n   Field('BarCode','list:reference BarCode'),\n   Field('Comment','list:reference Comment'),\n   Field('Link','list:reference Link'),\n   format = '%(Nom)s')\n\n\ndb.define_table('TypeGoodie',\n   Field('Nom', unique=True),\n   format = '%(Nom)s')\n\n\ndb.define_table('Goodie',\n   Field('Name', unique=True),\n   Field('Date'),\n   Field('auth_userors','list:reference auth_useror'),\n   Field('Tag','list:reference Tag'),\n   Field('Price','list:reference Price'),\n   Field('Seller','list:reference Seller'),\n   Field('Convention','list:reference Convention'),\n   Field('Vote','list:reference Vote'),\n   Field('BarCode','list:reference BarCode'),\n   Field('Comment','list:reference Comment'),\n   Field('Link','list:reference Link'),\n   format = '%(Nom)s')\n\n\n\ndb.define_table('GPS',\n   Field('GPS', unique=True),\n   Field('Tag','list:reference Tag'),\n   format = '%(GPS)s')\n\ndb.define_table('GeoHash',\n   Field('GeoHash', unique=True),\n   Field('Tag','list:reference Tag'),\n   format = '%(GeoHash)s')\n\ndb.define_table('OpenStreetMap',\n   Field('OpenStreetMap', unique=True),\n   Field('Tag','list:reference Tag'),\n   format = '%(OpenStreetMap)s')\n\ndb.define_table('Country',\n   Field('Name', unique=True),\n   Field('Link','list:reference Link'),\n   Field('GPS','list:reference GPS'),\n   Field('GeoHash','list:reference GeoHash'),\n   Field('OpenStreetMap','list:reference OpenStreetMap'),\n   format = '%(Name)s')\n   \ndb.define_table('State',\n   Field('Name', unique=True),\n   Field('Link','list:reference Link'),\n   Field('GPS','list:reference GPS'),\n   Field('GeoHash','list:reference GeoHash'),\n   Field('OpenStreetMap','list:reference OpenStreetMap'),\n   format = '%(Name)s')\n   \n\ndb.define_table('Region',\n   Field('Name', unique=True),\n   Field('Link','list:reference Link'),\n   Field('GPS','list:reference GPS'),\n   Field('GeoHash','list:reference GeoHash'),\n   Field('OpenStreetMap','list:reference OpenStreetMap'),\n   format = '%(Name)s')\n   \n \ndb.define_table('City',\n   Field('Name', unique=True),\n   Field('Link','list:reference Link'),\n   Field('GPS','list:reference GPS'),\n   Field('GeoHash','list:reference GeoHash'),\n   Field('OpenStreetMap','list:reference OpenStreetMap'),\n   format = '%(Name)s')\n\ndb.define_table('Adress',\n   Field('Name', unique=True),\n   Field('Number', unique=True),\n   Field('Link','list:reference Link'),\n   Field('GPS','list:reference GPS'),\n   Field('GeoHash','list:reference GeoHash'),\n   Field('OpenStreetMap','list:reference OpenStreetMap'),\n   format = '%(Name)s')\n   \ndb.define_table('PostalCode',\n   Field('Name', unique=True),\n   Field('Number', unique=True),\n   Field('Link','list:reference Link'),\n   Field('GPS','list:reference GPS'),\n   Field('GeoHash','list:reference GeoHash'),\n   Field('OpenStreetMap','list:reference OpenStreetMap'),\n   format = '%(Name)s')\n   \ndb.define_table('Subway',\n   Field('Name', unique=True),\n   Field('Number', unique=True),\n   format = '%(Name)s')\n  \n\ndb.define_table('SubwayStation',\n   Field('Name', unique=True),\n   Field('Subway','list:reference Subway'),\n   format = '%(Name)s')\n\n\ndb.define_table('Bus',\n   Field('Name', unique=True),\n   Field('Number', unique=True),\n   format = '%(Name)s')\n  \n\ndb.define_table('BusStation',\n   Field('Name', unique=True),\n   Field('Subway','list:reference Subway'),\n   format = '%(Name)s')\n\ndb.define_table('Localisation',\n   Field('Name', unique=True),\n   Field('Link','list:reference Link'),\n   Field('GPS','list:reference GPS'),\n   Field('GeoHash','list:reference GeoHash'),\n   Field('OpenStreetMap','list:reference OpenStreetMap'),\n   Field('Country','list:reference Country'),\n   Field('State','list:reference State'),\n   Field('Region','list:reference Region'),\n   Field('City','list:reference City'),\n   Field('Adress','list:reference Adress'),\n   Field('PostalCode','list:reference PostalCode'),\n   Field('SubwayStation','list:reference SubwayStation'),\n   Field('BusStation','list:reference BusStation'),\n   format = '%(Name)s')\n   \n\ndb.define_table('image',\n   Field('title', unique=True),\n   Field('file', 'upload'),\n   format = '%(title)s')\n\n\ndb.define_table('Cour',\n    Field('Price', Float),\n    format = '%(Price)s')\n\ndb.define_table('Currency',\n   Field('Name', unique=True),\n   Field('Cour', db.Cour),\n   format = '%(Name)s')\n   \n   \ndb.define_table('Price',\n   Field('Currency', db.Currency),\n   Field('Price', Float),\n   format = '%(Price,Currency)s')\n   \ndb.define_table('Seller',\n   Field('Name', unique=True),\n   Field('Date'),\n   Field('Localisation','list:reference Localisation'),\n   Field('Tag','list:reference Tag'),\n   Field('Comment','list:reference Comment'),\n   Field('Link','list:reference Link'),\n   format = '%(Nom)s')   \n\ndb.define_table('FamilleTag',\n   Field('Name', unique=True),\n   Field('Tag','list:reference Tag'),\n   format = '%(Name)s')\n   \ndb.define_table('Tag',\n   Field('Name', unique=True),\n   format = '%(Name)s')\n   \ndb.define_table('AssoTag',\n   Field('Name', unique=True),\n   Field('Tag','list:reference Tag'),\n   Field('FamilleTag','list:reference FamilleTag'),\n   format = '%(Name)s')\n   \ndb.define_table('VoteHK',\n   Field('auth_user', db.auth_user),\n   format = '%(auth_user)s')\n   \ndb.define_table('VoteNonHK',\n   Field('auth_user', db.auth_user),\n   format = '%(auth_user)s')\n\ndb.define_table('VoteAskHK',\n   Field('auth_user', db.auth_user),\n   format = '%(auth_user)s')\n\n\n## configure email\nmail=auth.settings.mailer\nmail.settings.server = 'logging' or 'smtp.gmail.com:587'\nmail.settings.sender = 'you@gmail.com'\nmail.settings.login = 'username:password'\n\n## configure auth policy\nauth.settings.registration_requires_verification = False\nauth.settings.registration_requires_approval = False\nauth.settings.reset_password_requires_verification = True\n\n## if you need to use OpenID, Facebook, MySpace, Twitter, Linkedin, etc.\n## register with janrain.com, write your domain:api_key in private/janrain.key\nfrom gluon.contrib.login_methods.rpx_account import use_janrain\nuse_janrain(auth,filename='private/janrain.key')\n\n#########################################################################\n## Define your tables below (or better in another model file) for example\n##\n## >>> db.define_table('mytable',Field('myfield','string'))\n##\n## Fields can be 'string','text','password','integer','double','boolean'\n##       'date','time','datetime','blob','upload', 'reference TABLENAME'\n## There is an implicit 'id integer autoincrement' field\n## Consult manual for more options, validators, etc.\n##\n## More API examples for controllers:\n##\n## >>> db.mytable.insert(myfield='value')\n## >>> rows=db(db.mytable.myfield=='value').select(db.mytable.ALL)\n## >>> for row in rows: print row.id, row.myfield\n#########################################################################\n\n#########\n"
p7
sS'snapshot'
p8
(dp9
S'exception'
p10
(dp11
S'__hash__'
p12
S"<method-wrapper '__hash__' of exceptions.NameError object at 0x04154C88>"
p13
sS'__setattr__'
p14
S"<method-wrapper '__setattr__' of exceptions.NameError object at 0x04154C88>"
p15
sS'__reduce_ex__'
p16
S'<built-in method __reduce_ex__ of exceptions.NameError object at 0x04154C88>'
p17
sS'__getslice__'
p18
S"<method-wrapper '__getslice__' of exceptions.NameError object at 0x04154C88>"
p19
sS'__getitem__'
p20
S"<method-wrapper '__getitem__' of exceptions.NameError object at 0x04154C88>"
p21
sS'__setstate__'
p22
S'<built-in method __setstate__ of exceptions.NameError object at 0x04154C88>'
p23
sS'__reduce__'
p24
S'<built-in method __reduce__ of exceptions.NameError object at 0x04154C88>'
p25
sS'__str__'
p26
S"<method-wrapper '__str__' of exceptions.NameError object at 0x04154C88>"
p27
sS'args'
p28
S'("name \'Float\' is not defined",)'
p29
sS'__getattribute__'
p30
S"<method-wrapper '__getattribute__' of exceptions.NameError object at 0x04154C88>"
p31
sS'__class__'
p32
S"<type 'exceptions.NameError'>"
p33
sS'__delattr__'
p34
S"<method-wrapper '__delattr__' of exceptions.NameError object at 0x04154C88>"
p35
sS'__repr__'
p36
S"<method-wrapper '__repr__' of exceptions.NameError object at 0x04154C88>"
p37
sS'__dict__'
p38
S'{}'
p39
sS'__doc__'
p40
S"'Name not found globally.'"
p41
sS'__init__'
p42
S"<method-wrapper '__init__' of exceptions.NameError object at 0x04154C88>"
p43
sS'__new__'
p44
S'<built-in method __new__ of type object at 0x1E1CD8D8>'
p45
ssS'evalue'
p46
S"name 'Float' is not defined"
p47
sS'request'
p48
ccopy_reg
_reconstructor
p49
(cgluon.html
BEAUTIFY
p50
c__builtin__
object
p51
NtRp52
(dp53
S'attributes'
p54
(dp55
sS'components'
p56
(lp57
g49
(cgluon.html
TABLE
p58
g51
NtRp59
(dp60
g54
(dp61
S'level'
p62
I5
ssS'parent'
p63
Nsg56
(lp64
g49
(cgluon.html
TR
p65
g51
NtRp66
(dp67
g54
(dp68
sg63
g59
sg56
(lp69
g49
(cgluon.html
TD
p70
g51
NtRp71
(dp72
g54
(dp73
S'_style'
p74
S'font-weight:bold;vertical-align:top'
p75
ssg63
g66
sg56
(lp76
S'ajax'
p77
asbag49
(g70
g51
NtRp78
(dp79
g54
(dp80
S'_valign'
p81
S'top'
p82
ssg63
g66
sg56
(lp83
S':'
asbag49
(g70
g51
NtRp84
(dp85
g54
(dp86
sg63
g66
sg56
(lp87
g49
(g50
g51
NtRp88
(dp89
g54
(dp90
g62
I5
ssg63
g84
sg56
(lp91
S'False'
p92
asbasbasbag49
(g65
g51
NtRp93
(dp94
g54
(dp95
sg63
g59
sg56
(lp96
g49
(g70
g51
NtRp97
(dp98
g54
(dp99
g74
g75
ssg63
g93
sg56
(lp100
S'application'
p101
asbag49
(g70
g51
NtRp102
(dp103
g54
(dp104
g81
g82
ssg63
g93
sg56
(lp105
S':'
asbag49
(g70
g51
NtRp106
(dp107
g54
(dp108
sg63
g93
sg56
(lp109
g49
(g50
g51
NtRp110
(dp111
g54
(dp112
g62
I5
ssg63
g106
sg56
(lp113
S'init'
p114
asbasbasbag49
(g65
g51
NtRp115
(dp116
g54
(dp117
sg63
g59
sg56
(lp118
g49
(g70
g51
NtRp119
(dp120
g54
(dp121
g74
g75
ssg63
g115
sg56
(lp122
g28
asbag49
(g70
g51
NtRp123
(dp124
g54
(dp125
g81
g82
ssg63
g115
sg56
(lp126
S':'
asbag49
(g70
g51
NtRp127
(dp128
g54
(dp129
sg63
g115
sg56
(lp130
g49
(g50
g51
NtRp131
(dp132
g54
(dp133
g62
I5
ssg63
g127
sg56
(lp134
g49
(g58
g51
NtRp135
(dp136
g54
(dp137
g62
I4
ssg63
Nsg56
(lp138
sbasbasbasbag49
(g65
g51
NtRp139
(dp140
g54
(dp141
sg63
g59
sg56
(lp142
g49
(g70
g51
NtRp143
(dp144
g54
(dp145
g74
g75
ssg63
g139
sg56
(lp146
S'body'
p147
asbag49
(g70
g51
NtRp148
(dp149
g54
(dp150
g81
g82
ssg63
g139
sg56
(lp151
S':'
asbag49
(g70
g51
NtRp152
(dp153
g54
(dp154
sg63
g139
sg56
(lp155
g49
(g50
g51
NtRp156
(dp157
g54
(dp158
g62
I5
ssg63
g152
sg56
(lp159
S'<cStringIO.StringO object at 0x03E6E120>'
p160
asbasbasbag49
(g65
g51
NtRp161
(dp162
g54
(dp163
sg63
g59
sg56
(lp164
g49
(g70
g51
NtRp165
(dp166
g54
(dp167
g74
g75
ssg63
g161
sg56
(lp168
S'client'
p169
asbag49
(g70
g51
NtRp170
(dp171
g54
(dp172
g81
g82
ssg63
g161
sg56
(lp173
S':'
asbag49
(g70
g51
NtRp174
(dp175
g54
(dp176
sg63
g161
sg56
(lp177
g49
(g50
g51
NtRp178
(dp179
g54
(dp180
g62
I5
ssg63
g174
sg56
(lp181
S'127.0.0.1'
p182
asbasbasbag49
(g65
g51
NtRp183
(dp184
g54
(dp185
sg63
g59
sg56
(lp186
g49
(g70
g51
NtRp187
(dp188
g54
(dp189
g74
g75
ssg63
g183
sg56
(lp190
S'controller'
p191
asbag49
(g70
g51
NtRp192
(dp193
g54
(dp194
g81
g82
ssg63
g183
sg56
(lp195
S':'
asbag49
(g70
g51
NtRp196
(dp197
g54
(dp198
sg63
g183
sg56
(lp199
g49
(g50
g51
NtRp200
(dp201
g54
(dp202
g62
I5
ssg63
g196
sg56
(lp203
S'default'
p204
asbasbasbag49
(g65
g51
NtRp205
(dp206
g54
(dp207
sg63
g59
sg56
(lp208
g49
(g70
g51
NtRp209
(dp210
g54
(dp211
g74
g75
ssg63
g205
sg56
(lp212
S'cookies'
p213
asbag49
(g70
g51
NtRp214
(dp215
g54
(dp216
g81
g82
ssg63
g205
sg56
(lp217
S':'
asbag49
(g70
g51
NtRp218
(dp219
g54
(dp220
sg63
g205
sg56
(lp221
g49
(g50
g51
NtRp222
(dp223
g54
(dp224
g62
I5
ssg63
g218
sg56
(lp225
g49
(g58
g51
NtRp226
(dp227
g54
(dp228
g62
I4
ssg63
Nsg56
(lp229
g49
(g65
g51
NtRp230
(dp231
g54
(dp232
sg63
g226
sg56
(lp233
g49
(g70
g51
NtRp234
(dp235
g54
(dp236
g74
g75
ssg63
g230
sg56
(lp237
S'session_id_admin'
p238
asbag49
(g70
g51
NtRp239
(dp240
g54
(dp241
g81
g82
ssg63
g230
sg56
(lp242
S':'
asbag49
(g70
g51
NtRp243
(dp244
g54
(dp245
sg63
g230
sg56
(lp246
g49
(g50
g51
NtRp247
(dp248
g54
(dp249
g62
I4
ssg63
g243
sg56
(lp250
g49
(g58
g51
NtRp251
(dp252
g54
(dp253
g62
I3
ssg63
Nsg56
(lp254
g49
(g65
g51
NtRp255
(dp256
g54
(dp257
sg63
g251
sg56
(lp258
g49
(g70
g51
NtRp259
(dp260
g54
(dp261
g74
g75
ssg63
g255
sg56
(lp262
S'comment'
p263
asbag49
(g70
g51
NtRp264
(dp265
g54
(dp266
g81
g82
ssg63
g255
sg56
(lp267
S':'
asbag49
(g70
g51
NtRp268
(dp269
g54
(dp270
sg63
g255
sg56
(lp271
g49
(g50
g51
NtRp272
(dp273
g54
(dp274
g62
I3
ssg63
g268
sg56
(lp275
S''
asbasbasbag49
(g65
g51
NtRp276
(dp277
g54
(dp278
sg63
g251
sg56
(lp279
g49
(g70
g51
NtRp280
(dp281
g54
(dp282
g74
g75
ssg63
g276
sg56
(lp283
S'domain'
p284
asbag49
(g70
g51
NtRp285
(dp286
g54
(dp287
g81
g82
ssg63
g276
sg56
(lp288
S':'
asbag49
(g70
g51
NtRp289
(dp290
g54
(dp291
sg63
g276
sg56
(lp292
g49
(g50
g51
NtRp293
(dp294
g54
(dp295
g62
I3
ssg63
g289
sg56
(lp296
S''
asbasbasbag49
(g65
g51
NtRp297
(dp298
g54
(dp299
sg63
g251
sg56
(lp300
g49
(g70
g51
NtRp301
(dp302
g54
(dp303
g74
g75
ssg63
g297
sg56
(lp304
S'expires'
p305
asbag49
(g70
g51
NtRp306
(dp307
g54
(dp308
g81
g82
ssg63
g297
sg56
(lp309
S':'
asbag49
(g70
g51
NtRp310
(dp311
g54
(dp312
sg63
g297
sg56
(lp313
g49
(g50
g51
NtRp314
(dp315
g54
(dp316
g62
I3
ssg63
g310
sg56
(lp317
S''
asbasbasbag49
(g65
g51
NtRp318
(dp319
g54
(dp320
sg63
g251
sg56
(lp321
g49
(g70
g51
NtRp322
(dp323
g54
(dp324
g74
g75
ssg63
g318
sg56
(lp325
S'max-age'
p326
asbag49
(g70
g51
NtRp327
(dp328
g54
(dp329
g81
g82
ssg63
g318
sg56
(lp330
S':'
asbag49
(g70
g51
NtRp331
(dp332
g54
(dp333
sg63
g318
sg56
(lp334
g49
(g50
g51
NtRp335
(dp336
g54
(dp337
g62
I3
ssg63
g331
sg56
(lp338
S''
asbasbasbag49
(g65
g51
NtRp339
(dp340
g54
(dp341
sg63
g251
sg56
(lp342
g49
(g70
g51
NtRp343
(dp344
g54
(dp345
g74
g75
ssg63
g339
sg56
(lp346
S'path'
p347
asbag49
(g70
g51
NtRp348
(dp349
g54
(dp350
g81
g82
ssg63
g339
sg56
(lp351
S':'
asbag49
(g70
g51
NtRp352
(dp353
g54
(dp354
sg63
g339
sg56
(lp355
g49
(g50
g51
NtRp356
(dp357
g54
(dp358
g62
I3
ssg63
g352
sg56
(lp359
S''
asbasbasbag49
(g65
g51
NtRp360
(dp361
g54
(dp362
sg63
g251
sg56
(lp363
g49
(g70
g51
NtRp364
(dp365
g54
(dp366
g74
g75
ssg63
g360
sg56
(lp367
S'secure'
p368
asbag49
(g70
g51
NtRp369
(dp370
g54
(dp371
g81
g82
ssg63
g360
sg56
(lp372
S':'
asbag49
(g70
g51
NtRp373
(dp374
g54
(dp375
sg63
g360
sg56
(lp376
g49
(g50
g51
NtRp377
(dp378
g54
(dp379
g62
I3
ssg63
g373
sg56
(lp380
S''
asbasbasbag49
(g65
g51
NtRp381
(dp382
g54
(dp383
sg63
g251
sg56
(lp384
g49
(g70
g51
NtRp385
(dp386
g54
(dp387
g74
g75
ssg63
g381
sg56
(lp388
S'version'
p389
asbag49
(g70
g51
NtRp390
(dp391
g54
(dp392
g81
g82
ssg63
g381
sg56
(lp393
S':'
asbag49
(g70
g51
NtRp394
(dp395
g54
(dp396
sg63
g381
sg56
(lp397
g49
(g50
g51
NtRp398
(dp399
g54
(dp400
g62
I3
ssg63
g394
sg56
(lp401
S''
asbasbasbasbasbasbasbasbasbasbasbag49
(g65
g51
NtRp402
(dp403
g54
(dp404
sg63
g59
sg56
(lp405
g49
(g70
g51
NtRp406
(dp407
g54
(dp408
g74
g75
ssg63
g402
sg56
(lp409
S'env'
p410
asbag49
(g70
g51
NtRp411
(dp412
g54
(dp413
g81
g82
ssg63
g402
sg56
(lp414
S':'
asbag49
(g70
g51
NtRp415
(dp416
g54
(dp417
sg63
g402
sg56
(lp418
g49
(g50
g51
NtRp419
(dp420
g54
(dp421
g62
I5
ssg63
g415
sg56
(lp422
g49
(g58
g51
NtRp423
(dp424
g54
(dp425
g62
I4
ssg63
Nsg56
(lp426
g49
(g65
g51
NtRp427
(dp428
g54
(dp429
sg63
g423
sg56
(lp430
g49
(g70
g51
NtRp431
(dp432
g54
(dp433
g74
g75
ssg63
g427
sg56
(lp434
S'app_folders'
p435
asbag49
(g70
g51
NtRp436
(dp437
g54
(dp438
g81
g82
ssg63
g427
sg56
(lp439
S':'
asbag49
(g70
g51
NtRp440
(dp441
g54
(dp442
sg63
g427
sg56
(lp443
g49
(g50
g51
NtRp444
(dp445
g54
(dp446
g62
I4
ssg63
g440
sg56
(lp447
S"set(['C:\\\\Users\\\\Bussiere\\\\Dropbox\\\\Projets\\\\Yuki\\\\web2py\\\\applications\\\\init\\\\', 'C:\\\\Users\\\\Bussiere\\\\Dropbox\\\\Projets\\\\Yuki\\\\web2py\\\\applications\\\\admin\\\\'])"
p448
asbasbasbag49
(g65
g51
NtRp449
(dp450
g54
(dp451
sg63
g423
sg56
(lp452
g49
(g70
g51
NtRp453
(dp454
g54
(dp455
g74
g75
ssg63
g449
sg56
(lp456
S'applications_parent'
p457
asbag49
(g70
g51
NtRp458
(dp459
g54
(dp460
g81
g82
ssg63
g449
sg56
(lp461
S':'
asbag49
(g70
g51
NtRp462
(dp463
g54
(dp464
sg63
g449
sg56
(lp465
g49
(g50
g51
NtRp466
(dp467
g54
(dp468
g62
I4
ssg63
g462
sg56
(lp469
S'C:\\Users\\Bussiere\\Dropbox\\Projets\\Yuki\\web2py'
p470
asbasbasbag49
(g65
g51
NtRp471
(dp472
g54
(dp473
sg63
g423
sg56
(lp474
g49
(g70
g51
NtRp475
(dp476
g54
(dp477
g74
g75
ssg63
g471
sg56
(lp478
S'cmd_args'
p479
asbag49
(g70
g51
NtRp480
(dp481
g54
(dp482
g81
g82
ssg63
g471
sg56
(lp483
S':'
asbag49
(g70
g51
NtRp484
(dp485
g54
(dp486
sg63
g471
sg56
(lp487
g49
(g50
g51
NtRp488
(dp489
g54
(dp490
g62
I4
ssg63
g484
sg56
(lp491
g49
(g58
g51
NtRp492
(dp493
g54
(dp494
g62
I3
ssg63
Nsg56
(lp495
sbasbasbasbag49
(g65
g51
NtRp496
(dp497
g54
(dp498
sg63
g423
sg56
(lp499
g49
(g70
g51
NtRp500
(dp501
g54
(dp502
g74
g75
ssg63
g496
sg56
(lp503
S'cmd_options'
p504
asbag49
(g70
g51
NtRp505
(dp506
g54
(dp507
g81
g82
ssg63
g496
sg56
(lp508
S':'
asbag49
(g70
g51
NtRp509
(dp510
g54
(dp511
sg63
g496
sg56
(lp512
g49
(g50
g51
NtRp513
(dp514
g54
(dp515
g62
I4
ssg63
g509
sg56
(lp516
S"<Values at 0x3b54f58: {'verbose': False, 'ip': '127.0.0.1', 'shutdown_timeout': 5, 'taskbar': False, 'nocron': False, 'pid_filename': 'httpserver.pid', 'maxthreads': None, 'softcron': False, 'server_name': 'Batou', 'bpython': False, 'nogui': False, 'port': 8000, 'extcron': False, 'debuglevel': 30, 'test': None, 'folder': 'C:\\\\Users\\\\Bussiere\\\\Dropbox\\\\Projets\\\\Yuki\\\\web2py', 'config': '', 'import_models': False, 'winservice': '', 'shell': None, 'run': '', 'log_filename': 'httpserver.log', 'args': [''], 'socket_timeout': 5, 'ssl_ca_certificate': None, 'scheduler': None, 'profiler_filename': None, 'ssl_private_key': '', 'password': '<ask>', 'request_queue_size': 5, 'ssl_certificate': '', 'cronjob': False, 'numthreads': None, 'quiet': False, 'interfaces': None, 'minthreads': None, 'timeout': 10, 'plain': False, 'nobanner': False}>"
p517
asbasbasbag49
(g65
g51
NtRp518
(dp519
g54
(dp520
sg63
g423
sg56
(lp521
g49
(g70
g51
NtRp522
(dp523
g54
(dp524
g74
g75
ssg63
g518
sg56
(lp525
S'db_sessions'
p526
asbag49
(g70
g51
NtRp527
(dp528
g54
(dp529
g81
g82
ssg63
g518
sg56
(lp530
S':'
asbag49
(g70
g51
NtRp531
(dp532
g54
(dp533
sg63
g518
sg56
(lp534
g49
(g50
g51
NtRp535
(dp536
g54
(dp537
g62
I4
ssg63
g531
sg56
(lp538
S'set([])'
p539
asbasbasbag49
(g65
g51
NtRp540
(dp541
g54
(dp542
sg63
g423
sg56
(lp543
g49
(g70
g51
NtRp544
(dp545
g54
(dp546
g74
g75
ssg63
g540
sg56
(lp547
S'debugging'
p548
asbag49
(g70
g51
NtRp549
(dp550
g54
(dp551
g81
g82
ssg63
g540
sg56
(lp552
S':'
asbag49
(g70
g51
NtRp553
(dp554
g54
(dp555
sg63
g540
sg56
(lp556
g49
(g50
g51
NtRp557
(dp558
g54
(dp559
g62
I4
ssg63
g553
sg56
(lp560
S'True'
p561
asbasbasbag49
(g65
g51
NtRp562
(dp563
g54
(dp564
sg63
g423
sg56
(lp565
g49
(g70
g51
NtRp566
(dp567
g54
(dp568
g74
g75
ssg63
g562
sg56
(lp569
S'gluon_parent'
p570
asbag49
(g70
g51
NtRp571
(dp572
g54
(dp573
g81
g82
ssg63
g562
sg56
(lp574
S':'
asbag49
(g70
g51
NtRp575
(dp576
g54
(dp577
sg63
g562
sg56
(lp578
g49
(g50
g51
NtRp579
(dp580
g54
(dp581
g62
I4
ssg63
g575
sg56
(lp582
S'C:\\Users\\Bussiere\\Dropbox\\Projets\\Yuki\\web2py'
p583
asbasbasbag49
(g65
g51
NtRp584
(dp585
g54
(dp586
sg63
g423
sg56
(lp587
g49
(g70
g51
NtRp588
(dp589
g54
(dp590
g74
g75
ssg63
g584
sg56
(lp591
S'http_accept'
p592
asbag49
(g70
g51
NtRp593
(dp594
g54
(dp595
g81
g82
ssg63
g584
sg56
(lp596
S':'
asbag49
(g70
g51
NtRp597
(dp598
g54
(dp599
sg63
g584
sg56
(lp600
g49
(g50
g51
NtRp601
(dp602
g54
(dp603
g62
I4
ssg63
g597
sg56
(lp604
S'text/html,application/xhtml+xml,application/xml;q=0.9,*/*;q=0.8'
p605
asbasbasbag49
(g65
g51
NtRp606
(dp607
g54
(dp608
sg63
g423
sg56
(lp609
g49
(g70
g51
NtRp610
(dp611
g54
(dp612
g74
g75
ssg63
g606
sg56
(lp613
S'http_accept_charset'
p614
asbag49
(g70
g51
NtRp615
(dp616
g54
(dp617
g81
g82
ssg63
g606
sg56
(lp618
S':'
asbag49
(g70
g51
NtRp619
(dp620
g54
(dp621
sg63
g606
sg56
(lp622
g49
(g50
g51
NtRp623
(dp624
g54
(dp625
g62
I4
ssg63
g619
sg56
(lp626
S'ISO-8859-1,utf-8;q=0.7,*;q=0.3'
p627
asbasbasbag49
(g65
g51
NtRp628
(dp629
g54
(dp630
sg63
g423
sg56
(lp631
g49
(g70
g51
NtRp632
(dp633
g54
(dp634
g74
g75
ssg63
g628
sg56
(lp635
S'http_accept_encoding'
p636
asbag49
(g70
g51
NtRp637
(dp638
g54
(dp639
g81
g82
ssg63
g628
sg56
(lp640
S':'
asbag49
(g70
g51
NtRp641
(dp642
g54
(dp643
sg63
g628
sg56
(lp644
g49
(g50
g51
NtRp645
(dp646
g54
(dp647
g62
I4
ssg63
g641
sg56
(lp648
S'gzip,deflate,sdch'
p649
asbasbasbag49
(g65
g51
NtRp650
(dp651
g54
(dp652
sg63
g423
sg56
(lp653
g49
(g70
g51
NtRp654
(dp655
g54
(dp656
g74
g75
ssg63
g650
sg56
(lp657
S'http_accept_language'
p658
asbag49
(g70
g51
NtRp659
(dp660
g54
(dp661
g81
g82
ssg63
g650
sg56
(lp662
S':'
asbag49
(g70
g51
NtRp663
(dp664
g54
(dp665
sg63
g650
sg56
(lp666
g49
(g50
g51
NtRp667
(dp668
g54
(dp669
g62
I4
ssg63
g663
sg56
(lp670
S'en-US,en;q=0.8'
p671
asbasbasbag49
(g65
g51
NtRp672
(dp673
g54
(dp674
sg63
g423
sg56
(lp675
g49
(g70
g51
NtRp676
(dp677
g54
(dp678
g74
g75
ssg63
g672
sg56
(lp679
S'http_cache_control'
p680
asbag49
(g70
g51
NtRp681
(dp682
g54
(dp683
g81
g82
ssg63
g672
sg56
(lp684
S':'
asbag49
(g70
g51
NtRp685
(dp686
g54
(dp687
sg63
g672
sg56
(lp688
g49
(g50
g51
NtRp689
(dp690
g54
(dp691
g62
I4
ssg63
g685
sg56
(lp692
S'max-age=0'
p693
asbasbasbag49
(g65
g51
NtRp694
(dp695
g54
(dp696
sg63
g423
sg56
(lp697
g49
(g70
g51
NtRp698
(dp699
g54
(dp700
g74
g75
ssg63
g694
sg56
(lp701
S'http_connection'
p702
asbag49
(g70
g51
NtRp703
(dp704
g54
(dp705
g81
g82
ssg63
g694
sg56
(lp706
S':'
asbag49
(g70
g51
NtRp707
(dp708
g54
(dp709
sg63
g694
sg56
(lp710
g49
(g50
g51
NtRp711
(dp712
g54
(dp713
g62
I4
ssg63
g707
sg56
(lp714
S'keep-alive'
p715
asbasbasbag49
(g65
g51
NtRp716
(dp717
g54
(dp718
sg63
g423
sg56
(lp719
g49
(g70
g51
NtRp720
(dp721
g54
(dp722
g74
g75
ssg63
g716
sg56
(lp723
S'http_cookie'
p724
asbag49
(g70
g51
NtRp725
(dp726
g54
(dp727
g81
g82
ssg63
g716
sg56
(lp728
S':'
asbag49
(g70
g51
NtRp729
(dp730
g54
(dp731
sg63
g716
sg56
(lp732
g49
(g50
g51
NtRp733
(dp734
g54
(dp735
g62
I4
ssg63
g729
sg56
(lp736
S'session_id_admin=127.0.0.1-997621fc-e27b-401d-818b-abcbd99a27ff'
p737
asbasbasbag49
(g65
g51
NtRp738
(dp739
g54
(dp740
sg63
g423
sg56
(lp741
g49
(g70
g51
NtRp742
(dp743
g54
(dp744
g74
g75
ssg63
g738
sg56
(lp745
S'http_host'
p746
asbag49
(g70
g51
NtRp747
(dp748
g54
(dp749
g81
g82
ssg63
g738
sg56
(lp750
S':'
asbag49
(g70
g51
NtRp751
(dp752
g54
(dp753
sg63
g738
sg56
(lp754
g49
(g50
g51
NtRp755
(dp756
g54
(dp757
g62
I4
ssg63
g751
sg56
(lp758
S'127.0.0.1:8000'
p759
asbasbasbag49
(g65
g51
NtRp760
(dp761
g54
(dp762
sg63
g423
sg56
(lp763
g49
(g70
g51
NtRp764
(dp765
g54
(dp766
g74
g75
ssg63
g760
sg56
(lp767
S'http_user_agent'
p768
asbag49
(g70
g51
NtRp769
(dp770
g54
(dp771
g81
g82
ssg63
g760
sg56
(lp772
S':'
asbag49
(g70
g51
NtRp773
(dp774
g54
(dp775
sg63
g760
sg56
(lp776
g49
(g50
g51
NtRp777
(dp778
g54
(dp779
g62
I4
ssg63
g773
sg56
(lp780
S'Mozilla/5.0 (Windows NT 6.1; WOW64) AppleWebKit/535.18 (KHTML, like Gecko) Chrome/18.0.1011.0 Safari/535.18'
p781
asbasbasbag49
(g65
g51
NtRp782
(dp783
g54
(dp784
sg63
g423
sg56
(lp785
g49
(g70
g51
NtRp786
(dp787
g54
(dp788
g74
g75
ssg63
g782
sg56
(lp789
S'is_jython'
p790
asbag49
(g70
g51
NtRp791
(dp792
g54
(dp793
g81
g82
ssg63
g782
sg56
(lp794
S':'
asbag49
(g70
g51
NtRp795
(dp796
g54
(dp797
sg63
g782
sg56
(lp798
g49
(g50
g51
NtRp799
(dp800
g54
(dp801
g62
I4
ssg63
g795
sg56
(lp802
g92
asbasbasbag49
(g65
g51
NtRp803
(dp804
g54
(dp805
sg63
g423
sg56
(lp806
g49
(g70
g51
NtRp807
(dp808
g54
(dp809
g74
g75
ssg63
g803
sg56
(lp810
S'is_pypy'
p811
asbag49
(g70
g51
NtRp812
(dp813
g54
(dp814
g81
g82
ssg63
g803
sg56
(lp815
S':'
asbag49
(g70
g51
NtRp816
(dp817
g54
(dp818
sg63
g803
sg56
(lp819
g49
(g50
g51
NtRp820
(dp821
g54
(dp822
g62
I4
ssg63
g816
sg56
(lp823
g92
asbasbasbag49
(g65
g51
NtRp824
(dp825
g54
(dp826
sg63
g423
sg56
(lp827
g49
(g70
g51
NtRp828
(dp829
g54
(dp830
g74
g75
ssg63
g824
sg56
(lp831
S'path_info'
p832
asbag49
(g70
g51
NtRp833
(dp834
g54
(dp835
g81
g82
ssg63
g824
sg56
(lp836
S':'
asbag49
(g70
g51
NtRp837
(dp838
g54
(dp839
sg63
g824
sg56
(lp840
g49
(g50
g51
NtRp841
(dp842
g54
(dp843
g62
I4
ssg63
g837
sg56
(lp844
S'/'
asbasbasbag49
(g65
g51
NtRp845
(dp846
g54
(dp847
sg63
g423
sg56
(lp848
g49
(g70
g51
NtRp849
(dp850
g54
(dp851
g74
g75
ssg63
g845
sg56
(lp852
S'query_string'
p853
asbag49
(g70
g51
NtRp854
(dp855
g54
(dp856
g81
g82
ssg63
g845
sg56
(lp857
S':'
asbag49
(g70
g51
NtRp858
(dp859
g54
(dp860
sg63
g845
sg56
(lp861
g49
(g50
g51
NtRp862
(dp863
g54
(dp864
g62
I4
ssg63
g858
sg56
(lp865
S''
asbasbasbag49
(g65
g51
NtRp866
(dp867
g54
(dp868
sg63
g423
sg56
(lp869
g49
(g70
g51
NtRp870
(dp871
g54
(dp872
g74
g75
ssg63
g866
sg56
(lp873
S'remote_addr'
p874
asbag49
(g70
g51
NtRp875
(dp876
g54
(dp877
g81
g82
ssg63
g866
sg56
(lp878
S':'
asbag49
(g70
g51
NtRp879
(dp880
g54
(dp881
sg63
g866
sg56
(lp882
g49
(g50
g51
NtRp883
(dp884
g54
(dp885
g62
I4
ssg63
g879
sg56
(lp886
g182
asbasbasbag49
(g65
g51
NtRp887
(dp888
g54
(dp889
sg63
g423
sg56
(lp890
g49
(g70
g51
NtRp891
(dp892
g54
(dp893
g74
g75
ssg63
g887
sg56
(lp894
S'remote_port'
p895
asbag49
(g70
g51
NtRp896
(dp897
g54
(dp898
g81
g82
ssg63
g887
sg56
(lp899
S':'
asbag49
(g70
g51
NtRp900
(dp901
g54
(dp902
sg63
g887
sg56
(lp903
g49
(g50
g51
NtRp904
(dp905
g54
(dp906
g62
I4
ssg63
g900
sg56
(lp907
S'49460'
p908
asbasbasbag49
(g65
g51
NtRp909
(dp910
g54
(dp911
sg63
g423
sg56
(lp912
g49
(g70
g51
NtRp913
(dp914
g54
(dp915
g74
g75
ssg63
g909
sg56
(lp916
S'request_method'
p917
asbag49
(g70
g51
NtRp918
(dp919
g54
(dp920
g81
g82
ssg63
g909
sg56
(lp921
S':'
asbag49
(g70
g51
NtRp922
(dp923
g54
(dp924
sg63
g909
sg56
(lp925
g49
(g50
g51
NtRp926
(dp927
g54
(dp928
g62
I4
ssg63
g922
sg56
(lp929
S'GET'
p930
asbasbasbag49
(g65
g51
NtRp931
(dp932
g54
(dp933
sg63
g423
sg56
(lp934
g49
(g70
g51
NtRp935
(dp936
g54
(dp937
g74
g75
ssg63
g931
sg56
(lp938
S'script_name'
p939
asbag49
(g70
g51
NtRp940
(dp941
g54
(dp942
g81
g82
ssg63
g931
sg56
(lp943
S':'
asbag49
(g70
g51
NtRp944
(dp945
g54
(dp946
sg63
g931
sg56
(lp947
g49
(g50
g51
NtRp948
(dp949
g54
(dp950
g62
I4
ssg63
g944
sg56
(lp951
S''
asbasbasbag49
(g65
g51
NtRp952
(dp953
g54
(dp954
sg63
g423
sg56
(lp955
g49
(g70
g51
NtRp956
(dp957
g54
(dp958
g74
g75
ssg63
g952
sg56
(lp959
S'server_name'
p960
asbag49
(g70
g51
NtRp961
(dp962
g54
(dp963
g81
g82
ssg63
g952
sg56
(lp964
S':'
asbag49
(g70
g51
NtRp965
(dp966
g54
(dp967
sg63
g952
sg56
(lp968
g49
(g50
g51
NtRp969
(dp970
g54
(dp971
g62
I4
ssg63
g965
sg56
(lp972
S'Batou'
p973
asbasbasbag49
(g65
g51
NtRp974
(dp975
g54
(dp976
sg63
g423
sg56
(lp977
g49
(g70
g51
NtRp978
(dp979
g54
(dp980
g74
g75
ssg63
g974
sg56
(lp981
S'server_port'
p982
asbag49
(g70
g51
NtRp983
(dp984
g54
(dp985
g81
g82
ssg63
g974
sg56
(lp986
S':'
asbag49
(g70
g51
NtRp987
(dp988
g54
(dp989
sg63
g974
sg56
(lp990
g49
(g50
g51
NtRp991
(dp992
g54
(dp993
g62
I4
ssg63
g987
sg56
(lp994
S'8000'
p995
asbasbasbag49
(g65
g51
NtRp996
(dp997
g54
(dp998
sg63
g423
sg56
(lp999
g49
(g70
g51
NtRp1000
(dp1001
g54
(dp1002
g74
g75
ssg63
g996
sg56
(lp1003
S'server_protocol'
p1004
asbag49
(g70
g51
NtRp1005
(dp1006
g54
(dp1007
g81
g82
ssg63
g996
sg56
(lp1008
S':'
asbag49
(g70
g51
NtRp1009
(dp1010
g54
(dp1011
sg63
g996
sg56
(lp1012
g49
(g50
g51
NtRp1013
(dp1014
g54
(dp1015
g62
I4
ssg63
g1009
sg56
(lp1016
S'HTTP/1.1'
p1017
asbasbasbag49
(g65
g51
NtRp1018
(dp1019
g54
(dp1020
sg63
g423
sg56
(lp1021
g49
(g70
g51
NtRp1022
(dp1023
g54
(dp1024
g74
g75
ssg63
g1018
sg56
(lp1025
S'server_software'
p1026
asbag49
(g70
g51
NtRp1027
(dp1028
g54
(dp1029
g81
g82
ssg63
g1018
sg56
(lp1030
S':'
asbag49
(g70
g51
NtRp1031
(dp1032
g54
(dp1033
sg63
g1018
sg56
(lp1034
g49
(g50
g51
NtRp1035
(dp1036
g54
(dp1037
g62
I4
ssg63
g1031
sg56
(lp1038
S'Rocket 1.2.4'
p1039
asbasbasbag49
(g65
g51
NtRp1040
(dp1041
g54
(dp1042
sg63
g423
sg56
(lp1043
g49
(g70
g51
NtRp1044
(dp1045
g54
(dp1046
g74
g75
ssg63
g1040
sg56
(lp1047
S'web2py_crontype'
p1048
asbag49
(g70
g51
NtRp1049
(dp1050
g54
(dp1051
g81
g82
ssg63
g1040
sg56
(lp1052
S':'
asbag49
(g70
g51
NtRp1053
(dp1054
g54
(dp1055
sg63
g1040
sg56
(lp1056
g49
(g50
g51
NtRp1057
(dp1058
g54
(dp1059
g62
I4
ssg63
g1053
sg56
(lp1060
S'hard'
p1061
asbasbasbag49
(g65
g51
NtRp1062
(dp1063
g54
(dp1064
sg63
g423
sg56
(lp1065
g49
(g70
g51
NtRp1066
(dp1067
g54
(dp1068
g74
g75
ssg63
g1062
sg56
(lp1069
S'web2py_path'
p1070
asbag49
(g70
g51
NtRp1071
(dp1072
g54
(dp1073
g81
g82
ssg63
g1062
sg56
(lp1074
S':'
asbag49
(g70
g51
NtRp1075
(dp1076
g54
(dp1077
sg63
g1062
sg56
(lp1078
g49
(g50
g51
NtRp1079
(dp1080
g54
(dp1081
g62
I4
ssg63
g1075
sg56
(lp1082
g470
asbasbasbag49
(g65
g51
NtRp1083
(dp1084
g54
(dp1085
sg63
g423
sg56
(lp1086
g49
(g70
g51
NtRp1087
(dp1088
g54
(dp1089
g74
g75
ssg63
g1083
sg56
(lp1090
S'web2py_version'
p1091
asbag49
(g70
g51
NtRp1092
(dp1093
g54
(dp1094
g81
g82
ssg63
g1083
sg56
(lp1095
S':'
asbag49
(g70
g51
NtRp1096
(dp1097
g54
(dp1098
sg63
g1083
sg56
(lp1099
g49
(g50
g51
NtRp1100
(dp1101
g54
(dp1102
g62
I4
ssg63
g1096
sg56
(lp1103
g49
(g58
g51
NtRp1104
(dp1105
g54
(dp1106
g62
I3
ssg63
Nsg56
(lp1107
g49
(g65
g51
NtRp1108
(dp1109
g54
(dp1110
sg63
g1104
sg56
(lp1111
g49
(g70
g51
NtRp1112
(dp1113
g54
(dp1114
sg63
g1108
sg56
(lp1115
g49
(g50
g51
NtRp1116
(dp1117
g54
(dp1118
g62
I3
ssg63
g1112
sg56
(lp1119
S'1'
asbasbasbag49
(g65
g51
NtRp1120
(dp1121
g54
(dp1122
sg63
g1104
sg56
(lp1123
g49
(g70
g51
NtRp1124
(dp1125
g54
(dp1126
sg63
g1120
sg56
(lp1127
g49
(g50
g51
NtRp1128
(dp1129
g54
(dp1130
g62
I3
ssg63
g1124
sg56
(lp1131
S'99'
p1132
asbasbasbag49
(g65
g51
NtRp1133
(dp1134
g54
(dp1135
sg63
g1104
sg56
(lp1136
g49
(g70
g51
NtRp1137
(dp1138
g54
(dp1139
sg63
g1133
sg56
(lp1140
g49
(g50
g51
NtRp1141
(dp1142
g54
(dp1143
g62
I3
ssg63
g1137
sg56
(lp1144
S'7'
asbasbasbag49
(g65
g51
NtRp1145
(dp1146
g54
(dp1147
sg63
g1104
sg56
(lp1148
g49
(g70
g51
NtRp1149
(dp1150
g54
(dp1151
sg63
g1145
sg56
(lp1152
g49
(g50
g51
NtRp1153
(dp1154
g54
(dp1155
g62
I3
ssg63
g1149
sg56
(lp1156
S'datetime.datetime(2012, 3, 4, 22, 12, 8)'
p1157
asbasbasbag49
(g65
g51
NtRp1158
(dp1159
g54
(dp1160
sg63
g1104
sg56
(lp1161
g49
(g70
g51
NtRp1162
(dp1163
g54
(dp1164
sg63
g1158
sg56
(lp1165
g49
(g50
g51
NtRp1166
(dp1167
g54
(dp1168
g62
I3
ssg63
g1162
sg56
(lp1169
S'stable'
p1170
asbasbasbasbasbasbasbag49
(g65
g51
NtRp1171
(dp1172
g54
(dp1173
sg63
g423
sg56
(lp1174
g49
(g70
g51
NtRp1175
(dp1176
g54
(dp1177
g74
g75
ssg63
g1171
sg56
(lp1178
S'wsgi_errors'
p1179
asbag49
(g70
g51
NtRp1180
(dp1181
g54
(dp1182
g81
g82
ssg63
g1171
sg56
(lp1183
S':'
asbag49
(g70
g51
NtRp1184
(dp1185
g54
(dp1186
sg63
g1171
sg56
(lp1187
g49
(g50
g51
NtRp1188
(dp1189
g54
(dp1190
g62
I4
ssg63
g1184
sg56
(lp1191
S"<open file '<stderr>', mode 'w' at 0x006500B0>"
p1192
asbasbasbag49
(g65
g51
NtRp1193
(dp1194
g54
(dp1195
sg63
g423
sg56
(lp1196
g49
(g70
g51
NtRp1197
(dp1198
g54
(dp1199
g74
g75
ssg63
g1193
sg56
(lp1200
S'wsgi_file_wrapper'
p1201
asbag49
(g70
g51
NtRp1202
(dp1203
g54
(dp1204
g81
g82
ssg63
g1193
sg56
(lp1205
S':'
asbag49
(g70
g51
NtRp1206
(dp1207
g54
(dp1208
sg63
g1193
sg56
(lp1209
g49
(g50
g51
NtRp1210
(dp1211
g54
(dp1212
g62
I4
ssg63
g1206
sg56
(lp1213
S'<class wsgiref.util.FileWrapper at 0x02BF68D0>'
p1214
asbasbasbag49
(g65
g51
NtRp1215
(dp1216
g54
(dp1217
sg63
g423
sg56
(lp1218
g49
(g70
g51
NtRp1219
(dp1220
g54
(dp1221
g74
g75
ssg63
g1215
sg56
(lp1222
S'wsgi_input'
p1223
asbag49
(g70
g51
NtRp1224
(dp1225
g54
(dp1226
g81
g82
ssg63
g1215
sg56
(lp1227
S':'
asbag49
(g70
g51
NtRp1228
(dp1229
g54
(dp1230
sg63
g1215
sg56
(lp1231
g49
(g50
g51
NtRp1232
(dp1233
g54
(dp1234
g62
I4
ssg63
g1228
sg56
(lp1235
S'<socket._fileobject object at 0x03D0CA70>'
p1236
asbasbasbag49
(g65
g51
NtRp1237
(dp1238
g54
(dp1239
sg63
g423
sg56
(lp1240
g49
(g70
g51
NtRp1241
(dp1242
g54
(dp1243
g74
g75
ssg63
g1237
sg56
(lp1244
S'wsgi_multiprocess'
p1245
asbag49
(g70
g51
NtRp1246
(dp1247
g54
(dp1248
g81
g82
ssg63
g1237
sg56
(lp1249
S':'
asbag49
(g70
g51
NtRp1250
(dp1251
g54
(dp1252
sg63
g1237
sg56
(lp1253
g49
(g50
g51
NtRp1254
(dp1255
g54
(dp1256
g62
I4
ssg63
g1250
sg56
(lp1257
g92
asbasbasbag49
(g65
g51
NtRp1258
(dp1259
g54
(dp1260
sg63
g423
sg56
(lp1261
g49
(g70
g51
NtRp1262
(dp1263
g54
(dp1264
g74
g75
ssg63
g1258
sg56
(lp1265
S'wsgi_multithread'
p1266
asbag49
(g70
g51
NtRp1267
(dp1268
g54
(dp1269
g81
g82
ssg63
g1258
sg56
(lp1270
S':'
asbag49
(g70
g51
NtRp1271
(dp1272
g54
(dp1273
sg63
g1258
sg56
(lp1274
g49
(g50
g51
NtRp1275
(dp1276
g54
(dp1277
g62
I4
ssg63
g1271
sg56
(lp1278
g561
asbasbasbag49
(g65
g51
NtRp1279
(dp1280
g54
(dp1281
sg63
g423
sg56
(lp1282
g49
(g70
g51
NtRp1283
(dp1284
g54
(dp1285
g74
g75
ssg63
g1279
sg56
(lp1286
S'wsgi_run_once'
p1287
asbag49
(g70
g51
NtRp1288
(dp1289
g54
(dp1290
g81
g82
ssg63
g1279
sg56
(lp1291
S':'
asbag49
(g70
g51
NtRp1292
(dp1293
g54
(dp1294
sg63
g1279
sg56
(lp1295
g49
(g50
g51
NtRp1296
(dp1297
g54
(dp1298
g62
I4
ssg63
g1292
sg56
(lp1299
g92
asbasbasbag49
(g65
g51
NtRp1300
(dp1301
g54
(dp1302
sg63
g423
sg56
(lp1303
g49
(g70
g51
NtRp1304
(dp1305
g54
(dp1306
g74
g75
ssg63
g1300
sg56
(lp1307
S'wsgi_url_scheme'
p1308
asbag49
(g70
g51
NtRp1309
(dp1310
g54
(dp1311
g81
g82
ssg63
g1300
sg56
(lp1312
S':'
asbag49
(g70
g51
NtRp1313
(dp1314
g54
(dp1315
sg63
g1300
sg56
(lp1316
g49
(g50
g51
NtRp1317
(dp1318
g54
(dp1319
g62
I4
ssg63
g1313
sg56
(lp1320
S'http'
p1321
asbasbasbag49
(g65
g51
NtRp1322
(dp1323
g54
(dp1324
sg63
g423
sg56
(lp1325
g49
(g70
g51
NtRp1326
(dp1327
g54
(dp1328
g74
g75
ssg63
g1322
sg56
(lp1329
S'wsgi_version'
p1330
asbag49
(g70
g51
NtRp1331
(dp1332
g54
(dp1333
g81
g82
ssg63
g1322
sg56
(lp1334
S':'
asbag49
(g70
g51
NtRp1335
(dp1336
g54
(dp1337
sg63
g1322
sg56
(lp1338
g49
(g50
g51
NtRp1339
(dp1340
g54
(dp1341
g62
I4
ssg63
g1335
sg56
(lp1342
g49
(g58
g51
NtRp1343
(dp1344
g54
(dp1345
g62
I3
ssg63
Nsg56
(lp1346
g49
(g65
g51
NtRp1347
(dp1348
g54
(dp1349
sg63
g1343
sg56
(lp1350
g49
(g70
g51
NtRp1351
(dp1352
g54
(dp1353
sg63
g1347
sg56
(lp1354
g49
(g50
g51
NtRp1355
(dp1356
g54
(dp1357
g62
I3
ssg63
g1351
sg56
(lp1358
S'1'
asbasbasbag49
(g65
g51
NtRp1359
(dp1360
g54
(dp1361
sg63
g1343
sg56
(lp1362
g49
(g70
g51
NtRp1363
(dp1364
g54
(dp1365
sg63
g1359
sg56
(lp1366
g49
(g50
g51
NtRp1367
(dp1368
g54
(dp1369
g62
I3
ssg63
g1363
sg56
(lp1370
S'0'
asbasbasbasbasbasbasbasbasbasbasbag49
(g65
g51
NtRp1371
(dp1372
g54
(dp1373
sg63
g59
sg56
(lp1374
g49
(g70
g51
NtRp1375
(dp1376
g54
(dp1377
g74
g75
ssg63
g1371
sg56
(lp1378
S'extension'
p1379
asbag49
(g70
g51
NtRp1380
(dp1381
g54
(dp1382
g81
g82
ssg63
g1371
sg56
(lp1383
S':'
asbag49
(g70
g51
NtRp1384
(dp1385
g54
(dp1386
sg63
g1371
sg56
(lp1387
g49
(g50
g51
NtRp1388
(dp1389
g54
(dp1390
g62
I5
ssg63
g1384
sg56
(lp1391
S'html'
p1392
asbasbasbag49
(g65
g51
NtRp1393
(dp1394
g54
(dp1395
sg63
g59
sg56
(lp1396
g49
(g70
g51
NtRp1397
(dp1398
g54
(dp1399
g74
g75
ssg63
g1393
sg56
(lp1400
S'folder'
p1401
asbag49
(g70
g51
NtRp1402
(dp1403
g54
(dp1404
g81
g82
ssg63
g1393
sg56
(lp1405
S':'
asbag49
(g70
g51
NtRp1406
(dp1407
g54
(dp1408
sg63
g1393
sg56
(lp1409
g49
(g50
g51
NtRp1410
(dp1411
g54
(dp1412
g62
I5
ssg63
g1406
sg56
(lp1413
S'C:\\Users\\Bussiere\\Dropbox\\Projets\\Yuki\\web2py\\applications\\init\\'
p1414
asbasbasbag49
(g65
g51
NtRp1415
(dp1416
g54
(dp1417
sg63
g59
sg56
(lp1418
g49
(g70
g51
NtRp1419
(dp1420
g54
(dp1421
g74
g75
ssg63
g1415
sg56
(lp1422
S'function'
p1423
asbag49
(g70
g51
NtRp1424
(dp1425
g54
(dp1426
g81
g82
ssg63
g1415
sg56
(lp1427
S':'
asbag49
(g70
g51
NtRp1428
(dp1429
g54
(dp1430
sg63
g1415
sg56
(lp1431
g49
(g50
g51
NtRp1432
(dp1433
g54
(dp1434
g62
I5
ssg63
g1428
sg56
(lp1435
S'index'
p1436
asbasbasbag49
(g65
g51
NtRp1437
(dp1438
g54
(dp1439
sg63
g59
sg56
(lp1440
g49
(g70
g51
NtRp1441
(dp1442
g54
(dp1443
g74
g75
ssg63
g1437
sg56
(lp1444
S'get_vars'
p1445
asbag49
(g70
g51
NtRp1446
(dp1447
g54
(dp1448
g81
g82
ssg63
g1437
sg56
(lp1449
S':'
asbag49
(g70
g51
NtRp1450
(dp1451
g54
(dp1452
sg63
g1437
sg56
(lp1453
g49
(g50
g51
NtRp1454
(dp1455
g54
(dp1456
g62
I5
ssg63
g1450
sg56
(lp1457
g49
(g58
g51
NtRp1458
(dp1459
g54
(dp1460
g62
I4
ssg63
Nsg56
(lp1461
sbasbasbasbag49
(g65
g51
NtRp1462
(dp1463
g54
(dp1464
sg63
g59
sg56
(lp1465
g49
(g70
g51
NtRp1466
(dp1467
g54
(dp1468
g74
g75
ssg63
g1462
sg56
(lp1469
S'global_settings'
p1470
asbag49
(g70
g51
NtRp1471
(dp1472
g54
(dp1473
g81
g82
ssg63
g1462
sg56
(lp1474
S':'
asbag49
(g70
g51
NtRp1475
(dp1476
g54
(dp1477
sg63
g1462
sg56
(lp1478
g49
(g50
g51
NtRp1479
(dp1480
g54
(dp1481
g62
I5
ssg63
g1475
sg56
(lp1482
g49
(g58
g51
NtRp1483
(dp1484
g54
(dp1485
g62
I4
ssg63
Nsg56
(lp1486
g49
(g65
g51
NtRp1487
(dp1488
g54
(dp1489
sg63
g1483
sg56
(lp1490
g49
(g70
g51
NtRp1491
(dp1492
g54
(dp1493
g74
g75
ssg63
g1487
sg56
(lp1494
g435
asbag49
(g70
g51
NtRp1495
(dp1496
g54
(dp1497
g81
g82
ssg63
g1487
sg56
(lp1498
S':'
asbag49
(g70
g51
NtRp1499
(dp1500
g54
(dp1501
sg63
g1487
sg56
(lp1502
g49
(g50
g51
NtRp1503
(dp1504
g54
(dp1505
g62
I4
ssg63
g1499
sg56
(lp1506
S"set(['C:\\\\Users\\\\Bussiere\\\\Dropbox\\\\Projets\\\\Yuki\\\\web2py\\\\applications\\\\init\\\\', 'C:\\\\Users\\\\Bussiere\\\\Dropbox\\\\Projets\\\\Yuki\\\\web2py\\\\applications\\\\admin\\\\'])"
p1507
asbasbasbag49
(g65
g51
NtRp1508
(dp1509
g54
(dp1510
sg63
g1483
sg56
(lp1511
g49
(g70
g51
NtRp1512
(dp1513
g54
(dp1514
g74
g75
ssg63
g1508
sg56
(lp1515
g457
asbag49
(g70
g51
NtRp1516
(dp1517
g54
(dp1518
g81
g82
ssg63
g1508
sg56
(lp1519
S':'
asbag49
(g70
g51
NtRp1520
(dp1521
g54
(dp1522
sg63
g1508
sg56
(lp1523
g49
(g50
g51
NtRp1524
(dp1525
g54
(dp1526
g62
I4
ssg63
g1520
sg56
(lp1527
g470
asbasbasbag49
(g65
g51
NtRp1528
(dp1529
g54
(dp1530
sg63
g1483
sg56
(lp1531
g49
(g70
g51
NtRp1532
(dp1533
g54
(dp1534
g74
g75
ssg63
g1528
sg56
(lp1535
g479
asbag49
(g70
g51
NtRp1536
(dp1537
g54
(dp1538
g81
g82
ssg63
g1528
sg56
(lp1539
S':'
asbag49
(g70
g51
NtRp1540
(dp1541
g54
(dp1542
sg63
g1528
sg56
(lp1543
g49
(g50
g51
NtRp1544
(dp1545
g54
(dp1546
g62
I4
ssg63
g1540
sg56
(lp1547
g49
(g58
g51
NtRp1548
(dp1549
g54
(dp1550
g62
I3
ssg63
Nsg56
(lp1551
sbasbasbasbag49
(g65
g51
NtRp1552
(dp1553
g54
(dp1554
sg63
g1483
sg56
(lp1555
g49
(g70
g51
NtRp1556
(dp1557
g54
(dp1558
g74
g75
ssg63
g1552
sg56
(lp1559
g504
asbag49
(g70
g51
NtRp1560
(dp1561
g54
(dp1562
g81
g82
ssg63
g1552
sg56
(lp1563
S':'
asbag49
(g70
g51
NtRp1564
(dp1565
g54
(dp1566
sg63
g1552
sg56
(lp1567
g49
(g50
g51
NtRp1568
(dp1569
g54
(dp1570
g62
I4
ssg63
g1564
sg56
(lp1571
S"<Values at 0x3b54f58: {'verbose': False, 'ip': '127.0.0.1', 'shutdown_timeout': 5, 'taskbar': False, 'nocron': False, 'pid_filename': 'httpserver.pid', 'maxthreads': None, 'softcron': False, 'server_name': 'Batou', 'bpython': False, 'nogui': False, 'port': 8000, 'extcron': False, 'debuglevel': 30, 'test': None, 'folder': 'C:\\\\Users\\\\Bussiere\\\\Dropbox\\\\Projets\\\\Yuki\\\\web2py', 'config': '', 'import_models': False, 'winservice': '', 'shell': None, 'run': '', 'log_filename': 'httpserver.log', 'args': [''], 'socket_timeout': 5, 'ssl_ca_certificate': None, 'scheduler': None, 'profiler_filename': None, 'ssl_private_key': '', 'password': '<ask>', 'request_queue_size': 5, 'ssl_certificate': '', 'cronjob': False, 'numthreads': None, 'quiet': False, 'interfaces': None, 'minthreads': None, 'timeout': 10, 'plain': False, 'nobanner': False}>"
p1572
asbasbasbag49
(g65
g51
NtRp1573
(dp1574
g54
(dp1575
sg63
g1483
sg56
(lp1576
g49
(g70
g51
NtRp1577
(dp1578
g54
(dp1579
g74
g75
ssg63
g1573
sg56
(lp1580
g526
asbag49
(g70
g51
NtRp1581
(dp1582
g54
(dp1583
g81
g82
ssg63
g1573
sg56
(lp1584
S':'
asbag49
(g70
g51
NtRp1585
(dp1586
g54
(dp1587
sg63
g1573
sg56
(lp1588
g49
(g50
g51
NtRp1589
(dp1590
g54
(dp1591
g62
I4
ssg63
g1585
sg56
(lp1592
S'set([])'
p1593
asbasbasbag49
(g65
g51
NtRp1594
(dp1595
g54
(dp1596
sg63
g1483
sg56
(lp1597
g49
(g70
g51
NtRp1598
(dp1599
g54
(dp1600
g74
g75
ssg63
g1594
sg56
(lp1601
g548
asbag49
(g70
g51
NtRp1602
(dp1603
g54
(dp1604
g81
g82
ssg63
g1594
sg56
(lp1605
S':'
asbag49
(g70
g51
NtRp1606
(dp1607
g54
(dp1608
sg63
g1594
sg56
(lp1609
g49
(g50
g51
NtRp1610
(dp1611
g54
(dp1612
g62
I4
ssg63
g1606
sg56
(lp1613
g561
asbasbasbag49
(g65
g51
NtRp1614
(dp1615
g54
(dp1616
sg63
g1483
sg56
(lp1617
g49
(g70
g51
NtRp1618
(dp1619
g54
(dp1620
g74
g75
ssg63
g1614
sg56
(lp1621
g570
asbag49
(g70
g51
NtRp1622
(dp1623
g54
(dp1624
g81
g82
ssg63
g1614
sg56
(lp1625
S':'
asbag49
(g70
g51
NtRp1626
(dp1627
g54
(dp1628
sg63
g1614
sg56
(lp1629
g49
(g50
g51
NtRp1630
(dp1631
g54
(dp1632
g62
I4
ssg63
g1626
sg56
(lp1633
g583
asbasbasbag49
(g65
g51
NtRp1634
(dp1635
g54
(dp1636
sg63
g1483
sg56
(lp1637
g49
(g70
g51
NtRp1638
(dp1639
g54
(dp1640
g74
g75
ssg63
g1634
sg56
(lp1641
g790
asbag49
(g70
g51
NtRp1642
(dp1643
g54
(dp1644
g81
g82
ssg63
g1634
sg56
(lp1645
S':'
asbag49
(g70
g51
NtRp1646
(dp1647
g54
(dp1648
sg63
g1634
sg56
(lp1649
g49
(g50
g51
NtRp1650
(dp1651
g54
(dp1652
g62
I4
ssg63
g1646
sg56
(lp1653
g92
asbasbasbag49
(g65
g51
NtRp1654
(dp1655
g54
(dp1656
sg63
g1483
sg56
(lp1657
g49
(g70
g51
NtRp1658
(dp1659
g54
(dp1660
g74
g75
ssg63
g1654
sg56
(lp1661
g811
asbag49
(g70
g51
NtRp1662
(dp1663
g54
(dp1664
g81
g82
ssg63
g1654
sg56
(lp1665
S':'
asbag49
(g70
g51
NtRp1666
(dp1667
g54
(dp1668
sg63
g1654
sg56
(lp1669
g49
(g50
g51
NtRp1670
(dp1671
g54
(dp1672
g62
I4
ssg63
g1666
sg56
(lp1673
g92
asbasbasbag49
(g65
g51
NtRp1674
(dp1675
g54
(dp1676
sg63
g1483
sg56
(lp1677
g49
(g70
g51
NtRp1678
(dp1679
g54
(dp1680
g74
g75
ssg63
g1674
sg56
(lp1681
g1048
asbag49
(g70
g51
NtRp1682
(dp1683
g54
(dp1684
g81
g82
ssg63
g1674
sg56
(lp1685
S':'
asbag49
(g70
g51
NtRp1686
(dp1687
g54
(dp1688
sg63
g1674
sg56
(lp1689
g49
(g50
g51
NtRp1690
(dp1691
g54
(dp1692
g62
I4
ssg63
g1686
sg56
(lp1693
g1061
asbasbasbag49
(g65
g51
NtRp1694
(dp1695
g54
(dp1696
sg63
g1483
sg56
(lp1697
g49
(g70
g51
NtRp1698
(dp1699
g54
(dp1700
g74
g75
ssg63
g1694
sg56
(lp1701
g1091
asbag49
(g70
g51
NtRp1702
(dp1703
g54
(dp1704
g81
g82
ssg63
g1694
sg56
(lp1705
S':'
asbag49
(g70
g51
NtRp1706
(dp1707
g54
(dp1708
sg63
g1694
sg56
(lp1709
g49
(g50
g51
NtRp1710
(dp1711
g54
(dp1712
g62
I4
ssg63
g1706
sg56
(lp1713
g49
(g58
g51
NtRp1714
(dp1715
g54
(dp1716
g62
I3
ssg63
Nsg56
(lp1717
g49
(g65
g51
NtRp1718
(dp1719
g54
(dp1720
sg63
g1714
sg56
(lp1721
g49
(g70
g51
NtRp1722
(dp1723
g54
(dp1724
sg63
g1718
sg56
(lp1725
g49
(g50
g51
NtRp1726
(dp1727
g54
(dp1728
g62
I3
ssg63
g1722
sg56
(lp1729
S'1'
asbasbasbag49
(g65
g51
NtRp1730
(dp1731
g54
(dp1732
sg63
g1714
sg56
(lp1733
g49
(g70
g51
NtRp1734
(dp1735
g54
(dp1736
sg63
g1730
sg56
(lp1737
g49
(g50
g51
NtRp1738
(dp1739
g54
(dp1740
g62
I3
ssg63
g1734
sg56
(lp1741
S'99'
p1742
asbasbasbag49
(g65
g51
NtRp1743
(dp1744
g54
(dp1745
sg63
g1714
sg56
(lp1746
g49
(g70
g51
NtRp1747
(dp1748
g54
(dp1749
sg63
g1743
sg56
(lp1750
g49
(g50
g51
NtRp1751
(dp1752
g54
(dp1753
g62
I3
ssg63
g1747
sg56
(lp1754
S'7'
asbasbasbag49
(g65
g51
NtRp1755
(dp1756
g54
(dp1757
sg63
g1714
sg56
(lp1758
g49
(g70
g51
NtRp1759
(dp1760
g54
(dp1761
sg63
g1755
sg56
(lp1762
g49
(g50
g51
NtRp1763
(dp1764
g54
(dp1765
g62
I3
ssg63
g1759
sg56
(lp1766
S'datetime.datetime(2012, 3, 4, 22, 12, 8)'
p1767
asbasbasbag49
(g65
g51
NtRp1768
(dp1769
g54
(dp1770
sg63
g1714
sg56
(lp1771
g49
(g70
g51
NtRp1772
(dp1773
g54
(dp1774
sg63
g1768
sg56
(lp1775
g49
(g50
g51
NtRp1776
(dp1777
g54
(dp1778
g62
I3
ssg63
g1772
sg56
(lp1779
g1170
asbasbasbasbasbasbasbasbasbasbasbag49
(g65
g51
NtRp1780
(dp1781
g54
(dp1782
sg63
g59
sg56
(lp1783
g49
(g70
g51
NtRp1784
(dp1785
g54
(dp1786
g74
g75
ssg63
g1780
sg56
(lp1787
S'is_https'
p1788
asbag49
(g70
g51
NtRp1789
(dp1790
g54
(dp1791
g81
g82
ssg63
g1780
sg56
(lp1792
S':'
asbag49
(g70
g51
NtRp1793
(dp1794
g54
(dp1795
sg63
g1780
sg56
(lp1796
g49
(g50
g51
NtRp1797
(dp1798
g54
(dp1799
g62
I5
ssg63
g1793
sg56
(lp1800
g92
asbasbasbag49
(g65
g51
NtRp1801
(dp1802
g54
(dp1803
sg63
g59
sg56
(lp1804
g49
(g70
g51
NtRp1805
(dp1806
g54
(dp1807
g74
g75
ssg63
g1801
sg56
(lp1808
S'is_local'
p1809
asbag49
(g70
g51
NtRp1810
(dp1811
g54
(dp1812
g81
g82
ssg63
g1801
sg56
(lp1813
S':'
asbag49
(g70
g51
NtRp1814
(dp1815
g54
(dp1816
sg63
g1801
sg56
(lp1817
g49
(g50
g51
NtRp1818
(dp1819
g54
(dp1820
g62
I5
ssg63
g1814
sg56
(lp1821
g561
asbasbasbag49
(g65
g51
NtRp1822
(dp1823
g54
(dp1824
sg63
g59
sg56
(lp1825
g49
(g70
g51
NtRp1826
(dp1827
g54
(dp1828
g74
g75
ssg63
g1822
sg56
(lp1829
S'is_restful'
p1830
asbag49
(g70
g51
NtRp1831
(dp1832
g54
(dp1833
g81
g82
ssg63
g1822
sg56
(lp1834
S':'
asbag49
(g70
g51
NtRp1835
(dp1836
g54
(dp1837
sg63
g1822
sg56
(lp1838
g49
(g50
g51
NtRp1839
(dp1840
g54
(dp1841
g62
I5
ssg63
g1835
sg56
(lp1842
g92
asbasbasbag49
(g65
g51
NtRp1843
(dp1844
g54
(dp1845
sg63
g59
sg56
(lp1846
g49
(g70
g51
NtRp1847
(dp1848
g54
(dp1849
g74
g75
ssg63
g1843
sg56
(lp1850
S'now'
p1851
asbag49
(g70
g51
NtRp1852
(dp1853
g54
(dp1854
g81
g82
ssg63
g1843
sg56
(lp1855
S':'
asbag49
(g70
g51
NtRp1856
(dp1857
g54
(dp1858
sg63
g1843
sg56
(lp1859
g49
(g50
g51
NtRp1860
(dp1861
g54
(dp1862
g62
I5
ssg63
g1856
sg56
(lp1863
S'datetime.datetime(2012, 3, 11, 10, 2, 3, 440000)'
p1864
asbasbasbag49
(g65
g51
NtRp1865
(dp1866
g54
(dp1867
sg63
g59
sg56
(lp1868
g49
(g70
g51
NtRp1869
(dp1870
g54
(dp1871
g74
g75
ssg63
g1865
sg56
(lp1872
S'post_vars'
p1873
asbag49
(g70
g51
NtRp1874
(dp1875
g54
(dp1876
g81
g82
ssg63
g1865
sg56
(lp1877
S':'
asbag49
(g70
g51
NtRp1878
(dp1879
g54
(dp1880
sg63
g1865
sg56
(lp1881
g49
(g50
g51
NtRp1882
(dp1883
g54
(dp1884
g62
I5
ssg63
g1878
sg56
(lp1885
g49
(g58
g51
NtRp1886
(dp1887
g54
(dp1888
g62
I4
ssg63
Nsg56
(lp1889
sbasbasbasbag49
(g65
g51
NtRp1890
(dp1891
g54
(dp1892
sg63
g59
sg56
(lp1893
g49
(g70
g51
NtRp1894
(dp1895
g54
(dp1896
g74
g75
ssg63
g1890
sg56
(lp1897
S'url'
p1898
asbag49
(g70
g51
NtRp1899
(dp1900
g54
(dp1901
g81
g82
ssg63
g1890
sg56
(lp1902
S':'
asbag49
(g70
g51
NtRp1903
(dp1904
g54
(dp1905
sg63
g1890
sg56
(lp1906
g49
(g50
g51
NtRp1907
(dp1908
g54
(dp1909
g62
I5
ssg63
g1903
sg56
(lp1910
S'/init/default/index'
p1911
asbasbasbag49
(g65
g51
NtRp1912
(dp1913
g54
(dp1914
sg63
g59
sg56
(lp1915
g49
(g70
g51
NtRp1916
(dp1917
g54
(dp1918
g74
g75
ssg63
g1912
sg56
(lp1919
S'utcnow'
p1920
asbag49
(g70
g51
NtRp1921
(dp1922
g54
(dp1923
g81
g82
ssg63
g1912
sg56
(lp1924
S':'
asbag49
(g70
g51
NtRp1925
(dp1926
g54
(dp1927
sg63
g1912
sg56
(lp1928
g49
(g50
g51
NtRp1929
(dp1930
g54
(dp1931
g62
I5
ssg63
g1925
sg56
(lp1932
S'datetime.datetime(2012, 3, 11, 9, 2, 3, 440000)'
p1933
asbasbasbag49
(g65
g51
NtRp1934
(dp1935
g54
(dp1936
sg63
g59
sg56
(lp1937
g49
(g70
g51
NtRp1938
(dp1939
g54
(dp1940
g74
g75
ssg63
g1934
sg56
(lp1941
S'uuid'
p1942
asbag49
(g70
g51
NtRp1943
(dp1944
g54
(dp1945
g81
g82
ssg63
g1934
sg56
(lp1946
S':'
asbag49
(g70
g51
NtRp1947
(dp1948
g54
(dp1949
sg63
g1934
sg56
(lp1950
g49
(g50
g51
NtRp1951
(dp1952
g54
(dp1953
g62
I5
ssg63
g1947
sg56
(lp1954
S'init/127.0.0.1.2012-03-11.10-02-03.af8b8061-22c7-4723-baca-d876520294da'
p1955
asbasbasbag49
(g65
g51
NtRp1956
(dp1957
g54
(dp1958
sg63
g59
sg56
(lp1959
g49
(g70
g51
NtRp1960
(dp1961
g54
(dp1962
g74
g75
ssg63
g1956
sg56
(lp1963
S'vars'
p1964
asbag49
(g70
g51
NtRp1965
(dp1966
g54
(dp1967
g81
g82
ssg63
g1956
sg56
(lp1968
S':'
asbag49
(g70
g51
NtRp1969
(dp1970
g54
(dp1971
sg63
g1956
sg56
(lp1972
g49
(g50
g51
NtRp1973
(dp1974
g54
(dp1975
g62
I5
ssg63
g1969
sg56
(lp1976
g49
(g58
g51
NtRp1977
(dp1978
g54
(dp1979
g62
I4
ssg63
Nsg56
(lp1980
sbasbasbasbag49
(g65
g51
NtRp1981
(dp1982
g54
(dp1983
sg63
g59
sg56
(lp1984
g49
(g70
g51
NtRp1985
(dp1986
g54
(dp1987
g74
g75
ssg63
g1981
sg56
(lp1988
S'wsgi'
p1989
asbag49
(g70
g51
NtRp1990
(dp1991
g54
(dp1992
g81
g82
ssg63
g1981
sg56
(lp1993
S':'
asbag49
(g70
g51
NtRp1994
(dp1995
g54
(dp1996
sg63
g1981
sg56
(lp1997
g49
(g50
g51
NtRp1998
(dp1999
g54
(dp2000
g62
I5
ssg63
g1994
sg56
(lp2001
g49
(g58
g51
NtRp2002
(dp2003
g54
(dp2004
g62
I4
ssg63
Nsg56
(lp2005
g49
(g65
g51
NtRp2006
(dp2007
g54
(dp2008
sg63
g2002
sg56
(lp2009
g49
(g70
g51
NtRp2010
(dp2011
g54
(dp2012
g74
g75
ssg63
g2006
sg56
(lp2013
S'environ'
p2014
asbag49
(g70
g51
NtRp2015
(dp2016
g54
(dp2017
g81
g82
ssg63
g2006
sg56
(lp2018
S':'
asbag49
(g70
g51
NtRp2019
(dp2020
g54
(dp2021
sg63
g2006
sg56
(lp2022
g49
(g50
g51
NtRp2023
(dp2024
g54
(dp2025
g62
I4
ssg63
g2019
sg56
(lp2026
g49
(g58
g51
NtRp2027
(dp2028
g54
(dp2029
g62
I3
ssg63
Nsg56
(lp2030
g49
(g65
g51
NtRp2031
(dp2032
g54
(dp2033
sg63
g2027
sg56
(lp2034
g49
(g70
g51
NtRp2035
(dp2036
g54
(dp2037
g74
g75
ssg63
g2031
sg56
(lp2038
S'HTTP_ACCEPT'
p2039
asbag49
(g70
g51
NtRp2040
(dp2041
g54
(dp2042
g81
g82
ssg63
g2031
sg56
(lp2043
S':'
asbag49
(g70
g51
NtRp2044
(dp2045
g54
(dp2046
sg63
g2031
sg56
(lp2047
g49
(g50
g51
NtRp2048
(dp2049
g54
(dp2050
g62
I3
ssg63
g2044
sg56
(lp2051
g605
asbasbasbag49
(g65
g51
NtRp2052
(dp2053
g54
(dp2054
sg63
g2027
sg56
(lp2055
g49
(g70
g51
NtRp2056
(dp2057
g54
(dp2058
g74
g75
ssg63
g2052
sg56
(lp2059
S'HTTP_ACCEPT_CHARSET'
p2060
asbag49
(g70
g51
NtRp2061
(dp2062
g54
(dp2063
g81
g82
ssg63
g2052
sg56
(lp2064
S':'
asbag49
(g70
g51
NtRp2065
(dp2066
g54
(dp2067
sg63
g2052
sg56
(lp2068
g49
(g50
g51
NtRp2069
(dp2070
g54
(dp2071
g62
I3
ssg63
g2065
sg56
(lp2072
g627
asbasbasbag49
(g65
g51
NtRp2073
(dp2074
g54
(dp2075
sg63
g2027
sg56
(lp2076
g49
(g70
g51
NtRp2077
(dp2078
g54
(dp2079
g74
g75
ssg63
g2073
sg56
(lp2080
S'HTTP_ACCEPT_ENCODING'
p2081
asbag49
(g70
g51
NtRp2082
(dp2083
g54
(dp2084
g81
g82
ssg63
g2073
sg56
(lp2085
S':'
asbag49
(g70
g51
NtRp2086
(dp2087
g54
(dp2088
sg63
g2073
sg56
(lp2089
g49
(g50
g51
NtRp2090
(dp2091
g54
(dp2092
g62
I3
ssg63
g2086
sg56
(lp2093
g649
asbasbasbag49
(g65
g51
NtRp2094
(dp2095
g54
(dp2096
sg63
g2027
sg56
(lp2097
g49
(g70
g51
NtRp2098
(dp2099
g54
(dp2100
g74
g75
ssg63
g2094
sg56
(lp2101
S'HTTP_ACCEPT_LANGUAGE'
p2102
asbag49
(g70
g51
NtRp2103
(dp2104
g54
(dp2105
g81
g82
ssg63
g2094
sg56
(lp2106
S':'
asbag49
(g70
g51
NtRp2107
(dp2108
g54
(dp2109
sg63
g2094
sg56
(lp2110
g49
(g50
g51
NtRp2111
(dp2112
g54
(dp2113
g62
I3
ssg63
g2107
sg56
(lp2114
g671
asbasbasbag49
(g65
g51
NtRp2115
(dp2116
g54
(dp2117
sg63
g2027
sg56
(lp2118
g49
(g70
g51
NtRp2119
(dp2120
g54
(dp2121
g74
g75
ssg63
g2115
sg56
(lp2122
S'HTTP_CACHE_CONTROL'
p2123
asbag49
(g70
g51
NtRp2124
(dp2125
g54
(dp2126
g81
g82
ssg63
g2115
sg56
(lp2127
S':'
asbag49
(g70
g51
NtRp2128
(dp2129
g54
(dp2130
sg63
g2115
sg56
(lp2131
g49
(g50
g51
NtRp2132
(dp2133
g54
(dp2134
g62
I3
ssg63
g2128
sg56
(lp2135
g693
asbasbasbag49
(g65
g51
NtRp2136
(dp2137
g54
(dp2138
sg63
g2027
sg56
(lp2139
g49
(g70
g51
NtRp2140
(dp2141
g54
(dp2142
g74
g75
ssg63
g2136
sg56
(lp2143
S'HTTP_CONNECTION'
p2144
asbag49
(g70
g51
NtRp2145
(dp2146
g54
(dp2147
g81
g82
ssg63
g2136
sg56
(lp2148
S':'
asbag49
(g70
g51
NtRp2149
(dp2150
g54
(dp2151
sg63
g2136
sg56
(lp2152
g49
(g50
g51
NtRp2153
(dp2154
g54
(dp2155
g62
I3
ssg63
g2149
sg56
(lp2156
g715
asbasbasbag49
(g65
g51
NtRp2157
(dp2158
g54
(dp2159
sg63
g2027
sg56
(lp2160
g49
(g70
g51
NtRp2161
(dp2162
g54
(dp2163
g74
g75
ssg63
g2157
sg56
(lp2164
S'HTTP_COOKIE'
p2165
asbag49
(g70
g51
NtRp2166
(dp2167
g54
(dp2168
g81
g82
ssg63
g2157
sg56
(lp2169
S':'
asbag49
(g70
g51
NtRp2170
(dp2171
g54
(dp2172
sg63
g2157
sg56
(lp2173
g49
(g50
g51
NtRp2174
(dp2175
g54
(dp2176
g62
I3
ssg63
g2170
sg56
(lp2177
g737
asbasbasbag49
(g65
g51
NtRp2178
(dp2179
g54
(dp2180
sg63
g2027
sg56
(lp2181
g49
(g70
g51
NtRp2182
(dp2183
g54
(dp2184
g74
g75
ssg63
g2178
sg56
(lp2185
S'HTTP_HOST'
p2186
asbag49
(g70
g51
NtRp2187
(dp2188
g54
(dp2189
g81
g82
ssg63
g2178
sg56
(lp2190
S':'
asbag49
(g70
g51
NtRp2191
(dp2192
g54
(dp2193
sg63
g2178
sg56
(lp2194
g49
(g50
g51
NtRp2195
(dp2196
g54
(dp2197
g62
I3
ssg63
g2191
sg56
(lp2198
g759
asbasbasbag49
(g65
g51
NtRp2199
(dp2200
g54
(dp2201
sg63
g2027
sg56
(lp2202
g49
(g70
g51
NtRp2203
(dp2204
g54
(dp2205
g74
g75
ssg63
g2199
sg56
(lp2206
S'HTTP_USER_AGENT'
p2207
asbag49
(g70
g51
NtRp2208
(dp2209
g54
(dp2210
g81
g82
ssg63
g2199
sg56
(lp2211
S':'
asbag49
(g70
g51
NtRp2212
(dp2213
g54
(dp2214
sg63
g2199
sg56
(lp2215
g49
(g50
g51
NtRp2216
(dp2217
g54
(dp2218
g62
I3
ssg63
g2212
sg56
(lp2219
g781
asbasbasbag49
(g65
g51
NtRp2220
(dp2221
g54
(dp2222
sg63
g2027
sg56
(lp2223
g49
(g70
g51
NtRp2224
(dp2225
g54
(dp2226
g74
g75
ssg63
g2220
sg56
(lp2227
S'PATH_INFO'
p2228
asbag49
(g70
g51
NtRp2229
(dp2230
g54
(dp2231
g81
g82
ssg63
g2220
sg56
(lp2232
S':'
asbag49
(g70
g51
NtRp2233
(dp2234
g54
(dp2235
sg63
g2220
sg56
(lp2236
g49
(g50
g51
NtRp2237
(dp2238
g54
(dp2239
g62
I3
ssg63
g2233
sg56
(lp2240
S'/'
asbasbasbag49
(g65
g51
NtRp2241
(dp2242
g54
(dp2243
sg63
g2027
sg56
(lp2244
g49
(g70
g51
NtRp2245
(dp2246
g54
(dp2247
g74
g75
ssg63
g2241
sg56
(lp2248
S'QUERY_STRING'
p2249
asbag49
(g70
g51
NtRp2250
(dp2251
g54
(dp2252
g81
g82
ssg63
g2241
sg56
(lp2253
S':'
asbag49
(g70
g51
NtRp2254
(dp2255
g54
(dp2256
sg63
g2241
sg56
(lp2257
g49
(g50
g51
NtRp2258
(dp2259
g54
(dp2260
g62
I3
ssg63
g2254
sg56
(lp2261
S''
asbasbasbag49
(g65
g51
NtRp2262
(dp2263
g54
(dp2264
sg63
g2027
sg56
(lp2265
g49
(g70
g51
NtRp2266
(dp2267
g54
(dp2268
g74
g75
ssg63
g2262
sg56
(lp2269
S'REMOTE_ADDR'
p2270
asbag49
(g70
g51
NtRp2271
(dp2272
g54
(dp2273
g81
g82
ssg63
g2262
sg56
(lp2274
S':'
asbag49
(g70
g51
NtRp2275
(dp2276
g54
(dp2277
sg63
g2262
sg56
(lp2278
g49
(g50
g51
NtRp2279
(dp2280
g54
(dp2281
g62
I3
ssg63
g2275
sg56
(lp2282
g182
asbasbasbag49
(g65
g51
NtRp2283
(dp2284
g54
(dp2285
sg63
g2027
sg56
(lp2286
g49
(g70
g51
NtRp2287
(dp2288
g54
(dp2289
g74
g75
ssg63
g2283
sg56
(lp2290
S'REMOTE_PORT'
p2291
asbag49
(g70
g51
NtRp2292
(dp2293
g54
(dp2294
g81
g82
ssg63
g2283
sg56
(lp2295
S':'
asbag49
(g70
g51
NtRp2296
(dp2297
g54
(dp2298
sg63
g2283
sg56
(lp2299
g49
(g50
g51
NtRp2300
(dp2301
g54
(dp2302
g62
I3
ssg63
g2296
sg56
(lp2303
g908
asbasbasbag49
(g65
g51
NtRp2304
(dp2305
g54
(dp2306
sg63
g2027
sg56
(lp2307
g49
(g70
g51
NtRp2308
(dp2309
g54
(dp2310
g74
g75
ssg63
g2304
sg56
(lp2311
S'REQUEST_METHOD'
p2312
asbag49
(g70
g51
NtRp2313
(dp2314
g54
(dp2315
g81
g82
ssg63
g2304
sg56
(lp2316
S':'
asbag49
(g70
g51
NtRp2317
(dp2318
g54
(dp2319
sg63
g2304
sg56
(lp2320
g49
(g50
g51
NtRp2321
(dp2322
g54
(dp2323
g62
I3
ssg63
g2317
sg56
(lp2324
g930
asbasbasbag49
(g65
g51
NtRp2325
(dp2326
g54
(dp2327
sg63
g2027
sg56
(lp2328
g49
(g70
g51
NtRp2329
(dp2330
g54
(dp2331
g74
g75
ssg63
g2325
sg56
(lp2332
S'SCRIPT_NAME'
p2333
asbag49
(g70
g51
NtRp2334
(dp2335
g54
(dp2336
g81
g82
ssg63
g2325
sg56
(lp2337
S':'
asbag49
(g70
g51
NtRp2338
(dp2339
g54
(dp2340
sg63
g2325
sg56
(lp2341
g49
(g50
g51
NtRp2342
(dp2343
g54
(dp2344
g62
I3
ssg63
g2338
sg56
(lp2345
S''
asbasbasbag49
(g65
g51
NtRp2346
(dp2347
g54
(dp2348
sg63
g2027
sg56
(lp2349
g49
(g70
g51
NtRp2350
(dp2351
g54
(dp2352
g74
g75
ssg63
g2346
sg56
(lp2353
S'SERVER_NAME'
p2354
asbag49
(g70
g51
NtRp2355
(dp2356
g54
(dp2357
g81
g82
ssg63
g2346
sg56
(lp2358
S':'
asbag49
(g70
g51
NtRp2359
(dp2360
g54
(dp2361
sg63
g2346
sg56
(lp2362
g49
(g50
g51
NtRp2363
(dp2364
g54
(dp2365
g62
I3
ssg63
g2359
sg56
(lp2366
g973
asbasbasbag49
(g65
g51
NtRp2367
(dp2368
g54
(dp2369
sg63
g2027
sg56
(lp2370
g49
(g70
g51
NtRp2371
(dp2372
g54
(dp2373
g74
g75
ssg63
g2367
sg56
(lp2374
S'SERVER_PORT'
p2375
asbag49
(g70
g51
NtRp2376
(dp2377
g54
(dp2378
g81
g82
ssg63
g2367
sg56
(lp2379
S':'
asbag49
(g70
g51
NtRp2380
(dp2381
g54
(dp2382
sg63
g2367
sg56
(lp2383
g49
(g50
g51
NtRp2384
(dp2385
g54
(dp2386
g62
I3
ssg63
g2380
sg56
(lp2387
g995
asbasbasbag49
(g65
g51
NtRp2388
(dp2389
g54
(dp2390
sg63
g2027
sg56
(lp2391
g49
(g70
g51
NtRp2392
(dp2393
g54
(dp2394
g74
g75
ssg63
g2388
sg56
(lp2395
S'SERVER_PROTOCOL'
p2396
asbag49
(g70
g51
NtRp2397
(dp2398
g54
(dp2399
g81
g82
ssg63
g2388
sg56
(lp2400
S':'
asbag49
(g70
g51
NtRp2401
(dp2402
g54
(dp2403
sg63
g2388
sg56
(lp2404
g49
(g50
g51
NtRp2405
(dp2406
g54
(dp2407
g62
I3
ssg63
g2401
sg56
(lp2408
g1017
asbasbasbag49
(g65
g51
NtRp2409
(dp2410
g54
(dp2411
sg63
g2027
sg56
(lp2412
g49
(g70
g51
NtRp2413
(dp2414
g54
(dp2415
g74
g75
ssg63
g2409
sg56
(lp2416
S'SERVER_SOFTWARE'
p2417
asbag49
(g70
g51
NtRp2418
(dp2419
g54
(dp2420
g81
g82
ssg63
g2409
sg56
(lp2421
S':'
asbag49
(g70
g51
NtRp2422
(dp2423
g54
(dp2424
sg63
g2409
sg56
(lp2425
g49
(g50
g51
NtRp2426
(dp2427
g54
(dp2428
g62
I3
ssg63
g2422
sg56
(lp2429
g1039
asbasbasbag49
(g65
g51
NtRp2430
(dp2431
g54
(dp2432
sg63
g2027
sg56
(lp2433
g49
(g70
g51
NtRp2434
(dp2435
g54
(dp2436
g74
g75
ssg63
g2430
sg56
(lp2437
S'wsgi.errors'
p2438
asbag49
(g70
g51
NtRp2439
(dp2440
g54
(dp2441
g81
g82
ssg63
g2430
sg56
(lp2442
S':'
asbag49
(g70
g51
NtRp2443
(dp2444
g54
(dp2445
sg63
g2430
sg56
(lp2446
g49
(g50
g51
NtRp2447
(dp2448
g54
(dp2449
g62
I3
ssg63
g2443
sg56
(lp2450
S"<open file '<stderr>', mode 'w' at 0x006500B0>"
p2451
asbasbasbag49
(g65
g51
NtRp2452
(dp2453
g54
(dp2454
sg63
g2027
sg56
(lp2455
g49
(g70
g51
NtRp2456
(dp2457
g54
(dp2458
g74
g75
ssg63
g2452
sg56
(lp2459
S'wsgi.file_wrapper'
p2460
asbag49
(g70
g51
NtRp2461
(dp2462
g54
(dp2463
g81
g82
ssg63
g2452
sg56
(lp2464
S':'
asbag49
(g70
g51
NtRp2465
(dp2466
g54
(dp2467
sg63
g2452
sg56
(lp2468
g49
(g50
g51
NtRp2469
(dp2470
g54
(dp2471
g62
I3
ssg63
g2465
sg56
(lp2472
S'<class wsgiref.util.FileWrapper at 0x02BF68D0>'
p2473
asbasbasbag49
(g65
g51
NtRp2474
(dp2475
g54
(dp2476
sg63
g2027
sg56
(lp2477
g49
(g70
g51
NtRp2478
(dp2479
g54
(dp2480
g74
g75
ssg63
g2474
sg56
(lp2481
S'wsgi.input'
p2482
asbag49
(g70
g51
NtRp2483
(dp2484
g54
(dp2485
g81
g82
ssg63
g2474
sg56
(lp2486
S':'
asbag49
(g70
g51
NtRp2487
(dp2488
g54
(dp2489
sg63
g2474
sg56
(lp2490
g49
(g50
g51
NtRp2491
(dp2492
g54
(dp2493
g62
I3
ssg63
g2487
sg56
(lp2494
S'<cStringIO.StringO object at 0x03E6E120>'
p2495
asbasbasbag49
(g65
g51
NtRp2496
(dp2497
g54
(dp2498
sg63
g2027
sg56
(lp2499
g49
(g70
g51
NtRp2500
(dp2501
g54
(dp2502
g74
g75
ssg63
g2496
sg56
(lp2503
S'wsgi.multiprocess'
p2504
asbag49
(g70
g51
NtRp2505
(dp2506
g54
(dp2507
g81
g82
ssg63
g2496
sg56
(lp2508
S':'
asbag49
(g70
g51
NtRp2509
(dp2510
g54
(dp2511
sg63
g2496
sg56
(lp2512
g49
(g50
g51
NtRp2513
(dp2514
g54
(dp2515
g62
I3
ssg63
g2509
sg56
(lp2516
g92
asbasbasbag49
(g65
g51
NtRp2517
(dp2518
g54
(dp2519
sg63
g2027
sg56
(lp2520
g49
(g70
g51
NtRp2521
(dp2522
g54
(dp2523
g74
g75
ssg63
g2517
sg56
(lp2524
S'wsgi.multithread'
p2525
asbag49
(g70
g51
NtRp2526
(dp2527
g54
(dp2528
g81
g82
ssg63
g2517
sg56
(lp2529
S':'
asbag49
(g70
g51
NtRp2530
(dp2531
g54
(dp2532
sg63
g2517
sg56
(lp2533
g49
(g50
g51
NtRp2534
(dp2535
g54
(dp2536
g62
I3
ssg63
g2530
sg56
(lp2537
g561
asbasbasbag49
(g65
g51
NtRp2538
(dp2539
g54
(dp2540
sg63
g2027
sg56
(lp2541
g49
(g70
g51
NtRp2542
(dp2543
g54
(dp2544
g74
g75
ssg63
g2538
sg56
(lp2545
S'wsgi.run_once'
p2546
asbag49
(g70
g51
NtRp2547
(dp2548
g54
(dp2549
g81
g82
ssg63
g2538
sg56
(lp2550
S':'
asbag49
(g70
g51
NtRp2551
(dp2552
g54
(dp2553
sg63
g2538
sg56
(lp2554
g49
(g50
g51
NtRp2555
(dp2556
g54
(dp2557
g62
I3
ssg63
g2551
sg56
(lp2558
g92
asbasbasbag49
(g65
g51
NtRp2559
(dp2560
g54
(dp2561
sg63
g2027
sg56
(lp2562
g49
(g70
g51
NtRp2563
(dp2564
g54
(dp2565
g74
g75
ssg63
g2559
sg56
(lp2566
S'wsgi.url_scheme'
p2567
asbag49
(g70
g51
NtRp2568
(dp2569
g54
(dp2570
g81
g82
ssg63
g2559
sg56
(lp2571
S':'
asbag49
(g70
g51
NtRp2572
(dp2573
g54
(dp2574
sg63
g2559
sg56
(lp2575
g49
(g50
g51
NtRp2576
(dp2577
g54
(dp2578
g62
I3
ssg63
g2572
sg56
(lp2579
g1321
asbasbasbag49
(g65
g51
NtRp2580
(dp2581
g54
(dp2582
sg63
g2027
sg56
(lp2583
g49
(g70
g51
NtRp2584
(dp2585
g54
(dp2586
g74
g75
ssg63
g2580
sg56
(lp2587
S'wsgi.version'
p2588
asbag49
(g70
g51
NtRp2589
(dp2590
g54
(dp2591
g81
g82
ssg63
g2580
sg56
(lp2592
S':'
asbag49
(g70
g51
NtRp2593
(dp2594
g54
(dp2595
sg63
g2580
sg56
(lp2596
g49
(g50
g51
NtRp2597
(dp2598
g54
(dp2599
g62
I3
ssg63
g2593
sg56
(lp2600
S'1'
asbasbasbasbasbasbasbasbasbasbasbasbasbsS'frames'
p2601
(lp2602
(dp2603
S'file'
p2604
S'C:\\Users\\Bussiere\\Dropbox\\Projets\\Yuki\\web2py\\gluon\\restricted.py'
p2605
sS'dump'
p2606
(dp2607
sS'lnum'
p2608
I205
sS'lines'
p2609
(dp2610
I200
S'    try:'
p2611
sI201
S'        if type(code) == types.CodeType:'
p2612
sI202
S'            ccode = code'
p2613
sI203
S'        else:'
p2614
sI204
S'            ccode = compile2(code,layer)'
p2615
sI205
S'        exec ccode in environment'
p2616
sI206
S'    except HTTP:'
p2617
sI207
S'        raise'
p2618
sI208
S'    except RestrictedError:'
p2619
sI209
S'        # do not encapsulate (obfuscate) the original RestrictedError'
p2620
ssS'call'
p2621
S"(code='# -*- coding: utf-8 -*-\\n\\n#######################...#####################################\\n\\n#########\\n', environment={'A': <class 'gluon.html.A'>, 'Auth': <class 'gluon.tools.Auth'>, 'B': <class 'gluon.html.B'>, 'BEAUTIFY': <class 'gluon.html.BEAUTIFY'>, 'BODY': <class 'gluon.html.BODY'>, 'BR': <class 'gluon.html.BR'>, 'BUTTON': <class 'gluon.html.BUTTON'>, 'CAT': <class 'gluon.html.CAT'>, 'CENTER': <class 'gluon.html.CENTER'>, 'CLEANUP': <class 'gluon.validators.CLEANUP'>, ...}, layer=r'C:\\Users\\Bussiere\\Dropbox\\Projets\\Yuki\\web2py\\applications\\init\\models\\db.py')"
p2622
sS'func'
p2623
S'restricted'
p2624
sa(dp2625
g2604
S'C:\\Users\\Bussiere\\Dropbox\\Projets\\Yuki\\web2py\\applications\\init\\models\\db.py'
p2626
sg2606
(dp2627
sg2608
I325
sg2609
(dp2628
I320
S"   Field('file', 'upload'),"
p2629
sI321
S"   format = '%(title)s')"
p2630
sI322
S''
sI323
S''
sI324
S"db.define_table('Cour',"
p2631
sI325
S"    Field('Price', Float),"
p2632
sI326
S"    format = '%(Price)s')"
p2633
sI327
S''
sI328
S"db.define_table('Currency',"
p2634
sI329
S"   Field('Name', unique=True),"
p2635
ssg2621
S'()'
p2636
sg2623
S'<module>'
p2637
sasS'pyver'
p2638
S'Python 2.5.4: C:\\Users\\Bussiere\\Dropbox\\Projets\\Yuki\\web2py\\web2py.exe'
p2639
sS'session'
p2640
g49
(g50
g51
NtRp2641
(dp2642
g54
(dp2643
sg56
(lp2644
g49
(g58
g51
NtRp2645
(dp2646
g54
(dp2647
g62
I5
ssg63
Nsg56
(lp2648
sbasbsS'etype'
p2649
S"<type 'exceptions.NameError'>"
p2650
sS'date'
p2651
S'Sun Mar 11 10:02:05 2012'
p2652
sS'response'
p2653
g49
(g50
g51
NtRp2654
(dp2655
g54
(dp2656
sg56
(lp2657
g49
(g58
g51
NtRp2658
(dp2659
g54
(dp2660
g62
I5
ssg63
Nsg56
(lp2661
g49
(g65
g51
NtRp2662
(dp2663
g54
(dp2664
sg63
g2658
sg56
(lp2665
g49
(g70
g51
NtRp2666
(dp2667
g54
(dp2668
g74
g75
ssg63
g2662
sg56
(lp2669
g147
asbag49
(g70
g51
NtRp2670
(dp2671
g54
(dp2672
g81
g82
ssg63
g2662
sg56
(lp2673
S':'
asbag49
(g70
g51
NtRp2674
(dp2675
g54
(dp2676
sg63
g2662
sg56
(lp2677
g49
(g50
g51
NtRp2678
(dp2679
g54
(dp2680
g62
I5
ssg63
g2674
sg56
(lp2681
S'<cStringIO.StringO object at 0x03D958C0>'
p2682
asbasbasbag49
(g65
g51
NtRp2683
(dp2684
g54
(dp2685
sg63
g2658
sg56
(lp2686
g49
(g70
g51
NtRp2687
(dp2688
g54
(dp2689
g74
g75
ssg63
g2683
sg56
(lp2690
g213
asbag49
(g70
g51
NtRp2691
(dp2692
g54
(dp2693
g81
g82
ssg63
g2683
sg56
(lp2694
S':'
asbag49
(g70
g51
NtRp2695
(dp2696
g54
(dp2697
sg63
g2683
sg56
(lp2698
g49
(g50
g51
NtRp2699
(dp2700
g54
(dp2701
g62
I5
ssg63
g2695
sg56
(lp2702
g49
(g58
g51
NtRp2703
(dp2704
g54
(dp2705
g62
I4
ssg63
Nsg56
(lp2706
g49
(g65
g51
NtRp2707
(dp2708
g54
(dp2709
sg63
g2703
sg56
(lp2710
g49
(g70
g51
NtRp2711
(dp2712
g54
(dp2713
g74
g75
ssg63
g2707
sg56
(lp2714
S'session_id_init'
p2715
asbag49
(g70
g51
NtRp2716
(dp2717
g54
(dp2718
g81
g82
ssg63
g2707
sg56
(lp2719
S':'
asbag49
(g70
g51
NtRp2720
(dp2721
g54
(dp2722
sg63
g2707
sg56
(lp2723
g49
(g50
g51
NtRp2724
(dp2725
g54
(dp2726
g62
I4
ssg63
g2720
sg56
(lp2727
g49
(g58
g51
NtRp2728
(dp2729
g54
(dp2730
g62
I3
ssg63
Nsg56
(lp2731
g49
(g65
g51
NtRp2732
(dp2733
g54
(dp2734
sg63
g2728
sg56
(lp2735
g49
(g70
g51
NtRp2736
(dp2737
g54
(dp2738
g74
g75
ssg63
g2732
sg56
(lp2739
g263
asbag49
(g70
g51
NtRp2740
(dp2741
g54
(dp2742
g81
g82
ssg63
g2732
sg56
(lp2743
S':'
asbag49
(g70
g51
NtRp2744
(dp2745
g54
(dp2746
sg63
g2732
sg56
(lp2747
g49
(g50
g51
NtRp2748
(dp2749
g54
(dp2750
g62
I3
ssg63
g2744
sg56
(lp2751
S''
asbasbasbag49
(g65
g51
NtRp2752
(dp2753
g54
(dp2754
sg63
g2728
sg56
(lp2755
g49
(g70
g51
NtRp2756
(dp2757
g54
(dp2758
g74
g75
ssg63
g2752
sg56
(lp2759
g284
asbag49
(g70
g51
NtRp2760
(dp2761
g54
(dp2762
g81
g82
ssg63
g2752
sg56
(lp2763
S':'
asbag49
(g70
g51
NtRp2764
(dp2765
g54
(dp2766
sg63
g2752
sg56
(lp2767
g49
(g50
g51
NtRp2768
(dp2769
g54
(dp2770
g62
I3
ssg63
g2764
sg56
(lp2771
S''
asbasbasbag49
(g65
g51
NtRp2772
(dp2773
g54
(dp2774
sg63
g2728
sg56
(lp2775
g49
(g70
g51
NtRp2776
(dp2777
g54
(dp2778
g74
g75
ssg63
g2772
sg56
(lp2779
g305
asbag49
(g70
g51
NtRp2780
(dp2781
g54
(dp2782
g81
g82
ssg63
g2772
sg56
(lp2783
S':'
asbag49
(g70
g51
NtRp2784
(dp2785
g54
(dp2786
sg63
g2772
sg56
(lp2787
g49
(g50
g51
NtRp2788
(dp2789
g54
(dp2790
g62
I3
ssg63
g2784
sg56
(lp2791
S''
asbasbasbag49
(g65
g51
NtRp2792
(dp2793
g54
(dp2794
sg63
g2728
sg56
(lp2795
g49
(g70
g51
NtRp2796
(dp2797
g54
(dp2798
g74
g75
ssg63
g2792
sg56
(lp2799
g326
asbag49
(g70
g51
NtRp2800
(dp2801
g54
(dp2802
g81
g82
ssg63
g2792
sg56
(lp2803
S':'
asbag49
(g70
g51
NtRp2804
(dp2805
g54
(dp2806
sg63
g2792
sg56
(lp2807
g49
(g50
g51
NtRp2808
(dp2809
g54
(dp2810
g62
I3
ssg63
g2804
sg56
(lp2811
S''
asbasbasbag49
(g65
g51
NtRp2812
(dp2813
g54
(dp2814
sg63
g2728
sg56
(lp2815
g49
(g70
g51
NtRp2816
(dp2817
g54
(dp2818
g74
g75
ssg63
g2812
sg56
(lp2819
g347
asbag49
(g70
g51
NtRp2820
(dp2821
g54
(dp2822
g81
g82
ssg63
g2812
sg56
(lp2823
S':'
asbag49
(g70
g51
NtRp2824
(dp2825
g54
(dp2826
sg63
g2812
sg56
(lp2827
g49
(g50
g51
NtRp2828
(dp2829
g54
(dp2830
g62
I3
ssg63
g2824
sg56
(lp2831
S'/'
asbasbasbag49
(g65
g51
NtRp2832
(dp2833
g54
(dp2834
sg63
g2728
sg56
(lp2835
g49
(g70
g51
NtRp2836
(dp2837
g54
(dp2838
g74
g75
ssg63
g2832
sg56
(lp2839
g368
asbag49
(g70
g51
NtRp2840
(dp2841
g54
(dp2842
g81
g82
ssg63
g2832
sg56
(lp2843
S':'
asbag49
(g70
g51
NtRp2844
(dp2845
g54
(dp2846
sg63
g2832
sg56
(lp2847
g49
(g50
g51
NtRp2848
(dp2849
g54
(dp2850
g62
I3
ssg63
g2844
sg56
(lp2851
S''
asbasbasbag49
(g65
g51
NtRp2852
(dp2853
g54
(dp2854
sg63
g2728
sg56
(lp2855
g49
(g70
g51
NtRp2856
(dp2857
g54
(dp2858
g74
g75
ssg63
g2852
sg56
(lp2859
g389
asbag49
(g70
g51
NtRp2860
(dp2861
g54
(dp2862
g81
g82
ssg63
g2852
sg56
(lp2863
S':'
asbag49
(g70
g51
NtRp2864
(dp2865
g54
(dp2866
sg63
g2852
sg56
(lp2867
g49
(g50
g51
NtRp2868
(dp2869
g54
(dp2870
g62
I3
ssg63
g2864
sg56
(lp2871
S''
asbasbasbasbasbasbasbasbasbasbasbag49
(g65
g51
NtRp2872
(dp2873
g54
(dp2874
sg63
g2658
sg56
(lp2875
g49
(g70
g51
NtRp2876
(dp2877
g54
(dp2878
g74
g75
ssg63
g2872
sg56
(lp2879
S'delimiters'
p2880
asbag49
(g70
g51
NtRp2881
(dp2882
g54
(dp2883
g81
g82
ssg63
g2872
sg56
(lp2884
S':'
asbag49
(g70
g51
NtRp2885
(dp2886
g54
(dp2887
sg63
g2872
sg56
(lp2888
g49
(g50
g51
NtRp2889
(dp2890
g54
(dp2891
g62
I5
ssg63
g2885
sg56
(lp2892
g49
(g58
g51
NtRp2893
(dp2894
g54
(dp2895
g62
I4
ssg63
Nsg56
(lp2896
g49
(g65
g51
NtRp2897
(dp2898
g54
(dp2899
sg63
g2893
sg56
(lp2900
g49
(g70
g51
NtRp2901
(dp2902
g54
(dp2903
sg63
g2897
sg56
(lp2904
g49
(g50
g51
NtRp2905
(dp2906
g54
(dp2907
g62
I4
ssg63
g2901
sg56
(lp2908
S'{{'
p2909
asbasbasbag49
(g65
g51
NtRp2910
(dp2911
g54
(dp2912
sg63
g2893
sg56
(lp2913
g49
(g70
g51
NtRp2914
(dp2915
g54
(dp2916
sg63
g2910
sg56
(lp2917
g49
(g50
g51
NtRp2918
(dp2919
g54
(dp2920
g62
I4
ssg63
g2914
sg56
(lp2921
S'}}'
p2922
asbasbasbasbasbasbasbag49
(g65
g51
NtRp2923
(dp2924
g54
(dp2925
sg63
g2658
sg56
(lp2926
g49
(g70
g51
NtRp2927
(dp2928
g54
(dp2929
g74
g75
ssg63
g2923
sg56
(lp2930
S'files'
p2931
asbag49
(g70
g51
NtRp2932
(dp2933
g54
(dp2934
g81
g82
ssg63
g2923
sg56
(lp2935
S':'
asbag49
(g70
g51
NtRp2936
(dp2937
g54
(dp2938
sg63
g2923
sg56
(lp2939
g49
(g50
g51
NtRp2940
(dp2941
g54
(dp2942
g62
I5
ssg63
g2936
sg56
(lp2943
g49
(g58
g51
NtRp2944
(dp2945
g54
(dp2946
g62
I4
ssg63
Nsg56
(lp2947
sbasbasbasbag49
(g65
g51
NtRp2948
(dp2949
g54
(dp2950
sg63
g2658
sg56
(lp2951
g49
(g70
g51
NtRp2952
(dp2953
g54
(dp2954
g74
g75
ssg63
g2948
sg56
(lp2955
S'flash'
p2956
asbag49
(g70
g51
NtRp2957
(dp2958
g54
(dp2959
g81
g82
ssg63
g2948
sg56
(lp2960
S':'
asbag49
(g70
g51
NtRp2961
(dp2962
g54
(dp2963
sg63
g2948
sg56
(lp2964
g49
(g50
g51
NtRp2965
(dp2966
g54
(dp2967
g62
I5
ssg63
g2961
sg56
(lp2968
S''
asbasbasbag49
(g65
g51
NtRp2969
(dp2970
g54
(dp2971
sg63
g2658
sg56
(lp2972
g49
(g70
g51
NtRp2973
(dp2974
g54
(dp2975
g74
g75
ssg63
g2969
sg56
(lp2976
S'generic_patterns'
p2977
asbag49
(g70
g51
NtRp2978
(dp2979
g54
(dp2980
g81
g82
ssg63
g2969
sg56
(lp2981
S':'
asbag49
(g70
g51
NtRp2982
(dp2983
g54
(dp2984
sg63
g2969
sg56
(lp2985
g49
(g50
g51
NtRp2986
(dp2987
g54
(dp2988
g62
I5
ssg63
g2982
sg56
(lp2989
g49
(g58
g51
NtRp2990
(dp2991
g54
(dp2992
g62
I4
ssg63
Nsg56
(lp2993
g49
(g65
g51
NtRp2994
(dp2995
g54
(dp2996
sg63
g2990
sg56
(lp2997
g49
(g70
g51
NtRp2998
(dp2999
g54
(dp3000
sg63
g2994
sg56
(lp3001
g49
(g50
g51
NtRp3002
(dp3003
g54
(dp3004
g62
I4
ssg63
g2998
sg56
(lp3005
S'*'
asbasbasbasbasbasbasbag49
(g65
g51
NtRp3006
(dp3007
g54
(dp3008
sg63
g2658
sg56
(lp3009
g49
(g70
g51
NtRp3010
(dp3011
g54
(dp3012
g74
g75
ssg63
g3006
sg56
(lp3013
S'headers'
p3014
asbag49
(g70
g51
NtRp3015
(dp3016
g54
(dp3017
g81
g82
ssg63
g3006
sg56
(lp3018
S':'
asbag49
(g70
g51
NtRp3019
(dp3020
g54
(dp3021
sg63
g3006
sg56
(lp3022
g49
(g50
g51
NtRp3023
(dp3024
g54
(dp3025
g62
I5
ssg63
g3019
sg56
(lp3026
g49
(g58
g51
NtRp3027
(dp3028
g54
(dp3029
g62
I4
ssg63
Nsg56
(lp3030
g49
(g65
g51
NtRp3031
(dp3032
g54
(dp3033
sg63
g3027
sg56
(lp3034
g49
(g70
g51
NtRp3035
(dp3036
g54
(dp3037
g74
g75
ssg63
g3031
sg56
(lp3038
S'Cache-Control'
p3039
asbag49
(g70
g51
NtRp3040
(dp3041
g54
(dp3042
g81
g82
ssg63
g3031
sg56
(lp3043
S':'
asbag49
(g70
g51
NtRp3044
(dp3045
g54
(dp3046
sg63
g3031
sg56
(lp3047
g49
(g50
g51
NtRp3048
(dp3049
g54
(dp3050
g62
I4
ssg63
g3044
sg56
(lp3051
S'no-store, no-cache, must-revalidate, post-check=0, pre-check=0'
p3052
asbasbasbag49
(g65
g51
NtRp3053
(dp3054
g54
(dp3055
sg63
g3027
sg56
(lp3056
g49
(g70
g51
NtRp3057
(dp3058
g54
(dp3059
g74
g75
ssg63
g3053
sg56
(lp3060
S'Content-Type'
p3061
asbag49
(g70
g51
NtRp3062
(dp3063
g54
(dp3064
g81
g82
ssg63
g3053
sg56
(lp3065
S':'
asbag49
(g70
g51
NtRp3066
(dp3067
g54
(dp3068
sg63
g3053
sg56
(lp3069
g49
(g50
g51
NtRp3070
(dp3071
g54
(dp3072
g62
I4
ssg63
g3066
sg56
(lp3073
S'text/html; charset=utf-8'
p3074
asbasbasbag49
(g65
g51
NtRp3075
(dp3076
g54
(dp3077
sg63
g3027
sg56
(lp3078
g49
(g70
g51
NtRp3079
(dp3080
g54
(dp3081
g74
g75
ssg63
g3075
sg56
(lp3082
S'Expires'
p3083
asbag49
(g70
g51
NtRp3084
(dp3085
g54
(dp3086
g81
g82
ssg63
g3075
sg56
(lp3087
S':'
asbag49
(g70
g51
NtRp3088
(dp3089
g54
(dp3090
sg63
g3075
sg56
(lp3091
g49
(g50
g51
NtRp3092
(dp3093
g54
(dp3094
g62
I4
ssg63
g3088
sg56
(lp3095
S'Sun, 11 Mar 2012 09:02:03 GMT'
p3096
asbasbasbag49
(g65
g51
NtRp3097
(dp3098
g54
(dp3099
sg63
g3027
sg56
(lp3100
g49
(g70
g51
NtRp3101
(dp3102
g54
(dp3103
g74
g75
ssg63
g3097
sg56
(lp3104
S'Pragma'
p3105
asbag49
(g70
g51
NtRp3106
(dp3107
g54
(dp3108
g81
g82
ssg63
g3097
sg56
(lp3109
S':'
asbag49
(g70
g51
NtRp3110
(dp3111
g54
(dp3112
sg63
g3097
sg56
(lp3113
g49
(g50
g51
NtRp3114
(dp3115
g54
(dp3116
g62
I4
ssg63
g3110
sg56
(lp3117
S'no-cache'
p3118
asbasbasbag49
(g65
g51
NtRp3119
(dp3120
g54
(dp3121
sg63
g3027
sg56
(lp3122
g49
(g70
g51
NtRp3123
(dp3124
g54
(dp3125
g74
g75
ssg63
g3119
sg56
(lp3126
S'X-Powered-By'
p3127
asbag49
(g70
g51
NtRp3128
(dp3129
g54
(dp3130
g81
g82
ssg63
g3119
sg56
(lp3131
S':'
asbag49
(g70
g51
NtRp3132
(dp3133
g54
(dp3134
sg63
g3119
sg56
(lp3135
g49
(g50
g51
NtRp3136
(dp3137
g54
(dp3138
g62
I4
ssg63
g3132
sg56
(lp3139
S'web2py'
p3140
asbasbasbasbasbasbasbag49
(g65
g51
NtRp3141
(dp3142
g54
(dp3143
sg63
g2658
sg56
(lp3144
g49
(g70
g51
NtRp3145
(dp3146
g54
(dp3147
g74
g75
ssg63
g3141
sg56
(lp3148
S'menu'
p3149
asbag49
(g70
g51
NtRp3150
(dp3151
g54
(dp3152
g81
g82
ssg63
g3141
sg56
(lp3153
S':'
asbag49
(g70
g51
NtRp3154
(dp3155
g54
(dp3156
sg63
g3141
sg56
(lp3157
g49
(g50
g51
NtRp3158
(dp3159
g54
(dp3160
g62
I5
ssg63
g3154
sg56
(lp3161
g49
(g58
g51
NtRp3162
(dp3163
g54
(dp3164
g62
I4
ssg63
Nsg56
(lp3165
sbasbasbasbag49
(g65
g51
NtRp3166
(dp3167
g54
(dp3168
sg63
g2658
sg56
(lp3169
g49
(g70
g51
NtRp3170
(dp3171
g54
(dp3172
g74
g75
ssg63
g3166
sg56
(lp3173
S'meta'
p3174
asbag49
(g70
g51
NtRp3175
(dp3176
g54
(dp3177
g81
g82
ssg63
g3166
sg56
(lp3178
S':'
asbag49
(g70
g51
NtRp3179
(dp3180
g54
(dp3181
sg63
g3166
sg56
(lp3182
g49
(g50
g51
NtRp3183
(dp3184
g54
(dp3185
g62
I5
ssg63
g3179
sg56
(lp3186
g49
(g58
g51
NtRp3187
(dp3188
g54
(dp3189
g62
I4
ssg63
Nsg56
(lp3190
sbasbasbasbag49
(g65
g51
NtRp3191
(dp3192
g54
(dp3193
sg63
g2658
sg56
(lp3194
g49
(g70
g51
NtRp3195
(dp3196
g54
(dp3197
g74
g75
ssg63
g3191
sg56
(lp3198
S'postprocessing'
p3199
asbag49
(g70
g51
NtRp3200
(dp3201
g54
(dp3202
g81
g82
ssg63
g3191
sg56
(lp3203
S':'
asbag49
(g70
g51
NtRp3204
(dp3205
g54
(dp3206
sg63
g3191
sg56
(lp3207
g49
(g50
g51
NtRp3208
(dp3209
g54
(dp3210
g62
I5
ssg63
g3204
sg56
(lp3211
g49
(g58
g51
NtRp3212
(dp3213
g54
(dp3214
g62
I4
ssg63
Nsg56
(lp3215
sbasbasbasbag49
(g65
g51
NtRp3216
(dp3217
g54
(dp3218
sg63
g2658
sg56
(lp3219
g49
(g70
g51
NtRp3220
(dp3221
g54
(dp3222
g74
g75
ssg63
g3216
sg56
(lp3223
S'session_filename'
p3224
asbag49
(g70
g51
NtRp3225
(dp3226
g54
(dp3227
g81
g82
ssg63
g3216
sg56
(lp3228
S':'
asbag49
(g70
g51
NtRp3229
(dp3230
g54
(dp3231
sg63
g3216
sg56
(lp3232
g49
(g50
g51
NtRp3233
(dp3234
g54
(dp3235
g62
I5
ssg63
g3229
sg56
(lp3236
S'C:\\Users\\Bussiere\\Dropbox\\Projets\\Yuki\\web2py\\applications\\init\\sessions\\127.0.0.1-9a5e7a4a-eee5-49f6-9395-6fe3d1b4ac2d'
p3237
asbasbasbag49
(g65
g51
NtRp3238
(dp3239
g54
(dp3240
sg63
g2658
sg56
(lp3241
g49
(g70
g51
NtRp3242
(dp3243
g54
(dp3244
g74
g75
ssg63
g3238
sg56
(lp3245
S'session_id'
p3246
asbag49
(g70
g51
NtRp3247
(dp3248
g54
(dp3249
g81
g82
ssg63
g3238
sg56
(lp3250
S':'
asbag49
(g70
g51
NtRp3251
(dp3252
g54
(dp3253
sg63
g3238
sg56
(lp3254
g49
(g50
g51
NtRp3255
(dp3256
g54
(dp3257
g62
I5
ssg63
g3251
sg56
(lp3258
S'127.0.0.1-9a5e7a4a-eee5-49f6-9395-6fe3d1b4ac2d'
p3259
asbasbasbag49
(g65
g51
NtRp3260
(dp3261
g54
(dp3262
sg63
g2658
sg56
(lp3263
g49
(g70
g51
NtRp3264
(dp3265
g54
(dp3266
g74
g75
ssg63
g3260
sg56
(lp3267
S'session_id_name'
p3268
asbag49
(g70
g51
NtRp3269
(dp3270
g54
(dp3271
g81
g82
ssg63
g3260
sg56
(lp3272
S':'
asbag49
(g70
g51
NtRp3273
(dp3274
g54
(dp3275
sg63
g3260
sg56
(lp3276
g49
(g50
g51
NtRp3277
(dp3278
g54
(dp3279
g62
I5
ssg63
g3273
sg56
(lp3280
g2715
asbasbasbag49
(g65
g51
NtRp3281
(dp3282
g54
(dp3283
sg63
g2658
sg56
(lp3284
g49
(g70
g51
NtRp3285
(dp3286
g54
(dp3287
g74
g75
ssg63
g3281
sg56
(lp3288
S'session_new'
p3289
asbag49
(g70
g51
NtRp3290
(dp3291
g54
(dp3292
g81
g82
ssg63
g3281
sg56
(lp3293
S':'
asbag49
(g70
g51
NtRp3294
(dp3295
g54
(dp3296
sg63
g3281
sg56
(lp3297
g49
(g50
g51
NtRp3298
(dp3299
g54
(dp3300
g62
I5
ssg63
g3294
sg56
(lp3301
g561
asbasbasbag49
(g65
g51
NtRp3302
(dp3303
g54
(dp3304
sg63
g2658
sg56
(lp3305
g49
(g70
g51
NtRp3306
(dp3307
g54
(dp3308
g74
g75
ssg63
g3302
sg56
(lp3309
S'status'
p3310
asbag49
(g70
g51
NtRp3311
(dp3312
g54
(dp3313
g81
g82
ssg63
g3302
sg56
(lp3314
S':'
asbag49
(g70
g51
NtRp3315
(dp3316
g54
(dp3317
sg63
g3302
sg56
(lp3318
g49
(g50
g51
NtRp3319
(dp3320
g54
(dp3321
g62
I5
ssg63
g3315
sg56
(lp3322
S'200'
p3323
asbasbasbag49
(g65
g51
NtRp3324
(dp3325
g54
(dp3326
sg63
g2658
sg56
(lp3327
g49
(g70
g51
NtRp3328
(dp3329
g54
(dp3330
g74
g75
ssg63
g3324
sg56
(lp3331
g1942
asbag49
(g70
g51
NtRp3332
(dp3333
g54
(dp3334
g81
g82
ssg63
g3324
sg56
(lp3335
S':'
asbag49
(g70
g51
NtRp3336
(dp3337
g54
(dp3338
sg63
g3324
sg56
(lp3339
g49
(g50
g51
NtRp3340
(dp3341
g54
(dp3342
g62
I5
ssg63
g3336
sg56
(lp3343
g1955
asbasbasbag49
(g65
g51
NtRp3344
(dp3345
g54
(dp3346
sg63
g2658
sg56
(lp3347
g49
(g70
g51
NtRp3348
(dp3349
g54
(dp3350
g74
g75
ssg63
g3344
sg56
(lp3351
S'view'
p3352
asbag49
(g70
g51
NtRp3353
(dp3354
g54
(dp3355
g81
g82
ssg63
g3344
sg56
(lp3356
S':'
asbag49
(g70
g51
NtRp3357
(dp3358
g54
(dp3359
sg63
g3344
sg56
(lp3360
g49
(g50
g51
NtRp3361
(dp3362
g54
(dp3363
g62
I5
ssg63
g3357
sg56
(lp3364
S'default/index.html'
p3365
asbasbasbasbasbsS'locals'
p3366
(dp3367
S'Service'
p3368
S"<class 'gluon.tools.Service'>"
p3369
sS'OBJECT'
p3370
S"<class 'gluon.html.OBJECT'>"
p3371
sS'SQLDB'
p3372
S"<class 'gluon.dal.DAL'>"
p3373
sg2640
S"<Storage {'_Session__hash': '\\xc8[\\xd5\\xc1#\\xd8e\\x10\\xe3\\x06\\x0ba\\xddT\\x92m'}>"
p3374
sS'LINK'
p3375
S"<class 'gluon.html.LINK'>"
p3376
sS'BR'
p3377
S"<class 'gluon.html.BR'>"
p3378
sS'local_import'
p3379
S'<function <lambda> at 0x03FA4230>'
p3380
sS'OPTGROUP'
p3381
S"<class 'gluon.html.OPTGROUP'>"
p3382
sS'PRE'
p3383
S"<class 'gluon.html.PRE'>"
p3384
sS'IS_INT_IN_RANGE'
p3385
S"<class 'gluon.validators.IS_INT_IN_RANGE'>"
p3386
sS'IS_LOWER'
p3387
S"<class 'gluon.validators.IS_LOWER'>"
p3388
sS'IS_STRONG'
p3389
S"<class 'gluon.validators.IS_STRONG'>"
p3390
sS'cache'
p3391
S'<gluon.cache.Cache object at 0x03E6E770>'
p3392
sS'IS_IN_DB'
p3393
S"<class 'gluon.validators.IS_IN_DB'>"
p3394
sS'TAG'
p3395
S'<gluon.html.__TAG__ object at 0x02462E70>'
p3396
sS'SQLField'
p3397
S"<class 'gluon.dal.Field'>"
p3398
sS'BODY'
p3399
S"<class 'gluon.html.BODY'>"
p3400
sS'IS_DATE_IN_RANGE'
p3401
S"<class 'gluon.validators.IS_DATE_IN_RANGE'>"
p3402
sS'IFRAME'
p3403
S"<class 'gluon.html.IFRAME'>"
p3404
sS'URL'
p3405
S'<function URL at 0x024C2DF0>'
p3406
sS'__file__'
p3407
S"r'C:\\Users\\Bussiere\\Dropbox\\Projets\\Yuki\\web2py\\applications\\init\\models\\db.py'"
p3408
sS'db'
p3409
S"<DAL {'auth_event': <Table {'origin': <gluon.dal..._key': <gluon.dal.Field object at 0x03D6E750>}>}>"
p3410
sS'auth'
p3411
S'<gluon.tools.Auth object at 0x03D6ECB0>'
p3412
sS'P'
S"<class 'gluon.html.P'>"
p3413
sS'TFOOT'
p3414
S"<class 'gluon.html.TFOOT'>"
p3415
sS'XHTML'
p3416
S"<class 'gluon.html.XHTML'>"
p3417
sS'ON'
p3418
g561
sS'OL'
p3419
S"<class 'gluon.html.OL'>"
p3420
sS'TEXTAREA'
p3421
S"<class 'gluon.html.TEXTAREA'>"
p3422
sS'MENU'
p3423
S"<class 'gluon.html.MENU'>"
p3424
sS'EM'
p3425
S"<class 'gluon.html.EM'>"
p3426
sS'CODE'
p3427
S"<class 'gluon.html.CODE'>"
p3428
sS'HTTP'
p3429
S"<class 'gluon.http.HTTP'>"
p3430
sS'HR'
p3431
S"<class 'gluon.html.HR'>"
p3432
sS'IS_DATETIME'
p3433
S"<class 'gluon.validators.IS_DATETIME'>"
p3434
sS'STYLE'
p3435
S"<class 'gluon.html.STYLE'>"
p3436
sS'LABEL'
p3437
S"<class 'gluon.html.LABEL'>"
p3438
sS'META'
p3439
S"<class 'gluon.html.META'>"
p3440
sS'plugins'
p3441
S'<gluon.tools.PluginManager object at 0x03D6E6D0>'
p3442
sS'SELECT'
p3443
S"<class 'gluon.html.SELECT'>"
p3444
sS'CENTER'
p3445
S"<class 'gluon.html.CENTER'>"
p3446
sS'prettydate'
p3447
S'<function prettydate at 0x02E59F70>'
p3448
sS'Crud'
p3449
S"<class 'gluon.tools.Crud'>"
p3450
sS'Auth'
p3451
S"<class 'gluon.tools.Auth'>"
p3452
sS'__builtins__'
p3453
S"{'ArithmeticError': <type 'exceptions.ArithmeticError'>, 'AssertionError': <type 'exceptions.AssertionError'>, 'AttributeError': <type 'exceptions.AttributeError'>, 'BaseException': <type 'exceptions.BaseException'>, 'DeprecationWarning': <type 'exceptions.DeprecationWarning'>, 'EOFError': <type 'exceptions.EOFError'>, 'Ellipsis': Ellipsis, 'EnvironmentError': <type 'exceptions.EnvironmentError'>, 'Exception': <type 'exceptions.Exception'>, 'False': False, ...}"
p3454
sS'HTML'
p3455
S"<class 'gluon.html.HTML'>"
p3456
sS'SQLFORM'
p3457
S"<class 'gluon.sqlhtml.SQLFORM'>"
p3458
sS'LOAD'
p3459
S'<function LOAD at 0x028916F0>'
p3460
sS'redirect'
p3461
S'<function redirect at 0x02264AB0>'
p3462
sS'FIELDSET'
p3463
S"<class 'gluon.html.FIELDSET'>"
p3464
sS'IS_EQUAL_TO'
p3465
S"<class 'gluon.validators.IS_EQUAL_TO'>"
p3466
sS'embed64'
p3467
S'<function embed64 at 0x024CF930>'
p3468
sS'IS_LIST_OF'
p3469
S"<class 'gluon.validators.IS_LIST_OF'>"
p3470
sS'INPUT'
p3471
S"<class 'gluon.html.INPUT'>"
p3472
sS'EMBED'
p3473
S"<class 'gluon.html.EMBED'>"
p3474
sS'FORM'
p3475
S"<class 'gluon.html.FORM'>"
p3476
sS'H2'
p3477
S"<class 'gluon.html.H2'>"
p3478
sS'H3'
p3479
S"<class 'gluon.html.H3'>"
p3480
sS'BUTTON'
p3481
S"<class 'gluon.html.BUTTON'>"
p3482
sS'H1'
p3483
S"<class 'gluon.html.H1'>"
p3484
sS'H6'
p3485
S"<class 'gluon.html.H6'>"
p3486
sS'H4'
p3487
S"<class 'gluon.html.H4'>"
p3488
sS'H5'
p3489
S"<class 'gluon.html.H5'>"
p3490
sS'UL'
p3491
S"<class 'gluon.html.UL'>"
p3492
sS'IS_UPPER'
p3493
S"<class 'gluon.validators.IS_UPPER'>"
p3494
sS'xmlescape'
p3495
S'<function xmlescape at 0x024C2D70>'
p3496
sS'IS_TIME'
p3497
S"<class 'gluon.validators.IS_TIME'>"
p3498
sS'OPTION'
p3499
S"<class 'gluon.html.OPTION'>"
p3500
sS'TITLE'
p3501
S"<class 'gluon.html.TITLE'>"
p3502
sS'CRYPT'
p3503
S"<class 'gluon.validators.CRYPT'>"
p3504
sS'IS_EMPTY_OR'
p3505
S"<class 'gluon.validators.IS_EMPTY_OR'>"
p3506
sS'MARKMIN'
p3507
S"<class 'gluon.html.MARKMIN'>"
p3508
sS'__name__'
p3509
S"'__restricted__'"
p3510
sS'COL'
p3511
S"<class 'gluon.html.COL'>"
p3512
sS'service'
p3513
S'<gluon.tools.Service object at 0x03D6E8F0>'
p3514
sS'SCRIPT'
p3515
S"<class 'gluon.html.SCRIPT'>"
p3516
sS'TABLE'
p3517
S"<class 'gluon.html.TABLE'>"
p3518
sS'IS_IPV4'
p3519
S"<class 'gluon.validators.IS_IPV4'>"
p3520
sS'IS_LENGTH'
p3521
S"<class 'gluon.validators.IS_LENGTH'>"
p3522
sS'XML'
p3523
S"<class 'gluon.html.XML'>"
p3524
sS'B'
S"<class 'gluon.html.B'>"
p3525
sS'IMG'
p3526
S"<class 'gluon.html.IMG'>"
p3527
sS'SQLTABLE'
p3528
S"<class 'gluon.sqlhtml.SQLTABLE'>"
p3529
sS'IS_MATCH'
p3530
S"<class 'gluon.validators.IS_MATCH'>"
p3531
sS'IS_ALPHANUMERIC'
p3532
S"<class 'gluon.validators.IS_ALPHANUMERIC'>"
p3533
sS'SPAN'
p3534
S"<class 'gluon.html.SPAN'>"
p3535
sS'IS_SLUG'
p3536
S"<class 'gluon.validators.IS_SLUG'>"
p3537
sS'CLEANUP'
p3538
S"<class 'gluon.validators.CLEANUP'>"
p3539
sS'IS_DATE'
p3540
S"<class 'gluon.validators.IS_DATE'>"
p3541
sS'IS_EMAIL'
p3542
S"<class 'gluon.validators.IS_EMAIL'>"
p3543
sS'IS_NOT_EMPTY'
p3544
S"<class 'gluon.validators.IS_NOT_EMPTY'>"
p3545
sS'IS_FLOAT_IN_RANGE'
p3546
S"<class 'gluon.validators.IS_FLOAT_IN_RANGE'>"
p3547
sS'BEAUTIFY'
p3548
S"<class 'gluon.html.BEAUTIFY'>"
p3549
sS'TBODY'
p3550
S"<class 'gluon.html.TBODY'>"
p3551
sS'CAT'
p3552
S"<class 'gluon.html.CAT'>"
p3553
sS'Field'
p3554
S"<class 'gluon.dal.Field'>"
p3555
sS'DIV'
p3556
S"<class 'gluon.html.DIV'>"
p3557
sS'LEGEND'
p3558
S"<class 'gluon.html.LEGEND'>"
p3559
sS'COLGROUP'
p3560
S"<class 'gluon.html.COLGROUP'>"
p3561
sS'DAL'
p3562
S"<class 'gluon.dal.DAL'>"
p3563
sS'TT'
p3564
S"<class 'gluon.html.TT'>"
p3565
sS'TR'
p3566
S"<class 'gluon.html.TR'>"
p3567
sS'LI'
p3568
S"<class 'gluon.html.LI'>"
p3569
sS'TH'
p3570
S"<class 'gluon.html.TH'>"
p3571
sS'TD'
p3572
S"<class 'gluon.html.TD'>"
p3573
sS'PluginManager'
p3574
S"<class 'gluon.tools.PluginManager'>"
p3575
sS'IS_URL'
p3576
S"<class 'gluon.validators.IS_URL'>"
p3577
sS'A'
S"<class 'gluon.html.A'>"
p3578
sS'HEAD'
p3579
S"<class 'gluon.html.HEAD'>"
p3580
sS'IS_DATETIME_IN_RANGE'
p3581
S"<class 'gluon.validators.IS_DATETIME_IN_RANGE'>"
p3582
sS'IS_IMAGE'
p3583
S"<class 'gluon.validators.IS_IMAGE'>"
p3584
sS'I'
S"<class 'gluon.html.I'>"
p3585
sS'crud'
p3586
S'<gluon.tools.Crud object at 0x03D6EA50>'
p3587
sS'IS_NOT_IN_DB'
p3588
S"<class 'gluon.validators.IS_NOT_IN_DB'>"
p3589
sg2653
S"<Storage {'status': 200, 'body': <cStringIO.Stri...030>, 'files': [], 'view': 'default/index.html'}>"
p3590
sS'THEAD'
p3591
S"<class 'gluon.html.THEAD'>"
p3592
sS'IS_NULL_OR'
p3593
S"<class 'gluon.validators.IS_EMPTY_OR'>"
p3594
sg48
S"<Storage {'body': <cStringIO.StringO object at 0..._vars': <Storage {}>, 'post_vars': <Storage {}>}>"
p3595
sS'IS_EXPR'
p3596
S"<class 'gluon.validators.IS_EXPR'>"
p3597
sS'IS_IN_SET'
p3598
S"<class 'gluon.validators.IS_IN_SET'>"
p3599
sS'IS_UPLOAD_FILENAME'
p3600
S"<class 'gluon.validators.IS_UPLOAD_FILENAME'>"
p3601
sS'IS_DECIMAL_IN_RANGE'
p3602
S"<class 'gluon.validators.IS_DECIMAL_IN_RANGE'>"
p3603
sS'T'
S'<gluon.languages.translator object at 0x041032D0>'
p3604
sssS'traceback'
p3605
S'Traceback (most recent call last):\n  File "gluon/restricted.py", line 205, in restricted\n  File "C:\\Users\\Bussiere\\Dropbox\\Projets\\Yuki\\web2py\\applications\\init\\models\\db.py", line 325, in <module>\nNameError: name \'Float\' is not defined\n'
p3606
s.