(dp1
S'output'
p2
S"<type 'exceptions.KeyError'> 'Auth'"
p3
sS'layer'
p4
S'C:\\Users\\Bussiere\\Dropbox\\Projets\\Yuki\\web2py\\applications\\init\\models\\db.py'
p5
sS'code'
p6
S"# -*- coding: utf-8 -*-\n\n#########################################################################\n## This scaffolding model makes your app work on Google App Engine too\n## File is released under public domain and you can use without limitations\n#########################################################################\n\n## if SSL/HTTPS is properly configured and you want all HTTP requests to\n## be redirected to HTTPS, uncomment the line below:\n# request.requires_https()\n\nif not request.env.web2py_runtime_gae:\n    ## if NOT running on Google App Engine use SQLite or other DB\n    db = DAL('sqlite://storage.sqlite')\nelse:\n    ## connect to Google BigTable (optional 'google:datastore://namespace')\n    db = DAL('google:datastore')\n    ## store sessions and tickets there\n    session.connect(request, response, db = db)\n    ## or store session in Memcache, Redis, etc.\n    ## from gluon.contrib.memdb import MEMDB\n    ## from google.appengine.api.memcache import Client\n    ## session.connect(request, response, db = MEMDB(Client()))\n\ndb.define_table('Barcode',\n   Field('Barcode', unique=True),\n   Field('Auth','list:reference Auth'),\n   Field('Comment','list:reference Comment'),\n   Field('Seller','list:reference Seller'),\n   Field('Livre','list:reference Livre'),\n   Field('Musique','list:reference Musique'),\n   Field('Video','list:reference Video'),\n   Field('Figur','list:reference Figur'),\n   Field('Goodie','list:reference Goodie'),\n   Field('VideoGame','list:reference VideoGame'),\n   format = '%(Barcodee)s')\n   \ndb.define_table('Comment',\n   Field('Name', unique=True),\n   Field('Texte'),\n   Field('Vote', 'integer'),\n   Field('Auth',db.Auth),\n   format = '%(Name)s')\n\n\ndb.define_table('Convention',\n   Field('Nom', unique=True),\n   Field('Localisation','list:reference Localisation'),\n   Field('Auth','list:reference Auth'),\n   Field('Comment','list:reference Comment'),\n   Field('Seller','list:reference Seller'),\n   Field('Livre','list:reference Livre'),\n   Field('Musique','list:reference Musique'),\n   Field('Video','list:reference Video'),\n   Field('Figur','list:reference Figur'),\n   Field('Goodie','list:reference Goodie'),\n   Field('Link','list:reference Link'),\n   Field('Tag','list:reference Tag'),\n\n   format = '%(Nom)s')\n\ndb.define_table('Author',\n   Field('Nom', unique=True),\n   Field('Tag','list:reference Tag'),\n   format = '%(Nom)s')\n\ndb.define_table('Character',\n   Field('Nom', unique=True),\n   Field('Tag','list:reference Tag'),\n   format = '%(Nom)s')\n\ndb.define_table('Figur',\n   Field('Name', unique=True),\n   Field('Date'),\n   Field('Characters','list:reference Character'),\n   Field('Authors','list:reference Author'),\n   Field('Tag','list:reference Tag'),\n   Field('Price','list:reference Price'),\n   Field('Seller','list:reference Seller'),\n   Field('Convention','list:reference Convention'),\n   Field('Vote','list:reference Vote'),\n   Field('BarCode','list:reference BarCode'),\n   Field('Comment','list:reference Comment'),\n   Field('Link','list:reference Link'),\n   format = '%(Nom)s')\n   \ndb.define_table('TypeMusic',\n   Field('Nom', unique=True),\n   format = '%(Nom)s')\n\n\ndb.define_table('Music',\n   Field('Name', unique=True),\n   Field('Date'),\n   Field('Authors','list:reference Author'),\n   Field('Tag','list:reference Tag'),\n   Field('Price','list:reference Price'),\n   Field('Seller','list:reference Seller'),\n   Field('Convention','list:reference Convention'),\n   Field('Vote','list:reference Vote'),\n   Field('BarCode','list:reference BarCode'),\n   Field('Comment','list:reference Comment'),\n   Field('Link','list:reference Link'),\n   format = '%(Nom)s')\n\n\ndb.define_table('TypeVideo',\n   Field('Nom', unique=True),\n   format = '%(Nom)s')\n\n\ndb.define_table('Video',\n   Field('Name', unique=True),\n   Field('Date'),\n   Field('Authors','list:reference Author'),\n   Field('Tag','list:reference Tag'),\n   Field('Price','list:reference Price'),\n   Field('Seller','list:reference Seller'),\n   Field('Convention','list:reference Convention'),\n   Field('Vote','list:reference Vote'),\n   Field('BarCode','list:reference BarCode'),\n   Field('Comment','list:reference Comment'),\n   Field('Link','list:reference Link'),  \n   format = '%(Nom)s')\n\ndb.define_table('TypeVideoGame',\n   Field('Nom', unique=True),\n   format = '%(Nom)s')\n\n\ndb.define_table('VideoGame',\n   Field('Name', unique=True),\n   Field('Date'),\n   Field('Authors','list:reference Author'),\n   Field('Tag','list:reference Tag'),\n   Field('Price','list:reference Price'),\n   Field('Seller','list:reference Seller'),\n   Field('Convention','list:reference Convention'),\n   Field('Vote','list:reference Vote'),\n   Field('BarCode','list:reference BarCode'),\n   Field('Comment','list:reference Comment'),\n   Field('Link','list:reference Link'),\n   format = '%(Nom)s')\n\ndb.define_table('TypeBook',\n   Field('Nom', unique=True),\n   format = '%(Nom)s')\n\n\ndb.define_table('Book',\n   Field('Name', unique=True),\n   Field('Date'),\n   Field('Authors','list:reference Author'),\n   Field('Tag','list:reference Tag'),\n   Field('Price','list:reference Price'),\n   Field('Seller','list:reference Seller'),\n   Field('Convention','list:reference Convention'),\n   Field('Vote','list:reference Vote'),\n   Field('BarCode','list:reference BarCode'),\n   Field('Comment','list:reference Comment'),\n   Field('Link','list:reference Link'),\n   format = '%(Nom)s')\n\n\ndb.define_table('TypeGoodie',\n   Field('Nom', unique=True),\n   format = '%(Nom)s')\n\n\ndb.define_table('Goodie',\n   Field('Name', unique=True),\n   Field('Date'),\n   Field('Authors','list:reference Author'),\n   Field('Tag','list:reference Tag'),\n   Field('Price','list:reference Price'),\n   Field('Seller','list:reference Seller'),\n   Field('Convention','list:reference Convention'),\n   Field('Vote','list:reference Vote'),\n   Field('BarCode','list:reference BarCode'),\n   Field('Comment','list:reference Comment'),\n   Field('Link','list:reference Link'),\n   format = '%(Nom)s')\n\n\n\ndb.define_table('GPS',\n   Field('GPS', unique=True),\n   Field('Tag','list:reference Tag'),\n   format = '%(GPS)s')\n\ndb.define_table('GeoHash',\n   Field('GeoHash', unique=True),\n   Field('Tag','list:reference Tag'),\n   format = '%(GeoHash)s')\n\ndb.define_table('OpenStreetMap',\n   Field('OpenStreetMap', unique=True),\n   Field('Tag','list:reference Tag'),\n   format = '%(OpenStreetMap)s')\n\ndb.define_table('Country',\n   Field('Name', unique=True),\n   Field('Link','list:reference Link'),\n   Field('GPS','list:reference GPS'),\n   Field('GeoHash','list:reference GeoHash'),\n   Field('OpenStreetMap','list:reference OpenStreetMap'),\n   format = '%(Name)s')\n   \ndb.define_table('State',\n   Field('Name', unique=True),\n   Field('Link','list:reference Link'),\n   Field('GPS','list:reference GPS'),\n   Field('GeoHash','list:reference GeoHash'),\n   Field('OpenStreetMap','list:reference OpenStreetMap'),\n   format = '%(Name)s')\n   \n\ndb.define_table('Region',\n   Field('Name', unique=True),\n   Field('Link','list:reference Link'),\n   Field('GPS','list:reference GPS'),\n   Field('GeoHash','list:reference GeoHash'),\n   Field('OpenStreetMap','list:reference OpenStreetMap'),\n   format = '%(Name)s')\n   \n \ndb.define_table('City',\n   Field('Name', unique=True),\n   Field('Link','list:reference Link'),\n   Field('GPS','list:reference GPS'),\n   Field('GeoHash','list:reference GeoHash'),\n   Field('OpenStreetMap','list:reference OpenStreetMap'),\n   format = '%(Name)s')\n\ndb.define_table('Adress',\n   Field('Name', unique=True),\n   Field('Number', unique=True),\n   Field('Link','list:reference Link'),\n   Field('GPS','list:reference GPS'),\n   Field('GeoHash','list:reference GeoHash'),\n   Field('OpenStreetMap','list:reference OpenStreetMap'),\n   format = '%(Name)s')\n   \ndb.define_table('PostalCode',\n   Field('Name', unique=True),\n   Field('Number', unique=True),\n   Field('Link','list:reference Link'),\n   Field('GPS','list:reference GPS'),\n   Field('GeoHash','list:reference GeoHash'),\n   Field('OpenStreetMap','list:reference OpenStreetMap'),\n   format = '%(Name)s')\n   \ndb.define_table('Subway',\n   Field('Name', unique=True),\n   Field('Number', unique=True),\n   format = '%(Name)s')\n  \n\ndb.define_table('SubwayStation',\n   Field('Name', unique=True),\n   Field('Subway','list:reference Subway'),\n   format = '%(Name)s')\n\n\ndb.define_table('Bus',\n   Field('Name', unique=True),\n   Field('Number', unique=True),\n   format = '%(Name)s')\n  \n\ndb.define_table('BusStation',\n   Field('Name', unique=True),\n   Field('Subway','list:reference Subway'),\n   format = '%(Name)s')\n\ndb.define_table('Localisation',\n   Field('Name', unique=True),\n   Field('Link','list:reference Link'),\n   Field('GPS','list:reference GPS'),\n   Field('GeoHash','list:reference GeoHash'),\n   Field('OpenStreetMap','list:reference OpenStreetMap'),\n   Field('Country','list:reference Country'),\n   Field('State','list:reference State'),\n   Field('Region','list:reference Region'),\n   Field('City','list:reference City'),\n   Field('Adress','list:reference Adress'),\n   Field('PostalCode','list:reference PostalCode'),\n   Field('SubwayStation','list:reference SubwayStation'),\n   Field('BusStation','list:reference BusStation'),\n   format = '%(Name)s')\n   \n\ndb.define_table('image',\n   Field('title', unique=True),\n   Field('file', 'upload'),\n   format = '%(title)s')\n\n\ndb.define_table('Cour',\n    Field('Price', Float),\n    format = '%(Price)s')\n\ndb.define_table('Currency',\n   Field('Name', unique=True),\n   Field('Cour', db.Cour),\n   format = '%(Name)s')\n   \n   \ndb.define_table('Price',\n   Field('Currency', db.Currency),\n   Field('Price', Float),\n   format = '%(Price,Currency)s')\n   \ndb.define_table('Seller',\n   Field('Name', unique=True),\n   Field('Date'),\n   Field('Localisation','list:reference Localisation'),\n   Field('Tag','list:reference Tag'),\n   Field('Comment','list:reference Comment'),\n   Field('Link','list:reference Link'),\n   format = '%(Nom)s')   \n\ndb.define_table('FamilleTag',\n   Field('Name', unique=True),\n   Field('Tag','list:reference Tag'),\n   format = '%(Name)s')\n   \ndb.define_table('Tag',\n   Field('Name', unique=True),\n   format = '%(Name)s')\n   \ndb.define_table('AssoTag',\n   Field('Name', unique=True),\n   Field('Tag','list:reference Tag'),\n   Field('FamilleTag','list:reference FamilleTag'),\n   format = '%(Name)s')\n   \ndb.define_table('VoteHK',\n   Field('Auth', db.Auth),\n   format = '%(Auth)s')\n   \ndb.define_table('VoteNonHK',\n   Field('Auth', db.Auth),\n   format = '%(Auth)s')\n\ndb.define_table('VoteAskHK',\n   Field('Auth', db.Auth),\n   format = '%(Auth)s')\n## by default give a view/generic.extension to all actions from localhost\n## none otherwise. a pattern can be 'controller/function.extension'\nresponse.generic_patterns = ['*'] if request.is_local else []\n## (optional) optimize handling of static files\n# response.optimize_css = 'concat,minify,inline'\n# response.optimize_js = 'concat,minify,inline'\n\n#########################################################################\n## Here is sample code if you need for\n## - email capabilities\n## - authentication (registration, login, logout, ... )\n## - authorization (role based authorization)\n## - services (xml, csv, json, xmlrpc, jsonrpc, amf, rss)\n## - old style crud actions\n## (more options discussed in gluon/tools.py)\n#########################################################################\n\nfrom gluon.tools import Auth, Crud, Service, PluginManager, prettydate\nauth = Auth(db, hmac_key=Auth.get_or_create_key())\ncrud, service, plugins = Crud(db), Service(), PluginManager()\n\n## create all tables needed by auth if not custom tables\nauth.define_tables()\n\n## configure email\nmail=auth.settings.mailer\nmail.settings.server = 'logging' or 'smtp.gmail.com:587'\nmail.settings.sender = 'you@gmail.com'\nmail.settings.login = 'Authname:password'\n\n## configure auth policy\nauth.settings.registration_requires_verification = False\nauth.settings.registration_requires_approval = False\nauth.settings.reset_password_requires_verification = True\n\n## if you need to use OpenID, Facebook, MySpace, Twitter, Linkedin, etc.\n## register with janrain.com, write your domain:api_key in private/janrain.key\nfrom gluon.contrib.login_methods.rpx_account import use_janrain\nuse_janrain(auth,filename='private/janrain.key')\n\n#########################################################################\n## Define your tables below (or better in another model file) for example\n##\n## >>> db.define_table('mytable',Field('myfield','string'))\n##\n## Fields can be 'string','text','password',''integer'','double','boolean'\n##       'date','time','datetime','blob','upload', 'reference TABLENAME'\n## There is an implicit 'id 'integer' autoincrement' field\n## Consult manual for more options, validators, etc.\n##\n## More API examples for controllers:\n##\n## >>> db.mytable.insert(myfield='value')\n## >>> rows=db(db.mytable.myfield=='value').select(db.mytable.ALL)\n## >>> for row in rows: print row.id, row.myfield\n#########################################################################\n"
p7
sS'snapshot'
p8
(dp9
S'exception'
p10
(dp11
S'__hash__'
p12
S"<method-wrapper '__hash__' of exceptions.KeyError object at 0x03B65F30>"
p13
sS'__setattr__'
p14
S"<method-wrapper '__setattr__' of exceptions.KeyError object at 0x03B65F30>"
p15
sS'__reduce_ex__'
p16
S'<built-in method __reduce_ex__ of exceptions.KeyError object at 0x03B65F30>'
p17
sS'__getslice__'
p18
S"<method-wrapper '__getslice__' of exceptions.KeyError object at 0x03B65F30>"
p19
sS'__getitem__'
p20
S"<method-wrapper '__getitem__' of exceptions.KeyError object at 0x03B65F30>"
p21
sS'__setstate__'
p22
S'<built-in method __setstate__ of exceptions.KeyError object at 0x03B65F30>'
p23
sS'__reduce__'
p24
S'<built-in method __reduce__ of exceptions.KeyError object at 0x03B65F30>'
p25
sS'__str__'
p26
S"<method-wrapper '__str__' of exceptions.KeyError object at 0x03B65F30>"
p27
sS'args'
p28
S"('Auth',)"
p29
sS'__getattribute__'
p30
S"<method-wrapper '__getattribute__' of exceptions.KeyError object at 0x03B65F30>"
p31
sS'__class__'
p32
S"<type 'exceptions.KeyError'>"
p33
sS'__delattr__'
p34
S"<method-wrapper '__delattr__' of exceptions.KeyError object at 0x03B65F30>"
p35
sS'__repr__'
p36
S"<method-wrapper '__repr__' of exceptions.KeyError object at 0x03B65F30>"
p37
sS'__dict__'
p38
S'{}'
p39
sS'__doc__'
p40
S"'Mapping key not found.'"
p41
sS'__init__'
p42
S"<method-wrapper '__init__' of exceptions.KeyError object at 0x03B65F30>"
p43
sS'__new__'
p44
S'<built-in method __new__ of type object at 0x1E1CDFB8>'
p45
ssS'evalue'
p46
S"'Auth'"
p47
sS'request'
p48
ccopy_reg
_reconstructor
p49
(cgluon.html
BEAUTIFY
p50
c__builtin__
object
p51
NtRp52
(dp53
S'attributes'
p54
(dp55
sS'components'
p56
(lp57
g49
(cgluon.html
TABLE
p58
g51
NtRp59
(dp60
g54
(dp61
S'level'
p62
I5
ssS'parent'
p63
Nsg56
(lp64
g49
(cgluon.html
TR
p65
g51
NtRp66
(dp67
g54
(dp68
sg63
g59
sg56
(lp69
g49
(cgluon.html
TD
p70
g51
NtRp71
(dp72
g54
(dp73
S'_style'
p74
S'font-weight:bold;vertical-align:top'
p75
ssg63
g66
sg56
(lp76
S'ajax'
p77
asbag49
(g70
g51
NtRp78
(dp79
g54
(dp80
S'_valign'
p81
S'top'
p82
ssg63
g66
sg56
(lp83
S':'
asbag49
(g70
g51
NtRp84
(dp85
g54
(dp86
sg63
g66
sg56
(lp87
g49
(g50
g51
NtRp88
(dp89
g54
(dp90
g62
I5
ssg63
g84
sg56
(lp91
S'False'
p92
asbasbasbag49
(g65
g51
NtRp93
(dp94
g54
(dp95
sg63
g59
sg56
(lp96
g49
(g70
g51
NtRp97
(dp98
g54
(dp99
g74
g75
ssg63
g93
sg56
(lp100
S'application'
p101
asbag49
(g70
g51
NtRp102
(dp103
g54
(dp104
g81
g82
ssg63
g93
sg56
(lp105
S':'
asbag49
(g70
g51
NtRp106
(dp107
g54
(dp108
sg63
g93
sg56
(lp109
g49
(g50
g51
NtRp110
(dp111
g54
(dp112
g62
I5
ssg63
g106
sg56
(lp113
S'init'
p114
asbasbasbag49
(g65
g51
NtRp115
(dp116
g54
(dp117
sg63
g59
sg56
(lp118
g49
(g70
g51
NtRp119
(dp120
g54
(dp121
g74
g75
ssg63
g115
sg56
(lp122
g28
asbag49
(g70
g51
NtRp123
(dp124
g54
(dp125
g81
g82
ssg63
g115
sg56
(lp126
S':'
asbag49
(g70
g51
NtRp127
(dp128
g54
(dp129
sg63
g115
sg56
(lp130
g49
(g50
g51
NtRp131
(dp132
g54
(dp133
g62
I5
ssg63
g127
sg56
(lp134
g49
(g58
g51
NtRp135
(dp136
g54
(dp137
g62
I4
ssg63
Nsg56
(lp138
sbasbasbasbag49
(g65
g51
NtRp139
(dp140
g54
(dp141
sg63
g59
sg56
(lp142
g49
(g70
g51
NtRp143
(dp144
g54
(dp145
g74
g75
ssg63
g139
sg56
(lp146
S'body'
p147
asbag49
(g70
g51
NtRp148
(dp149
g54
(dp150
g81
g82
ssg63
g139
sg56
(lp151
S':'
asbag49
(g70
g51
NtRp152
(dp153
g54
(dp154
sg63
g139
sg56
(lp155
g49
(g50
g51
NtRp156
(dp157
g54
(dp158
g62
I5
ssg63
g152
sg56
(lp159
S'<cStringIO.StringO object at 0x03B5E460>'
p160
asbasbasbag49
(g65
g51
NtRp161
(dp162
g54
(dp163
sg63
g59
sg56
(lp164
g49
(g70
g51
NtRp165
(dp166
g54
(dp167
g74
g75
ssg63
g161
sg56
(lp168
S'client'
p169
asbag49
(g70
g51
NtRp170
(dp171
g54
(dp172
g81
g82
ssg63
g161
sg56
(lp173
S':'
asbag49
(g70
g51
NtRp174
(dp175
g54
(dp176
sg63
g161
sg56
(lp177
g49
(g50
g51
NtRp178
(dp179
g54
(dp180
g62
I5
ssg63
g174
sg56
(lp181
S'127.0.0.1'
p182
asbasbasbag49
(g65
g51
NtRp183
(dp184
g54
(dp185
sg63
g59
sg56
(lp186
g49
(g70
g51
NtRp187
(dp188
g54
(dp189
g74
g75
ssg63
g183
sg56
(lp190
S'controller'
p191
asbag49
(g70
g51
NtRp192
(dp193
g54
(dp194
g81
g82
ssg63
g183
sg56
(lp195
S':'
asbag49
(g70
g51
NtRp196
(dp197
g54
(dp198
sg63
g183
sg56
(lp199
g49
(g50
g51
NtRp200
(dp201
g54
(dp202
g62
I5
ssg63
g196
sg56
(lp203
S'default'
p204
asbasbasbag49
(g65
g51
NtRp205
(dp206
g54
(dp207
sg63
g59
sg56
(lp208
g49
(g70
g51
NtRp209
(dp210
g54
(dp211
g74
g75
ssg63
g205
sg56
(lp212
S'cookies'
p213
asbag49
(g70
g51
NtRp214
(dp215
g54
(dp216
g81
g82
ssg63
g205
sg56
(lp217
S':'
asbag49
(g70
g51
NtRp218
(dp219
g54
(dp220
sg63
g205
sg56
(lp221
g49
(g50
g51
NtRp222
(dp223
g54
(dp224
g62
I5
ssg63
g218
sg56
(lp225
g49
(g58
g51
NtRp226
(dp227
g54
(dp228
g62
I4
ssg63
Nsg56
(lp229
sbasbasbasbag49
(g65
g51
NtRp230
(dp231
g54
(dp232
sg63
g59
sg56
(lp233
g49
(g70
g51
NtRp234
(dp235
g54
(dp236
g74
g75
ssg63
g230
sg56
(lp237
S'env'
p238
asbag49
(g70
g51
NtRp239
(dp240
g54
(dp241
g81
g82
ssg63
g230
sg56
(lp242
S':'
asbag49
(g70
g51
NtRp243
(dp244
g54
(dp245
sg63
g230
sg56
(lp246
g49
(g50
g51
NtRp247
(dp248
g54
(dp249
g62
I5
ssg63
g243
sg56
(lp250
g49
(g58
g51
NtRp251
(dp252
g54
(dp253
g62
I4
ssg63
Nsg56
(lp254
g49
(g65
g51
NtRp255
(dp256
g54
(dp257
sg63
g251
sg56
(lp258
g49
(g70
g51
NtRp259
(dp260
g54
(dp261
g74
g75
ssg63
g255
sg56
(lp262
S'app_folders'
p263
asbag49
(g70
g51
NtRp264
(dp265
g54
(dp266
g81
g82
ssg63
g255
sg56
(lp267
S':'
asbag49
(g70
g51
NtRp268
(dp269
g54
(dp270
sg63
g255
sg56
(lp271
g49
(g50
g51
NtRp272
(dp273
g54
(dp274
g62
I4
ssg63
g268
sg56
(lp275
S"set(['C:\\\\Users\\\\Bussiere\\\\Dropbox\\\\Projets\\\\Yuki\\\\web2py\\\\applications\\\\init\\\\'])"
p276
asbasbasbag49
(g65
g51
NtRp277
(dp278
g54
(dp279
sg63
g251
sg56
(lp280
g49
(g70
g51
NtRp281
(dp282
g54
(dp283
g74
g75
ssg63
g277
sg56
(lp284
S'applications_parent'
p285
asbag49
(g70
g51
NtRp286
(dp287
g54
(dp288
g81
g82
ssg63
g277
sg56
(lp289
S':'
asbag49
(g70
g51
NtRp290
(dp291
g54
(dp292
sg63
g277
sg56
(lp293
g49
(g50
g51
NtRp294
(dp295
g54
(dp296
g62
I4
ssg63
g290
sg56
(lp297
S'C:\\Users\\Bussiere\\Dropbox\\Projets\\Yuki\\web2py'
p298
asbasbasbag49
(g65
g51
NtRp299
(dp300
g54
(dp301
sg63
g251
sg56
(lp302
g49
(g70
g51
NtRp303
(dp304
g54
(dp305
g74
g75
ssg63
g299
sg56
(lp306
S'cmd_args'
p307
asbag49
(g70
g51
NtRp308
(dp309
g54
(dp310
g81
g82
ssg63
g299
sg56
(lp311
S':'
asbag49
(g70
g51
NtRp312
(dp313
g54
(dp314
sg63
g299
sg56
(lp315
g49
(g50
g51
NtRp316
(dp317
g54
(dp318
g62
I4
ssg63
g312
sg56
(lp319
g49
(g58
g51
NtRp320
(dp321
g54
(dp322
g62
I3
ssg63
Nsg56
(lp323
sbasbasbasbag49
(g65
g51
NtRp324
(dp325
g54
(dp326
sg63
g251
sg56
(lp327
g49
(g70
g51
NtRp328
(dp329
g54
(dp330
g74
g75
ssg63
g324
sg56
(lp331
S'cmd_options'
p332
asbag49
(g70
g51
NtRp333
(dp334
g54
(dp335
g81
g82
ssg63
g324
sg56
(lp336
S':'
asbag49
(g70
g51
NtRp337
(dp338
g54
(dp339
sg63
g324
sg56
(lp340
g49
(g50
g51
NtRp341
(dp342
g54
(dp343
g62
I4
ssg63
g337
sg56
(lp344
S"<Values at 0x3b54f58: {'verbose': False, 'ip': '127.0.0.1', 'shutdown_timeout': 5, 'taskbar': False, 'nocron': False, 'pid_filename': 'httpserver.pid', 'maxthreads': None, 'softcron': False, 'server_name': 'Batou', 'bpython': False, 'nogui': False, 'port': 8000, 'extcron': False, 'debuglevel': 30, 'test': None, 'folder': 'C:\\\\Users\\\\Bussiere\\\\Dropbox\\\\Projets\\\\Yuki\\\\web2py', 'config': '', 'import_models': False, 'winservice': '', 'shell': None, 'run': '', 'log_filename': 'httpserver.log', 'args': [''], 'socket_timeout': 5, 'ssl_ca_certificate': None, 'scheduler': None, 'profiler_filename': None, 'ssl_private_key': '', 'password': '<ask>', 'request_queue_size': 5, 'ssl_certificate': '', 'cronjob': False, 'numthreads': None, 'quiet': False, 'interfaces': None, 'minthreads': None, 'timeout': 10, 'plain': False, 'nobanner': False}>"
p345
asbasbasbag49
(g65
g51
NtRp346
(dp347
g54
(dp348
sg63
g251
sg56
(lp349
g49
(g70
g51
NtRp350
(dp351
g54
(dp352
g74
g75
ssg63
g346
sg56
(lp353
S'db_sessions'
p354
asbag49
(g70
g51
NtRp355
(dp356
g54
(dp357
g81
g82
ssg63
g346
sg56
(lp358
S':'
asbag49
(g70
g51
NtRp359
(dp360
g54
(dp361
sg63
g346
sg56
(lp362
g49
(g50
g51
NtRp363
(dp364
g54
(dp365
g62
I4
ssg63
g359
sg56
(lp366
S'set([])'
p367
asbasbasbag49
(g65
g51
NtRp368
(dp369
g54
(dp370
sg63
g251
sg56
(lp371
g49
(g70
g51
NtRp372
(dp373
g54
(dp374
g74
g75
ssg63
g368
sg56
(lp375
S'debugging'
p376
asbag49
(g70
g51
NtRp377
(dp378
g54
(dp379
g81
g82
ssg63
g368
sg56
(lp380
S':'
asbag49
(g70
g51
NtRp381
(dp382
g54
(dp383
sg63
g368
sg56
(lp384
g49
(g50
g51
NtRp385
(dp386
g54
(dp387
g62
I4
ssg63
g381
sg56
(lp388
S'True'
p389
asbasbasbag49
(g65
g51
NtRp390
(dp391
g54
(dp392
sg63
g251
sg56
(lp393
g49
(g70
g51
NtRp394
(dp395
g54
(dp396
g74
g75
ssg63
g390
sg56
(lp397
S'gluon_parent'
p398
asbag49
(g70
g51
NtRp399
(dp400
g54
(dp401
g81
g82
ssg63
g390
sg56
(lp402
S':'
asbag49
(g70
g51
NtRp403
(dp404
g54
(dp405
sg63
g390
sg56
(lp406
g49
(g50
g51
NtRp407
(dp408
g54
(dp409
g62
I4
ssg63
g403
sg56
(lp410
S'C:\\Users\\Bussiere\\Dropbox\\Projets\\Yuki\\web2py'
p411
asbasbasbag49
(g65
g51
NtRp412
(dp413
g54
(dp414
sg63
g251
sg56
(lp415
g49
(g70
g51
NtRp416
(dp417
g54
(dp418
g74
g75
ssg63
g412
sg56
(lp419
S'http_accept'
p420
asbag49
(g70
g51
NtRp421
(dp422
g54
(dp423
g81
g82
ssg63
g412
sg56
(lp424
S':'
asbag49
(g70
g51
NtRp425
(dp426
g54
(dp427
sg63
g412
sg56
(lp428
g49
(g50
g51
NtRp429
(dp430
g54
(dp431
g62
I4
ssg63
g425
sg56
(lp432
S'text/html,application/xhtml+xml,application/xml;q=0.9,*/*;q=0.8'
p433
asbasbasbag49
(g65
g51
NtRp434
(dp435
g54
(dp436
sg63
g251
sg56
(lp437
g49
(g70
g51
NtRp438
(dp439
g54
(dp440
g74
g75
ssg63
g434
sg56
(lp441
S'http_accept_charset'
p442
asbag49
(g70
g51
NtRp443
(dp444
g54
(dp445
g81
g82
ssg63
g434
sg56
(lp446
S':'
asbag49
(g70
g51
NtRp447
(dp448
g54
(dp449
sg63
g434
sg56
(lp450
g49
(g50
g51
NtRp451
(dp452
g54
(dp453
g62
I4
ssg63
g447
sg56
(lp454
S'ISO-8859-1,utf-8;q=0.7,*;q=0.3'
p455
asbasbasbag49
(g65
g51
NtRp456
(dp457
g54
(dp458
sg63
g251
sg56
(lp459
g49
(g70
g51
NtRp460
(dp461
g54
(dp462
g74
g75
ssg63
g456
sg56
(lp463
S'http_accept_encoding'
p464
asbag49
(g70
g51
NtRp465
(dp466
g54
(dp467
g81
g82
ssg63
g456
sg56
(lp468
S':'
asbag49
(g70
g51
NtRp469
(dp470
g54
(dp471
sg63
g456
sg56
(lp472
g49
(g50
g51
NtRp473
(dp474
g54
(dp475
g62
I4
ssg63
g469
sg56
(lp476
S'gzip,deflate,sdch'
p477
asbasbasbag49
(g65
g51
NtRp478
(dp479
g54
(dp480
sg63
g251
sg56
(lp481
g49
(g70
g51
NtRp482
(dp483
g54
(dp484
g74
g75
ssg63
g478
sg56
(lp485
S'http_accept_language'
p486
asbag49
(g70
g51
NtRp487
(dp488
g54
(dp489
g81
g82
ssg63
g478
sg56
(lp490
S':'
asbag49
(g70
g51
NtRp491
(dp492
g54
(dp493
sg63
g478
sg56
(lp494
g49
(g50
g51
NtRp495
(dp496
g54
(dp497
g62
I4
ssg63
g491
sg56
(lp498
S'en-US,en;q=0.8'
p499
asbasbasbag49
(g65
g51
NtRp500
(dp501
g54
(dp502
sg63
g251
sg56
(lp503
g49
(g70
g51
NtRp504
(dp505
g54
(dp506
g74
g75
ssg63
g500
sg56
(lp507
S'http_connection'
p508
asbag49
(g70
g51
NtRp509
(dp510
g54
(dp511
g81
g82
ssg63
g500
sg56
(lp512
S':'
asbag49
(g70
g51
NtRp513
(dp514
g54
(dp515
sg63
g500
sg56
(lp516
g49
(g50
g51
NtRp517
(dp518
g54
(dp519
g62
I4
ssg63
g513
sg56
(lp520
S'keep-alive'
p521
asbasbasbag49
(g65
g51
NtRp522
(dp523
g54
(dp524
sg63
g251
sg56
(lp525
g49
(g70
g51
NtRp526
(dp527
g54
(dp528
g74
g75
ssg63
g522
sg56
(lp529
S'http_host'
p530
asbag49
(g70
g51
NtRp531
(dp532
g54
(dp533
g81
g82
ssg63
g522
sg56
(lp534
S':'
asbag49
(g70
g51
NtRp535
(dp536
g54
(dp537
sg63
g522
sg56
(lp538
g49
(g50
g51
NtRp539
(dp540
g54
(dp541
g62
I4
ssg63
g535
sg56
(lp542
S'127.0.0.1:8000'
p543
asbasbasbag49
(g65
g51
NtRp544
(dp545
g54
(dp546
sg63
g251
sg56
(lp547
g49
(g70
g51
NtRp548
(dp549
g54
(dp550
g74
g75
ssg63
g544
sg56
(lp551
S'http_user_agent'
p552
asbag49
(g70
g51
NtRp553
(dp554
g54
(dp555
g81
g82
ssg63
g544
sg56
(lp556
S':'
asbag49
(g70
g51
NtRp557
(dp558
g54
(dp559
sg63
g544
sg56
(lp560
g49
(g50
g51
NtRp561
(dp562
g54
(dp563
g62
I4
ssg63
g557
sg56
(lp564
S'Mozilla/5.0 (Windows NT 6.1; WOW64) AppleWebKit/535.18 (KHTML, like Gecko) Chrome/18.0.1011.0 Safari/535.18'
p565
asbasbasbag49
(g65
g51
NtRp566
(dp567
g54
(dp568
sg63
g251
sg56
(lp569
g49
(g70
g51
NtRp570
(dp571
g54
(dp572
g74
g75
ssg63
g566
sg56
(lp573
S'is_jython'
p574
asbag49
(g70
g51
NtRp575
(dp576
g54
(dp577
g81
g82
ssg63
g566
sg56
(lp578
S':'
asbag49
(g70
g51
NtRp579
(dp580
g54
(dp581
sg63
g566
sg56
(lp582
g49
(g50
g51
NtRp583
(dp584
g54
(dp585
g62
I4
ssg63
g579
sg56
(lp586
g92
asbasbasbag49
(g65
g51
NtRp587
(dp588
g54
(dp589
sg63
g251
sg56
(lp590
g49
(g70
g51
NtRp591
(dp592
g54
(dp593
g74
g75
ssg63
g587
sg56
(lp594
S'is_pypy'
p595
asbag49
(g70
g51
NtRp596
(dp597
g54
(dp598
g81
g82
ssg63
g587
sg56
(lp599
S':'
asbag49
(g70
g51
NtRp600
(dp601
g54
(dp602
sg63
g587
sg56
(lp603
g49
(g50
g51
NtRp604
(dp605
g54
(dp606
g62
I4
ssg63
g600
sg56
(lp607
g92
asbasbasbag49
(g65
g51
NtRp608
(dp609
g54
(dp610
sg63
g251
sg56
(lp611
g49
(g70
g51
NtRp612
(dp613
g54
(dp614
g74
g75
ssg63
g608
sg56
(lp615
S'path_info'
p616
asbag49
(g70
g51
NtRp617
(dp618
g54
(dp619
g81
g82
ssg63
g608
sg56
(lp620
S':'
asbag49
(g70
g51
NtRp621
(dp622
g54
(dp623
sg63
g608
sg56
(lp624
g49
(g50
g51
NtRp625
(dp626
g54
(dp627
g62
I4
ssg63
g621
sg56
(lp628
S'/'
asbasbasbag49
(g65
g51
NtRp629
(dp630
g54
(dp631
sg63
g251
sg56
(lp632
g49
(g70
g51
NtRp633
(dp634
g54
(dp635
g74
g75
ssg63
g629
sg56
(lp636
S'query_string'
p637
asbag49
(g70
g51
NtRp638
(dp639
g54
(dp640
g81
g82
ssg63
g629
sg56
(lp641
S':'
asbag49
(g70
g51
NtRp642
(dp643
g54
(dp644
sg63
g629
sg56
(lp645
g49
(g50
g51
NtRp646
(dp647
g54
(dp648
g62
I4
ssg63
g642
sg56
(lp649
S''
asbasbasbag49
(g65
g51
NtRp650
(dp651
g54
(dp652
sg63
g251
sg56
(lp653
g49
(g70
g51
NtRp654
(dp655
g54
(dp656
g74
g75
ssg63
g650
sg56
(lp657
S'remote_addr'
p658
asbag49
(g70
g51
NtRp659
(dp660
g54
(dp661
g81
g82
ssg63
g650
sg56
(lp662
S':'
asbag49
(g70
g51
NtRp663
(dp664
g54
(dp665
sg63
g650
sg56
(lp666
g49
(g50
g51
NtRp667
(dp668
g54
(dp669
g62
I4
ssg63
g663
sg56
(lp670
g182
asbasbasbag49
(g65
g51
NtRp671
(dp672
g54
(dp673
sg63
g251
sg56
(lp674
g49
(g70
g51
NtRp675
(dp676
g54
(dp677
g74
g75
ssg63
g671
sg56
(lp678
S'remote_port'
p679
asbag49
(g70
g51
NtRp680
(dp681
g54
(dp682
g81
g82
ssg63
g671
sg56
(lp683
S':'
asbag49
(g70
g51
NtRp684
(dp685
g54
(dp686
sg63
g671
sg56
(lp687
g49
(g50
g51
NtRp688
(dp689
g54
(dp690
g62
I4
ssg63
g684
sg56
(lp691
S'49369'
p692
asbasbasbag49
(g65
g51
NtRp693
(dp694
g54
(dp695
sg63
g251
sg56
(lp696
g49
(g70
g51
NtRp697
(dp698
g54
(dp699
g74
g75
ssg63
g693
sg56
(lp700
S'request_method'
p701
asbag49
(g70
g51
NtRp702
(dp703
g54
(dp704
g81
g82
ssg63
g693
sg56
(lp705
S':'
asbag49
(g70
g51
NtRp706
(dp707
g54
(dp708
sg63
g693
sg56
(lp709
g49
(g50
g51
NtRp710
(dp711
g54
(dp712
g62
I4
ssg63
g706
sg56
(lp713
S'GET'
p714
asbasbasbag49
(g65
g51
NtRp715
(dp716
g54
(dp717
sg63
g251
sg56
(lp718
g49
(g70
g51
NtRp719
(dp720
g54
(dp721
g74
g75
ssg63
g715
sg56
(lp722
S'script_name'
p723
asbag49
(g70
g51
NtRp724
(dp725
g54
(dp726
g81
g82
ssg63
g715
sg56
(lp727
S':'
asbag49
(g70
g51
NtRp728
(dp729
g54
(dp730
sg63
g715
sg56
(lp731
g49
(g50
g51
NtRp732
(dp733
g54
(dp734
g62
I4
ssg63
g728
sg56
(lp735
S''
asbasbasbag49
(g65
g51
NtRp736
(dp737
g54
(dp738
sg63
g251
sg56
(lp739
g49
(g70
g51
NtRp740
(dp741
g54
(dp742
g74
g75
ssg63
g736
sg56
(lp743
S'server_name'
p744
asbag49
(g70
g51
NtRp745
(dp746
g54
(dp747
g81
g82
ssg63
g736
sg56
(lp748
S':'
asbag49
(g70
g51
NtRp749
(dp750
g54
(dp751
sg63
g736
sg56
(lp752
g49
(g50
g51
NtRp753
(dp754
g54
(dp755
g62
I4
ssg63
g749
sg56
(lp756
S'Batou'
p757
asbasbasbag49
(g65
g51
NtRp758
(dp759
g54
(dp760
sg63
g251
sg56
(lp761
g49
(g70
g51
NtRp762
(dp763
g54
(dp764
g74
g75
ssg63
g758
sg56
(lp765
S'server_port'
p766
asbag49
(g70
g51
NtRp767
(dp768
g54
(dp769
g81
g82
ssg63
g758
sg56
(lp770
S':'
asbag49
(g70
g51
NtRp771
(dp772
g54
(dp773
sg63
g758
sg56
(lp774
g49
(g50
g51
NtRp775
(dp776
g54
(dp777
g62
I4
ssg63
g771
sg56
(lp778
S'8000'
p779
asbasbasbag49
(g65
g51
NtRp780
(dp781
g54
(dp782
sg63
g251
sg56
(lp783
g49
(g70
g51
NtRp784
(dp785
g54
(dp786
g74
g75
ssg63
g780
sg56
(lp787
S'server_protocol'
p788
asbag49
(g70
g51
NtRp789
(dp790
g54
(dp791
g81
g82
ssg63
g780
sg56
(lp792
S':'
asbag49
(g70
g51
NtRp793
(dp794
g54
(dp795
sg63
g780
sg56
(lp796
g49
(g50
g51
NtRp797
(dp798
g54
(dp799
g62
I4
ssg63
g793
sg56
(lp800
S'HTTP/1.1'
p801
asbasbasbag49
(g65
g51
NtRp802
(dp803
g54
(dp804
sg63
g251
sg56
(lp805
g49
(g70
g51
NtRp806
(dp807
g54
(dp808
g74
g75
ssg63
g802
sg56
(lp809
S'server_software'
p810
asbag49
(g70
g51
NtRp811
(dp812
g54
(dp813
g81
g82
ssg63
g802
sg56
(lp814
S':'
asbag49
(g70
g51
NtRp815
(dp816
g54
(dp817
sg63
g802
sg56
(lp818
g49
(g50
g51
NtRp819
(dp820
g54
(dp821
g62
I4
ssg63
g815
sg56
(lp822
S'Rocket 1.2.4'
p823
asbasbasbag49
(g65
g51
NtRp824
(dp825
g54
(dp826
sg63
g251
sg56
(lp827
g49
(g70
g51
NtRp828
(dp829
g54
(dp830
g74
g75
ssg63
g824
sg56
(lp831
S'web2py_crontype'
p832
asbag49
(g70
g51
NtRp833
(dp834
g54
(dp835
g81
g82
ssg63
g824
sg56
(lp836
S':'
asbag49
(g70
g51
NtRp837
(dp838
g54
(dp839
sg63
g824
sg56
(lp840
g49
(g50
g51
NtRp841
(dp842
g54
(dp843
g62
I4
ssg63
g837
sg56
(lp844
S'hard'
p845
asbasbasbag49
(g65
g51
NtRp846
(dp847
g54
(dp848
sg63
g251
sg56
(lp849
g49
(g70
g51
NtRp850
(dp851
g54
(dp852
g74
g75
ssg63
g846
sg56
(lp853
S'web2py_path'
p854
asbag49
(g70
g51
NtRp855
(dp856
g54
(dp857
g81
g82
ssg63
g846
sg56
(lp858
S':'
asbag49
(g70
g51
NtRp859
(dp860
g54
(dp861
sg63
g846
sg56
(lp862
g49
(g50
g51
NtRp863
(dp864
g54
(dp865
g62
I4
ssg63
g859
sg56
(lp866
g298
asbasbasbag49
(g65
g51
NtRp867
(dp868
g54
(dp869
sg63
g251
sg56
(lp870
g49
(g70
g51
NtRp871
(dp872
g54
(dp873
g74
g75
ssg63
g867
sg56
(lp874
S'web2py_version'
p875
asbag49
(g70
g51
NtRp876
(dp877
g54
(dp878
g81
g82
ssg63
g867
sg56
(lp879
S':'
asbag49
(g70
g51
NtRp880
(dp881
g54
(dp882
sg63
g867
sg56
(lp883
g49
(g50
g51
NtRp884
(dp885
g54
(dp886
g62
I4
ssg63
g880
sg56
(lp887
g49
(g58
g51
NtRp888
(dp889
g54
(dp890
g62
I3
ssg63
Nsg56
(lp891
g49
(g65
g51
NtRp892
(dp893
g54
(dp894
sg63
g888
sg56
(lp895
g49
(g70
g51
NtRp896
(dp897
g54
(dp898
sg63
g892
sg56
(lp899
g49
(g50
g51
NtRp900
(dp901
g54
(dp902
g62
I3
ssg63
g896
sg56
(lp903
S'1'
asbasbasbag49
(g65
g51
NtRp904
(dp905
g54
(dp906
sg63
g888
sg56
(lp907
g49
(g70
g51
NtRp908
(dp909
g54
(dp910
sg63
g904
sg56
(lp911
g49
(g50
g51
NtRp912
(dp913
g54
(dp914
g62
I3
ssg63
g908
sg56
(lp915
S'99'
p916
asbasbasbag49
(g65
g51
NtRp917
(dp918
g54
(dp919
sg63
g888
sg56
(lp920
g49
(g70
g51
NtRp921
(dp922
g54
(dp923
sg63
g917
sg56
(lp924
g49
(g50
g51
NtRp925
(dp926
g54
(dp927
g62
I3
ssg63
g921
sg56
(lp928
S'7'
asbasbasbag49
(g65
g51
NtRp929
(dp930
g54
(dp931
sg63
g888
sg56
(lp932
g49
(g70
g51
NtRp933
(dp934
g54
(dp935
sg63
g929
sg56
(lp936
g49
(g50
g51
NtRp937
(dp938
g54
(dp939
g62
I3
ssg63
g933
sg56
(lp940
S'datetime.datetime(2012, 3, 4, 22, 12, 8)'
p941
asbasbasbag49
(g65
g51
NtRp942
(dp943
g54
(dp944
sg63
g888
sg56
(lp945
g49
(g70
g51
NtRp946
(dp947
g54
(dp948
sg63
g942
sg56
(lp949
g49
(g50
g51
NtRp950
(dp951
g54
(dp952
g62
I3
ssg63
g946
sg56
(lp953
S'stable'
p954
asbasbasbasbasbasbasbag49
(g65
g51
NtRp955
(dp956
g54
(dp957
sg63
g251
sg56
(lp958
g49
(g70
g51
NtRp959
(dp960
g54
(dp961
g74
g75
ssg63
g955
sg56
(lp962
S'wsgi_errors'
p963
asbag49
(g70
g51
NtRp964
(dp965
g54
(dp966
g81
g82
ssg63
g955
sg56
(lp967
S':'
asbag49
(g70
g51
NtRp968
(dp969
g54
(dp970
sg63
g955
sg56
(lp971
g49
(g50
g51
NtRp972
(dp973
g54
(dp974
g62
I4
ssg63
g968
sg56
(lp975
S"<open file '<stderr>', mode 'w' at 0x006500B0>"
p976
asbasbasbag49
(g65
g51
NtRp977
(dp978
g54
(dp979
sg63
g251
sg56
(lp980
g49
(g70
g51
NtRp981
(dp982
g54
(dp983
g74
g75
ssg63
g977
sg56
(lp984
S'wsgi_file_wrapper'
p985
asbag49
(g70
g51
NtRp986
(dp987
g54
(dp988
g81
g82
ssg63
g977
sg56
(lp989
S':'
asbag49
(g70
g51
NtRp990
(dp991
g54
(dp992
sg63
g977
sg56
(lp993
g49
(g50
g51
NtRp994
(dp995
g54
(dp996
g62
I4
ssg63
g990
sg56
(lp997
S'<class wsgiref.util.FileWrapper at 0x02BF68D0>'
p998
asbasbasbag49
(g65
g51
NtRp999
(dp1000
g54
(dp1001
sg63
g251
sg56
(lp1002
g49
(g70
g51
NtRp1003
(dp1004
g54
(dp1005
g74
g75
ssg63
g999
sg56
(lp1006
S'wsgi_input'
p1007
asbag49
(g70
g51
NtRp1008
(dp1009
g54
(dp1010
g81
g82
ssg63
g999
sg56
(lp1011
S':'
asbag49
(g70
g51
NtRp1012
(dp1013
g54
(dp1014
sg63
g999
sg56
(lp1015
g49
(g50
g51
NtRp1016
(dp1017
g54
(dp1018
g62
I4
ssg63
g1012
sg56
(lp1019
S'<socket._fileobject object at 0x03B526F0>'
p1020
asbasbasbag49
(g65
g51
NtRp1021
(dp1022
g54
(dp1023
sg63
g251
sg56
(lp1024
g49
(g70
g51
NtRp1025
(dp1026
g54
(dp1027
g74
g75
ssg63
g1021
sg56
(lp1028
S'wsgi_multiprocess'
p1029
asbag49
(g70
g51
NtRp1030
(dp1031
g54
(dp1032
g81
g82
ssg63
g1021
sg56
(lp1033
S':'
asbag49
(g70
g51
NtRp1034
(dp1035
g54
(dp1036
sg63
g1021
sg56
(lp1037
g49
(g50
g51
NtRp1038
(dp1039
g54
(dp1040
g62
I4
ssg63
g1034
sg56
(lp1041
g92
asbasbasbag49
(g65
g51
NtRp1042
(dp1043
g54
(dp1044
sg63
g251
sg56
(lp1045
g49
(g70
g51
NtRp1046
(dp1047
g54
(dp1048
g74
g75
ssg63
g1042
sg56
(lp1049
S'wsgi_multithread'
p1050
asbag49
(g70
g51
NtRp1051
(dp1052
g54
(dp1053
g81
g82
ssg63
g1042
sg56
(lp1054
S':'
asbag49
(g70
g51
NtRp1055
(dp1056
g54
(dp1057
sg63
g1042
sg56
(lp1058
g49
(g50
g51
NtRp1059
(dp1060
g54
(dp1061
g62
I4
ssg63
g1055
sg56
(lp1062
g389
asbasbasbag49
(g65
g51
NtRp1063
(dp1064
g54
(dp1065
sg63
g251
sg56
(lp1066
g49
(g70
g51
NtRp1067
(dp1068
g54
(dp1069
g74
g75
ssg63
g1063
sg56
(lp1070
S'wsgi_run_once'
p1071
asbag49
(g70
g51
NtRp1072
(dp1073
g54
(dp1074
g81
g82
ssg63
g1063
sg56
(lp1075
S':'
asbag49
(g70
g51
NtRp1076
(dp1077
g54
(dp1078
sg63
g1063
sg56
(lp1079
g49
(g50
g51
NtRp1080
(dp1081
g54
(dp1082
g62
I4
ssg63
g1076
sg56
(lp1083
g92
asbasbasbag49
(g65
g51
NtRp1084
(dp1085
g54
(dp1086
sg63
g251
sg56
(lp1087
g49
(g70
g51
NtRp1088
(dp1089
g54
(dp1090
g74
g75
ssg63
g1084
sg56
(lp1091
S'wsgi_url_scheme'
p1092
asbag49
(g70
g51
NtRp1093
(dp1094
g54
(dp1095
g81
g82
ssg63
g1084
sg56
(lp1096
S':'
asbag49
(g70
g51
NtRp1097
(dp1098
g54
(dp1099
sg63
g1084
sg56
(lp1100
g49
(g50
g51
NtRp1101
(dp1102
g54
(dp1103
g62
I4
ssg63
g1097
sg56
(lp1104
S'http'
p1105
asbasbasbag49
(g65
g51
NtRp1106
(dp1107
g54
(dp1108
sg63
g251
sg56
(lp1109
g49
(g70
g51
NtRp1110
(dp1111
g54
(dp1112
g74
g75
ssg63
g1106
sg56
(lp1113
S'wsgi_version'
p1114
asbag49
(g70
g51
NtRp1115
(dp1116
g54
(dp1117
g81
g82
ssg63
g1106
sg56
(lp1118
S':'
asbag49
(g70
g51
NtRp1119
(dp1120
g54
(dp1121
sg63
g1106
sg56
(lp1122
g49
(g50
g51
NtRp1123
(dp1124
g54
(dp1125
g62
I4
ssg63
g1119
sg56
(lp1126
g49
(g58
g51
NtRp1127
(dp1128
g54
(dp1129
g62
I3
ssg63
Nsg56
(lp1130
g49
(g65
g51
NtRp1131
(dp1132
g54
(dp1133
sg63
g1127
sg56
(lp1134
g49
(g70
g51
NtRp1135
(dp1136
g54
(dp1137
sg63
g1131
sg56
(lp1138
g49
(g50
g51
NtRp1139
(dp1140
g54
(dp1141
g62
I3
ssg63
g1135
sg56
(lp1142
S'1'
asbasbasbag49
(g65
g51
NtRp1143
(dp1144
g54
(dp1145
sg63
g1127
sg56
(lp1146
g49
(g70
g51
NtRp1147
(dp1148
g54
(dp1149
sg63
g1143
sg56
(lp1150
g49
(g50
g51
NtRp1151
(dp1152
g54
(dp1153
g62
I3
ssg63
g1147
sg56
(lp1154
S'0'
asbasbasbasbasbasbasbasbasbasbasbag49
(g65
g51
NtRp1155
(dp1156
g54
(dp1157
sg63
g59
sg56
(lp1158
g49
(g70
g51
NtRp1159
(dp1160
g54
(dp1161
g74
g75
ssg63
g1155
sg56
(lp1162
S'extension'
p1163
asbag49
(g70
g51
NtRp1164
(dp1165
g54
(dp1166
g81
g82
ssg63
g1155
sg56
(lp1167
S':'
asbag49
(g70
g51
NtRp1168
(dp1169
g54
(dp1170
sg63
g1155
sg56
(lp1171
g49
(g50
g51
NtRp1172
(dp1173
g54
(dp1174
g62
I5
ssg63
g1168
sg56
(lp1175
S'html'
p1176
asbasbasbag49
(g65
g51
NtRp1177
(dp1178
g54
(dp1179
sg63
g59
sg56
(lp1180
g49
(g70
g51
NtRp1181
(dp1182
g54
(dp1183
g74
g75
ssg63
g1177
sg56
(lp1184
S'folder'
p1185
asbag49
(g70
g51
NtRp1186
(dp1187
g54
(dp1188
g81
g82
ssg63
g1177
sg56
(lp1189
S':'
asbag49
(g70
g51
NtRp1190
(dp1191
g54
(dp1192
sg63
g1177
sg56
(lp1193
g49
(g50
g51
NtRp1194
(dp1195
g54
(dp1196
g62
I5
ssg63
g1190
sg56
(lp1197
S'C:\\Users\\Bussiere\\Dropbox\\Projets\\Yuki\\web2py\\applications\\init\\'
p1198
asbasbasbag49
(g65
g51
NtRp1199
(dp1200
g54
(dp1201
sg63
g59
sg56
(lp1202
g49
(g70
g51
NtRp1203
(dp1204
g54
(dp1205
g74
g75
ssg63
g1199
sg56
(lp1206
S'function'
p1207
asbag49
(g70
g51
NtRp1208
(dp1209
g54
(dp1210
g81
g82
ssg63
g1199
sg56
(lp1211
S':'
asbag49
(g70
g51
NtRp1212
(dp1213
g54
(dp1214
sg63
g1199
sg56
(lp1215
g49
(g50
g51
NtRp1216
(dp1217
g54
(dp1218
g62
I5
ssg63
g1212
sg56
(lp1219
S'index'
p1220
asbasbasbag49
(g65
g51
NtRp1221
(dp1222
g54
(dp1223
sg63
g59
sg56
(lp1224
g49
(g70
g51
NtRp1225
(dp1226
g54
(dp1227
g74
g75
ssg63
g1221
sg56
(lp1228
S'get_vars'
p1229
asbag49
(g70
g51
NtRp1230
(dp1231
g54
(dp1232
g81
g82
ssg63
g1221
sg56
(lp1233
S':'
asbag49
(g70
g51
NtRp1234
(dp1235
g54
(dp1236
sg63
g1221
sg56
(lp1237
g49
(g50
g51
NtRp1238
(dp1239
g54
(dp1240
g62
I5
ssg63
g1234
sg56
(lp1241
g49
(g58
g51
NtRp1242
(dp1243
g54
(dp1244
g62
I4
ssg63
Nsg56
(lp1245
sbasbasbasbag49
(g65
g51
NtRp1246
(dp1247
g54
(dp1248
sg63
g59
sg56
(lp1249
g49
(g70
g51
NtRp1250
(dp1251
g54
(dp1252
g74
g75
ssg63
g1246
sg56
(lp1253
S'global_settings'
p1254
asbag49
(g70
g51
NtRp1255
(dp1256
g54
(dp1257
g81
g82
ssg63
g1246
sg56
(lp1258
S':'
asbag49
(g70
g51
NtRp1259
(dp1260
g54
(dp1261
sg63
g1246
sg56
(lp1262
g49
(g50
g51
NtRp1263
(dp1264
g54
(dp1265
g62
I5
ssg63
g1259
sg56
(lp1266
g49
(g58
g51
NtRp1267
(dp1268
g54
(dp1269
g62
I4
ssg63
Nsg56
(lp1270
g49
(g65
g51
NtRp1271
(dp1272
g54
(dp1273
sg63
g1267
sg56
(lp1274
g49
(g70
g51
NtRp1275
(dp1276
g54
(dp1277
g74
g75
ssg63
g1271
sg56
(lp1278
g263
asbag49
(g70
g51
NtRp1279
(dp1280
g54
(dp1281
g81
g82
ssg63
g1271
sg56
(lp1282
S':'
asbag49
(g70
g51
NtRp1283
(dp1284
g54
(dp1285
sg63
g1271
sg56
(lp1286
g49
(g50
g51
NtRp1287
(dp1288
g54
(dp1289
g62
I4
ssg63
g1283
sg56
(lp1290
S"set(['C:\\\\Users\\\\Bussiere\\\\Dropbox\\\\Projets\\\\Yuki\\\\web2py\\\\applications\\\\init\\\\'])"
p1291
asbasbasbag49
(g65
g51
NtRp1292
(dp1293
g54
(dp1294
sg63
g1267
sg56
(lp1295
g49
(g70
g51
NtRp1296
(dp1297
g54
(dp1298
g74
g75
ssg63
g1292
sg56
(lp1299
g285
asbag49
(g70
g51
NtRp1300
(dp1301
g54
(dp1302
g81
g82
ssg63
g1292
sg56
(lp1303
S':'
asbag49
(g70
g51
NtRp1304
(dp1305
g54
(dp1306
sg63
g1292
sg56
(lp1307
g49
(g50
g51
NtRp1308
(dp1309
g54
(dp1310
g62
I4
ssg63
g1304
sg56
(lp1311
g298
asbasbasbag49
(g65
g51
NtRp1312
(dp1313
g54
(dp1314
sg63
g1267
sg56
(lp1315
g49
(g70
g51
NtRp1316
(dp1317
g54
(dp1318
g74
g75
ssg63
g1312
sg56
(lp1319
g307
asbag49
(g70
g51
NtRp1320
(dp1321
g54
(dp1322
g81
g82
ssg63
g1312
sg56
(lp1323
S':'
asbag49
(g70
g51
NtRp1324
(dp1325
g54
(dp1326
sg63
g1312
sg56
(lp1327
g49
(g50
g51
NtRp1328
(dp1329
g54
(dp1330
g62
I4
ssg63
g1324
sg56
(lp1331
g49
(g58
g51
NtRp1332
(dp1333
g54
(dp1334
g62
I3
ssg63
Nsg56
(lp1335
sbasbasbasbag49
(g65
g51
NtRp1336
(dp1337
g54
(dp1338
sg63
g1267
sg56
(lp1339
g49
(g70
g51
NtRp1340
(dp1341
g54
(dp1342
g74
g75
ssg63
g1336
sg56
(lp1343
g332
asbag49
(g70
g51
NtRp1344
(dp1345
g54
(dp1346
g81
g82
ssg63
g1336
sg56
(lp1347
S':'
asbag49
(g70
g51
NtRp1348
(dp1349
g54
(dp1350
sg63
g1336
sg56
(lp1351
g49
(g50
g51
NtRp1352
(dp1353
g54
(dp1354
g62
I4
ssg63
g1348
sg56
(lp1355
S"<Values at 0x3b54f58: {'verbose': False, 'ip': '127.0.0.1', 'shutdown_timeout': 5, 'taskbar': False, 'nocron': False, 'pid_filename': 'httpserver.pid', 'maxthreads': None, 'softcron': False, 'server_name': 'Batou', 'bpython': False, 'nogui': False, 'port': 8000, 'extcron': False, 'debuglevel': 30, 'test': None, 'folder': 'C:\\\\Users\\\\Bussiere\\\\Dropbox\\\\Projets\\\\Yuki\\\\web2py', 'config': '', 'import_models': False, 'winservice': '', 'shell': None, 'run': '', 'log_filename': 'httpserver.log', 'args': [''], 'socket_timeout': 5, 'ssl_ca_certificate': None, 'scheduler': None, 'profiler_filename': None, 'ssl_private_key': '', 'password': '<ask>', 'request_queue_size': 5, 'ssl_certificate': '', 'cronjob': False, 'numthreads': None, 'quiet': False, 'interfaces': None, 'minthreads': None, 'timeout': 10, 'plain': False, 'nobanner': False}>"
p1356
asbasbasbag49
(g65
g51
NtRp1357
(dp1358
g54
(dp1359
sg63
g1267
sg56
(lp1360
g49
(g70
g51
NtRp1361
(dp1362
g54
(dp1363
g74
g75
ssg63
g1357
sg56
(lp1364
g354
asbag49
(g70
g51
NtRp1365
(dp1366
g54
(dp1367
g81
g82
ssg63
g1357
sg56
(lp1368
S':'
asbag49
(g70
g51
NtRp1369
(dp1370
g54
(dp1371
sg63
g1357
sg56
(lp1372
g49
(g50
g51
NtRp1373
(dp1374
g54
(dp1375
g62
I4
ssg63
g1369
sg56
(lp1376
S'set([])'
p1377
asbasbasbag49
(g65
g51
NtRp1378
(dp1379
g54
(dp1380
sg63
g1267
sg56
(lp1381
g49
(g70
g51
NtRp1382
(dp1383
g54
(dp1384
g74
g75
ssg63
g1378
sg56
(lp1385
g376
asbag49
(g70
g51
NtRp1386
(dp1387
g54
(dp1388
g81
g82
ssg63
g1378
sg56
(lp1389
S':'
asbag49
(g70
g51
NtRp1390
(dp1391
g54
(dp1392
sg63
g1378
sg56
(lp1393
g49
(g50
g51
NtRp1394
(dp1395
g54
(dp1396
g62
I4
ssg63
g1390
sg56
(lp1397
g389
asbasbasbag49
(g65
g51
NtRp1398
(dp1399
g54
(dp1400
sg63
g1267
sg56
(lp1401
g49
(g70
g51
NtRp1402
(dp1403
g54
(dp1404
g74
g75
ssg63
g1398
sg56
(lp1405
g398
asbag49
(g70
g51
NtRp1406
(dp1407
g54
(dp1408
g81
g82
ssg63
g1398
sg56
(lp1409
S':'
asbag49
(g70
g51
NtRp1410
(dp1411
g54
(dp1412
sg63
g1398
sg56
(lp1413
g49
(g50
g51
NtRp1414
(dp1415
g54
(dp1416
g62
I4
ssg63
g1410
sg56
(lp1417
g411
asbasbasbag49
(g65
g51
NtRp1418
(dp1419
g54
(dp1420
sg63
g1267
sg56
(lp1421
g49
(g70
g51
NtRp1422
(dp1423
g54
(dp1424
g74
g75
ssg63
g1418
sg56
(lp1425
g574
asbag49
(g70
g51
NtRp1426
(dp1427
g54
(dp1428
g81
g82
ssg63
g1418
sg56
(lp1429
S':'
asbag49
(g70
g51
NtRp1430
(dp1431
g54
(dp1432
sg63
g1418
sg56
(lp1433
g49
(g50
g51
NtRp1434
(dp1435
g54
(dp1436
g62
I4
ssg63
g1430
sg56
(lp1437
g92
asbasbasbag49
(g65
g51
NtRp1438
(dp1439
g54
(dp1440
sg63
g1267
sg56
(lp1441
g49
(g70
g51
NtRp1442
(dp1443
g54
(dp1444
g74
g75
ssg63
g1438
sg56
(lp1445
g595
asbag49
(g70
g51
NtRp1446
(dp1447
g54
(dp1448
g81
g82
ssg63
g1438
sg56
(lp1449
S':'
asbag49
(g70
g51
NtRp1450
(dp1451
g54
(dp1452
sg63
g1438
sg56
(lp1453
g49
(g50
g51
NtRp1454
(dp1455
g54
(dp1456
g62
I4
ssg63
g1450
sg56
(lp1457
g92
asbasbasbag49
(g65
g51
NtRp1458
(dp1459
g54
(dp1460
sg63
g1267
sg56
(lp1461
g49
(g70
g51
NtRp1462
(dp1463
g54
(dp1464
g74
g75
ssg63
g1458
sg56
(lp1465
g832
asbag49
(g70
g51
NtRp1466
(dp1467
g54
(dp1468
g81
g82
ssg63
g1458
sg56
(lp1469
S':'
asbag49
(g70
g51
NtRp1470
(dp1471
g54
(dp1472
sg63
g1458
sg56
(lp1473
g49
(g50
g51
NtRp1474
(dp1475
g54
(dp1476
g62
I4
ssg63
g1470
sg56
(lp1477
g845
asbasbasbag49
(g65
g51
NtRp1478
(dp1479
g54
(dp1480
sg63
g1267
sg56
(lp1481
g49
(g70
g51
NtRp1482
(dp1483
g54
(dp1484
g74
g75
ssg63
g1478
sg56
(lp1485
g875
asbag49
(g70
g51
NtRp1486
(dp1487
g54
(dp1488
g81
g82
ssg63
g1478
sg56
(lp1489
S':'
asbag49
(g70
g51
NtRp1490
(dp1491
g54
(dp1492
sg63
g1478
sg56
(lp1493
g49
(g50
g51
NtRp1494
(dp1495
g54
(dp1496
g62
I4
ssg63
g1490
sg56
(lp1497
g49
(g58
g51
NtRp1498
(dp1499
g54
(dp1500
g62
I3
ssg63
Nsg56
(lp1501
g49
(g65
g51
NtRp1502
(dp1503
g54
(dp1504
sg63
g1498
sg56
(lp1505
g49
(g70
g51
NtRp1506
(dp1507
g54
(dp1508
sg63
g1502
sg56
(lp1509
g49
(g50
g51
NtRp1510
(dp1511
g54
(dp1512
g62
I3
ssg63
g1506
sg56
(lp1513
S'1'
asbasbasbag49
(g65
g51
NtRp1514
(dp1515
g54
(dp1516
sg63
g1498
sg56
(lp1517
g49
(g70
g51
NtRp1518
(dp1519
g54
(dp1520
sg63
g1514
sg56
(lp1521
g49
(g50
g51
NtRp1522
(dp1523
g54
(dp1524
g62
I3
ssg63
g1518
sg56
(lp1525
S'99'
p1526
asbasbasbag49
(g65
g51
NtRp1527
(dp1528
g54
(dp1529
sg63
g1498
sg56
(lp1530
g49
(g70
g51
NtRp1531
(dp1532
g54
(dp1533
sg63
g1527
sg56
(lp1534
g49
(g50
g51
NtRp1535
(dp1536
g54
(dp1537
g62
I3
ssg63
g1531
sg56
(lp1538
S'7'
asbasbasbag49
(g65
g51
NtRp1539
(dp1540
g54
(dp1541
sg63
g1498
sg56
(lp1542
g49
(g70
g51
NtRp1543
(dp1544
g54
(dp1545
sg63
g1539
sg56
(lp1546
g49
(g50
g51
NtRp1547
(dp1548
g54
(dp1549
g62
I3
ssg63
g1543
sg56
(lp1550
S'datetime.datetime(2012, 3, 4, 22, 12, 8)'
p1551
asbasbasbag49
(g65
g51
NtRp1552
(dp1553
g54
(dp1554
sg63
g1498
sg56
(lp1555
g49
(g70
g51
NtRp1556
(dp1557
g54
(dp1558
sg63
g1552
sg56
(lp1559
g49
(g50
g51
NtRp1560
(dp1561
g54
(dp1562
g62
I3
ssg63
g1556
sg56
(lp1563
g954
asbasbasbasbasbasbasbasbasbasbasbag49
(g65
g51
NtRp1564
(dp1565
g54
(dp1566
sg63
g59
sg56
(lp1567
g49
(g70
g51
NtRp1568
(dp1569
g54
(dp1570
g74
g75
ssg63
g1564
sg56
(lp1571
S'is_https'
p1572
asbag49
(g70
g51
NtRp1573
(dp1574
g54
(dp1575
g81
g82
ssg63
g1564
sg56
(lp1576
S':'
asbag49
(g70
g51
NtRp1577
(dp1578
g54
(dp1579
sg63
g1564
sg56
(lp1580
g49
(g50
g51
NtRp1581
(dp1582
g54
(dp1583
g62
I5
ssg63
g1577
sg56
(lp1584
g92
asbasbasbag49
(g65
g51
NtRp1585
(dp1586
g54
(dp1587
sg63
g59
sg56
(lp1588
g49
(g70
g51
NtRp1589
(dp1590
g54
(dp1591
g74
g75
ssg63
g1585
sg56
(lp1592
S'is_local'
p1593
asbag49
(g70
g51
NtRp1594
(dp1595
g54
(dp1596
g81
g82
ssg63
g1585
sg56
(lp1597
S':'
asbag49
(g70
g51
NtRp1598
(dp1599
g54
(dp1600
sg63
g1585
sg56
(lp1601
g49
(g50
g51
NtRp1602
(dp1603
g54
(dp1604
g62
I5
ssg63
g1598
sg56
(lp1605
g389
asbasbasbag49
(g65
g51
NtRp1606
(dp1607
g54
(dp1608
sg63
g59
sg56
(lp1609
g49
(g70
g51
NtRp1610
(dp1611
g54
(dp1612
g74
g75
ssg63
g1606
sg56
(lp1613
S'is_restful'
p1614
asbag49
(g70
g51
NtRp1615
(dp1616
g54
(dp1617
g81
g82
ssg63
g1606
sg56
(lp1618
S':'
asbag49
(g70
g51
NtRp1619
(dp1620
g54
(dp1621
sg63
g1606
sg56
(lp1622
g49
(g50
g51
NtRp1623
(dp1624
g54
(dp1625
g62
I5
ssg63
g1619
sg56
(lp1626
g92
asbasbasbag49
(g65
g51
NtRp1627
(dp1628
g54
(dp1629
sg63
g59
sg56
(lp1630
g49
(g70
g51
NtRp1631
(dp1632
g54
(dp1633
g74
g75
ssg63
g1627
sg56
(lp1634
S'now'
p1635
asbag49
(g70
g51
NtRp1636
(dp1637
g54
(dp1638
g81
g82
ssg63
g1627
sg56
(lp1639
S':'
asbag49
(g70
g51
NtRp1640
(dp1641
g54
(dp1642
sg63
g1627
sg56
(lp1643
g49
(g50
g51
NtRp1644
(dp1645
g54
(dp1646
g62
I5
ssg63
g1640
sg56
(lp1647
S'datetime.datetime(2012, 3, 11, 9, 53, 33, 263000)'
p1648
asbasbasbag49
(g65
g51
NtRp1649
(dp1650
g54
(dp1651
sg63
g59
sg56
(lp1652
g49
(g70
g51
NtRp1653
(dp1654
g54
(dp1655
g74
g75
ssg63
g1649
sg56
(lp1656
S'post_vars'
p1657
asbag49
(g70
g51
NtRp1658
(dp1659
g54
(dp1660
g81
g82
ssg63
g1649
sg56
(lp1661
S':'
asbag49
(g70
g51
NtRp1662
(dp1663
g54
(dp1664
sg63
g1649
sg56
(lp1665
g49
(g50
g51
NtRp1666
(dp1667
g54
(dp1668
g62
I5
ssg63
g1662
sg56
(lp1669
g49
(g58
g51
NtRp1670
(dp1671
g54
(dp1672
g62
I4
ssg63
Nsg56
(lp1673
sbasbasbasbag49
(g65
g51
NtRp1674
(dp1675
g54
(dp1676
sg63
g59
sg56
(lp1677
g49
(g70
g51
NtRp1678
(dp1679
g54
(dp1680
g74
g75
ssg63
g1674
sg56
(lp1681
S'url'
p1682
asbag49
(g70
g51
NtRp1683
(dp1684
g54
(dp1685
g81
g82
ssg63
g1674
sg56
(lp1686
S':'
asbag49
(g70
g51
NtRp1687
(dp1688
g54
(dp1689
sg63
g1674
sg56
(lp1690
g49
(g50
g51
NtRp1691
(dp1692
g54
(dp1693
g62
I5
ssg63
g1687
sg56
(lp1694
S'/init/default/index'
p1695
asbasbasbag49
(g65
g51
NtRp1696
(dp1697
g54
(dp1698
sg63
g59
sg56
(lp1699
g49
(g70
g51
NtRp1700
(dp1701
g54
(dp1702
g74
g75
ssg63
g1696
sg56
(lp1703
S'utcnow'
p1704
asbag49
(g70
g51
NtRp1705
(dp1706
g54
(dp1707
g81
g82
ssg63
g1696
sg56
(lp1708
S':'
asbag49
(g70
g51
NtRp1709
(dp1710
g54
(dp1711
sg63
g1696
sg56
(lp1712
g49
(g50
g51
NtRp1713
(dp1714
g54
(dp1715
g62
I5
ssg63
g1709
sg56
(lp1716
S'datetime.datetime(2012, 3, 11, 8, 53, 33, 263000)'
p1717
asbasbasbag49
(g65
g51
NtRp1718
(dp1719
g54
(dp1720
sg63
g59
sg56
(lp1721
g49
(g70
g51
NtRp1722
(dp1723
g54
(dp1724
g74
g75
ssg63
g1718
sg56
(lp1725
S'uuid'
p1726
asbag49
(g70
g51
NtRp1727
(dp1728
g54
(dp1729
g81
g82
ssg63
g1718
sg56
(lp1730
S':'
asbag49
(g70
g51
NtRp1731
(dp1732
g54
(dp1733
sg63
g1718
sg56
(lp1734
g49
(g50
g51
NtRp1735
(dp1736
g54
(dp1737
g62
I5
ssg63
g1731
sg56
(lp1738
S'init/127.0.0.1.2012-03-11.09-53-33.4b119e59-67ac-4dd9-8306-a9d3cf1576e8'
p1739
asbasbasbag49
(g65
g51
NtRp1740
(dp1741
g54
(dp1742
sg63
g59
sg56
(lp1743
g49
(g70
g51
NtRp1744
(dp1745
g54
(dp1746
g74
g75
ssg63
g1740
sg56
(lp1747
S'vars'
p1748
asbag49
(g70
g51
NtRp1749
(dp1750
g54
(dp1751
g81
g82
ssg63
g1740
sg56
(lp1752
S':'
asbag49
(g70
g51
NtRp1753
(dp1754
g54
(dp1755
sg63
g1740
sg56
(lp1756
g49
(g50
g51
NtRp1757
(dp1758
g54
(dp1759
g62
I5
ssg63
g1753
sg56
(lp1760
g49
(g58
g51
NtRp1761
(dp1762
g54
(dp1763
g62
I4
ssg63
Nsg56
(lp1764
sbasbasbasbag49
(g65
g51
NtRp1765
(dp1766
g54
(dp1767
sg63
g59
sg56
(lp1768
g49
(g70
g51
NtRp1769
(dp1770
g54
(dp1771
g74
g75
ssg63
g1765
sg56
(lp1772
S'wsgi'
p1773
asbag49
(g70
g51
NtRp1774
(dp1775
g54
(dp1776
g81
g82
ssg63
g1765
sg56
(lp1777
S':'
asbag49
(g70
g51
NtRp1778
(dp1779
g54
(dp1780
sg63
g1765
sg56
(lp1781
g49
(g50
g51
NtRp1782
(dp1783
g54
(dp1784
g62
I5
ssg63
g1778
sg56
(lp1785
g49
(g58
g51
NtRp1786
(dp1787
g54
(dp1788
g62
I4
ssg63
Nsg56
(lp1789
g49
(g65
g51
NtRp1790
(dp1791
g54
(dp1792
sg63
g1786
sg56
(lp1793
g49
(g70
g51
NtRp1794
(dp1795
g54
(dp1796
g74
g75
ssg63
g1790
sg56
(lp1797
S'environ'
p1798
asbag49
(g70
g51
NtRp1799
(dp1800
g54
(dp1801
g81
g82
ssg63
g1790
sg56
(lp1802
S':'
asbag49
(g70
g51
NtRp1803
(dp1804
g54
(dp1805
sg63
g1790
sg56
(lp1806
g49
(g50
g51
NtRp1807
(dp1808
g54
(dp1809
g62
I4
ssg63
g1803
sg56
(lp1810
g49
(g58
g51
NtRp1811
(dp1812
g54
(dp1813
g62
I3
ssg63
Nsg56
(lp1814
g49
(g65
g51
NtRp1815
(dp1816
g54
(dp1817
sg63
g1811
sg56
(lp1818
g49
(g70
g51
NtRp1819
(dp1820
g54
(dp1821
g74
g75
ssg63
g1815
sg56
(lp1822
S'HTTP_ACCEPT'
p1823
asbag49
(g70
g51
NtRp1824
(dp1825
g54
(dp1826
g81
g82
ssg63
g1815
sg56
(lp1827
S':'
asbag49
(g70
g51
NtRp1828
(dp1829
g54
(dp1830
sg63
g1815
sg56
(lp1831
g49
(g50
g51
NtRp1832
(dp1833
g54
(dp1834
g62
I3
ssg63
g1828
sg56
(lp1835
g433
asbasbasbag49
(g65
g51
NtRp1836
(dp1837
g54
(dp1838
sg63
g1811
sg56
(lp1839
g49
(g70
g51
NtRp1840
(dp1841
g54
(dp1842
g74
g75
ssg63
g1836
sg56
(lp1843
S'HTTP_ACCEPT_CHARSET'
p1844
asbag49
(g70
g51
NtRp1845
(dp1846
g54
(dp1847
g81
g82
ssg63
g1836
sg56
(lp1848
S':'
asbag49
(g70
g51
NtRp1849
(dp1850
g54
(dp1851
sg63
g1836
sg56
(lp1852
g49
(g50
g51
NtRp1853
(dp1854
g54
(dp1855
g62
I3
ssg63
g1849
sg56
(lp1856
g455
asbasbasbag49
(g65
g51
NtRp1857
(dp1858
g54
(dp1859
sg63
g1811
sg56
(lp1860
g49
(g70
g51
NtRp1861
(dp1862
g54
(dp1863
g74
g75
ssg63
g1857
sg56
(lp1864
S'HTTP_ACCEPT_ENCODING'
p1865
asbag49
(g70
g51
NtRp1866
(dp1867
g54
(dp1868
g81
g82
ssg63
g1857
sg56
(lp1869
S':'
asbag49
(g70
g51
NtRp1870
(dp1871
g54
(dp1872
sg63
g1857
sg56
(lp1873
g49
(g50
g51
NtRp1874
(dp1875
g54
(dp1876
g62
I3
ssg63
g1870
sg56
(lp1877
g477
asbasbasbag49
(g65
g51
NtRp1878
(dp1879
g54
(dp1880
sg63
g1811
sg56
(lp1881
g49
(g70
g51
NtRp1882
(dp1883
g54
(dp1884
g74
g75
ssg63
g1878
sg56
(lp1885
S'HTTP_ACCEPT_LANGUAGE'
p1886
asbag49
(g70
g51
NtRp1887
(dp1888
g54
(dp1889
g81
g82
ssg63
g1878
sg56
(lp1890
S':'
asbag49
(g70
g51
NtRp1891
(dp1892
g54
(dp1893
sg63
g1878
sg56
(lp1894
g49
(g50
g51
NtRp1895
(dp1896
g54
(dp1897
g62
I3
ssg63
g1891
sg56
(lp1898
g499
asbasbasbag49
(g65
g51
NtRp1899
(dp1900
g54
(dp1901
sg63
g1811
sg56
(lp1902
g49
(g70
g51
NtRp1903
(dp1904
g54
(dp1905
g74
g75
ssg63
g1899
sg56
(lp1906
S'HTTP_CONNECTION'
p1907
asbag49
(g70
g51
NtRp1908
(dp1909
g54
(dp1910
g81
g82
ssg63
g1899
sg56
(lp1911
S':'
asbag49
(g70
g51
NtRp1912
(dp1913
g54
(dp1914
sg63
g1899
sg56
(lp1915
g49
(g50
g51
NtRp1916
(dp1917
g54
(dp1918
g62
I3
ssg63
g1912
sg56
(lp1919
g521
asbasbasbag49
(g65
g51
NtRp1920
(dp1921
g54
(dp1922
sg63
g1811
sg56
(lp1923
g49
(g70
g51
NtRp1924
(dp1925
g54
(dp1926
g74
g75
ssg63
g1920
sg56
(lp1927
S'HTTP_HOST'
p1928
asbag49
(g70
g51
NtRp1929
(dp1930
g54
(dp1931
g81
g82
ssg63
g1920
sg56
(lp1932
S':'
asbag49
(g70
g51
NtRp1933
(dp1934
g54
(dp1935
sg63
g1920
sg56
(lp1936
g49
(g50
g51
NtRp1937
(dp1938
g54
(dp1939
g62
I3
ssg63
g1933
sg56
(lp1940
g543
asbasbasbag49
(g65
g51
NtRp1941
(dp1942
g54
(dp1943
sg63
g1811
sg56
(lp1944
g49
(g70
g51
NtRp1945
(dp1946
g54
(dp1947
g74
g75
ssg63
g1941
sg56
(lp1948
S'HTTP_USER_AGENT'
p1949
asbag49
(g70
g51
NtRp1950
(dp1951
g54
(dp1952
g81
g82
ssg63
g1941
sg56
(lp1953
S':'
asbag49
(g70
g51
NtRp1954
(dp1955
g54
(dp1956
sg63
g1941
sg56
(lp1957
g49
(g50
g51
NtRp1958
(dp1959
g54
(dp1960
g62
I3
ssg63
g1954
sg56
(lp1961
g565
asbasbasbag49
(g65
g51
NtRp1962
(dp1963
g54
(dp1964
sg63
g1811
sg56
(lp1965
g49
(g70
g51
NtRp1966
(dp1967
g54
(dp1968
g74
g75
ssg63
g1962
sg56
(lp1969
S'PATH_INFO'
p1970
asbag49
(g70
g51
NtRp1971
(dp1972
g54
(dp1973
g81
g82
ssg63
g1962
sg56
(lp1974
S':'
asbag49
(g70
g51
NtRp1975
(dp1976
g54
(dp1977
sg63
g1962
sg56
(lp1978
g49
(g50
g51
NtRp1979
(dp1980
g54
(dp1981
g62
I3
ssg63
g1975
sg56
(lp1982
S'/'
asbasbasbag49
(g65
g51
NtRp1983
(dp1984
g54
(dp1985
sg63
g1811
sg56
(lp1986
g49
(g70
g51
NtRp1987
(dp1988
g54
(dp1989
g74
g75
ssg63
g1983
sg56
(lp1990
S'QUERY_STRING'
p1991
asbag49
(g70
g51
NtRp1992
(dp1993
g54
(dp1994
g81
g82
ssg63
g1983
sg56
(lp1995
S':'
asbag49
(g70
g51
NtRp1996
(dp1997
g54
(dp1998
sg63
g1983
sg56
(lp1999
g49
(g50
g51
NtRp2000
(dp2001
g54
(dp2002
g62
I3
ssg63
g1996
sg56
(lp2003
S''
asbasbasbag49
(g65
g51
NtRp2004
(dp2005
g54
(dp2006
sg63
g1811
sg56
(lp2007
g49
(g70
g51
NtRp2008
(dp2009
g54
(dp2010
g74
g75
ssg63
g2004
sg56
(lp2011
S'REMOTE_ADDR'
p2012
asbag49
(g70
g51
NtRp2013
(dp2014
g54
(dp2015
g81
g82
ssg63
g2004
sg56
(lp2016
S':'
asbag49
(g70
g51
NtRp2017
(dp2018
g54
(dp2019
sg63
g2004
sg56
(lp2020
g49
(g50
g51
NtRp2021
(dp2022
g54
(dp2023
g62
I3
ssg63
g2017
sg56
(lp2024
g182
asbasbasbag49
(g65
g51
NtRp2025
(dp2026
g54
(dp2027
sg63
g1811
sg56
(lp2028
g49
(g70
g51
NtRp2029
(dp2030
g54
(dp2031
g74
g75
ssg63
g2025
sg56
(lp2032
S'REMOTE_PORT'
p2033
asbag49
(g70
g51
NtRp2034
(dp2035
g54
(dp2036
g81
g82
ssg63
g2025
sg56
(lp2037
S':'
asbag49
(g70
g51
NtRp2038
(dp2039
g54
(dp2040
sg63
g2025
sg56
(lp2041
g49
(g50
g51
NtRp2042
(dp2043
g54
(dp2044
g62
I3
ssg63
g2038
sg56
(lp2045
g692
asbasbasbag49
(g65
g51
NtRp2046
(dp2047
g54
(dp2048
sg63
g1811
sg56
(lp2049
g49
(g70
g51
NtRp2050
(dp2051
g54
(dp2052
g74
g75
ssg63
g2046
sg56
(lp2053
S'REQUEST_METHOD'
p2054
asbag49
(g70
g51
NtRp2055
(dp2056
g54
(dp2057
g81
g82
ssg63
g2046
sg56
(lp2058
S':'
asbag49
(g70
g51
NtRp2059
(dp2060
g54
(dp2061
sg63
g2046
sg56
(lp2062
g49
(g50
g51
NtRp2063
(dp2064
g54
(dp2065
g62
I3
ssg63
g2059
sg56
(lp2066
g714
asbasbasbag49
(g65
g51
NtRp2067
(dp2068
g54
(dp2069
sg63
g1811
sg56
(lp2070
g49
(g70
g51
NtRp2071
(dp2072
g54
(dp2073
g74
g75
ssg63
g2067
sg56
(lp2074
S'SCRIPT_NAME'
p2075
asbag49
(g70
g51
NtRp2076
(dp2077
g54
(dp2078
g81
g82
ssg63
g2067
sg56
(lp2079
S':'
asbag49
(g70
g51
NtRp2080
(dp2081
g54
(dp2082
sg63
g2067
sg56
(lp2083
g49
(g50
g51
NtRp2084
(dp2085
g54
(dp2086
g62
I3
ssg63
g2080
sg56
(lp2087
S''
asbasbasbag49
(g65
g51
NtRp2088
(dp2089
g54
(dp2090
sg63
g1811
sg56
(lp2091
g49
(g70
g51
NtRp2092
(dp2093
g54
(dp2094
g74
g75
ssg63
g2088
sg56
(lp2095
S'SERVER_NAME'
p2096
asbag49
(g70
g51
NtRp2097
(dp2098
g54
(dp2099
g81
g82
ssg63
g2088
sg56
(lp2100
S':'
asbag49
(g70
g51
NtRp2101
(dp2102
g54
(dp2103
sg63
g2088
sg56
(lp2104
g49
(g50
g51
NtRp2105
(dp2106
g54
(dp2107
g62
I3
ssg63
g2101
sg56
(lp2108
g757
asbasbasbag49
(g65
g51
NtRp2109
(dp2110
g54
(dp2111
sg63
g1811
sg56
(lp2112
g49
(g70
g51
NtRp2113
(dp2114
g54
(dp2115
g74
g75
ssg63
g2109
sg56
(lp2116
S'SERVER_PORT'
p2117
asbag49
(g70
g51
NtRp2118
(dp2119
g54
(dp2120
g81
g82
ssg63
g2109
sg56
(lp2121
S':'
asbag49
(g70
g51
NtRp2122
(dp2123
g54
(dp2124
sg63
g2109
sg56
(lp2125
g49
(g50
g51
NtRp2126
(dp2127
g54
(dp2128
g62
I3
ssg63
g2122
sg56
(lp2129
g779
asbasbasbag49
(g65
g51
NtRp2130
(dp2131
g54
(dp2132
sg63
g1811
sg56
(lp2133
g49
(g70
g51
NtRp2134
(dp2135
g54
(dp2136
g74
g75
ssg63
g2130
sg56
(lp2137
S'SERVER_PROTOCOL'
p2138
asbag49
(g70
g51
NtRp2139
(dp2140
g54
(dp2141
g81
g82
ssg63
g2130
sg56
(lp2142
S':'
asbag49
(g70
g51
NtRp2143
(dp2144
g54
(dp2145
sg63
g2130
sg56
(lp2146
g49
(g50
g51
NtRp2147
(dp2148
g54
(dp2149
g62
I3
ssg63
g2143
sg56
(lp2150
g801
asbasbasbag49
(g65
g51
NtRp2151
(dp2152
g54
(dp2153
sg63
g1811
sg56
(lp2154
g49
(g70
g51
NtRp2155
(dp2156
g54
(dp2157
g74
g75
ssg63
g2151
sg56
(lp2158
S'SERVER_SOFTWARE'
p2159
asbag49
(g70
g51
NtRp2160
(dp2161
g54
(dp2162
g81
g82
ssg63
g2151
sg56
(lp2163
S':'
asbag49
(g70
g51
NtRp2164
(dp2165
g54
(dp2166
sg63
g2151
sg56
(lp2167
g49
(g50
g51
NtRp2168
(dp2169
g54
(dp2170
g62
I3
ssg63
g2164
sg56
(lp2171
g823
asbasbasbag49
(g65
g51
NtRp2172
(dp2173
g54
(dp2174
sg63
g1811
sg56
(lp2175
g49
(g70
g51
NtRp2176
(dp2177
g54
(dp2178
g74
g75
ssg63
g2172
sg56
(lp2179
S'wsgi.errors'
p2180
asbag49
(g70
g51
NtRp2181
(dp2182
g54
(dp2183
g81
g82
ssg63
g2172
sg56
(lp2184
S':'
asbag49
(g70
g51
NtRp2185
(dp2186
g54
(dp2187
sg63
g2172
sg56
(lp2188
g49
(g50
g51
NtRp2189
(dp2190
g54
(dp2191
g62
I3
ssg63
g2185
sg56
(lp2192
S"<open file '<stderr>', mode 'w' at 0x006500B0>"
p2193
asbasbasbag49
(g65
g51
NtRp2194
(dp2195
g54
(dp2196
sg63
g1811
sg56
(lp2197
g49
(g70
g51
NtRp2198
(dp2199
g54
(dp2200
g74
g75
ssg63
g2194
sg56
(lp2201
S'wsgi.file_wrapper'
p2202
asbag49
(g70
g51
NtRp2203
(dp2204
g54
(dp2205
g81
g82
ssg63
g2194
sg56
(lp2206
S':'
asbag49
(g70
g51
NtRp2207
(dp2208
g54
(dp2209
sg63
g2194
sg56
(lp2210
g49
(g50
g51
NtRp2211
(dp2212
g54
(dp2213
g62
I3
ssg63
g2207
sg56
(lp2214
S'<class wsgiref.util.FileWrapper at 0x02BF68D0>'
p2215
asbasbasbag49
(g65
g51
NtRp2216
(dp2217
g54
(dp2218
sg63
g1811
sg56
(lp2219
g49
(g70
g51
NtRp2220
(dp2221
g54
(dp2222
g74
g75
ssg63
g2216
sg56
(lp2223
S'wsgi.input'
p2224
asbag49
(g70
g51
NtRp2225
(dp2226
g54
(dp2227
g81
g82
ssg63
g2216
sg56
(lp2228
S':'
asbag49
(g70
g51
NtRp2229
(dp2230
g54
(dp2231
sg63
g2216
sg56
(lp2232
g49
(g50
g51
NtRp2233
(dp2234
g54
(dp2235
g62
I3
ssg63
g2229
sg56
(lp2236
S'<cStringIO.StringO object at 0x03B5E460>'
p2237
asbasbasbag49
(g65
g51
NtRp2238
(dp2239
g54
(dp2240
sg63
g1811
sg56
(lp2241
g49
(g70
g51
NtRp2242
(dp2243
g54
(dp2244
g74
g75
ssg63
g2238
sg56
(lp2245
S'wsgi.multiprocess'
p2246
asbag49
(g70
g51
NtRp2247
(dp2248
g54
(dp2249
g81
g82
ssg63
g2238
sg56
(lp2250
S':'
asbag49
(g70
g51
NtRp2251
(dp2252
g54
(dp2253
sg63
g2238
sg56
(lp2254
g49
(g50
g51
NtRp2255
(dp2256
g54
(dp2257
g62
I3
ssg63
g2251
sg56
(lp2258
g92
asbasbasbag49
(g65
g51
NtRp2259
(dp2260
g54
(dp2261
sg63
g1811
sg56
(lp2262
g49
(g70
g51
NtRp2263
(dp2264
g54
(dp2265
g74
g75
ssg63
g2259
sg56
(lp2266
S'wsgi.multithread'
p2267
asbag49
(g70
g51
NtRp2268
(dp2269
g54
(dp2270
g81
g82
ssg63
g2259
sg56
(lp2271
S':'
asbag49
(g70
g51
NtRp2272
(dp2273
g54
(dp2274
sg63
g2259
sg56
(lp2275
g49
(g50
g51
NtRp2276
(dp2277
g54
(dp2278
g62
I3
ssg63
g2272
sg56
(lp2279
g389
asbasbasbag49
(g65
g51
NtRp2280
(dp2281
g54
(dp2282
sg63
g1811
sg56
(lp2283
g49
(g70
g51
NtRp2284
(dp2285
g54
(dp2286
g74
g75
ssg63
g2280
sg56
(lp2287
S'wsgi.run_once'
p2288
asbag49
(g70
g51
NtRp2289
(dp2290
g54
(dp2291
g81
g82
ssg63
g2280
sg56
(lp2292
S':'
asbag49
(g70
g51
NtRp2293
(dp2294
g54
(dp2295
sg63
g2280
sg56
(lp2296
g49
(g50
g51
NtRp2297
(dp2298
g54
(dp2299
g62
I3
ssg63
g2293
sg56
(lp2300
g92
asbasbasbag49
(g65
g51
NtRp2301
(dp2302
g54
(dp2303
sg63
g1811
sg56
(lp2304
g49
(g70
g51
NtRp2305
(dp2306
g54
(dp2307
g74
g75
ssg63
g2301
sg56
(lp2308
S'wsgi.url_scheme'
p2309
asbag49
(g70
g51
NtRp2310
(dp2311
g54
(dp2312
g81
g82
ssg63
g2301
sg56
(lp2313
S':'
asbag49
(g70
g51
NtRp2314
(dp2315
g54
(dp2316
sg63
g2301
sg56
(lp2317
g49
(g50
g51
NtRp2318
(dp2319
g54
(dp2320
g62
I3
ssg63
g2314
sg56
(lp2321
g1105
asbasbasbag49
(g65
g51
NtRp2322
(dp2323
g54
(dp2324
sg63
g1811
sg56
(lp2325
g49
(g70
g51
NtRp2326
(dp2327
g54
(dp2328
g74
g75
ssg63
g2322
sg56
(lp2329
S'wsgi.version'
p2330
asbag49
(g70
g51
NtRp2331
(dp2332
g54
(dp2333
g81
g82
ssg63
g2322
sg56
(lp2334
S':'
asbag49
(g70
g51
NtRp2335
(dp2336
g54
(dp2337
sg63
g2322
sg56
(lp2338
g49
(g50
g51
NtRp2339
(dp2340
g54
(dp2341
g62
I3
ssg63
g2335
sg56
(lp2342
S'1'
asbasbasbasbasbasbasbasbasbasbasbasbasbsS'frames'
p2343
(lp2344
(dp2345
S'file'
p2346
S'C:\\Users\\Bussiere\\Dropbox\\Projets\\Yuki\\web2py\\gluon\\restricted.py'
p2347
sS'dump'
p2348
(dp2349
sS'lnum'
p2350
I205
sS'lines'
p2351
(dp2352
I200
S'    try:'
p2353
sI201
S'        if type(code) == types.CodeType:'
p2354
sI202
S'            ccode = code'
p2355
sI203
S'        else:'
p2356
sI204
S'            ccode = compile2(code,layer)'
p2357
sI205
S'        exec ccode in environment'
p2358
sI206
S'    except HTTP:'
p2359
sI207
S'        raise'
p2360
sI208
S'    except RestrictedError:'
p2361
sI209
S'        # do not encapsulate (obfuscate) the original RestrictedError'
p2362
ssS'call'
p2363
S"(code='# -*- coding: utf-8 -*-\\n\\n#######################...################################################\\n', environment={'A': <class 'gluon.html.A'>, 'B': <class 'gluon.html.B'>, 'BEAUTIFY': <class 'gluon.html.BEAUTIFY'>, 'BODY': <class 'gluon.html.BODY'>, 'BR': <class 'gluon.html.BR'>, 'BUTTON': <class 'gluon.html.BUTTON'>, 'CAT': <class 'gluon.html.CAT'>, 'CENTER': <class 'gluon.html.CENTER'>, 'CLEANUP': <class 'gluon.validators.CLEANUP'>, 'CODE': <class 'gluon.html.CODE'>, ...}, layer=r'C:\\Users\\Bussiere\\Dropbox\\Projets\\Yuki\\web2py\\applications\\init\\models\\db.py')"
p2364
sS'func'
p2365
S'restricted'
p2366
sa(dp2367
g2346
S'C:\\Users\\Bussiere\\Dropbox\\Projets\\Yuki\\web2py\\applications\\init\\models\\db.py'
p2368
sg2348
(dp2369
sg2350
I42
sg2351
(dp2370
I37
S''
sI38
S"db.define_table('Comment',"
p2371
sI39
S"   Field('Name', unique=True),"
p2372
sI40
S"   Field('Texte'),"
p2373
sI41
S"   Field('Vote', 'integer'),"
p2374
sI42
S"   Field('Auth',db.Auth),"
p2375
sI43
S"   format = '%(Name)s')"
p2376
sI44
S''
sI45
S''
sI46
S"db.define_table('Convention',"
p2377
ssg2363
S'()'
p2378
sg2365
S'<module>'
p2379
sa(dp2380
g2346
S'C:\\Users\\Bussiere\\Dropbox\\Projets\\Yuki\\web2py\\gluon\\dal.py'
p2381
sg2348
(dp2382
sg2350
I6343
sg2351
(dp2383
I6338
S''
sI6339
S'    def __setitem__(self, key, value):'
p2384
sI6340
S'        dict.__setitem__(self, str(key), value)'
p2385
sI6341
S''
sI6342
S'    def __getattr__(self, key):'
p2386
sI6343
S'        return self[key]'
p2387
sI6344
S''
sI6345
S'    def __setattr__(self, key, value):'
p2388
sI6346
S"        if key[:1]!='_' and key in self:"
p2389
sI6347
S'            raise SyntaxError, \\'
p2390
ssg2363
S"(self=<DAL {'_migrate_enabled': True, '_lastsql': 'CRE...'_uri_hash': 'c8b669d15150d7109e5f7ab36744a5b7'}>, key='Auth')"
p2391
sg2365
S'__getattr__'
p2392
sa(dp2393
g2346
S'C:\\Users\\Bussiere\\Dropbox\\Projets\\Yuki\\web2py\\gluon\\dal.py'
p2394
sg2348
(dp2395
sg2350
I6337
sg2351
(dp2396
I6336
S'    def __getitem__(self, key):'
p2397
sI6337
S'        return dict.__getitem__(self, str(key))'
p2398
sI6338
S''
sI6339
S'    def __setitem__(self, key, value):'
p2399
sI6340
S'        dict.__setitem__(self, str(key), value)'
p2400
sI6341
S''
sI6332
S'    def __iter__(self):'
p2401
sI6333
S'        for tablename in self.tables:'
p2402
sI6334
S'            yield self[tablename]'
p2403
sI6335
S''
ssg2363
S"(self=<DAL {'_migrate_enabled': True, '_lastsql': 'CRE...'_uri_hash': 'c8b669d15150d7109e5f7ab36744a5b7'}>, key='Auth')"
p2404
sg2365
g20
sasS'pyver'
p2405
S'Python 2.5.4: C:\\Users\\Bussiere\\Dropbox\\Projets\\Yuki\\web2py\\web2py.exe'
p2406
sS'session'
p2407
g49
(g50
g51
NtRp2408
(dp2409
g54
(dp2410
sg56
(lp2411
g49
(g58
g51
NtRp2412
(dp2413
g54
(dp2414
g62
I5
ssg63
Nsg56
(lp2415
sbasbsS'etype'
p2416
S"<type 'exceptions.KeyError'>"
p2417
sS'date'
p2418
S'Sun Mar 11 09:53:33 2012'
p2419
sS'response'
p2420
g49
(g50
g51
NtRp2421
(dp2422
g54
(dp2423
sg56
(lp2424
g49
(g58
g51
NtRp2425
(dp2426
g54
(dp2427
g62
I5
ssg63
Nsg56
(lp2428
g49
(g65
g51
NtRp2429
(dp2430
g54
(dp2431
sg63
g2425
sg56
(lp2432
g49
(g70
g51
NtRp2433
(dp2434
g54
(dp2435
g74
g75
ssg63
g2429
sg56
(lp2436
g147
asbag49
(g70
g51
NtRp2437
(dp2438
g54
(dp2439
g81
g82
ssg63
g2429
sg56
(lp2440
S':'
asbag49
(g70
g51
NtRp2441
(dp2442
g54
(dp2443
sg63
g2429
sg56
(lp2444
g49
(g50
g51
NtRp2445
(dp2446
g54
(dp2447
g62
I5
ssg63
g2441
sg56
(lp2448
S'<cStringIO.StringO object at 0x03B5E3C0>'
p2449
asbasbasbag49
(g65
g51
NtRp2450
(dp2451
g54
(dp2452
sg63
g2425
sg56
(lp2453
g49
(g70
g51
NtRp2454
(dp2455
g54
(dp2456
g74
g75
ssg63
g2450
sg56
(lp2457
g213
asbag49
(g70
g51
NtRp2458
(dp2459
g54
(dp2460
g81
g82
ssg63
g2450
sg56
(lp2461
S':'
asbag49
(g70
g51
NtRp2462
(dp2463
g54
(dp2464
sg63
g2450
sg56
(lp2465
g49
(g50
g51
NtRp2466
(dp2467
g54
(dp2468
g62
I5
ssg63
g2462
sg56
(lp2469
g49
(g58
g51
NtRp2470
(dp2471
g54
(dp2472
g62
I4
ssg63
Nsg56
(lp2473
g49
(g65
g51
NtRp2474
(dp2475
g54
(dp2476
sg63
g2470
sg56
(lp2477
g49
(g70
g51
NtRp2478
(dp2479
g54
(dp2480
g74
g75
ssg63
g2474
sg56
(lp2481
S'session_id_init'
p2482
asbag49
(g70
g51
NtRp2483
(dp2484
g54
(dp2485
g81
g82
ssg63
g2474
sg56
(lp2486
S':'
asbag49
(g70
g51
NtRp2487
(dp2488
g54
(dp2489
sg63
g2474
sg56
(lp2490
g49
(g50
g51
NtRp2491
(dp2492
g54
(dp2493
g62
I4
ssg63
g2487
sg56
(lp2494
g49
(g58
g51
NtRp2495
(dp2496
g54
(dp2497
g62
I3
ssg63
Nsg56
(lp2498
g49
(g65
g51
NtRp2499
(dp2500
g54
(dp2501
sg63
g2495
sg56
(lp2502
g49
(g70
g51
NtRp2503
(dp2504
g54
(dp2505
g74
g75
ssg63
g2499
sg56
(lp2506
S'comment'
p2507
asbag49
(g70
g51
NtRp2508
(dp2509
g54
(dp2510
g81
g82
ssg63
g2499
sg56
(lp2511
S':'
asbag49
(g70
g51
NtRp2512
(dp2513
g54
(dp2514
sg63
g2499
sg56
(lp2515
g49
(g50
g51
NtRp2516
(dp2517
g54
(dp2518
g62
I3
ssg63
g2512
sg56
(lp2519
S''
asbasbasbag49
(g65
g51
NtRp2520
(dp2521
g54
(dp2522
sg63
g2495
sg56
(lp2523
g49
(g70
g51
NtRp2524
(dp2525
g54
(dp2526
g74
g75
ssg63
g2520
sg56
(lp2527
S'domain'
p2528
asbag49
(g70
g51
NtRp2529
(dp2530
g54
(dp2531
g81
g82
ssg63
g2520
sg56
(lp2532
S':'
asbag49
(g70
g51
NtRp2533
(dp2534
g54
(dp2535
sg63
g2520
sg56
(lp2536
g49
(g50
g51
NtRp2537
(dp2538
g54
(dp2539
g62
I3
ssg63
g2533
sg56
(lp2540
S''
asbasbasbag49
(g65
g51
NtRp2541
(dp2542
g54
(dp2543
sg63
g2495
sg56
(lp2544
g49
(g70
g51
NtRp2545
(dp2546
g54
(dp2547
g74
g75
ssg63
g2541
sg56
(lp2548
S'expires'
p2549
asbag49
(g70
g51
NtRp2550
(dp2551
g54
(dp2552
g81
g82
ssg63
g2541
sg56
(lp2553
S':'
asbag49
(g70
g51
NtRp2554
(dp2555
g54
(dp2556
sg63
g2541
sg56
(lp2557
g49
(g50
g51
NtRp2558
(dp2559
g54
(dp2560
g62
I3
ssg63
g2554
sg56
(lp2561
S''
asbasbasbag49
(g65
g51
NtRp2562
(dp2563
g54
(dp2564
sg63
g2495
sg56
(lp2565
g49
(g70
g51
NtRp2566
(dp2567
g54
(dp2568
g74
g75
ssg63
g2562
sg56
(lp2569
S'max-age'
p2570
asbag49
(g70
g51
NtRp2571
(dp2572
g54
(dp2573
g81
g82
ssg63
g2562
sg56
(lp2574
S':'
asbag49
(g70
g51
NtRp2575
(dp2576
g54
(dp2577
sg63
g2562
sg56
(lp2578
g49
(g50
g51
NtRp2579
(dp2580
g54
(dp2581
g62
I3
ssg63
g2575
sg56
(lp2582
S''
asbasbasbag49
(g65
g51
NtRp2583
(dp2584
g54
(dp2585
sg63
g2495
sg56
(lp2586
g49
(g70
g51
NtRp2587
(dp2588
g54
(dp2589
g74
g75
ssg63
g2583
sg56
(lp2590
S'path'
p2591
asbag49
(g70
g51
NtRp2592
(dp2593
g54
(dp2594
g81
g82
ssg63
g2583
sg56
(lp2595
S':'
asbag49
(g70
g51
NtRp2596
(dp2597
g54
(dp2598
sg63
g2583
sg56
(lp2599
g49
(g50
g51
NtRp2600
(dp2601
g54
(dp2602
g62
I3
ssg63
g2596
sg56
(lp2603
S'/'
asbasbasbag49
(g65
g51
NtRp2604
(dp2605
g54
(dp2606
sg63
g2495
sg56
(lp2607
g49
(g70
g51
NtRp2608
(dp2609
g54
(dp2610
g74
g75
ssg63
g2604
sg56
(lp2611
S'secure'
p2612
asbag49
(g70
g51
NtRp2613
(dp2614
g54
(dp2615
g81
g82
ssg63
g2604
sg56
(lp2616
S':'
asbag49
(g70
g51
NtRp2617
(dp2618
g54
(dp2619
sg63
g2604
sg56
(lp2620
g49
(g50
g51
NtRp2621
(dp2622
g54
(dp2623
g62
I3
ssg63
g2617
sg56
(lp2624
S''
asbasbasbag49
(g65
g51
NtRp2625
(dp2626
g54
(dp2627
sg63
g2495
sg56
(lp2628
g49
(g70
g51
NtRp2629
(dp2630
g54
(dp2631
g74
g75
ssg63
g2625
sg56
(lp2632
S'version'
p2633
asbag49
(g70
g51
NtRp2634
(dp2635
g54
(dp2636
g81
g82
ssg63
g2625
sg56
(lp2637
S':'
asbag49
(g70
g51
NtRp2638
(dp2639
g54
(dp2640
sg63
g2625
sg56
(lp2641
g49
(g50
g51
NtRp2642
(dp2643
g54
(dp2644
g62
I3
ssg63
g2638
sg56
(lp2645
S''
asbasbasbasbasbasbasbasbasbasbasbag49
(g65
g51
NtRp2646
(dp2647
g54
(dp2648
sg63
g2425
sg56
(lp2649
g49
(g70
g51
NtRp2650
(dp2651
g54
(dp2652
g74
g75
ssg63
g2646
sg56
(lp2653
S'delimiters'
p2654
asbag49
(g70
g51
NtRp2655
(dp2656
g54
(dp2657
g81
g82
ssg63
g2646
sg56
(lp2658
S':'
asbag49
(g70
g51
NtRp2659
(dp2660
g54
(dp2661
sg63
g2646
sg56
(lp2662
g49
(g50
g51
NtRp2663
(dp2664
g54
(dp2665
g62
I5
ssg63
g2659
sg56
(lp2666
g49
(g58
g51
NtRp2667
(dp2668
g54
(dp2669
g62
I4
ssg63
Nsg56
(lp2670
g49
(g65
g51
NtRp2671
(dp2672
g54
(dp2673
sg63
g2667
sg56
(lp2674
g49
(g70
g51
NtRp2675
(dp2676
g54
(dp2677
sg63
g2671
sg56
(lp2678
g49
(g50
g51
NtRp2679
(dp2680
g54
(dp2681
g62
I4
ssg63
g2675
sg56
(lp2682
S'{{'
p2683
asbasbasbag49
(g65
g51
NtRp2684
(dp2685
g54
(dp2686
sg63
g2667
sg56
(lp2687
g49
(g70
g51
NtRp2688
(dp2689
g54
(dp2690
sg63
g2684
sg56
(lp2691
g49
(g50
g51
NtRp2692
(dp2693
g54
(dp2694
g62
I4
ssg63
g2688
sg56
(lp2695
S'}}'
p2696
asbasbasbasbasbasbasbag49
(g65
g51
NtRp2697
(dp2698
g54
(dp2699
sg63
g2425
sg56
(lp2700
g49
(g70
g51
NtRp2701
(dp2702
g54
(dp2703
g74
g75
ssg63
g2697
sg56
(lp2704
S'files'
p2705
asbag49
(g70
g51
NtRp2706
(dp2707
g54
(dp2708
g81
g82
ssg63
g2697
sg56
(lp2709
S':'
asbag49
(g70
g51
NtRp2710
(dp2711
g54
(dp2712
sg63
g2697
sg56
(lp2713
g49
(g50
g51
NtRp2714
(dp2715
g54
(dp2716
g62
I5
ssg63
g2710
sg56
(lp2717
g49
(g58
g51
NtRp2718
(dp2719
g54
(dp2720
g62
I4
ssg63
Nsg56
(lp2721
sbasbasbasbag49
(g65
g51
NtRp2722
(dp2723
g54
(dp2724
sg63
g2425
sg56
(lp2725
g49
(g70
g51
NtRp2726
(dp2727
g54
(dp2728
g74
g75
ssg63
g2722
sg56
(lp2729
S'flash'
p2730
asbag49
(g70
g51
NtRp2731
(dp2732
g54
(dp2733
g81
g82
ssg63
g2722
sg56
(lp2734
S':'
asbag49
(g70
g51
NtRp2735
(dp2736
g54
(dp2737
sg63
g2722
sg56
(lp2738
g49
(g50
g51
NtRp2739
(dp2740
g54
(dp2741
g62
I5
ssg63
g2735
sg56
(lp2742
S''
asbasbasbag49
(g65
g51
NtRp2743
(dp2744
g54
(dp2745
sg63
g2425
sg56
(lp2746
g49
(g70
g51
NtRp2747
(dp2748
g54
(dp2749
g74
g75
ssg63
g2743
sg56
(lp2750
S'generic_patterns'
p2751
asbag49
(g70
g51
NtRp2752
(dp2753
g54
(dp2754
g81
g82
ssg63
g2743
sg56
(lp2755
S':'
asbag49
(g70
g51
NtRp2756
(dp2757
g54
(dp2758
sg63
g2743
sg56
(lp2759
g49
(g50
g51
NtRp2760
(dp2761
g54
(dp2762
g62
I5
ssg63
g2756
sg56
(lp2763
g49
(g58
g51
NtRp2764
(dp2765
g54
(dp2766
g62
I4
ssg63
Nsg56
(lp2767
sbasbasbasbag49
(g65
g51
NtRp2768
(dp2769
g54
(dp2770
sg63
g2425
sg56
(lp2771
g49
(g70
g51
NtRp2772
(dp2773
g54
(dp2774
g74
g75
ssg63
g2768
sg56
(lp2775
S'headers'
p2776
asbag49
(g70
g51
NtRp2777
(dp2778
g54
(dp2779
g81
g82
ssg63
g2768
sg56
(lp2780
S':'
asbag49
(g70
g51
NtRp2781
(dp2782
g54
(dp2783
sg63
g2768
sg56
(lp2784
g49
(g50
g51
NtRp2785
(dp2786
g54
(dp2787
g62
I5
ssg63
g2781
sg56
(lp2788
g49
(g58
g51
NtRp2789
(dp2790
g54
(dp2791
g62
I4
ssg63
Nsg56
(lp2792
g49
(g65
g51
NtRp2793
(dp2794
g54
(dp2795
sg63
g2789
sg56
(lp2796
g49
(g70
g51
NtRp2797
(dp2798
g54
(dp2799
g74
g75
ssg63
g2793
sg56
(lp2800
S'Cache-Control'
p2801
asbag49
(g70
g51
NtRp2802
(dp2803
g54
(dp2804
g81
g82
ssg63
g2793
sg56
(lp2805
S':'
asbag49
(g70
g51
NtRp2806
(dp2807
g54
(dp2808
sg63
g2793
sg56
(lp2809
g49
(g50
g51
NtRp2810
(dp2811
g54
(dp2812
g62
I4
ssg63
g2806
sg56
(lp2813
S'no-store, no-cache, must-revalidate, post-check=0, pre-check=0'
p2814
asbasbasbag49
(g65
g51
NtRp2815
(dp2816
g54
(dp2817
sg63
g2789
sg56
(lp2818
g49
(g70
g51
NtRp2819
(dp2820
g54
(dp2821
g74
g75
ssg63
g2815
sg56
(lp2822
S'Content-Type'
p2823
asbag49
(g70
g51
NtRp2824
(dp2825
g54
(dp2826
g81
g82
ssg63
g2815
sg56
(lp2827
S':'
asbag49
(g70
g51
NtRp2828
(dp2829
g54
(dp2830
sg63
g2815
sg56
(lp2831
g49
(g50
g51
NtRp2832
(dp2833
g54
(dp2834
g62
I4
ssg63
g2828
sg56
(lp2835
S'text/html; charset=utf-8'
p2836
asbasbasbag49
(g65
g51
NtRp2837
(dp2838
g54
(dp2839
sg63
g2789
sg56
(lp2840
g49
(g70
g51
NtRp2841
(dp2842
g54
(dp2843
g74
g75
ssg63
g2837
sg56
(lp2844
S'Expires'
p2845
asbag49
(g70
g51
NtRp2846
(dp2847
g54
(dp2848
g81
g82
ssg63
g2837
sg56
(lp2849
S':'
asbag49
(g70
g51
NtRp2850
(dp2851
g54
(dp2852
sg63
g2837
sg56
(lp2853
g49
(g50
g51
NtRp2854
(dp2855
g54
(dp2856
g62
I4
ssg63
g2850
sg56
(lp2857
S'Sun, 11 Mar 2012 08:53:33 GMT'
p2858
asbasbasbag49
(g65
g51
NtRp2859
(dp2860
g54
(dp2861
sg63
g2789
sg56
(lp2862
g49
(g70
g51
NtRp2863
(dp2864
g54
(dp2865
g74
g75
ssg63
g2859
sg56
(lp2866
S'Pragma'
p2867
asbag49
(g70
g51
NtRp2868
(dp2869
g54
(dp2870
g81
g82
ssg63
g2859
sg56
(lp2871
S':'
asbag49
(g70
g51
NtRp2872
(dp2873
g54
(dp2874
sg63
g2859
sg56
(lp2875
g49
(g50
g51
NtRp2876
(dp2877
g54
(dp2878
g62
I4
ssg63
g2872
sg56
(lp2879
S'no-cache'
p2880
asbasbasbag49
(g65
g51
NtRp2881
(dp2882
g54
(dp2883
sg63
g2789
sg56
(lp2884
g49
(g70
g51
NtRp2885
(dp2886
g54
(dp2887
g74
g75
ssg63
g2881
sg56
(lp2888
S'X-Powered-By'
p2889
asbag49
(g70
g51
NtRp2890
(dp2891
g54
(dp2892
g81
g82
ssg63
g2881
sg56
(lp2893
S':'
asbag49
(g70
g51
NtRp2894
(dp2895
g54
(dp2896
sg63
g2881
sg56
(lp2897
g49
(g50
g51
NtRp2898
(dp2899
g54
(dp2900
g62
I4
ssg63
g2894
sg56
(lp2901
S'web2py'
p2902
asbasbasbasbasbasbasbag49
(g65
g51
NtRp2903
(dp2904
g54
(dp2905
sg63
g2425
sg56
(lp2906
g49
(g70
g51
NtRp2907
(dp2908
g54
(dp2909
g74
g75
ssg63
g2903
sg56
(lp2910
S'menu'
p2911
asbag49
(g70
g51
NtRp2912
(dp2913
g54
(dp2914
g81
g82
ssg63
g2903
sg56
(lp2915
S':'
asbag49
(g70
g51
NtRp2916
(dp2917
g54
(dp2918
sg63
g2903
sg56
(lp2919
g49
(g50
g51
NtRp2920
(dp2921
g54
(dp2922
g62
I5
ssg63
g2916
sg56
(lp2923
g49
(g58
g51
NtRp2924
(dp2925
g54
(dp2926
g62
I4
ssg63
Nsg56
(lp2927
sbasbasbasbag49
(g65
g51
NtRp2928
(dp2929
g54
(dp2930
sg63
g2425
sg56
(lp2931
g49
(g70
g51
NtRp2932
(dp2933
g54
(dp2934
g74
g75
ssg63
g2928
sg56
(lp2935
S'meta'
p2936
asbag49
(g70
g51
NtRp2937
(dp2938
g54
(dp2939
g81
g82
ssg63
g2928
sg56
(lp2940
S':'
asbag49
(g70
g51
NtRp2941
(dp2942
g54
(dp2943
sg63
g2928
sg56
(lp2944
g49
(g50
g51
NtRp2945
(dp2946
g54
(dp2947
g62
I5
ssg63
g2941
sg56
(lp2948
g49
(g58
g51
NtRp2949
(dp2950
g54
(dp2951
g62
I4
ssg63
Nsg56
(lp2952
sbasbasbasbag49
(g65
g51
NtRp2953
(dp2954
g54
(dp2955
sg63
g2425
sg56
(lp2956
g49
(g70
g51
NtRp2957
(dp2958
g54
(dp2959
g74
g75
ssg63
g2953
sg56
(lp2960
S'postprocessing'
p2961
asbag49
(g70
g51
NtRp2962
(dp2963
g54
(dp2964
g81
g82
ssg63
g2953
sg56
(lp2965
S':'
asbag49
(g70
g51
NtRp2966
(dp2967
g54
(dp2968
sg63
g2953
sg56
(lp2969
g49
(g50
g51
NtRp2970
(dp2971
g54
(dp2972
g62
I5
ssg63
g2966
sg56
(lp2973
g49
(g58
g51
NtRp2974
(dp2975
g54
(dp2976
g62
I4
ssg63
Nsg56
(lp2977
sbasbasbasbag49
(g65
g51
NtRp2978
(dp2979
g54
(dp2980
sg63
g2425
sg56
(lp2981
g49
(g70
g51
NtRp2982
(dp2983
g54
(dp2984
g74
g75
ssg63
g2978
sg56
(lp2985
S'session_filename'
p2986
asbag49
(g70
g51
NtRp2987
(dp2988
g54
(dp2989
g81
g82
ssg63
g2978
sg56
(lp2990
S':'
asbag49
(g70
g51
NtRp2991
(dp2992
g54
(dp2993
sg63
g2978
sg56
(lp2994
g49
(g50
g51
NtRp2995
(dp2996
g54
(dp2997
g62
I5
ssg63
g2991
sg56
(lp2998
S'C:\\Users\\Bussiere\\Dropbox\\Projets\\Yuki\\web2py\\applications\\init\\sessions\\127.0.0.1-090e89d0-990b-4685-afd8-65fd6cda8c62'
p2999
asbasbasbag49
(g65
g51
NtRp3000
(dp3001
g54
(dp3002
sg63
g2425
sg56
(lp3003
g49
(g70
g51
NtRp3004
(dp3005
g54
(dp3006
g74
g75
ssg63
g3000
sg56
(lp3007
S'session_id'
p3008
asbag49
(g70
g51
NtRp3009
(dp3010
g54
(dp3011
g81
g82
ssg63
g3000
sg56
(lp3012
S':'
asbag49
(g70
g51
NtRp3013
(dp3014
g54
(dp3015
sg63
g3000
sg56
(lp3016
g49
(g50
g51
NtRp3017
(dp3018
g54
(dp3019
g62
I5
ssg63
g3013
sg56
(lp3020
S'127.0.0.1-090e89d0-990b-4685-afd8-65fd6cda8c62'
p3021
asbasbasbag49
(g65
g51
NtRp3022
(dp3023
g54
(dp3024
sg63
g2425
sg56
(lp3025
g49
(g70
g51
NtRp3026
(dp3027
g54
(dp3028
g74
g75
ssg63
g3022
sg56
(lp3029
S'session_id_name'
p3030
asbag49
(g70
g51
NtRp3031
(dp3032
g54
(dp3033
g81
g82
ssg63
g3022
sg56
(lp3034
S':'
asbag49
(g70
g51
NtRp3035
(dp3036
g54
(dp3037
sg63
g3022
sg56
(lp3038
g49
(g50
g51
NtRp3039
(dp3040
g54
(dp3041
g62
I5
ssg63
g3035
sg56
(lp3042
g2482
asbasbasbag49
(g65
g51
NtRp3043
(dp3044
g54
(dp3045
sg63
g2425
sg56
(lp3046
g49
(g70
g51
NtRp3047
(dp3048
g54
(dp3049
g74
g75
ssg63
g3043
sg56
(lp3050
S'session_new'
p3051
asbag49
(g70
g51
NtRp3052
(dp3053
g54
(dp3054
g81
g82
ssg63
g3043
sg56
(lp3055
S':'
asbag49
(g70
g51
NtRp3056
(dp3057
g54
(dp3058
sg63
g3043
sg56
(lp3059
g49
(g50
g51
NtRp3060
(dp3061
g54
(dp3062
g62
I5
ssg63
g3056
sg56
(lp3063
g389
asbasbasbag49
(g65
g51
NtRp3064
(dp3065
g54
(dp3066
sg63
g2425
sg56
(lp3067
g49
(g70
g51
NtRp3068
(dp3069
g54
(dp3070
g74
g75
ssg63
g3064
sg56
(lp3071
S'status'
p3072
asbag49
(g70
g51
NtRp3073
(dp3074
g54
(dp3075
g81
g82
ssg63
g3064
sg56
(lp3076
S':'
asbag49
(g70
g51
NtRp3077
(dp3078
g54
(dp3079
sg63
g3064
sg56
(lp3080
g49
(g50
g51
NtRp3081
(dp3082
g54
(dp3083
g62
I5
ssg63
g3077
sg56
(lp3084
S'200'
p3085
asbasbasbag49
(g65
g51
NtRp3086
(dp3087
g54
(dp3088
sg63
g2425
sg56
(lp3089
g49
(g70
g51
NtRp3090
(dp3091
g54
(dp3092
g74
g75
ssg63
g3086
sg56
(lp3093
g1726
asbag49
(g70
g51
NtRp3094
(dp3095
g54
(dp3096
g81
g82
ssg63
g3086
sg56
(lp3097
S':'
asbag49
(g70
g51
NtRp3098
(dp3099
g54
(dp3100
sg63
g3086
sg56
(lp3101
g49
(g50
g51
NtRp3102
(dp3103
g54
(dp3104
g62
I5
ssg63
g3098
sg56
(lp3105
g1739
asbasbasbag49
(g65
g51
NtRp3106
(dp3107
g54
(dp3108
sg63
g2425
sg56
(lp3109
g49
(g70
g51
NtRp3110
(dp3111
g54
(dp3112
g74
g75
ssg63
g3106
sg56
(lp3113
S'view'
p3114
asbag49
(g70
g51
NtRp3115
(dp3116
g54
(dp3117
g81
g82
ssg63
g3106
sg56
(lp3118
S':'
asbag49
(g70
g51
NtRp3119
(dp3120
g54
(dp3121
sg63
g3106
sg56
(lp3122
g49
(g50
g51
NtRp3123
(dp3124
g54
(dp3125
g62
I5
ssg63
g3119
sg56
(lp3126
S'default/index.html'
p3127
asbasbasbasbasbsS'locals'
p3128
(dp3129
S'self'
p3130
S"<DAL {'_migrate_enabled': True, '_lastsql': 'CRE...'_uri_hash': 'c8b669d15150d7109e5f7ab36744a5b7'}>"
p3131
sS'key'
p3132
S"'Auth'"
p3133
sssS'traceback'
p3134
S'Traceback (most recent call last):\n  File "gluon/restricted.py", line 205, in restricted\n  File "C:\\Users\\Bussiere\\Dropbox\\Projets\\Yuki\\web2py\\applications\\init\\models\\db.py", line 42, in <module>\n  File "gluon/dal.py", line 6343, in __getattr__\n  File "gluon/dal.py", line 6337, in __getitem__\nKeyError: \'Auth\'\n'
p3135
s.