(dp1
S'output'
p2
S"<type 'exceptions.WindowsError'> [Error 3] Le chemin d\x92acc\xe8s sp\xe9cifi\xe9 est introuvable: 'C:/Users/Bussiere/Dropbox/Projets/Yuki/web2py/applications/Yuki/cron'"
p3
sS'layer'
p4
S'C:\\Users\\Bussiere\\Dropbox\\Projets\\Yuki\\web2py\\applications\\admin\\controllers/default.py'
p5
sS'code'
p6
S'# coding: utf8\n\nEXPERIMENTAL_STUFF = True\n\nif EXPERIMENTAL_STUFF:\n    is_mobile = request.user_agent().is_mobile\n    if is_mobile:\n        response.view = response.view.replace(\'default/\',\'default.mobile/\')\n        response.menu = []\n\nfrom gluon.admin import *\nfrom gluon.fileutils import abspath, read_file, write_file\nfrom glob import glob\nimport shutil\nimport platform\n\nif DEMO_MODE and request.function in [\'change_password\',\'pack\',\'pack_plugin\',\'upgrade_web2py\',\'uninstall\',\'cleanup\',\'compile_app\',\'remove_compiled_app\',\'delete\',\'delete_plugin\',\'create_file\',\'upload_file\',\'update_languages\',\'reload_routes\']:\n    session.flash = T(\'disabled in demo mode\')\n    redirect(URL(\'site\'))\n\nif not is_manager() and request.function in [\'change_password\',\'upgrade_web2py\']:\n    session.flash = T(\'disabled in multi user mode\')\n    redirect(URL(\'site\'))\n\nif FILTER_APPS and request.args(0) and not request.args(0) in FILTER_APPS:\n    session.flash = T(\'disabled in demo mode\')\n    redirect(URL(\'site\'))\n\ndef safe_open(a,b):\n    if DEMO_MODE and \'w\' in b:\n        class tmp:\n            def write(self,data): pass\n        return tmp()\n    return open(a,b)\n\ndef safe_read(a, b=\'r\'):\n    safe_file = safe_open(a, b)\n    try:\n        return safe_file.read()\n    finally:\n        safe_file.close()\n\ndef safe_write(a, value, b=\'w\'):\n    safe_file = safe_open(a, b)\n    try:\n        safe_file.write(value)\n    finally:\n        safe_file.close()\n\ndef get_app(name=None):\n    app = name or request.args(0)\n    if app and (not MULTI_USER_MODE or db(db.app.name==app)(db.app.owner==auth.user.id).count()):\n        return app\n    session.flash = \'App does not exist or your are not authorized\'\n    redirect(URL(\'site\'))\n\ndef index():\n    """ Index handler """\n\n    send = request.vars.send\n    if DEMO_MODE:\n        session.authorized = True\n        session.last_time = t0\n    if not send:\n        send = URL(\'site\')\n    if session.authorized:\n        redirect(send)\n    elif request.vars.password:\n        if verify_password(request.vars.password):\n            session.authorized = True\n            login_record(True)\n\n            if CHECK_VERSION:\n                session.check_version = True\n            else:\n                session.check_version = False\n\n            session.last_time = t0\n            if isinstance(send, list):  # ## why does this happen?\n                send = str(send[0])\n\n            redirect(send)\n        else:\n            times_denied = login_record(False)\n            if times_denied >= allowed_number_of_attempts:\n                response.flash = \\\n                    T(\'admin disabled because too many invalid login attempts\')\n            elif times_denied == allowed_number_of_attempts - 1:\n                response.flash = \\\n                    T(\'You have one more login attempt before you are locked out\')\n            else:\n                response.flash = T(\'invalid password.\')\n    return dict(send=send)\n\n\ndef check_version():\n    """ Checks if web2py is up to date """\n\n    session.forget()\n    session._unlock(response)\n\n    new_version, version_number = check_new_version(request.env.web2py_version,\n                                    WEB2PY_VERSION_URL)\n\n    if new_version == -1:\n        return A(T(\'Unable to check for upgrades\'), _href=WEB2PY_URL)\n    elif new_version != True:\n        return A(T(\'web2py is up to date\'), _href=WEB2PY_URL)\n    elif platform.system().lower() in (\'windows\',\'win32\',\'win64\') and os.path.exists("web2py.exe"):\n        return SPAN(\'You should upgrade to version %s\' % version_number)\n    else:\n        return sp_button(URL(\'upgrade_web2py\'), T(\'upgrade now\')) \\\n          + XML(\' <strong class="upgrade_version">%s</strong>\' % version_number)\n\n\ndef logout():\n    """ Logout handler """\n    session.authorized = None\n    if MULTI_USER_MODE:\n        redirect(URL(\'user/logout\'))\n    redirect(URL(\'index\'))\n\n\ndef change_password():\n\n    if session.pam_user:\n        session.flash = T(\'PAM authenticated user, cannot change password here\')\n        redirect(URL(\'site\'))\n    form=SQLFORM.factory(Field(\'current_admin_password\',\'password\'),\n                         Field(\'new_admin_password\',\'password\',requires=IS_STRONG()),\n                         Field(\'new_admin_password_again\',\'password\'))\n    if form.accepts(request.vars):\n        if not verify_password(request.vars.current_admin_password):\n            form.errors.current_admin_password = T(\'invalid password\')\n        elif form.vars.new_admin_password != form.vars.new_admin_password_again:\n            form.errors.new_admin_password_again = T(\'no match\')\n        else:\n            path = abspath(\'parameters_%s.py\' % request.env.server_port)\n            safe_write(path, \'password="%s"\' % CRYPT()(request.vars.new_admin_password)[0])\n            session.flash = T(\'password changed\')\n            redirect(URL(\'site\'))\n    return dict(form=form)\n\ndef site():\n    """ Site handler """\n\n    myversion = request.env.web2py_version\n\n    # Shortcut to make the elif statements more legible\n    file_or_appurl = \'file\' in request.vars or \'appurl\' in request.vars\n\n    if DEMO_MODE:\n        pass\n\n    elif request.vars.filename and not \'file\' in request.vars:\n        # create a new application\n        appname = cleanpath(request.vars.filename).replace(\'.\', \'_\')\n        if app_create(appname, request):\n            if MULTI_USER_MODE:\n                db.app.insert(name=appname,owner=auth.user.id)\n            session.flash = T(\'new application "%s" created\', appname)\n            redirect(URL(\'design\',args=appname))\n        else:\n            session.flash = \\\n                T(\'unable to create application "%s" (it may exist already)\', request.vars.filename)\n        redirect(URL(r=request))\n\n    elif file_or_appurl and not request.vars.filename:\n        # can\'t do anything without an app name\n        msg = \'you must specify a name for the uploaded application\'\n        response.flash = T(msg)\n\n    elif file_or_appurl and request.vars.filename:\n        # fetch an application via URL or file upload\n        f = None\n        if request.vars.appurl is not \'\':\n            try:\n                f = urllib.urlopen(request.vars.appurl)\n            except Exception, e:\n                session.flash = DIV(T(\'Unable to download app because:\'),PRE(str(e)))\n                redirect(URL(r=request))\n            fname = request.vars.appurl\n        elif request.vars.file is not \'\':\n            f = request.vars.file.file\n            fname = request.vars.file.filename\n\n        if f:\n            appname = cleanpath(request.vars.filename).replace(\'.\', \'_\')\n            installed = app_install(appname, f, request, fname,\n                                    overwrite=request.vars.overwrite_check)\n        if f and installed:\n            msg = \'application %(appname)s installed with md5sum: %(digest)s\'\n            session.flash = T(msg, dict(appname=appname,\n                                        digest=md5_hash(installed)))\n        elif f and request.vars.overwrite_check:\n            msg = \'unable to install application "%(appname)s"\'\n            session.flash = T(msg, dict(appname=request.vars.filename))\n\n        else:\n            msg = \'unable to install application "%(appname)s"\'\n            session.flash = T(msg, dict(appname=request.vars.filename))\n\n        redirect(URL(r=request))\n\n    regex = re.compile(\'^\\w+$\')\n\n    if is_manager():\n        apps = [f for f in os.listdir(apath(r=request)) if regex.match(f)]\n    else:\n        apps = [f.name for f in db(db.app.owner==auth.user_id).select()]\n\n    if FILTER_APPS:\n        apps = [f for f in apps if f in FILTER_APPS]\n\n    apps = sorted(apps,lambda a,b:cmp(a.upper(),b.upper()))\n\n    return dict(app=None, apps=apps, myversion=myversion)\n\n\ndef pack():\n    app = get_app()\n\n    if len(request.args) == 1:\n        fname = \'web2py.app.%s.w2p\' % app\n        filename = app_pack(app, request)\n    else:\n        fname = \'web2py.app.%s.compiled.w2p\' % app\n        filename = app_pack_compiled(app, request)\n\n    if filename:\n        response.headers[\'Content-Type\'] = \'application/w2p\'\n        disposition = \'attachment; filename=%s\' % fname\n        response.headers[\'Content-Disposition\'] = disposition\n        return safe_read(filename, \'rb\')\n    else:\n        session.flash = T(\'internal error\')\n        redirect(URL(\'site\'))\n\ndef pack_plugin():\n    app = get_app()\n    if len(request.args) == 2:\n        fname = \'web2py.plugin.%s.w2p\' % request.args[1]\n        filename = plugin_pack(app, request.args[1], request)\n    if filename:\n        response.headers[\'Content-Type\'] = \'application/w2p\'\n        disposition = \'attachment; filename=%s\' % fname\n        response.headers[\'Content-Disposition\'] = disposition\n        return safe_read(filename, \'rb\')\n    else:\n        session.flash = T(\'internal error\')\n        redirect(URL(\'plugin\',args=request.args))\n\ndef upgrade_web2py():\n    if \'upgrade\' in request.vars:\n        (success, error) = upgrade(request)\n        if success:\n            session.flash = T(\'web2py upgraded; please restart it\')\n        else:\n            session.flash = T(\'unable to upgrade because "%s"\', error)\n        redirect(URL(\'site\'))\n    elif \'noupgrade\' in request.vars:\n        redirect(URL(\'site\'))\n    return dict()\n\ndef uninstall():\n    app = get_app()\n    if \'delete\' in request.vars:\n        if MULTI_USER_MODE:\n            if is_manager() and db(db.app.name==app).delete():\n                pass\n            elif db(db.app.name==app)(db.app.owner==auth.user.id).delete():\n                pass\n            else:\n                session.flash = T(\'no permission to uninstall "%s"\', app)\n                redirect(URL(\'site\'))\n        if app_uninstall(app, request):\n            session.flash = T(\'application "%s" uninstalled\', app)\n        else:\n            session.flash = T(\'unable to uninstall "%s"\', app)\n        redirect(URL(\'site\'))\n    elif \'nodelete\' in request.vars:\n        redirect(URL(\'site\'))\n    return dict(app=app)\n\n\ndef cleanup():\n    app = get_app()\n    clean = app_cleanup(app, request)\n    if not clean:\n        session.flash = T("some files could not be removed")\n    else:\n        session.flash = T(\'cache, errors and sessions cleaned\')\n\n    redirect(URL(\'site\'))\n\n\ndef compile_app():\n    app = get_app()\n    c = app_compile(app, request)\n    if not c:\n        session.flash = T(\'application compiled\')\n    else:\n        session.flash = DIV(T(\'Cannot compile: there are errors in your app:\'),\n                              CODE(c))\n    redirect(URL(\'site\'))\n\n\ndef remove_compiled_app():\n    """ Remove the compiled application """\n    app = get_app()\n    remove_compiled_application(apath(app, r=request))\n    session.flash = T(\'compiled application removed\')\n    redirect(URL(\'site\'))\n\ndef delete():\n    """ Object delete handler """\n    app = get_app()\n    filename = \'/\'.join(request.args)\n    sender = request.vars.sender\n\n    if isinstance(sender, list):  # ## fix a problem with Vista\n        sender = sender[0]\n\n    if \'nodelete\' in request.vars:\n        redirect(URL(sender))\n    elif \'delete\' in request.vars:\n        try:\n            os.unlink(apath(filename, r=request))\n            session.flash = T(\'file "%(filename)s" deleted\',\n                              dict(filename=filename))\n        except Exception:\n            session.flash = T(\'unable to delete file "%(filename)s"\',\n                              dict(filename=filename))\n        redirect(URL(sender))\n    return dict(filename=filename, sender=sender)\n\ndef enable():\n    app = get_app()\n    filename = os.path.join(apath(app, r=request),\'DISABLED\')\n    if os.path.exists(filename):\n        os.unlink(filename)\n        return SPAN(T(\'Disable\'),_style=\'color:green\')\n    else:\n        open(filename,\'wb\').write(time.ctime())\n        return SPAN(T(\'Enable\'),_style=\'color:red\')\n\ndef peek():\n    """ Visualize object code """\n    app = get_app()\n    filename = \'/\'.join(request.args)\n    try:\n        data = safe_read(apath(filename, r=request)).replace(\'\\r\',\'\')\n    except IOError:\n        session.flash = T(\'file does not exist\')\n        redirect(URL(\'site\'))\n\n    extension = filename[filename.rfind(\'.\') + 1:].lower()\n\n    return dict(app=request.args[0],\n                filename=filename,\n                data=data,\n                extension=extension)\n\n\ndef test():\n    """ Execute controller tests """\n    app = get_app()\n    if len(request.args) > 1:\n        file = request.args[1]\n    else:\n        file = \'.*\\.py\'\n\n    controllers = listdir(apath(\'%s/controllers/\' % app, r=request), file + \'$\')\n\n    return dict(app=app, controllers=controllers)\n\ndef keepalive():\n    return \'\'\n\ndef search():\n    keywords=request.vars.keywords or \'\'\n    app = get_app()\n    def match(filename,keywords):\n        filename=os.path.join(apath(app, r=request),filename)\n        if keywords in read_file(filename,\'rb\'):\n            return True\n        return False\n    path = apath(request.args[0], r=request)\n    files1 = glob(os.path.join(path,\'*/*.py\'))\n    files2 = glob(os.path.join(path,\'*/*.html\'))\n    files3 = glob(os.path.join(path,\'*/*/*.html\'))\n    files=[x[len(path)+1:].replace(\'\\\\\',\'/\') for x in files1+files2+files3 if match(x,keywords)]\n    return response.json({\'files\':files})\n\ndef edit():\n    """ File edit handler """\n    # Load json only if it is ajax edited...\n    app = get_app()\n    filename = \'/\'.join(request.args)\n    # Try to discover the file type\n    if filename[-3:] == \'.py\':\n        filetype = \'python\'\n    elif filename[-5:] == \'.html\':\n        filetype = \'html\'\n    elif filename[-5:] == \'.load\':\n        filetype = \'html\'\n    elif filename[-4:] == \'.css\':\n        filetype = \'css\'\n    elif filename[-3:] == \'.js\':\n        filetype = \'js\'\n    else:\n        filetype = \'html\'\n\n    # ## check if file is not there\n\n    path = apath(filename, r=request)\n\n    if (\'revert\' in request.vars) and os.path.exists(path + \'.bak\'):\n        try:\n            data = safe_read(path + \'.bak\')\n            data1 = safe_read(path)\n        except IOError:\n            session.flash = T(\'Invalid action\')\n            if \'from_ajax\' in request.vars:\n                 return response.json({\'error\': str(T(\'Invalid action\'))})\n            else:\n                redirect(URL(\'site\'))\n\n        safe_write(path, data)\n        file_hash = md5_hash(data)\n        saved_on = time.ctime(os.stat(path)[stat.ST_MTIME])\n        safe_write(path + \'.bak\', data1)\n        response.flash = T(\'file "%s" of %s restored\', (filename, saved_on))\n    else:\n        try:\n            data = safe_read(path)\n        except IOError:\n            session.flash = T(\'Invalid action\')\n            if \'from_ajax\' in request.vars:\n                return response.json({\'error\': str(T(\'Invalid action\'))})\n            else:\n                redirect(URL(\'site\'))\n\n        file_hash = md5_hash(data)\n        saved_on = time.ctime(os.stat(path)[stat.ST_MTIME])\n\n        if request.vars.file_hash and request.vars.file_hash != file_hash:\n            session.flash = T(\'file changed on disk\')\n            data = request.vars.data.replace(\'\\r\\n\', \'\\n\').strip() + \'\\n\'\n            safe_write(path + \'.1\', data)\n            if \'from_ajax\' in request.vars:\n                return response.json({\'error\': str(T(\'file changed on disk\')),\n                                      \'redirect\': URL(\'resolve\',\n                                                      args=request.args)})\n            else:\n                redirect(URL(\'resolve\', args=request.args))\n        elif request.vars.data:\n            safe_write(path + \'.bak\', data)\n            data = request.vars.data.replace(\'\\r\\n\', \'\\n\').strip() + \'\\n\'\n            safe_write(path, data)\n            file_hash = md5_hash(data)\n            saved_on = time.ctime(os.stat(path)[stat.ST_MTIME])\n            response.flash = T(\'file saved on %s\', saved_on)\n\n    data_or_revert = (request.vars.data or request.vars.revert)\n\n    # Check compile errors\n    highlight = None\n    if filetype == \'python\' and request.vars.data:\n        import _ast\n        try:\n            code = request.vars.data.rstrip().replace(\'\\r\\n\',\'\\n\')+\'\\n\'\n            compile(code, path, "exec", _ast.PyCF_ONLY_AST)\n        except Exception, e:\n            start = sum([len(line)+1 for l, line\n                            in enumerate(request.vars.data.split("\\n"))\n                            if l < e.lineno-1])\n            if e.text and e.offset:\n                offset = e.offset - (len(e.text) - len(e.text.splitlines()[-1]))\n            else:\n                offset = 0\n            highlight = {\'start\': start, \'end\': start + offset + 1}\n            try:\n                ex_name = e.__class__.__name__\n            except:\n                ex_name = \'unknown exception!\'\n            response.flash = DIV(T(\'failed to compile file because:\'), BR(),\n                                 B(ex_name), T(\' at line %s\') % e.lineno,\n                                 offset and T(\' at char %s\') % offset or \'\',\n                                 PRE(str(e)))\n\n    if data_or_revert and request.args[1] == \'modules\':\n        # Lets try to reload the modules\n        try:\n            mopath = \'.\'.join(request.args[2:])[:-3]\n            exec \'import applications.%s.modules.%s\' % (request.args[0], mopath)\n            reload(sys.modules[\'applications.%s.modules.%s\'\n                    % (request.args[0], mopath)])\n        except Exception, e:\n            response.flash = DIV(T(\'failed to reload module because:\'),PRE(str(e)))\n\n    edit_controller = None\n    editviewlinks = None\n    view_link = None\n    if filetype == \'html\' and len(request.args) >= 3:\n        cfilename = os.path.join(request.args[0], \'controllers\',\n                                 request.args[2] + \'.py\')\n        if os.path.exists(apath(cfilename, r=request)):\n            edit_controller = URL(\'edit\', args=[cfilename])\n            view = request.args[3].replace(\'.html\',\'\')\n            view_link = URL(request.args[0],request.args[2],view)\n    elif filetype == \'python\' and request.args[1] == \'controllers\':\n        ## it\'s a controller file.\n        ## Create links to all of the associated view files.\n        app = get_app()\n        viewname = os.path.splitext(request.args[2])[0]\n        viewpath = os.path.join(app,\'views\',viewname)\n        aviewpath = apath(viewpath, r=request)\n        viewlist = []\n        if os.path.exists(aviewpath):\n            if os.path.isdir(aviewpath):\n                viewlist = glob(os.path.join(aviewpath,\'*.html\'))\n        elif os.path.exists(aviewpath+\'.html\'):\n            viewlist.append(aviewpath+\'.html\')\n        if len(viewlist):\n            editviewlinks = []\n            for v in viewlist:\n                vf = os.path.split(v)[-1]\n                vargs = "/".join([viewpath.replace(os.sep,"/"),vf])\n                editviewlinks.append(A(T(vf.split(".")[0]),\\\n                    _href=URL(\'edit\',args=[vargs])))\n\n    if len(request.args) > 2 and request.args[1] == \'controllers\':\n        controller = (request.args[2])[:-3]\n        functions = regex_expose.findall(data)\n    else:\n        (controller, functions) = (None, None)\n\n    if \'from_ajax\' in request.vars:\n        return response.json({\'file_hash\': file_hash, \'saved_on\': saved_on, \'functions\':functions, \'controller\': controller, \'application\': request.args[0], \'highlight\': highlight })\n    else:\n\n        editarea_preferences = {}\n        editarea_preferences[\'FONT_SIZE\'] = \'10\'\n        editarea_preferences[\'FULL_SCREEN\'] = \'false\'\n        editarea_preferences[\'ALLOW_TOGGLE\'] = \'true\'\n        editarea_preferences[\'REPLACE_TAB_BY_SPACES\'] = \'4\'\n        editarea_preferences[\'DISPLAY\'] = \'onload\'\n        for key in editarea_preferences:\n            if globals().has_key(key):\n                editarea_preferences[key]=globals()[key]\n        return dict(app=request.args[0],\n                    filename=filename,\n                    filetype=filetype,\n                    data=data,\n                    edit_controller=edit_controller,\n                    file_hash=file_hash,\n                    saved_on=saved_on,\n                    controller=controller,\n                    functions=functions,\n                    view_link=view_link,\n                    editarea_preferences=editarea_preferences,\n                    editviewlinks=editviewlinks)\n\ndef resolve():\n    """\n    """\n\n    filename = \'/\'.join(request.args)\n    # ## check if file is not there\n    path = apath(filename, r=request)\n    a = safe_read(path).split(\'\\n\')\n    try:\n        b = safe_read(path + \'.1\').split(\'\\n\')\n    except IOError:\n        session.flash = \'Other file, no longer there\'\n        redirect(URL(\'edit\', args=request.args))\n\n    d = difflib.ndiff(a, b)\n\n    def leading(line):\n        """  """\n\n        # TODO: we really need to comment this\n        z = \'\'\n        for (k, c) in enumerate(line):\n            if c == \' \':\n                z += \'&nbsp;\'\n            elif c == \' \\t\':\n                z += \'&nbsp;\'\n            elif k == 0 and c == \'?\':\n                pass\n            else:\n                break\n\n        return XML(z)\n\n    def getclass(item):\n        """ Determine item class """\n\n        if item[0] == \' \':\n            return \'normal\'\n        if item[0] == \'+\':\n            return \'plus\'\n        if item[0] == \'-\':\n            return \'minus\'\n\n    if request.vars:\n        c = \'\\n\'.join([item[2:].rstrip() for (i, item) in enumerate(d) if item[0] \\\n                           == \' \' or \'line%i\' % i in request.vars])\n        safe_write(path, c)\n        session.flash = \'files merged\'\n        redirect(URL(\'edit\', args=request.args))\n    else:\n        # Making the short circuit compatible with <= python2.4\n        gen_data = lambda index,item: not item[:1] in [\'+\',\'-\'] and "" \\\n                   or INPUT(_type=\'checkbox\',\n                            _name=\'line%i\' % index,\n                            value=item[0] == \'+\')\n\n        diff = TABLE(*[TR(TD(gen_data(i,item)),\n                          TD(item[0]),\n                          TD(leading(item[2:]),\n                          TT(item[2:].rstrip())), _class=getclass(item))\n                       for (i, item) in enumerate(d) if item[0] != \'?\'])\n\n    return dict(diff=diff, filename=filename)\n\n\ndef edit_language():\n    """ Edit language file """\n    app = get_app()\n    filename = \'/\'.join(request.args)\n    from gluon.languages import read_dict, write_dict\n    strings = read_dict(apath(filename, r=request))\n    keys = sorted(strings.keys(),lambda x,y: cmp(x.lower(), y.lower()))\n    rows = []\n    rows.append(H2(T(\'Original/Translation\')))\n\n    for key in keys:\n        name = md5_hash(key)\n        if key==strings[key]:\n            _class=\'untranslated\'\n        else:\n            _class=\'translated\'\n        if len(key) <= 40:\n            elem = INPUT(_type=\'text\', _name=name,value=strings[key],\n                         _size=70,_class=_class)\n        else:\n            elem = TEXTAREA(_name=name, value=strings[key], _cols=70,\n                            _rows=5, _class=_class)\n\n        # Making the short circuit compatible with <= python2.4\n        k = (strings[key] != key) and key or B(key)\n\n        rows.append(P(k, BR(), elem, TAG.BUTTON(T(\'delete\'),\n                            _onclick=\'return delkey("%s")\' % name), _id=name))\n\n    rows.append(INPUT(_type=\'submit\', _value=T(\'update\')))\n    form = FORM(*rows)\n    if form.accepts(request.vars, keepvalues=True):\n        strs = dict()\n        for key in keys:\n            name = md5_hash(key)\n            if form.vars[name]==chr(127): continue\n            strs[key] = form.vars[name]\n        write_dict(apath(filename, r=request), strs)\n        session.flash = T(\'file saved on %(time)s\', dict(time=time.ctime()))\n        redirect(URL(r=request,args=request.args))\n    return dict(app=request.args[0], filename=filename, form=form)\n\n\ndef about():\n    """ Read about info """\n    app = get_app()\n    # ## check if file is not there\n    about = safe_read(apath(\'%s/ABOUT\' % app, r=request))\n    license = safe_read(apath(\'%s/LICENSE\' % app, r=request))\n    return dict(app=app, about=MARKMIN(about), license=MARKMIN(license))\n\n\ndef design():\n    """ Application design handler """\n    app = get_app()\n\n    if not response.flash and app == request.application:\n        msg = T(\'ATTENTION: you cannot edit the running application!\')\n        response.flash = msg\n\n    if request.vars.pluginfile!=None and not isinstance(request.vars.pluginfile,str):\n        filename=os.path.basename(request.vars.pluginfile.filename)\n        if plugin_install(app, request.vars.pluginfile.file,\n                          request, filename):\n            session.flash = T(\'new plugin installed\')\n            redirect(URL(\'design\',args=app))\n        else:\n            session.flash = \\\n                T(\'unable to create application "%s"\', request.vars.filename)\n        redirect(URL(r=request))\n    elif isinstance(request.vars.pluginfile,str):\n        session.flash = T(\'plugin not specified\')\n        redirect(URL(r=request))\n\n\n    # If we have only pyc files it means that\n    # we cannot design\n    if os.path.exists(apath(\'%s/compiled\' % app, r=request)):\n        session.flash = \\\n            T(\'application is compiled and cannot be designed\')\n        redirect(URL(\'site\'))\n\n    # Get all models\n    models = listdir(apath(\'%s/models/\' % app, r=request), \'.*\\.py$\')\n    models=[x.replace(\'\\\\\',\'/\') for x in models]\n    defines = {}\n    for m in models:\n        data = safe_read(apath(\'%s/models/%s\' % (app, m), r=request))\n        defines[m] = regex_tables.findall(data)\n        defines[m].sort()\n\n    # Get all controllers\n    controllers = sorted(listdir(apath(\'%s/controllers/\' % app, r=request), \'.*\\.py$\'))\n    controllers = [x.replace(\'\\\\\',\'/\') for x in controllers]\n    functions = {}\n    for c in controllers:\n        data = safe_read(apath(\'%s/controllers/%s\' % (app, c), r=request))\n        items = regex_expose.findall(data)\n        functions[c] = items\n\n    # Get all views\n    views = sorted(listdir(apath(\'%s/views/\' % app, r=request), \'[\\w/\\-]+(\\.\\w+)+$\'))\n    views = [x.replace(\'\\\\\',\'/\') for x in views if not x.endswith(\'.bak\')]\n    extend = {}\n    include = {}\n    for c in views:\n        data = safe_read(apath(\'%s/views/%s\' % (app, c), r=request))\n        items = regex_extend.findall(data)\n\n        if items:\n            extend[c] = items[0][1]\n\n        items = regex_include.findall(data)\n        include[c] = [i[1] for i in items]\n\n    # Get all modules\n    modules = listdir(apath(\'%s/modules/\' % app, r=request), \'.*\\.py$\')\n    modules = modules=[x.replace(\'\\\\\',\'/\') for x in modules]\n    modules.sort()\n\n    # Get all static files\n    statics = listdir(apath(\'%s/static/\' % app, r=request), \'[^\\.#].*\')\n    statics = [x.replace(\'\\\\\',\'/\') for x in statics]\n    statics.sort()\n\n    # Get all languages\n    languages = listdir(apath(\'%s/languages/\' % app, r=request), \'[\\w-]*\\.py\')\n\n    #Get crontab\n    cronfolder = apath(\'%s/cron\' % app, r=request)\n    if not os.path.exists(cronfolder): os.mkdir(cronfolder)\n    crontab = apath(\'%s/cron/crontab\' % app, r=request)\n    if not os.path.exists(crontab):\n        safe_write(crontab, \'#crontab\')\n\n    plugins=[]\n    def filter_plugins(items,plugins):\n        plugins+=[item[7:].split(\'/\')[0].split(\'.\')[0] for item in items if item.startswith(\'plugin_\')]\n        plugins[:]=list(set(plugins))\n        plugins.sort()\n        return [item for item in items if not item.startswith(\'plugin_\')]\n\n    return dict(app=app,\n                models=filter_plugins(models,plugins),\n                defines=defines,\n                controllers=filter_plugins(controllers,plugins),\n                functions=functions,\n                views=filter_plugins(views,plugins),\n                modules=filter_plugins(modules,plugins),\n                extend=extend,\n                include=include,\n                statics=filter_plugins(statics,plugins),\n                languages=languages,\n                crontab=crontab,\n                plugins=plugins)\n\ndef delete_plugin():\n    """ Object delete handler """\n    app=request.args(0)\n    plugin = request.args(1)\n    plugin_name=\'plugin_\'+plugin\n    if \'nodelete\' in request.vars:\n        redirect(URL(\'design\',args=app))\n    elif \'delete\' in request.vars:\n        try:\n            for folder in [\'models\',\'views\',\'controllers\',\'static\',\'modules\']:\n                path=os.path.join(apath(app,r=request),folder)\n                for item in os.listdir(path):\n                    if item.rsplit(\'.\',1)[0] == plugin_name:\n                        filename=os.path.join(path,item)\n                        if os.path.isdir(filename):\n                            shutil.rmtree(filename)\n                        else:\n                            os.unlink(filename)\n            session.flash = T(\'plugin "%(plugin)s" deleted\',\n                              dict(plugin=plugin))\n        except Exception:\n            session.flash = T(\'unable to delete file plugin "%(plugin)s"\',\n                              dict(plugin=plugin))\n        redirect(URL(\'design\',args=request.args(0)))\n    return dict(plugin=plugin)\n\ndef plugin():\n    """ Application design handler """\n    app = get_app()\n    plugin = request.args(1)\n\n    if not response.flash and app == request.application:\n        msg = T(\'ATTENTION: you cannot edit the running application!\')\n        response.flash = msg\n\n    # If we have only pyc files it means that\n    # we cannot design\n    if os.path.exists(apath(\'%s/compiled\' % app, r=request)):\n        session.flash = \\\n            T(\'application is compiled and cannot be designed\')\n        redirect(URL(\'site\'))\n\n    # Get all models\n    models = listdir(apath(\'%s/models/\' % app, r=request), \'.*\\.py$\')\n    models=[x.replace(\'\\\\\',\'/\') for x in models]\n    defines = {}\n    for m in models:\n        data = safe_read(apath(\'%s/models/%s\' % (app, m), r=request))\n        defines[m] = regex_tables.findall(data)\n        defines[m].sort()\n\n    # Get all controllers\n    controllers = sorted(listdir(apath(\'%s/controllers/\' % app, r=request), \'.*\\.py$\'))\n    controllers = [x.replace(\'\\\\\',\'/\') for x in controllers]\n    functions = {}\n    for c in controllers:\n        data = safe_read(apath(\'%s/controllers/%s\' % (app, c), r=request))\n        items = regex_expose.findall(data)\n        functions[c] = items\n\n    # Get all views\n    views = sorted(listdir(apath(\'%s/views/\' % app, r=request), \'[\\w/\\-]+\\.\\w+$\'))\n    views = [x.replace(\'\\\\\',\'/\') for x in views]\n    extend = {}\n    include = {}\n    for c in views:\n        data = safe_read(apath(\'%s/views/%s\' % (app, c), r=request))\n        items = regex_extend.findall(data)\n        if items:\n            extend[c] = items[0][1]\n\n        items = regex_include.findall(data)\n        include[c] = [i[1] for i in items]\n\n    # Get all modules\n    modules = listdir(apath(\'%s/modules/\' % app, r=request), \'.*\\.py$\')\n    modules = modules=[x.replace(\'\\\\\',\'/\') for x in modules]\n    modules.sort()\n\n    # Get all static files\n    statics = listdir(apath(\'%s/static/\' % app, r=request), \'[^\\.#].*\')\n    statics = [x.replace(\'\\\\\',\'/\') for x in statics]\n    statics.sort()\n\n    # Get all languages\n    languages = listdir(apath(\'%s/languages/\' % app, r=request), \'[\\w-]*\\.py\')\n\n    #Get crontab\n    crontab = apath(\'%s/cron/crontab\' % app, r=request)\n    if not os.path.exists(crontab):\n        safe_write(crontab, \'#crontab\')\n\n    def filter_plugins(items):\n        regex=re.compile(\'^plugin_\'+plugin+\'(/.*|\\..*)?$\')\n        return [item for item in items if regex.match(item)]\n\n    return dict(app=app,\n                models=filter_plugins(models),\n                defines=defines,\n                controllers=filter_plugins(controllers),\n                functions=functions,\n                views=filter_plugins(views),\n                modules=filter_plugins(modules),\n                extend=extend,\n                include=include,\n                statics=filter_plugins(statics),\n                languages=languages,\n                crontab=crontab)\n\n\ndef create_file():\n    """ Create files handler """\n    try:\n        app = get_app(name=request.vars.location.split(\'/\')[0])\n        path = apath(request.vars.location, r=request)\n        filename = re.sub(\'[^\\w./-]+\', \'_\', request.vars.filename)\n\n        if path[-11:] == \'/languages/\':\n            # Handle language files\n            if len(filename) == 0:\n                raise SyntaxError\n            if not filename[-3:] == \'.py\':\n                filename += \'.py\'\n            app = path.split(\'/\')[-3]\n            path=os.path.join(apath(app, r=request),\'languages\',filename)\n            if not os.path.exists(path):\n                safe_write(path, \'\')\n            findT(apath(app, r=request), filename[:-3])\n            session.flash = T(\'language file "%(filename)s" created/updated\',\n                              dict(filename=filename))\n            redirect(request.vars.sender)\n\n        elif path[-8:] == \'/models/\':\n            # Handle python models\n            if not filename[-3:] == \'.py\':\n                filename += \'.py\'\n\n            if len(filename) == 3:\n                raise SyntaxError\n\n            text = \'# coding: utf8\\n\'\n\n        elif path[-13:] == \'/controllers/\':\n            # Handle python controllers\n            if not filename[-3:] == \'.py\':\n                filename += \'.py\'\n\n            if len(filename) == 3:\n                raise SyntaxError\n\n            text = \'# coding: utf8\\n# %s\\ndef index(): return dict(message="hello from %s")\'\n            text = text % (T(\'try something like\'), filename)\n\n        elif path[-7:] == \'/views/\':\n            if request.vars.plugin and not filename.startswith(\'plugin_%s/\' % request.vars.plugin):\n                filename = \'plugin_%s/%s\' % (request.vars.plugin, filename)\n            # Handle template (html) views\n            if filename.find(\'.\')<0:\n                filename += \'.html\'\n            extension = filename.split(\'.\')[-1].lower()\n\n            if len(filename) == 5:\n                raise SyntaxError\n\n            msg = T(\'This is the %(filename)s template\',\n                    dict(filename=filename))\n            if extension == \'html\':\n                text = dedent("""\n                   {{extend \'layout.html\'}}\n                   <h1>%s</h1>\n                   {{=BEAUTIFY(response._vars)}}""" % msg)\n            else:\n                generic = os.path.join(path,\'generic.\'+extension)\n                if os.path.exists(generic):\n                    text = read_file(generic)\n                else:\n                    text = \'\'\n\n        elif path[-9:] == \'/modules/\':\n            if request.vars.plugin and not filename.startswith(\'plugin_%s/\' % request.vars.plugin):\n                filename = \'plugin_%s/%s\' % (request.vars.plugin, filename)\n            # Handle python module files\n            if not filename[-3:] == \'.py\':\n                filename += \'.py\'\n\n            if len(filename) == 3:\n                raise SyntaxError\n\n            text = dedent("""\n                   #!/usr/bin/env python\n                   # coding: utf8\n                   from gluon import *\\n""")\n\n        elif path[-8:] == \'/static/\':\n            if request.vars.plugin and not filename.startswith(\'plugin_%s/\' % request.vars.plugin):\n                filename = \'plugin_%s/%s\' % (request.vars.plugin, filename)\n            text = \'\'\n        else:\n            redirect(request.vars.sender)\n\n        full_filename = os.path.join(path, filename)\n        dirpath = os.path.dirname(full_filename)\n\n        if not os.path.exists(dirpath):\n            os.makedirs(dirpath)\n\n        if os.path.exists(full_filename):\n            raise SyntaxError\n\n        safe_write(full_filename, text)\n        session.flash = T(\'file "%(filename)s" created\',\n                          dict(filename=full_filename[len(path):]))\n        redirect(URL(\'edit\',\n                 args=[os.path.join(request.vars.location, filename)]))\n    except Exception, e:\n        if not isinstance(e,HTTP):\n            session.flash = T(\'cannot create file\')\n\n    redirect(request.vars.sender)\n\n\ndef upload_file():\n    """ File uploading handler """\n\n    try:\n        filename = None\n        app = get_app(name=request.vars.location.split(\'/\')[0])\n        path = apath(request.vars.location, r=request)\n\n        if request.vars.filename:\n            filename = re.sub(\'[^\\w\\./]+\', \'_\', request.vars.filename)\n        else:\n            filename = os.path.split(request.vars.file.filename)[-1]\n\n        if path[-8:] == \'/models/\' and not filename[-3:] == \'.py\':\n            filename += \'.py\'\n\n        if path[-9:] == \'/modules/\' and not filename[-3:] == \'.py\':\n            filename += \'.py\'\n\n        if path[-13:] == \'/controllers/\' and not filename[-3:] == \'.py\':\n            filename += \'.py\'\n\n        if path[-7:] == \'/views/\' and not filename[-5:] == \'.html\':\n            filename += \'.html\'\n\n        if path[-11:] == \'/languages/\' and not filename[-3:] == \'.py\':\n            filename += \'.py\'\n\n        filename = os.path.join(path, filename)\n        dirpath = os.path.dirname(filename)\n\n        if not os.path.exists(dirpath):\n            os.makedirs(dirpath)\n\n        safe_write(filename, request.vars.file.file.read(), \'wb\')\n        session.flash = T(\'file "%(filename)s" uploaded\',\n                          dict(filename=filename[len(path):]))\n    except Exception:\n        if filename:\n            d = dict(filename = filename[len(path):])\n        else:\n            d = dict(filename = \'unkown\')\n        session.flash = T(\'cannot upload file "%(filename)s"\', d)\n\n    redirect(request.vars.sender)\n\n\ndef errors():\n    """ Error handler """\n    import operator\n    import os\n    import pickle\n    import hashlib\n\n    app = get_app()\n\n    method = request.args(1) or \'new\'\n    db_ready = {}\n    db_ready[\'status\'] = get_ticket_storage(app)\n    db_ready[\'errmessage\'] = "No ticket_storage.txt found under /private folder"\n    db_ready[\'errlink\'] = "http://web2py.com/books/default/chapter/29/13#Collecting-tickets"\n\n    if method == \'new\':\n        errors_path = apath(\'%s/errors\' % app, r=request)\n\n        delete_hashes = []\n        for item in request.vars:\n            if item[:7] == \'delete_\':\n                delete_hashes.append(item[7:])\n\n        hash2error = dict()\n\n        for fn in listdir(errors_path, \'^\\w.*\'):\n            fullpath = os.path.join(errors_path, fn)\n            if not os.path.isfile(fullpath): continue\n            try:\n                fullpath_file = open(fullpath, \'r\')\n                try:\n                    error = pickle.load(fullpath_file)\n                finally:\n                    fullpath_file.close()\n            except IOError:\n                continue\n\n            hash = hashlib.md5(error[\'traceback\']).hexdigest()\n\n            if hash in delete_hashes:\n                os.unlink(fullpath)\n            else:\n                try:\n                    hash2error[hash][\'count\'] += 1\n                except KeyError:\n                    error_lines = error[\'traceback\'].split("\\n")\n                    last_line = error_lines[-2]\n                    error_causer = os.path.split(error[\'layer\'])[1]\n                    hash2error[hash] = dict(count=1, pickel=error,\n                                            causer=error_causer,\n                                            last_line=last_line,\n                                            hash=hash,ticket=fn)\n\n        decorated = [(x[\'count\'], x) for x in hash2error.values()]\n        decorated.sort(key=operator.itemgetter(0), reverse=True)\n\n        return dict(errors = [x[1] for x in decorated], app=app, method=method, db_ready=db_ready)\n\n    elif method == \'dbnew\':\n        errors_path = apath(\'%s/errors\' % app, r=request)\n        tk_db, tk_table = get_ticket_storage(app)\n\n        delete_hashes = []\n        for item in request.vars:\n            if item[:7] == \'delete_\':\n                delete_hashes.append(item[7:])\n\n        hash2error = dict()\n\n        for fn in tk_db(tk_table.id>0).select():\n            try:\n                error = pickle.loads(fn.ticket_data)\n            except AttributeError:\n                tk_db(tk_table.id == fn.id).delete()\n                tk_db.commit()\n\n            hash = hashlib.md5(error[\'traceback\']).hexdigest()\n\n            if hash in delete_hashes:\n                tk_db(tk_table.id == fn.id).delete()\n                tk_db.commit()\n            else:\n                try:\n                    hash2error[\'hash\'][\'count\'] += 1\n                except KeyError:\n                    error_lines = error[\'traceback\'].split("\\n")\n                    last_line = error_lines[-2]\n                    error_causer = os.path.split(error[\'layer\'])[1]\n                    hash2error[hash] = dict(count=1, pickel=error,\n                                            causer=error_causer,\n                                            last_line=last_line,\n                                            hash=hash,ticket=fn.ticket_id)\n\n        decorated = [(x[\'count\'], x) for x in hash2error.values()]\n\n        decorated.sort(key=operator.itemgetter(0), reverse=True)\n\n        return dict(errors = [x[1] for x in decorated], app=app, method=method)\n\n    elif method == \'dbold\':\n        tk_db, tk_table = get_ticket_storage(app)\n        for item in request.vars:\n            if item[:7] == \'delete_\':\n                tk_db(tk_table.ticket_id == item[7:]).delete()\n                tk_db.commit()\n        tickets_ = tk_db(tk_table.id>0).select(tk_table.ticket_id, tk_table.created_datetime, orderby=~tk_table.created_datetime)\n        tickets = [row.ticket_id for row in tickets_]\n        times = dict([(row.ticket_id, row.created_datetime) for row in tickets_])\n\n        return dict(app=app, tickets=tickets, method=method, times=times)\n\n    else:\n        for item in request.vars:\n            if item[:7] == \'delete_\':\n                os.unlink(apath(\'%s/errors/%s\' % (app, item[7:]), r=request))\n        func = lambda p: os.stat(apath(\'%s/errors/%s\' % \\\n                                           (app, p), r=request)).st_mtime\n        tickets = sorted(listdir(apath(\'%s/errors/\' % app, r=request), \'^\\w.*\'),\n                         key=func,\n                         reverse=True)\n\n        return dict(app=app, tickets=tickets, method=method, db_ready=db_ready)\n\ndef get_ticket_storage(app):\n    private_folder = apath(\'%s/private\' % app, r=request)\n    ticket_file = os.path.join(private_folder, \'ticket_storage.txt\')\n    if os.path.exists(ticket_file):\n        db_string = open(ticket_file).read()\n        db_string = db_string.strip().replace(\'\\r\',\'\').replace(\'\\n\',\'\')\n    else:\n        return False\n    tickets_table = \'web2py_ticket\'\n    tablename = tickets_table + \'_\' + app\n    db_path = apath(\'%s/databases\' % app, r=request)\n    ticketsdb = DAL(db_string, folder=db_path, auto_import=True)\n    if not ticketsdb.get(tablename):\n        table = ticketsdb.define_table(\n                tablename,\n                Field(\'ticket_id\', length=100),\n                Field(\'ticket_data\', \'text\'),\n                Field(\'created_datetime\', \'datetime\'),\n                )\n    return ticketsdb , ticketsdb.get(tablename)\n\ndef make_link(path):\n    """ Create a link from a path """\n    tryFile = path.replace(\'\\\\\', \'/\')\n\n    if os.path.isabs(tryFile) and os.path.isfile(tryFile):\n        (folder, filename) = os.path.split(tryFile)\n        (base, ext) = os.path.splitext(filename)\n        app = get_app()\n\n        editable = {\'controllers\': \'.py\', \'models\': \'.py\', \'views\': \'.html\'}\n        for key in editable.keys():\n            check_extension = folder.endswith("%s/%s" % (app,key))\n            if ext.lower() == editable[key] and check_extension:\n                return A(\'"\' + tryFile + \'"\',\n                         _href=URL(r=request,\n                         f=\'edit/%s/%s/%s\' % (app, key, filename))).xml()\n    return \'\'\n\n\ndef make_links(traceback):\n    """ Make links using the given traceback """\n\n    lwords = traceback.split(\'"\')\n\n    # Making the short circuit compatible with <= python2.4\n    result = (len(lwords) != 0) and lwords[0] or \'\'\n\n    i = 1\n\n    while i < len(lwords):\n        link = make_link(lwords[i])\n\n        if link == \'\':\n            result += \'"\' + lwords[i]\n        else:\n            result += link\n\n            if i + 1 < len(lwords):\n                result += lwords[i + 1]\n                i = i + 1\n\n        i = i + 1\n\n    return result\n\n\nclass TRACEBACK(object):\n    """ Generate the traceback """\n\n    def __init__(self, text):\n        """ TRACEBACK constructor """\n\n        self.s = make_links(CODE(text).xml())\n\n    def xml(self):\n        """ Returns the xml """\n\n        return self.s\n\n\ndef ticket():\n    """ Ticket handler """\n\n    if len(request.args) != 2:\n        session.flash = T(\'invalid ticket\')\n        redirect(URL(\'site\'))\n\n    app = get_app()\n    myversion = request.env.web2py_version\n    ticket = request.args[1]\n    e = RestrictedError()\n    e.load(request, app, ticket)\n\n    return dict(app=app,\n                ticket=ticket,\n                output=e.output,\n                traceback=(e.traceback and TRACEBACK(e.traceback)),\n                snapshot=e.snapshot,\n                code=e.code,\n                layer=e.layer,\n                myversion=myversion)\n\ndef ticketdb():\n    """ Ticket handler """\n\n    if len(request.args) != 2:\n        session.flash = T(\'invalid ticket\')\n        redirect(URL(\'site\'))\n\n    app = get_app()\n    myversion = request.env.web2py_version\n    ticket = request.args[1]\n    e = RestrictedError()\n    request.tickets_db = get_ticket_storage(app)[0]\n    e.load(request, app, ticket)\n    response.view = \'default/ticket.html\'\n    return dict(app=app,\n                ticket=ticket,\n                output=e.output,\n                traceback=(e.traceback and TRACEBACK(e.traceback)),\n                snapshot=e.snapshot,\n                code=e.code,\n                layer=e.layer,\n                myversion=myversion)\n\ndef error():\n    """ Generate a ticket (for testing) """\n    raise RuntimeError(\'admin ticket generator at your service\')\n\ndef update_languages():\n    """ Update available languages """\n\n    app = get_app()\n    update_all_languages(apath(app, r=request))\n    session.flash = T(\'Language files (static strings) updated\')\n    redirect(URL(\'design\',args=app,anchor=\'languages\'))\n\n\ndef twitter():\n    session.forget()\n    session._unlock(response)\n    import gluon.tools\n    import gluon.contrib.simplejson as sj\n    try:\n        if TWITTER_HASH:\n            page = urllib.urlopen("http://search.twitter.com/search.json?q=%%40%s" % TWITTER_HASH).read()\n            data = sj.loads(page  , encoding="utf-8")[\'results\']\n            d = dict()\n            for e in data:\n                d[e["id"]] = e\n            r = reversed(sorted(d))\n            return dict(tweets = [d[k] for k in r])\n        else:\n            return \'disabled\'\n    except Exception, e:\n        return DIV(T(\'Unable to download because:\'),BR(),str(e))\n\n\ndef user():\n    if MULTI_USER_MODE:\n        if not db(db.auth_user).count():\n            auth.settings.registration_requires_approval = False\n        return dict(form=auth())\n    else:\n        return dict(form=T("Disabled"))\n\ndef reload_routes():\n    """ Reload routes.py """\n    import gluon.rewrite\n    gluon.rewrite.load()\n    redirect(URL(\'site\'))\n\n\n\nresponse._vars=response._caller(design)\n'
p7
sS'snapshot'
p8
(dp9
S'exception'
p10
(dp11
S'winerror'
p12
S'3'
sS'__hash__'
p13
S"<method-wrapper '__hash__' of exceptions.WindowsError object at 0x0611EA08>"
p14
sS'__setattr__'
p15
S"<method-wrapper '__setattr__' of exceptions.WindowsError object at 0x0611EA08>"
p16
sS'__reduce_ex__'
p17
S'<built-in method __reduce_ex__ of exceptions.WindowsError object at 0x0611EA08>'
p18
sS'__getslice__'
p19
S"<method-wrapper '__getslice__' of exceptions.WindowsError object at 0x0611EA08>"
p20
sS'__getitem__'
p21
S"<method-wrapper '__getitem__' of exceptions.WindowsError object at 0x0611EA08>"
p22
sS'__setstate__'
p23
S'<built-in method __setstate__ of exceptions.WindowsError object at 0x0611EA08>'
p24
sS'__reduce__'
p25
S'<built-in method __reduce__ of exceptions.WindowsError object at 0x0611EA08>'
p26
sS'__str__'
p27
S"<method-wrapper '__str__' of exceptions.WindowsError object at 0x0611EA08>"
p28
sS'args'
p29
S"(3, 'Le chemin d\\x92acc\\xe8s sp\\xe9cifi\\xe9 est introuvable')"
p30
sS'__getattribute__'
p31
S"<method-wrapper '__getattribute__' of exceptions.WindowsError object at 0x0611EA08>"
p32
sS'__class__'
p33
S"<type 'exceptions.WindowsError'>"
p34
sS'filename'
p35
S"'C:/Users/Bussiere/Dropbox/Projets/Yuki/web2py/applications/Yuki/cron'"
p36
sS'__delattr__'
p37
S"<method-wrapper '__delattr__' of exceptions.WindowsError object at 0x0611EA08>"
p38
sS'strerror'
p39
S"'Le chemin d\\x92acc\\xe8s sp\\xe9cifi\\xe9 est introuvable'"
p40
sS'__repr__'
p41
S"<method-wrapper '__repr__' of exceptions.WindowsError object at 0x0611EA08>"
p42
sS'errno'
p43
S'2'
sS'__dict__'
p44
S'{}'
p45
sS'__doc__'
p46
S"'MS-Windows OS system call failed.'"
p47
sS'__init__'
p48
S"<method-wrapper '__init__' of exceptions.WindowsError object at 0x0611EA08>"
p49
sS'__new__'
p50
S'<built-in method __new__ of type object at 0x1E1CD5B8>'
p51
ssS'evalue'
p52
S"[Error 3] Le chemin d\x92acc\xe8s sp\xe9cifi\xe9 est introuvable: 'C:/Users/Bussiere/Dropbox/Projets/Yuki/web2py/applications/Yuki/cron'"
p53
sS'request'
p54
ccopy_reg
_reconstructor
p55
(cgluon.html
BEAUTIFY
p56
c__builtin__
object
p57
NtRp58
(dp59
S'attributes'
p60
(dp61
sS'components'
p62
(lp63
g55
(cgluon.html
TABLE
p64
g57
NtRp65
(dp66
g60
(dp67
S'level'
p68
I5
ssS'parent'
p69
Nsg62
(lp70
g55
(cgluon.html
TR
p71
g57
NtRp72
(dp73
g60
(dp74
sg69
g65
sg62
(lp75
g55
(cgluon.html
TD
p76
g57
NtRp77
(dp78
g60
(dp79
S'_style'
p80
S'font-weight:bold;vertical-align:top'
p81
ssg69
g72
sg62
(lp82
S'ajax'
p83
asbag55
(g76
g57
NtRp84
(dp85
g60
(dp86
S'_valign'
p87
S'top'
p88
ssg69
g72
sg62
(lp89
S':'
asbag55
(g76
g57
NtRp90
(dp91
g60
(dp92
sg69
g72
sg62
(lp93
g55
(g56
g57
NtRp94
(dp95
g60
(dp96
g68
I5
ssg69
g90
sg62
(lp97
S'False'
p98
asbasbasbag55
(g71
g57
NtRp99
(dp100
g60
(dp101
sg69
g65
sg62
(lp102
g55
(g76
g57
NtRp103
(dp104
g60
(dp105
g80
g81
ssg69
g99
sg62
(lp106
S'application'
p107
asbag55
(g76
g57
NtRp108
(dp109
g60
(dp110
g87
g88
ssg69
g99
sg62
(lp111
S':'
asbag55
(g76
g57
NtRp112
(dp113
g60
(dp114
sg69
g99
sg62
(lp115
g55
(g56
g57
NtRp116
(dp117
g60
(dp118
g68
I5
ssg69
g112
sg62
(lp119
S'admin'
p120
asbasbasbag55
(g71
g57
NtRp121
(dp122
g60
(dp123
sg69
g65
sg62
(lp124
g55
(g76
g57
NtRp125
(dp126
g60
(dp127
g80
g81
ssg69
g121
sg62
(lp128
g29
asbag55
(g76
g57
NtRp129
(dp130
g60
(dp131
g87
g88
ssg69
g121
sg62
(lp132
S':'
asbag55
(g76
g57
NtRp133
(dp134
g60
(dp135
sg69
g121
sg62
(lp136
g55
(g56
g57
NtRp137
(dp138
g60
(dp139
g68
I5
ssg69
g133
sg62
(lp140
g55
(g64
g57
NtRp141
(dp142
g60
(dp143
g68
I4
ssg69
Nsg62
(lp144
g55
(g71
g57
NtRp145
(dp146
g60
(dp147
sg69
g141
sg62
(lp148
g55
(g76
g57
NtRp149
(dp150
g60
(dp151
sg69
g145
sg62
(lp152
g55
(g56
g57
NtRp153
(dp154
g60
(dp155
g68
I4
ssg69
g149
sg62
(lp156
S'Yuki'
p157
asbasbasbasbasbasbasbag55
(g71
g57
NtRp158
(dp159
g60
(dp160
sg69
g65
sg62
(lp161
g55
(g76
g57
NtRp162
(dp163
g60
(dp164
g80
g81
ssg69
g158
sg62
(lp165
S'body'
p166
asbag55
(g76
g57
NtRp167
(dp168
g60
(dp169
g87
g88
ssg69
g158
sg62
(lp170
S':'
asbag55
(g76
g57
NtRp171
(dp172
g60
(dp173
sg69
g158
sg62
(lp174
g55
(g56
g57
NtRp175
(dp176
g60
(dp177
g68
I5
ssg69
g171
sg62
(lp178
S'<cStringIO.StringO object at 0x061207E0>'
p179
asbasbasbag55
(g71
g57
NtRp180
(dp181
g60
(dp182
sg69
g65
sg62
(lp183
g55
(g76
g57
NtRp184
(dp185
g60
(dp186
g80
g81
ssg69
g180
sg62
(lp187
S'client'
p188
asbag55
(g76
g57
NtRp189
(dp190
g60
(dp191
g87
g88
ssg69
g180
sg62
(lp192
S':'
asbag55
(g76
g57
NtRp193
(dp194
g60
(dp195
sg69
g180
sg62
(lp196
g55
(g56
g57
NtRp197
(dp198
g60
(dp199
g68
I5
ssg69
g193
sg62
(lp200
S'127.0.0.1'
p201
asbasbasbag55
(g71
g57
NtRp202
(dp203
g60
(dp204
sg69
g65
sg62
(lp205
g55
(g76
g57
NtRp206
(dp207
g60
(dp208
g80
g81
ssg69
g202
sg62
(lp209
S'controller'
p210
asbag55
(g76
g57
NtRp211
(dp212
g60
(dp213
g87
g88
ssg69
g202
sg62
(lp214
S':'
asbag55
(g76
g57
NtRp215
(dp216
g60
(dp217
sg69
g202
sg62
(lp218
g55
(g56
g57
NtRp219
(dp220
g60
(dp221
g68
I5
ssg69
g215
sg62
(lp222
S'default'
p223
asbasbasbag55
(g71
g57
NtRp224
(dp225
g60
(dp226
sg69
g65
sg62
(lp227
g55
(g76
g57
NtRp228
(dp229
g60
(dp230
g80
g81
ssg69
g224
sg62
(lp231
S'cookies'
p232
asbag55
(g76
g57
NtRp233
(dp234
g60
(dp235
g87
g88
ssg69
g224
sg62
(lp236
S':'
asbag55
(g76
g57
NtRp237
(dp238
g60
(dp239
sg69
g224
sg62
(lp240
g55
(g56
g57
NtRp241
(dp242
g60
(dp243
g68
I5
ssg69
g237
sg62
(lp244
g55
(g64
g57
NtRp245
(dp246
g60
(dp247
g68
I4
ssg69
Nsg62
(lp248
g55
(g71
g57
NtRp249
(dp250
g60
(dp251
sg69
g245
sg62
(lp252
g55
(g76
g57
NtRp253
(dp254
g60
(dp255
g80
g81
ssg69
g249
sg62
(lp256
S'session_id_admin'
p257
asbag55
(g76
g57
NtRp258
(dp259
g60
(dp260
g87
g88
ssg69
g249
sg62
(lp261
S':'
asbag55
(g76
g57
NtRp262
(dp263
g60
(dp264
sg69
g249
sg62
(lp265
g55
(g56
g57
NtRp266
(dp267
g60
(dp268
g68
I4
ssg69
g262
sg62
(lp269
g55
(g64
g57
NtRp270
(dp271
g60
(dp272
g68
I3
ssg69
Nsg62
(lp273
g55
(g71
g57
NtRp274
(dp275
g60
(dp276
sg69
g270
sg62
(lp277
g55
(g76
g57
NtRp278
(dp279
g60
(dp280
g80
g81
ssg69
g274
sg62
(lp281
S'comment'
p282
asbag55
(g76
g57
NtRp283
(dp284
g60
(dp285
g87
g88
ssg69
g274
sg62
(lp286
S':'
asbag55
(g76
g57
NtRp287
(dp288
g60
(dp289
sg69
g274
sg62
(lp290
g55
(g56
g57
NtRp291
(dp292
g60
(dp293
g68
I3
ssg69
g287
sg62
(lp294
S''
asbasbasbag55
(g71
g57
NtRp295
(dp296
g60
(dp297
sg69
g270
sg62
(lp298
g55
(g76
g57
NtRp299
(dp300
g60
(dp301
g80
g81
ssg69
g295
sg62
(lp302
S'domain'
p303
asbag55
(g76
g57
NtRp304
(dp305
g60
(dp306
g87
g88
ssg69
g295
sg62
(lp307
S':'
asbag55
(g76
g57
NtRp308
(dp309
g60
(dp310
sg69
g295
sg62
(lp311
g55
(g56
g57
NtRp312
(dp313
g60
(dp314
g68
I3
ssg69
g308
sg62
(lp315
S''
asbasbasbag55
(g71
g57
NtRp316
(dp317
g60
(dp318
sg69
g270
sg62
(lp319
g55
(g76
g57
NtRp320
(dp321
g60
(dp322
g80
g81
ssg69
g316
sg62
(lp323
S'expires'
p324
asbag55
(g76
g57
NtRp325
(dp326
g60
(dp327
g87
g88
ssg69
g316
sg62
(lp328
S':'
asbag55
(g76
g57
NtRp329
(dp330
g60
(dp331
sg69
g316
sg62
(lp332
g55
(g56
g57
NtRp333
(dp334
g60
(dp335
g68
I3
ssg69
g329
sg62
(lp336
S''
asbasbasbag55
(g71
g57
NtRp337
(dp338
g60
(dp339
sg69
g270
sg62
(lp340
g55
(g76
g57
NtRp341
(dp342
g60
(dp343
g80
g81
ssg69
g337
sg62
(lp344
S'max-age'
p345
asbag55
(g76
g57
NtRp346
(dp347
g60
(dp348
g87
g88
ssg69
g337
sg62
(lp349
S':'
asbag55
(g76
g57
NtRp350
(dp351
g60
(dp352
sg69
g337
sg62
(lp353
g55
(g56
g57
NtRp354
(dp355
g60
(dp356
g68
I3
ssg69
g350
sg62
(lp357
S''
asbasbasbag55
(g71
g57
NtRp358
(dp359
g60
(dp360
sg69
g270
sg62
(lp361
g55
(g76
g57
NtRp362
(dp363
g60
(dp364
g80
g81
ssg69
g358
sg62
(lp365
S'path'
p366
asbag55
(g76
g57
NtRp367
(dp368
g60
(dp369
g87
g88
ssg69
g358
sg62
(lp370
S':'
asbag55
(g76
g57
NtRp371
(dp372
g60
(dp373
sg69
g358
sg62
(lp374
g55
(g56
g57
NtRp375
(dp376
g60
(dp377
g68
I3
ssg69
g371
sg62
(lp378
S''
asbasbasbag55
(g71
g57
NtRp379
(dp380
g60
(dp381
sg69
g270
sg62
(lp382
g55
(g76
g57
NtRp383
(dp384
g60
(dp385
g80
g81
ssg69
g379
sg62
(lp386
S'secure'
p387
asbag55
(g76
g57
NtRp388
(dp389
g60
(dp390
g87
g88
ssg69
g379
sg62
(lp391
S':'
asbag55
(g76
g57
NtRp392
(dp393
g60
(dp394
sg69
g379
sg62
(lp395
g55
(g56
g57
NtRp396
(dp397
g60
(dp398
g68
I3
ssg69
g392
sg62
(lp399
S''
asbasbasbag55
(g71
g57
NtRp400
(dp401
g60
(dp402
sg69
g270
sg62
(lp403
g55
(g76
g57
NtRp404
(dp405
g60
(dp406
g80
g81
ssg69
g400
sg62
(lp407
S'version'
p408
asbag55
(g76
g57
NtRp409
(dp410
g60
(dp411
g87
g88
ssg69
g400
sg62
(lp412
S':'
asbag55
(g76
g57
NtRp413
(dp414
g60
(dp415
sg69
g400
sg62
(lp416
g55
(g56
g57
NtRp417
(dp418
g60
(dp419
g68
I3
ssg69
g413
sg62
(lp420
S''
asbasbasbasbasbasbasbag55
(g71
g57
NtRp421
(dp422
g60
(dp423
sg69
g245
sg62
(lp424
g55
(g76
g57
NtRp425
(dp426
g60
(dp427
g80
g81
ssg69
g421
sg62
(lp428
S'session_id_welcome'
p429
asbag55
(g76
g57
NtRp430
(dp431
g60
(dp432
g87
g88
ssg69
g421
sg62
(lp433
S':'
asbag55
(g76
g57
NtRp434
(dp435
g60
(dp436
sg69
g421
sg62
(lp437
g55
(g56
g57
NtRp438
(dp439
g60
(dp440
g68
I4
ssg69
g434
sg62
(lp441
g55
(g64
g57
NtRp442
(dp443
g60
(dp444
g68
I3
ssg69
Nsg62
(lp445
g55
(g71
g57
NtRp446
(dp447
g60
(dp448
sg69
g442
sg62
(lp449
g55
(g76
g57
NtRp450
(dp451
g60
(dp452
g80
g81
ssg69
g446
sg62
(lp453
g282
asbag55
(g76
g57
NtRp454
(dp455
g60
(dp456
g87
g88
ssg69
g446
sg62
(lp457
S':'
asbag55
(g76
g57
NtRp458
(dp459
g60
(dp460
sg69
g446
sg62
(lp461
g55
(g56
g57
NtRp462
(dp463
g60
(dp464
g68
I3
ssg69
g458
sg62
(lp465
S''
asbasbasbag55
(g71
g57
NtRp466
(dp467
g60
(dp468
sg69
g442
sg62
(lp469
g55
(g76
g57
NtRp470
(dp471
g60
(dp472
g80
g81
ssg69
g466
sg62
(lp473
g303
asbag55
(g76
g57
NtRp474
(dp475
g60
(dp476
g87
g88
ssg69
g466
sg62
(lp477
S':'
asbag55
(g76
g57
NtRp478
(dp479
g60
(dp480
sg69
g466
sg62
(lp481
g55
(g56
g57
NtRp482
(dp483
g60
(dp484
g68
I3
ssg69
g478
sg62
(lp485
S''
asbasbasbag55
(g71
g57
NtRp486
(dp487
g60
(dp488
sg69
g442
sg62
(lp489
g55
(g76
g57
NtRp490
(dp491
g60
(dp492
g80
g81
ssg69
g486
sg62
(lp493
g324
asbag55
(g76
g57
NtRp494
(dp495
g60
(dp496
g87
g88
ssg69
g486
sg62
(lp497
S':'
asbag55
(g76
g57
NtRp498
(dp499
g60
(dp500
sg69
g486
sg62
(lp501
g55
(g56
g57
NtRp502
(dp503
g60
(dp504
g68
I3
ssg69
g498
sg62
(lp505
S''
asbasbasbag55
(g71
g57
NtRp506
(dp507
g60
(dp508
sg69
g442
sg62
(lp509
g55
(g76
g57
NtRp510
(dp511
g60
(dp512
g80
g81
ssg69
g506
sg62
(lp513
g345
asbag55
(g76
g57
NtRp514
(dp515
g60
(dp516
g87
g88
ssg69
g506
sg62
(lp517
S':'
asbag55
(g76
g57
NtRp518
(dp519
g60
(dp520
sg69
g506
sg62
(lp521
g55
(g56
g57
NtRp522
(dp523
g60
(dp524
g68
I3
ssg69
g518
sg62
(lp525
S''
asbasbasbag55
(g71
g57
NtRp526
(dp527
g60
(dp528
sg69
g442
sg62
(lp529
g55
(g76
g57
NtRp530
(dp531
g60
(dp532
g80
g81
ssg69
g526
sg62
(lp533
g366
asbag55
(g76
g57
NtRp534
(dp535
g60
(dp536
g87
g88
ssg69
g526
sg62
(lp537
S':'
asbag55
(g76
g57
NtRp538
(dp539
g60
(dp540
sg69
g526
sg62
(lp541
g55
(g56
g57
NtRp542
(dp543
g60
(dp544
g68
I3
ssg69
g538
sg62
(lp545
S''
asbasbasbag55
(g71
g57
NtRp546
(dp547
g60
(dp548
sg69
g442
sg62
(lp549
g55
(g76
g57
NtRp550
(dp551
g60
(dp552
g80
g81
ssg69
g546
sg62
(lp553
g387
asbag55
(g76
g57
NtRp554
(dp555
g60
(dp556
g87
g88
ssg69
g546
sg62
(lp557
S':'
asbag55
(g76
g57
NtRp558
(dp559
g60
(dp560
sg69
g546
sg62
(lp561
g55
(g56
g57
NtRp562
(dp563
g60
(dp564
g68
I3
ssg69
g558
sg62
(lp565
S''
asbasbasbag55
(g71
g57
NtRp566
(dp567
g60
(dp568
sg69
g442
sg62
(lp569
g55
(g76
g57
NtRp570
(dp571
g60
(dp572
g80
g81
ssg69
g566
sg62
(lp573
g408
asbag55
(g76
g57
NtRp574
(dp575
g60
(dp576
g87
g88
ssg69
g566
sg62
(lp577
S':'
asbag55
(g76
g57
NtRp578
(dp579
g60
(dp580
sg69
g566
sg62
(lp581
g55
(g56
g57
NtRp582
(dp583
g60
(dp584
g68
I3
ssg69
g578
sg62
(lp585
S''
asbasbasbasbasbasbasbasbasbasbasbag55
(g71
g57
NtRp586
(dp587
g60
(dp588
sg69
g65
sg62
(lp589
g55
(g76
g57
NtRp590
(dp591
g60
(dp592
g80
g81
ssg69
g586
sg62
(lp593
S'env'
p594
asbag55
(g76
g57
NtRp595
(dp596
g60
(dp597
g87
g88
ssg69
g586
sg62
(lp598
S':'
asbag55
(g76
g57
NtRp599
(dp600
g60
(dp601
sg69
g586
sg62
(lp602
g55
(g56
g57
NtRp603
(dp604
g60
(dp605
g68
I5
ssg69
g599
sg62
(lp606
g55
(g64
g57
NtRp607
(dp608
g60
(dp609
g68
I4
ssg69
Nsg62
(lp610
g55
(g71
g57
NtRp611
(dp612
g60
(dp613
sg69
g607
sg62
(lp614
g55
(g76
g57
NtRp615
(dp616
g60
(dp617
g80
g81
ssg69
g611
sg62
(lp618
S'app_folders'
p619
asbag55
(g76
g57
NtRp620
(dp621
g60
(dp622
g87
g88
ssg69
g611
sg62
(lp623
S':'
asbag55
(g76
g57
NtRp624
(dp625
g60
(dp626
sg69
g611
sg62
(lp627
g55
(g56
g57
NtRp628
(dp629
g60
(dp630
g68
I4
ssg69
g624
sg62
(lp631
S"set(['C:\\\\Users\\\\Bussiere\\\\Dropbox\\\\Projets\\\\Yuki\\\\web2py\\\\applications\\\\admin\\\\', 'C:\\\\Users\\\\Bussiere\\\\Dropbox\\\\Projets\\\\Yuki\\\\web2py\\\\applications\\\\welcome\\\\'])"
p632
asbasbasbag55
(g71
g57
NtRp633
(dp634
g60
(dp635
sg69
g607
sg62
(lp636
g55
(g76
g57
NtRp637
(dp638
g60
(dp639
g80
g81
ssg69
g633
sg62
(lp640
S'applications_parent'
p641
asbag55
(g76
g57
NtRp642
(dp643
g60
(dp644
g87
g88
ssg69
g633
sg62
(lp645
S':'
asbag55
(g76
g57
NtRp646
(dp647
g60
(dp648
sg69
g633
sg62
(lp649
g55
(g56
g57
NtRp650
(dp651
g60
(dp652
g68
I4
ssg69
g646
sg62
(lp653
S'C:\\Users\\Bussiere\\Dropbox\\Projets\\Yuki\\web2py'
p654
asbasbasbag55
(g71
g57
NtRp655
(dp656
g60
(dp657
sg69
g607
sg62
(lp658
g55
(g76
g57
NtRp659
(dp660
g60
(dp661
g80
g81
ssg69
g655
sg62
(lp662
S'cmd_args'
p663
asbag55
(g76
g57
NtRp664
(dp665
g60
(dp666
g87
g88
ssg69
g655
sg62
(lp667
S':'
asbag55
(g76
g57
NtRp668
(dp669
g60
(dp670
sg69
g655
sg62
(lp671
g55
(g56
g57
NtRp672
(dp673
g60
(dp674
g68
I4
ssg69
g668
sg62
(lp675
g55
(g64
g57
NtRp676
(dp677
g60
(dp678
g68
I3
ssg69
Nsg62
(lp679
sbasbasbasbag55
(g71
g57
NtRp680
(dp681
g60
(dp682
sg69
g607
sg62
(lp683
g55
(g76
g57
NtRp684
(dp685
g60
(dp686
g80
g81
ssg69
g680
sg62
(lp687
S'cmd_options'
p688
asbag55
(g76
g57
NtRp689
(dp690
g60
(dp691
g87
g88
ssg69
g680
sg62
(lp692
S':'
asbag55
(g76
g57
NtRp693
(dp694
g60
(dp695
sg69
g680
sg62
(lp696
g55
(g56
g57
NtRp697
(dp698
g60
(dp699
g68
I4
ssg69
g693
sg62
(lp700
S"<Values at 0x2d92fa8: {'verbose': False, 'ip': '127.0.0.1', 'shutdown_timeout': 5, 'taskbar': False, 'nocron': False, 'pid_filename': 'httpserver.pid', 'maxthreads': None, 'softcron': False, 'server_name': 'Batou', 'bpython': False, 'nogui': False, 'port': 8000, 'extcron': False, 'debuglevel': 30, 'test': None, 'folder': 'C:\\\\Users\\\\Bussiere\\\\Dropbox\\\\Projets\\\\Yuki\\\\web2py', 'config': '', 'import_models': False, 'winservice': '', 'shell': None, 'run': '', 'log_filename': 'httpserver.log', 'args': [''], 'socket_timeout': 5, 'ssl_ca_certificate': None, 'scheduler': None, 'profiler_filename': None, 'ssl_private_key': '', 'password': '<ask>', 'request_queue_size': 5, 'ssl_certificate': '', 'cronjob': False, 'numthreads': None, 'quiet': False, 'interfaces': None, 'minthreads': None, 'timeout': 10, 'plain': False, 'nobanner': False}>"
p701
asbasbasbag55
(g71
g57
NtRp702
(dp703
g60
(dp704
sg69
g607
sg62
(lp705
g55
(g76
g57
NtRp706
(dp707
g60
(dp708
g80
g81
ssg69
g702
sg62
(lp709
S'db_sessions'
p710
asbag55
(g76
g57
NtRp711
(dp712
g60
(dp713
g87
g88
ssg69
g702
sg62
(lp714
S':'
asbag55
(g76
g57
NtRp715
(dp716
g60
(dp717
sg69
g702
sg62
(lp718
g55
(g56
g57
NtRp719
(dp720
g60
(dp721
g68
I4
ssg69
g715
sg62
(lp722
S'set([])'
p723
asbasbasbag55
(g71
g57
NtRp724
(dp725
g60
(dp726
sg69
g607
sg62
(lp727
g55
(g76
g57
NtRp728
(dp729
g60
(dp730
g80
g81
ssg69
g724
sg62
(lp731
S'debugging'
p732
asbag55
(g76
g57
NtRp733
(dp734
g60
(dp735
g87
g88
ssg69
g724
sg62
(lp736
S':'
asbag55
(g76
g57
NtRp737
(dp738
g60
(dp739
sg69
g724
sg62
(lp740
g55
(g56
g57
NtRp741
(dp742
g60
(dp743
g68
I4
ssg69
g737
sg62
(lp744
g98
asbasbasbag55
(g71
g57
NtRp745
(dp746
g60
(dp747
sg69
g607
sg62
(lp748
g55
(g76
g57
NtRp749
(dp750
g60
(dp751
g80
g81
ssg69
g745
sg62
(lp752
S'gluon_parent'
p753
asbag55
(g76
g57
NtRp754
(dp755
g60
(dp756
g87
g88
ssg69
g745
sg62
(lp757
S':'
asbag55
(g76
g57
NtRp758
(dp759
g60
(dp760
sg69
g745
sg62
(lp761
g55
(g56
g57
NtRp762
(dp763
g60
(dp764
g68
I4
ssg69
g758
sg62
(lp765
S'C:\\Users\\Bussiere\\Dropbox\\Projets\\Yuki\\web2py'
p766
asbasbasbag55
(g71
g57
NtRp767
(dp768
g60
(dp769
sg69
g607
sg62
(lp770
g55
(g76
g57
NtRp771
(dp772
g60
(dp773
g80
g81
ssg69
g767
sg62
(lp774
S'http_accept'
p775
asbag55
(g76
g57
NtRp776
(dp777
g60
(dp778
g87
g88
ssg69
g767
sg62
(lp779
S':'
asbag55
(g76
g57
NtRp780
(dp781
g60
(dp782
sg69
g767
sg62
(lp783
g55
(g56
g57
NtRp784
(dp785
g60
(dp786
g68
I4
ssg69
g780
sg62
(lp787
S'text/html,application/xhtml+xml,application/xml;q=0.9,*/*;q=0.8'
p788
asbasbasbag55
(g71
g57
NtRp789
(dp790
g60
(dp791
sg69
g607
sg62
(lp792
g55
(g76
g57
NtRp793
(dp794
g60
(dp795
g80
g81
ssg69
g789
sg62
(lp796
S'http_accept_charset'
p797
asbag55
(g76
g57
NtRp798
(dp799
g60
(dp800
g87
g88
ssg69
g789
sg62
(lp801
S':'
asbag55
(g76
g57
NtRp802
(dp803
g60
(dp804
sg69
g789
sg62
(lp805
g55
(g56
g57
NtRp806
(dp807
g60
(dp808
g68
I4
ssg69
g802
sg62
(lp809
S'ISO-8859-1,utf-8;q=0.7,*;q=0.3'
p810
asbasbasbag55
(g71
g57
NtRp811
(dp812
g60
(dp813
sg69
g607
sg62
(lp814
g55
(g76
g57
NtRp815
(dp816
g60
(dp817
g80
g81
ssg69
g811
sg62
(lp818
S'http_accept_encoding'
p819
asbag55
(g76
g57
NtRp820
(dp821
g60
(dp822
g87
g88
ssg69
g811
sg62
(lp823
S':'
asbag55
(g76
g57
NtRp824
(dp825
g60
(dp826
sg69
g811
sg62
(lp827
g55
(g56
g57
NtRp828
(dp829
g60
(dp830
g68
I4
ssg69
g824
sg62
(lp831
S'gzip,deflate,sdch'
p832
asbasbasbag55
(g71
g57
NtRp833
(dp834
g60
(dp835
sg69
g607
sg62
(lp836
g55
(g76
g57
NtRp837
(dp838
g60
(dp839
g80
g81
ssg69
g833
sg62
(lp840
S'http_accept_language'
p841
asbag55
(g76
g57
NtRp842
(dp843
g60
(dp844
g87
g88
ssg69
g833
sg62
(lp845
S':'
asbag55
(g76
g57
NtRp846
(dp847
g60
(dp848
sg69
g833
sg62
(lp849
g55
(g56
g57
NtRp850
(dp851
g60
(dp852
g68
I4
ssg69
g846
sg62
(lp853
S'en-US,en;q=0.8'
p854
asbasbasbag55
(g71
g57
NtRp855
(dp856
g60
(dp857
sg69
g607
sg62
(lp858
g55
(g76
g57
NtRp859
(dp860
g60
(dp861
g80
g81
ssg69
g855
sg62
(lp862
S'http_connection'
p863
asbag55
(g76
g57
NtRp864
(dp865
g60
(dp866
g87
g88
ssg69
g855
sg62
(lp867
S':'
asbag55
(g76
g57
NtRp868
(dp869
g60
(dp870
sg69
g855
sg62
(lp871
g55
(g56
g57
NtRp872
(dp873
g60
(dp874
g68
I4
ssg69
g868
sg62
(lp875
S'keep-alive'
p876
asbasbasbag55
(g71
g57
NtRp877
(dp878
g60
(dp879
sg69
g607
sg62
(lp880
g55
(g76
g57
NtRp881
(dp882
g60
(dp883
g80
g81
ssg69
g877
sg62
(lp884
S'http_cookie'
p885
asbag55
(g76
g57
NtRp886
(dp887
g60
(dp888
g87
g88
ssg69
g877
sg62
(lp889
S':'
asbag55
(g76
g57
NtRp890
(dp891
g60
(dp892
sg69
g877
sg62
(lp893
g55
(g56
g57
NtRp894
(dp895
g60
(dp896
g68
I4
ssg69
g890
sg62
(lp897
S'session_id_welcome=127.0.0.1-f1276ff8-2ae2-4566-9289-2ddee731539a; session_id_admin=127.0.0.1-bf0b0813-7a73-44ef-8add-4ccb370d842d'
p898
asbasbasbag55
(g71
g57
NtRp899
(dp900
g60
(dp901
sg69
g607
sg62
(lp902
g55
(g76
g57
NtRp903
(dp904
g60
(dp905
g80
g81
ssg69
g899
sg62
(lp906
S'http_host'
p907
asbag55
(g76
g57
NtRp908
(dp909
g60
(dp910
g87
g88
ssg69
g899
sg62
(lp911
S':'
asbag55
(g76
g57
NtRp912
(dp913
g60
(dp914
sg69
g899
sg62
(lp915
g55
(g56
g57
NtRp916
(dp917
g60
(dp918
g68
I4
ssg69
g912
sg62
(lp919
S'127.0.0.1:8000'
p920
asbasbasbag55
(g71
g57
NtRp921
(dp922
g60
(dp923
sg69
g607
sg62
(lp924
g55
(g76
g57
NtRp925
(dp926
g60
(dp927
g80
g81
ssg69
g921
sg62
(lp928
S'http_referer'
p929
asbag55
(g76
g57
NtRp930
(dp931
g60
(dp932
g87
g88
ssg69
g921
sg62
(lp933
S':'
asbag55
(g76
g57
NtRp934
(dp935
g60
(dp936
sg69
g921
sg62
(lp937
g55
(g56
g57
NtRp938
(dp939
g60
(dp940
g68
I4
ssg69
g934
sg62
(lp941
S'http://127.0.0.1:8000/admin/default/site'
p942
asbasbasbag55
(g71
g57
NtRp943
(dp944
g60
(dp945
sg69
g607
sg62
(lp946
g55
(g76
g57
NtRp947
(dp948
g60
(dp949
g80
g81
ssg69
g943
sg62
(lp950
S'http_user_agent'
p951
asbag55
(g76
g57
NtRp952
(dp953
g60
(dp954
g87
g88
ssg69
g943
sg62
(lp955
S':'
asbag55
(g76
g57
NtRp956
(dp957
g60
(dp958
sg69
g943
sg62
(lp959
g55
(g56
g57
NtRp960
(dp961
g60
(dp962
g68
I4
ssg69
g956
sg62
(lp963
S'Mozilla/5.0 (Windows NT 6.1; WOW64) AppleWebKit/535.18 (KHTML, like Gecko) Chrome/18.0.1011.0 Safari/535.18'
p964
asbasbasbag55
(g71
g57
NtRp965
(dp966
g60
(dp967
sg69
g607
sg62
(lp968
g55
(g76
g57
NtRp969
(dp970
g60
(dp971
g80
g81
ssg69
g965
sg62
(lp972
S'is_jython'
p973
asbag55
(g76
g57
NtRp974
(dp975
g60
(dp976
g87
g88
ssg69
g965
sg62
(lp977
S':'
asbag55
(g76
g57
NtRp978
(dp979
g60
(dp980
sg69
g965
sg62
(lp981
g55
(g56
g57
NtRp982
(dp983
g60
(dp984
g68
I4
ssg69
g978
sg62
(lp985
g98
asbasbasbag55
(g71
g57
NtRp986
(dp987
g60
(dp988
sg69
g607
sg62
(lp989
g55
(g76
g57
NtRp990
(dp991
g60
(dp992
g80
g81
ssg69
g986
sg62
(lp993
S'is_pypy'
p994
asbag55
(g76
g57
NtRp995
(dp996
g60
(dp997
g87
g88
ssg69
g986
sg62
(lp998
S':'
asbag55
(g76
g57
NtRp999
(dp1000
g60
(dp1001
sg69
g986
sg62
(lp1002
g55
(g56
g57
NtRp1003
(dp1004
g60
(dp1005
g68
I4
ssg69
g999
sg62
(lp1006
g98
asbasbasbag55
(g71
g57
NtRp1007
(dp1008
g60
(dp1009
sg69
g607
sg62
(lp1010
g55
(g76
g57
NtRp1011
(dp1012
g60
(dp1013
g80
g81
ssg69
g1007
sg62
(lp1014
S'path_info'
p1015
asbag55
(g76
g57
NtRp1016
(dp1017
g60
(dp1018
g87
g88
ssg69
g1007
sg62
(lp1019
S':'
asbag55
(g76
g57
NtRp1020
(dp1021
g60
(dp1022
sg69
g1007
sg62
(lp1023
g55
(g56
g57
NtRp1024
(dp1025
g60
(dp1026
g68
I4
ssg69
g1020
sg62
(lp1027
S'/admin/default/design/Yuki'
p1028
asbasbasbag55
(g71
g57
NtRp1029
(dp1030
g60
(dp1031
sg69
g607
sg62
(lp1032
g55
(g76
g57
NtRp1033
(dp1034
g60
(dp1035
g80
g81
ssg69
g1029
sg62
(lp1036
S'query_string'
p1037
asbag55
(g76
g57
NtRp1038
(dp1039
g60
(dp1040
g87
g88
ssg69
g1029
sg62
(lp1041
S':'
asbag55
(g76
g57
NtRp1042
(dp1043
g60
(dp1044
sg69
g1029
sg62
(lp1045
g55
(g56
g57
NtRp1046
(dp1047
g60
(dp1048
g68
I4
ssg69
g1042
sg62
(lp1049
S''
asbasbasbag55
(g71
g57
NtRp1050
(dp1051
g60
(dp1052
sg69
g607
sg62
(lp1053
g55
(g76
g57
NtRp1054
(dp1055
g60
(dp1056
g80
g81
ssg69
g1050
sg62
(lp1057
S'remote_addr'
p1058
asbag55
(g76
g57
NtRp1059
(dp1060
g60
(dp1061
g87
g88
ssg69
g1050
sg62
(lp1062
S':'
asbag55
(g76
g57
NtRp1063
(dp1064
g60
(dp1065
sg69
g1050
sg62
(lp1066
g55
(g56
g57
NtRp1067
(dp1068
g60
(dp1069
g68
I4
ssg69
g1063
sg62
(lp1070
g201
asbasbasbag55
(g71
g57
NtRp1071
(dp1072
g60
(dp1073
sg69
g607
sg62
(lp1074
g55
(g76
g57
NtRp1075
(dp1076
g60
(dp1077
g80
g81
ssg69
g1071
sg62
(lp1078
S'remote_port'
p1079
asbag55
(g76
g57
NtRp1080
(dp1081
g60
(dp1082
g87
g88
ssg69
g1071
sg62
(lp1083
S':'
asbag55
(g76
g57
NtRp1084
(dp1085
g60
(dp1086
sg69
g1071
sg62
(lp1087
g55
(g56
g57
NtRp1088
(dp1089
g60
(dp1090
g68
I4
ssg69
g1084
sg62
(lp1091
S'57860'
p1092
asbasbasbag55
(g71
g57
NtRp1093
(dp1094
g60
(dp1095
sg69
g607
sg62
(lp1096
g55
(g76
g57
NtRp1097
(dp1098
g60
(dp1099
g80
g81
ssg69
g1093
sg62
(lp1100
S'request_method'
p1101
asbag55
(g76
g57
NtRp1102
(dp1103
g60
(dp1104
g87
g88
ssg69
g1093
sg62
(lp1105
S':'
asbag55
(g76
g57
NtRp1106
(dp1107
g60
(dp1108
sg69
g1093
sg62
(lp1109
g55
(g56
g57
NtRp1110
(dp1111
g60
(dp1112
g68
I4
ssg69
g1106
sg62
(lp1113
S'GET'
p1114
asbasbasbag55
(g71
g57
NtRp1115
(dp1116
g60
(dp1117
sg69
g607
sg62
(lp1118
g55
(g76
g57
NtRp1119
(dp1120
g60
(dp1121
g80
g81
ssg69
g1115
sg62
(lp1122
S'script_name'
p1123
asbag55
(g76
g57
NtRp1124
(dp1125
g60
(dp1126
g87
g88
ssg69
g1115
sg62
(lp1127
S':'
asbag55
(g76
g57
NtRp1128
(dp1129
g60
(dp1130
sg69
g1115
sg62
(lp1131
g55
(g56
g57
NtRp1132
(dp1133
g60
(dp1134
g68
I4
ssg69
g1128
sg62
(lp1135
S''
asbasbasbag55
(g71
g57
NtRp1136
(dp1137
g60
(dp1138
sg69
g607
sg62
(lp1139
g55
(g76
g57
NtRp1140
(dp1141
g60
(dp1142
g80
g81
ssg69
g1136
sg62
(lp1143
S'server_name'
p1144
asbag55
(g76
g57
NtRp1145
(dp1146
g60
(dp1147
g87
g88
ssg69
g1136
sg62
(lp1148
S':'
asbag55
(g76
g57
NtRp1149
(dp1150
g60
(dp1151
sg69
g1136
sg62
(lp1152
g55
(g56
g57
NtRp1153
(dp1154
g60
(dp1155
g68
I4
ssg69
g1149
sg62
(lp1156
S'Batou'
p1157
asbasbasbag55
(g71
g57
NtRp1158
(dp1159
g60
(dp1160
sg69
g607
sg62
(lp1161
g55
(g76
g57
NtRp1162
(dp1163
g60
(dp1164
g80
g81
ssg69
g1158
sg62
(lp1165
S'server_port'
p1166
asbag55
(g76
g57
NtRp1167
(dp1168
g60
(dp1169
g87
g88
ssg69
g1158
sg62
(lp1170
S':'
asbag55
(g76
g57
NtRp1171
(dp1172
g60
(dp1173
sg69
g1158
sg62
(lp1174
g55
(g56
g57
NtRp1175
(dp1176
g60
(dp1177
g68
I4
ssg69
g1171
sg62
(lp1178
S'8000'
p1179
asbasbasbag55
(g71
g57
NtRp1180
(dp1181
g60
(dp1182
sg69
g607
sg62
(lp1183
g55
(g76
g57
NtRp1184
(dp1185
g60
(dp1186
g80
g81
ssg69
g1180
sg62
(lp1187
S'server_protocol'
p1188
asbag55
(g76
g57
NtRp1189
(dp1190
g60
(dp1191
g87
g88
ssg69
g1180
sg62
(lp1192
S':'
asbag55
(g76
g57
NtRp1193
(dp1194
g60
(dp1195
sg69
g1180
sg62
(lp1196
g55
(g56
g57
NtRp1197
(dp1198
g60
(dp1199
g68
I4
ssg69
g1193
sg62
(lp1200
S'HTTP/1.1'
p1201
asbasbasbag55
(g71
g57
NtRp1202
(dp1203
g60
(dp1204
sg69
g607
sg62
(lp1205
g55
(g76
g57
NtRp1206
(dp1207
g60
(dp1208
g80
g81
ssg69
g1202
sg62
(lp1209
S'server_software'
p1210
asbag55
(g76
g57
NtRp1211
(dp1212
g60
(dp1213
g87
g88
ssg69
g1202
sg62
(lp1214
S':'
asbag55
(g76
g57
NtRp1215
(dp1216
g60
(dp1217
sg69
g1202
sg62
(lp1218
g55
(g56
g57
NtRp1219
(dp1220
g60
(dp1221
g68
I4
ssg69
g1215
sg62
(lp1222
S'Rocket 1.2.4'
p1223
asbasbasbag55
(g71
g57
NtRp1224
(dp1225
g60
(dp1226
sg69
g607
sg62
(lp1227
g55
(g76
g57
NtRp1228
(dp1229
g60
(dp1230
g80
g81
ssg69
g1224
sg62
(lp1231
S'web2py_crontype'
p1232
asbag55
(g76
g57
NtRp1233
(dp1234
g60
(dp1235
g87
g88
ssg69
g1224
sg62
(lp1236
S':'
asbag55
(g76
g57
NtRp1237
(dp1238
g60
(dp1239
sg69
g1224
sg62
(lp1240
g55
(g56
g57
NtRp1241
(dp1242
g60
(dp1243
g68
I4
ssg69
g1237
sg62
(lp1244
S'hard'
p1245
asbasbasbag55
(g71
g57
NtRp1246
(dp1247
g60
(dp1248
sg69
g607
sg62
(lp1249
g55
(g76
g57
NtRp1250
(dp1251
g60
(dp1252
g80
g81
ssg69
g1246
sg62
(lp1253
S'web2py_path'
p1254
asbag55
(g76
g57
NtRp1255
(dp1256
g60
(dp1257
g87
g88
ssg69
g1246
sg62
(lp1258
S':'
asbag55
(g76
g57
NtRp1259
(dp1260
g60
(dp1261
sg69
g1246
sg62
(lp1262
g55
(g56
g57
NtRp1263
(dp1264
g60
(dp1265
g68
I4
ssg69
g1259
sg62
(lp1266
g654
asbasbasbag55
(g71
g57
NtRp1267
(dp1268
g60
(dp1269
sg69
g607
sg62
(lp1270
g55
(g76
g57
NtRp1271
(dp1272
g60
(dp1273
g80
g81
ssg69
g1267
sg62
(lp1274
S'web2py_version'
p1275
asbag55
(g76
g57
NtRp1276
(dp1277
g60
(dp1278
g87
g88
ssg69
g1267
sg62
(lp1279
S':'
asbag55
(g76
g57
NtRp1280
(dp1281
g60
(dp1282
sg69
g1267
sg62
(lp1283
g55
(g56
g57
NtRp1284
(dp1285
g60
(dp1286
g68
I4
ssg69
g1280
sg62
(lp1287
g55
(g64
g57
NtRp1288
(dp1289
g60
(dp1290
g68
I3
ssg69
Nsg62
(lp1291
g55
(g71
g57
NtRp1292
(dp1293
g60
(dp1294
sg69
g1288
sg62
(lp1295
g55
(g76
g57
NtRp1296
(dp1297
g60
(dp1298
sg69
g1292
sg62
(lp1299
g55
(g56
g57
NtRp1300
(dp1301
g60
(dp1302
g68
I3
ssg69
g1296
sg62
(lp1303
S'1'
asbasbasbag55
(g71
g57
NtRp1304
(dp1305
g60
(dp1306
sg69
g1288
sg62
(lp1307
g55
(g76
g57
NtRp1308
(dp1309
g60
(dp1310
sg69
g1304
sg62
(lp1311
g55
(g56
g57
NtRp1312
(dp1313
g60
(dp1314
g68
I3
ssg69
g1308
sg62
(lp1315
S'99'
p1316
asbasbasbag55
(g71
g57
NtRp1317
(dp1318
g60
(dp1319
sg69
g1288
sg62
(lp1320
g55
(g76
g57
NtRp1321
(dp1322
g60
(dp1323
sg69
g1317
sg62
(lp1324
g55
(g56
g57
NtRp1325
(dp1326
g60
(dp1327
g68
I3
ssg69
g1321
sg62
(lp1328
S'7'
asbasbasbag55
(g71
g57
NtRp1329
(dp1330
g60
(dp1331
sg69
g1288
sg62
(lp1332
g55
(g76
g57
NtRp1333
(dp1334
g60
(dp1335
sg69
g1329
sg62
(lp1336
g55
(g56
g57
NtRp1337
(dp1338
g60
(dp1339
g68
I3
ssg69
g1333
sg62
(lp1340
S'datetime.datetime(2012, 3, 4, 22, 12, 8)'
p1341
asbasbasbag55
(g71
g57
NtRp1342
(dp1343
g60
(dp1344
sg69
g1288
sg62
(lp1345
g55
(g76
g57
NtRp1346
(dp1347
g60
(dp1348
sg69
g1342
sg62
(lp1349
g55
(g56
g57
NtRp1350
(dp1351
g60
(dp1352
g68
I3
ssg69
g1346
sg62
(lp1353
S'stable'
p1354
asbasbasbasbasbasbasbag55
(g71
g57
NtRp1355
(dp1356
g60
(dp1357
sg69
g607
sg62
(lp1358
g55
(g76
g57
NtRp1359
(dp1360
g60
(dp1361
g80
g81
ssg69
g1355
sg62
(lp1362
S'wsgi_errors'
p1363
asbag55
(g76
g57
NtRp1364
(dp1365
g60
(dp1366
g87
g88
ssg69
g1355
sg62
(lp1367
S':'
asbag55
(g76
g57
NtRp1368
(dp1369
g60
(dp1370
sg69
g1355
sg62
(lp1371
g55
(g56
g57
NtRp1372
(dp1373
g60
(dp1374
g68
I4
ssg69
g1368
sg62
(lp1375
S"<open file '<stderr>', mode 'w' at 0x01F400B0>"
p1376
asbasbasbag55
(g71
g57
NtRp1377
(dp1378
g60
(dp1379
sg69
g607
sg62
(lp1380
g55
(g76
g57
NtRp1381
(dp1382
g60
(dp1383
g80
g81
ssg69
g1377
sg62
(lp1384
S'wsgi_file_wrapper'
p1385
asbag55
(g76
g57
NtRp1386
(dp1387
g60
(dp1388
g87
g88
ssg69
g1377
sg62
(lp1389
S':'
asbag55
(g76
g57
NtRp1390
(dp1391
g60
(dp1392
sg69
g1377
sg62
(lp1393
g55
(g56
g57
NtRp1394
(dp1395
g60
(dp1396
g68
I4
ssg69
g1390
sg62
(lp1397
S'<class wsgiref.util.FileWrapper at 0x02B2E570>'
p1398
asbasbasbag55
(g71
g57
NtRp1399
(dp1400
g60
(dp1401
sg69
g607
sg62
(lp1402
g55
(g76
g57
NtRp1403
(dp1404
g60
(dp1405
g80
g81
ssg69
g1399
sg62
(lp1406
S'wsgi_input'
p1407
asbag55
(g76
g57
NtRp1408
(dp1409
g60
(dp1410
g87
g88
ssg69
g1399
sg62
(lp1411
S':'
asbag55
(g76
g57
NtRp1412
(dp1413
g60
(dp1414
sg69
g1399
sg62
(lp1415
g55
(g56
g57
NtRp1416
(dp1417
g60
(dp1418
g68
I4
ssg69
g1412
sg62
(lp1419
S'<socket._fileobject object at 0x060191F0>'
p1420
asbasbasbag55
(g71
g57
NtRp1421
(dp1422
g60
(dp1423
sg69
g607
sg62
(lp1424
g55
(g76
g57
NtRp1425
(dp1426
g60
(dp1427
g80
g81
ssg69
g1421
sg62
(lp1428
S'wsgi_multiprocess'
p1429
asbag55
(g76
g57
NtRp1430
(dp1431
g60
(dp1432
g87
g88
ssg69
g1421
sg62
(lp1433
S':'
asbag55
(g76
g57
NtRp1434
(dp1435
g60
(dp1436
sg69
g1421
sg62
(lp1437
g55
(g56
g57
NtRp1438
(dp1439
g60
(dp1440
g68
I4
ssg69
g1434
sg62
(lp1441
g98
asbasbasbag55
(g71
g57
NtRp1442
(dp1443
g60
(dp1444
sg69
g607
sg62
(lp1445
g55
(g76
g57
NtRp1446
(dp1447
g60
(dp1448
g80
g81
ssg69
g1442
sg62
(lp1449
S'wsgi_multithread'
p1450
asbag55
(g76
g57
NtRp1451
(dp1452
g60
(dp1453
g87
g88
ssg69
g1442
sg62
(lp1454
S':'
asbag55
(g76
g57
NtRp1455
(dp1456
g60
(dp1457
sg69
g1442
sg62
(lp1458
g55
(g56
g57
NtRp1459
(dp1460
g60
(dp1461
g68
I4
ssg69
g1455
sg62
(lp1462
S'True'
p1463
asbasbasbag55
(g71
g57
NtRp1464
(dp1465
g60
(dp1466
sg69
g607
sg62
(lp1467
g55
(g76
g57
NtRp1468
(dp1469
g60
(dp1470
g80
g81
ssg69
g1464
sg62
(lp1471
S'wsgi_run_once'
p1472
asbag55
(g76
g57
NtRp1473
(dp1474
g60
(dp1475
g87
g88
ssg69
g1464
sg62
(lp1476
S':'
asbag55
(g76
g57
NtRp1477
(dp1478
g60
(dp1479
sg69
g1464
sg62
(lp1480
g55
(g56
g57
NtRp1481
(dp1482
g60
(dp1483
g68
I4
ssg69
g1477
sg62
(lp1484
g98
asbasbasbag55
(g71
g57
NtRp1485
(dp1486
g60
(dp1487
sg69
g607
sg62
(lp1488
g55
(g76
g57
NtRp1489
(dp1490
g60
(dp1491
g80
g81
ssg69
g1485
sg62
(lp1492
S'wsgi_url_scheme'
p1493
asbag55
(g76
g57
NtRp1494
(dp1495
g60
(dp1496
g87
g88
ssg69
g1485
sg62
(lp1497
S':'
asbag55
(g76
g57
NtRp1498
(dp1499
g60
(dp1500
sg69
g1485
sg62
(lp1501
g55
(g56
g57
NtRp1502
(dp1503
g60
(dp1504
g68
I4
ssg69
g1498
sg62
(lp1505
S'http'
p1506
asbasbasbag55
(g71
g57
NtRp1507
(dp1508
g60
(dp1509
sg69
g607
sg62
(lp1510
g55
(g76
g57
NtRp1511
(dp1512
g60
(dp1513
g80
g81
ssg69
g1507
sg62
(lp1514
S'wsgi_version'
p1515
asbag55
(g76
g57
NtRp1516
(dp1517
g60
(dp1518
g87
g88
ssg69
g1507
sg62
(lp1519
S':'
asbag55
(g76
g57
NtRp1520
(dp1521
g60
(dp1522
sg69
g1507
sg62
(lp1523
g55
(g56
g57
NtRp1524
(dp1525
g60
(dp1526
g68
I4
ssg69
g1520
sg62
(lp1527
g55
(g64
g57
NtRp1528
(dp1529
g60
(dp1530
g68
I3
ssg69
Nsg62
(lp1531
g55
(g71
g57
NtRp1532
(dp1533
g60
(dp1534
sg69
g1528
sg62
(lp1535
g55
(g76
g57
NtRp1536
(dp1537
g60
(dp1538
sg69
g1532
sg62
(lp1539
g55
(g56
g57
NtRp1540
(dp1541
g60
(dp1542
g68
I3
ssg69
g1536
sg62
(lp1543
S'1'
asbasbasbag55
(g71
g57
NtRp1544
(dp1545
g60
(dp1546
sg69
g1528
sg62
(lp1547
g55
(g76
g57
NtRp1548
(dp1549
g60
(dp1550
sg69
g1544
sg62
(lp1551
g55
(g56
g57
NtRp1552
(dp1553
g60
(dp1554
g68
I3
ssg69
g1548
sg62
(lp1555
S'0'
asbasbasbasbasbasbasbasbasbasbasbag55
(g71
g57
NtRp1556
(dp1557
g60
(dp1558
sg69
g65
sg62
(lp1559
g55
(g76
g57
NtRp1560
(dp1561
g60
(dp1562
g80
g81
ssg69
g1556
sg62
(lp1563
S'extension'
p1564
asbag55
(g76
g57
NtRp1565
(dp1566
g60
(dp1567
g87
g88
ssg69
g1556
sg62
(lp1568
S':'
asbag55
(g76
g57
NtRp1569
(dp1570
g60
(dp1571
sg69
g1556
sg62
(lp1572
g55
(g56
g57
NtRp1573
(dp1574
g60
(dp1575
g68
I5
ssg69
g1569
sg62
(lp1576
S'html'
p1577
asbasbasbag55
(g71
g57
NtRp1578
(dp1579
g60
(dp1580
sg69
g65
sg62
(lp1581
g55
(g76
g57
NtRp1582
(dp1583
g60
(dp1584
g80
g81
ssg69
g1578
sg62
(lp1585
S'folder'
p1586
asbag55
(g76
g57
NtRp1587
(dp1588
g60
(dp1589
g87
g88
ssg69
g1578
sg62
(lp1590
S':'
asbag55
(g76
g57
NtRp1591
(dp1592
g60
(dp1593
sg69
g1578
sg62
(lp1594
g55
(g56
g57
NtRp1595
(dp1596
g60
(dp1597
g68
I5
ssg69
g1591
sg62
(lp1598
S'C:\\Users\\Bussiere\\Dropbox\\Projets\\Yuki\\web2py\\applications\\admin\\'
p1599
asbasbasbag55
(g71
g57
NtRp1600
(dp1601
g60
(dp1602
sg69
g65
sg62
(lp1603
g55
(g76
g57
NtRp1604
(dp1605
g60
(dp1606
g80
g81
ssg69
g1600
sg62
(lp1607
S'function'
p1608
asbag55
(g76
g57
NtRp1609
(dp1610
g60
(dp1611
g87
g88
ssg69
g1600
sg62
(lp1612
S':'
asbag55
(g76
g57
NtRp1613
(dp1614
g60
(dp1615
sg69
g1600
sg62
(lp1616
g55
(g56
g57
NtRp1617
(dp1618
g60
(dp1619
g68
I5
ssg69
g1613
sg62
(lp1620
S'design'
p1621
asbasbasbag55
(g71
g57
NtRp1622
(dp1623
g60
(dp1624
sg69
g65
sg62
(lp1625
g55
(g76
g57
NtRp1626
(dp1627
g60
(dp1628
g80
g81
ssg69
g1622
sg62
(lp1629
S'get_vars'
p1630
asbag55
(g76
g57
NtRp1631
(dp1632
g60
(dp1633
g87
g88
ssg69
g1622
sg62
(lp1634
S':'
asbag55
(g76
g57
NtRp1635
(dp1636
g60
(dp1637
sg69
g1622
sg62
(lp1638
g55
(g56
g57
NtRp1639
(dp1640
g60
(dp1641
g68
I5
ssg69
g1635
sg62
(lp1642
g55
(g64
g57
NtRp1643
(dp1644
g60
(dp1645
g68
I4
ssg69
Nsg62
(lp1646
sbasbasbasbag55
(g71
g57
NtRp1647
(dp1648
g60
(dp1649
sg69
g65
sg62
(lp1650
g55
(g76
g57
NtRp1651
(dp1652
g60
(dp1653
g80
g81
ssg69
g1647
sg62
(lp1654
S'global_settings'
p1655
asbag55
(g76
g57
NtRp1656
(dp1657
g60
(dp1658
g87
g88
ssg69
g1647
sg62
(lp1659
S':'
asbag55
(g76
g57
NtRp1660
(dp1661
g60
(dp1662
sg69
g1647
sg62
(lp1663
g55
(g56
g57
NtRp1664
(dp1665
g60
(dp1666
g68
I5
ssg69
g1660
sg62
(lp1667
g55
(g64
g57
NtRp1668
(dp1669
g60
(dp1670
g68
I4
ssg69
Nsg62
(lp1671
g55
(g71
g57
NtRp1672
(dp1673
g60
(dp1674
sg69
g1668
sg62
(lp1675
g55
(g76
g57
NtRp1676
(dp1677
g60
(dp1678
g80
g81
ssg69
g1672
sg62
(lp1679
g619
asbag55
(g76
g57
NtRp1680
(dp1681
g60
(dp1682
g87
g88
ssg69
g1672
sg62
(lp1683
S':'
asbag55
(g76
g57
NtRp1684
(dp1685
g60
(dp1686
sg69
g1672
sg62
(lp1687
g55
(g56
g57
NtRp1688
(dp1689
g60
(dp1690
g68
I4
ssg69
g1684
sg62
(lp1691
S"set(['C:\\\\Users\\\\Bussiere\\\\Dropbox\\\\Projets\\\\Yuki\\\\web2py\\\\applications\\\\admin\\\\', 'C:\\\\Users\\\\Bussiere\\\\Dropbox\\\\Projets\\\\Yuki\\\\web2py\\\\applications\\\\welcome\\\\'])"
p1692
asbasbasbag55
(g71
g57
NtRp1693
(dp1694
g60
(dp1695
sg69
g1668
sg62
(lp1696
g55
(g76
g57
NtRp1697
(dp1698
g60
(dp1699
g80
g81
ssg69
g1693
sg62
(lp1700
g641
asbag55
(g76
g57
NtRp1701
(dp1702
g60
(dp1703
g87
g88
ssg69
g1693
sg62
(lp1704
S':'
asbag55
(g76
g57
NtRp1705
(dp1706
g60
(dp1707
sg69
g1693
sg62
(lp1708
g55
(g56
g57
NtRp1709
(dp1710
g60
(dp1711
g68
I4
ssg69
g1705
sg62
(lp1712
g654
asbasbasbag55
(g71
g57
NtRp1713
(dp1714
g60
(dp1715
sg69
g1668
sg62
(lp1716
g55
(g76
g57
NtRp1717
(dp1718
g60
(dp1719
g80
g81
ssg69
g1713
sg62
(lp1720
g663
asbag55
(g76
g57
NtRp1721
(dp1722
g60
(dp1723
g87
g88
ssg69
g1713
sg62
(lp1724
S':'
asbag55
(g76
g57
NtRp1725
(dp1726
g60
(dp1727
sg69
g1713
sg62
(lp1728
g55
(g56
g57
NtRp1729
(dp1730
g60
(dp1731
g68
I4
ssg69
g1725
sg62
(lp1732
g55
(g64
g57
NtRp1733
(dp1734
g60
(dp1735
g68
I3
ssg69
Nsg62
(lp1736
sbasbasbasbag55
(g71
g57
NtRp1737
(dp1738
g60
(dp1739
sg69
g1668
sg62
(lp1740
g55
(g76
g57
NtRp1741
(dp1742
g60
(dp1743
g80
g81
ssg69
g1737
sg62
(lp1744
g688
asbag55
(g76
g57
NtRp1745
(dp1746
g60
(dp1747
g87
g88
ssg69
g1737
sg62
(lp1748
S':'
asbag55
(g76
g57
NtRp1749
(dp1750
g60
(dp1751
sg69
g1737
sg62
(lp1752
g55
(g56
g57
NtRp1753
(dp1754
g60
(dp1755
g68
I4
ssg69
g1749
sg62
(lp1756
S"<Values at 0x2d92fa8: {'verbose': False, 'ip': '127.0.0.1', 'shutdown_timeout': 5, 'taskbar': False, 'nocron': False, 'pid_filename': 'httpserver.pid', 'maxthreads': None, 'softcron': False, 'server_name': 'Batou', 'bpython': False, 'nogui': False, 'port': 8000, 'extcron': False, 'debuglevel': 30, 'test': None, 'folder': 'C:\\\\Users\\\\Bussiere\\\\Dropbox\\\\Projets\\\\Yuki\\\\web2py', 'config': '', 'import_models': False, 'winservice': '', 'shell': None, 'run': '', 'log_filename': 'httpserver.log', 'args': [''], 'socket_timeout': 5, 'ssl_ca_certificate': None, 'scheduler': None, 'profiler_filename': None, 'ssl_private_key': '', 'password': '<ask>', 'request_queue_size': 5, 'ssl_certificate': '', 'cronjob': False, 'numthreads': None, 'quiet': False, 'interfaces': None, 'minthreads': None, 'timeout': 10, 'plain': False, 'nobanner': False}>"
p1757
asbasbasbag55
(g71
g57
NtRp1758
(dp1759
g60
(dp1760
sg69
g1668
sg62
(lp1761
g55
(g76
g57
NtRp1762
(dp1763
g60
(dp1764
g80
g81
ssg69
g1758
sg62
(lp1765
g710
asbag55
(g76
g57
NtRp1766
(dp1767
g60
(dp1768
g87
g88
ssg69
g1758
sg62
(lp1769
S':'
asbag55
(g76
g57
NtRp1770
(dp1771
g60
(dp1772
sg69
g1758
sg62
(lp1773
g55
(g56
g57
NtRp1774
(dp1775
g60
(dp1776
g68
I4
ssg69
g1770
sg62
(lp1777
S'set([])'
p1778
asbasbasbag55
(g71
g57
NtRp1779
(dp1780
g60
(dp1781
sg69
g1668
sg62
(lp1782
g55
(g76
g57
NtRp1783
(dp1784
g60
(dp1785
g80
g81
ssg69
g1779
sg62
(lp1786
g732
asbag55
(g76
g57
NtRp1787
(dp1788
g60
(dp1789
g87
g88
ssg69
g1779
sg62
(lp1790
S':'
asbag55
(g76
g57
NtRp1791
(dp1792
g60
(dp1793
sg69
g1779
sg62
(lp1794
g55
(g56
g57
NtRp1795
(dp1796
g60
(dp1797
g68
I4
ssg69
g1791
sg62
(lp1798
g98
asbasbasbag55
(g71
g57
NtRp1799
(dp1800
g60
(dp1801
sg69
g1668
sg62
(lp1802
g55
(g76
g57
NtRp1803
(dp1804
g60
(dp1805
g80
g81
ssg69
g1799
sg62
(lp1806
g753
asbag55
(g76
g57
NtRp1807
(dp1808
g60
(dp1809
g87
g88
ssg69
g1799
sg62
(lp1810
S':'
asbag55
(g76
g57
NtRp1811
(dp1812
g60
(dp1813
sg69
g1799
sg62
(lp1814
g55
(g56
g57
NtRp1815
(dp1816
g60
(dp1817
g68
I4
ssg69
g1811
sg62
(lp1818
g766
asbasbasbag55
(g71
g57
NtRp1819
(dp1820
g60
(dp1821
sg69
g1668
sg62
(lp1822
g55
(g76
g57
NtRp1823
(dp1824
g60
(dp1825
g80
g81
ssg69
g1819
sg62
(lp1826
g973
asbag55
(g76
g57
NtRp1827
(dp1828
g60
(dp1829
g87
g88
ssg69
g1819
sg62
(lp1830
S':'
asbag55
(g76
g57
NtRp1831
(dp1832
g60
(dp1833
sg69
g1819
sg62
(lp1834
g55
(g56
g57
NtRp1835
(dp1836
g60
(dp1837
g68
I4
ssg69
g1831
sg62
(lp1838
g98
asbasbasbag55
(g71
g57
NtRp1839
(dp1840
g60
(dp1841
sg69
g1668
sg62
(lp1842
g55
(g76
g57
NtRp1843
(dp1844
g60
(dp1845
g80
g81
ssg69
g1839
sg62
(lp1846
g994
asbag55
(g76
g57
NtRp1847
(dp1848
g60
(dp1849
g87
g88
ssg69
g1839
sg62
(lp1850
S':'
asbag55
(g76
g57
NtRp1851
(dp1852
g60
(dp1853
sg69
g1839
sg62
(lp1854
g55
(g56
g57
NtRp1855
(dp1856
g60
(dp1857
g68
I4
ssg69
g1851
sg62
(lp1858
g98
asbasbasbag55
(g71
g57
NtRp1859
(dp1860
g60
(dp1861
sg69
g1668
sg62
(lp1862
g55
(g76
g57
NtRp1863
(dp1864
g60
(dp1865
g80
g81
ssg69
g1859
sg62
(lp1866
g1232
asbag55
(g76
g57
NtRp1867
(dp1868
g60
(dp1869
g87
g88
ssg69
g1859
sg62
(lp1870
S':'
asbag55
(g76
g57
NtRp1871
(dp1872
g60
(dp1873
sg69
g1859
sg62
(lp1874
g55
(g56
g57
NtRp1875
(dp1876
g60
(dp1877
g68
I4
ssg69
g1871
sg62
(lp1878
g1245
asbasbasbag55
(g71
g57
NtRp1879
(dp1880
g60
(dp1881
sg69
g1668
sg62
(lp1882
g55
(g76
g57
NtRp1883
(dp1884
g60
(dp1885
g80
g81
ssg69
g1879
sg62
(lp1886
g1275
asbag55
(g76
g57
NtRp1887
(dp1888
g60
(dp1889
g87
g88
ssg69
g1879
sg62
(lp1890
S':'
asbag55
(g76
g57
NtRp1891
(dp1892
g60
(dp1893
sg69
g1879
sg62
(lp1894
g55
(g56
g57
NtRp1895
(dp1896
g60
(dp1897
g68
I4
ssg69
g1891
sg62
(lp1898
g55
(g64
g57
NtRp1899
(dp1900
g60
(dp1901
g68
I3
ssg69
Nsg62
(lp1902
g55
(g71
g57
NtRp1903
(dp1904
g60
(dp1905
sg69
g1899
sg62
(lp1906
g55
(g76
g57
NtRp1907
(dp1908
g60
(dp1909
sg69
g1903
sg62
(lp1910
g55
(g56
g57
NtRp1911
(dp1912
g60
(dp1913
g68
I3
ssg69
g1907
sg62
(lp1914
S'1'
asbasbasbag55
(g71
g57
NtRp1915
(dp1916
g60
(dp1917
sg69
g1899
sg62
(lp1918
g55
(g76
g57
NtRp1919
(dp1920
g60
(dp1921
sg69
g1915
sg62
(lp1922
g55
(g56
g57
NtRp1923
(dp1924
g60
(dp1925
g68
I3
ssg69
g1919
sg62
(lp1926
S'99'
p1927
asbasbasbag55
(g71
g57
NtRp1928
(dp1929
g60
(dp1930
sg69
g1899
sg62
(lp1931
g55
(g76
g57
NtRp1932
(dp1933
g60
(dp1934
sg69
g1928
sg62
(lp1935
g55
(g56
g57
NtRp1936
(dp1937
g60
(dp1938
g68
I3
ssg69
g1932
sg62
(lp1939
S'7'
asbasbasbag55
(g71
g57
NtRp1940
(dp1941
g60
(dp1942
sg69
g1899
sg62
(lp1943
g55
(g76
g57
NtRp1944
(dp1945
g60
(dp1946
sg69
g1940
sg62
(lp1947
g55
(g56
g57
NtRp1948
(dp1949
g60
(dp1950
g68
I3
ssg69
g1944
sg62
(lp1951
S'datetime.datetime(2012, 3, 4, 22, 12, 8)'
p1952
asbasbasbag55
(g71
g57
NtRp1953
(dp1954
g60
(dp1955
sg69
g1899
sg62
(lp1956
g55
(g76
g57
NtRp1957
(dp1958
g60
(dp1959
sg69
g1953
sg62
(lp1960
g55
(g56
g57
NtRp1961
(dp1962
g60
(dp1963
g68
I3
ssg69
g1957
sg62
(lp1964
g1354
asbasbasbasbasbasbasbasbasbasbasbag55
(g71
g57
NtRp1965
(dp1966
g60
(dp1967
sg69
g65
sg62
(lp1968
g55
(g76
g57
NtRp1969
(dp1970
g60
(dp1971
g80
g81
ssg69
g1965
sg62
(lp1972
S'is_https'
p1973
asbag55
(g76
g57
NtRp1974
(dp1975
g60
(dp1976
g87
g88
ssg69
g1965
sg62
(lp1977
S':'
asbag55
(g76
g57
NtRp1978
(dp1979
g60
(dp1980
sg69
g1965
sg62
(lp1981
g55
(g56
g57
NtRp1982
(dp1983
g60
(dp1984
g68
I5
ssg69
g1978
sg62
(lp1985
g98
asbasbasbag55
(g71
g57
NtRp1986
(dp1987
g60
(dp1988
sg69
g65
sg62
(lp1989
g55
(g76
g57
NtRp1990
(dp1991
g60
(dp1992
g80
g81
ssg69
g1986
sg62
(lp1993
S'is_local'
p1994
asbag55
(g76
g57
NtRp1995
(dp1996
g60
(dp1997
g87
g88
ssg69
g1986
sg62
(lp1998
S':'
asbag55
(g76
g57
NtRp1999
(dp2000
g60
(dp2001
sg69
g1986
sg62
(lp2002
g55
(g56
g57
NtRp2003
(dp2004
g60
(dp2005
g68
I5
ssg69
g1999
sg62
(lp2006
g1463
asbasbasbag55
(g71
g57
NtRp2007
(dp2008
g60
(dp2009
sg69
g65
sg62
(lp2010
g55
(g76
g57
NtRp2011
(dp2012
g60
(dp2013
g80
g81
ssg69
g2007
sg62
(lp2014
S'is_restful'
p2015
asbag55
(g76
g57
NtRp2016
(dp2017
g60
(dp2018
g87
g88
ssg69
g2007
sg62
(lp2019
S':'
asbag55
(g76
g57
NtRp2020
(dp2021
g60
(dp2022
sg69
g2007
sg62
(lp2023
g55
(g56
g57
NtRp2024
(dp2025
g60
(dp2026
g68
I5
ssg69
g2020
sg62
(lp2027
g98
asbasbasbag55
(g71
g57
NtRp2028
(dp2029
g60
(dp2030
sg69
g65
sg62
(lp2031
g55
(g76
g57
NtRp2032
(dp2033
g60
(dp2034
g80
g81
ssg69
g2028
sg62
(lp2035
S'now'
p2036
asbag55
(g76
g57
NtRp2037
(dp2038
g60
(dp2039
g87
g88
ssg69
g2028
sg62
(lp2040
S':'
asbag55
(g76
g57
NtRp2041
(dp2042
g60
(dp2043
sg69
g2028
sg62
(lp2044
g55
(g56
g57
NtRp2045
(dp2046
g60
(dp2047
g68
I5
ssg69
g2041
sg62
(lp2048
S'datetime.datetime(2012, 3, 11, 3, 40, 58, 416000)'
p2049
asbasbasbag55
(g71
g57
NtRp2050
(dp2051
g60
(dp2052
sg69
g65
sg62
(lp2053
g55
(g76
g57
NtRp2054
(dp2055
g60
(dp2056
g80
g81
ssg69
g2050
sg62
(lp2057
S'post_vars'
p2058
asbag55
(g76
g57
NtRp2059
(dp2060
g60
(dp2061
g87
g88
ssg69
g2050
sg62
(lp2062
S':'
asbag55
(g76
g57
NtRp2063
(dp2064
g60
(dp2065
sg69
g2050
sg62
(lp2066
g55
(g56
g57
NtRp2067
(dp2068
g60
(dp2069
g68
I5
ssg69
g2063
sg62
(lp2070
g55
(g64
g57
NtRp2071
(dp2072
g60
(dp2073
g68
I4
ssg69
Nsg62
(lp2074
sbasbasbasbag55
(g71
g57
NtRp2075
(dp2076
g60
(dp2077
sg69
g65
sg62
(lp2078
g55
(g76
g57
NtRp2079
(dp2080
g60
(dp2081
g80
g81
ssg69
g2075
sg62
(lp2082
S'raw_args'
p2083
asbag55
(g76
g57
NtRp2084
(dp2085
g60
(dp2086
g87
g88
ssg69
g2075
sg62
(lp2087
S':'
asbag55
(g76
g57
NtRp2088
(dp2089
g60
(dp2090
sg69
g2075
sg62
(lp2091
g55
(g56
g57
NtRp2092
(dp2093
g60
(dp2094
g68
I5
ssg69
g2088
sg62
(lp2095
S'Yuki'
p2096
asbasbasbag55
(g71
g57
NtRp2097
(dp2098
g60
(dp2099
sg69
g65
sg62
(lp2100
g55
(g76
g57
NtRp2101
(dp2102
g60
(dp2103
g80
g81
ssg69
g2097
sg62
(lp2104
S'url'
p2105
asbag55
(g76
g57
NtRp2106
(dp2107
g60
(dp2108
g87
g88
ssg69
g2097
sg62
(lp2109
S':'
asbag55
(g76
g57
NtRp2110
(dp2111
g60
(dp2112
sg69
g2097
sg62
(lp2113
g55
(g56
g57
NtRp2114
(dp2115
g60
(dp2116
g68
I5
ssg69
g2110
sg62
(lp2117
S'/admin/default/design/Yuki'
p2118
asbasbasbag55
(g71
g57
NtRp2119
(dp2120
g60
(dp2121
sg69
g65
sg62
(lp2122
g55
(g76
g57
NtRp2123
(dp2124
g60
(dp2125
g80
g81
ssg69
g2119
sg62
(lp2126
S'utcnow'
p2127
asbag55
(g76
g57
NtRp2128
(dp2129
g60
(dp2130
g87
g88
ssg69
g2119
sg62
(lp2131
S':'
asbag55
(g76
g57
NtRp2132
(dp2133
g60
(dp2134
sg69
g2119
sg62
(lp2135
g55
(g56
g57
NtRp2136
(dp2137
g60
(dp2138
g68
I5
ssg69
g2132
sg62
(lp2139
S'datetime.datetime(2012, 3, 11, 2, 40, 58, 416000)'
p2140
asbasbasbag55
(g71
g57
NtRp2141
(dp2142
g60
(dp2143
sg69
g65
sg62
(lp2144
g55
(g76
g57
NtRp2145
(dp2146
g60
(dp2147
g80
g81
ssg69
g2141
sg62
(lp2148
S'uuid'
p2149
asbag55
(g76
g57
NtRp2150
(dp2151
g60
(dp2152
g87
g88
ssg69
g2141
sg62
(lp2153
S':'
asbag55
(g76
g57
NtRp2154
(dp2155
g60
(dp2156
sg69
g2141
sg62
(lp2157
g55
(g56
g57
NtRp2158
(dp2159
g60
(dp2160
g68
I5
ssg69
g2154
sg62
(lp2161
S'admin/127.0.0.1.2012-03-11.03-40-58.0b915a7e-57d0-44e6-8053-d08c5cc85dbb'
p2162
asbasbasbag55
(g71
g57
NtRp2163
(dp2164
g60
(dp2165
sg69
g65
sg62
(lp2166
g55
(g76
g57
NtRp2167
(dp2168
g60
(dp2169
g80
g81
ssg69
g2163
sg62
(lp2170
S'vars'
p2171
asbag55
(g76
g57
NtRp2172
(dp2173
g60
(dp2174
g87
g88
ssg69
g2163
sg62
(lp2175
S':'
asbag55
(g76
g57
NtRp2176
(dp2177
g60
(dp2178
sg69
g2163
sg62
(lp2179
g55
(g56
g57
NtRp2180
(dp2181
g60
(dp2182
g68
I5
ssg69
g2176
sg62
(lp2183
g55
(g64
g57
NtRp2184
(dp2185
g60
(dp2186
g68
I4
ssg69
Nsg62
(lp2187
sbasbasbasbag55
(g71
g57
NtRp2188
(dp2189
g60
(dp2190
sg69
g65
sg62
(lp2191
g55
(g76
g57
NtRp2192
(dp2193
g60
(dp2194
g80
g81
ssg69
g2188
sg62
(lp2195
S'wsgi'
p2196
asbag55
(g76
g57
NtRp2197
(dp2198
g60
(dp2199
g87
g88
ssg69
g2188
sg62
(lp2200
S':'
asbag55
(g76
g57
NtRp2201
(dp2202
g60
(dp2203
sg69
g2188
sg62
(lp2204
g55
(g56
g57
NtRp2205
(dp2206
g60
(dp2207
g68
I5
ssg69
g2201
sg62
(lp2208
g55
(g64
g57
NtRp2209
(dp2210
g60
(dp2211
g68
I4
ssg69
Nsg62
(lp2212
g55
(g71
g57
NtRp2213
(dp2214
g60
(dp2215
sg69
g2209
sg62
(lp2216
g55
(g76
g57
NtRp2217
(dp2218
g60
(dp2219
g80
g81
ssg69
g2213
sg62
(lp2220
S'environ'
p2221
asbag55
(g76
g57
NtRp2222
(dp2223
g60
(dp2224
g87
g88
ssg69
g2213
sg62
(lp2225
S':'
asbag55
(g76
g57
NtRp2226
(dp2227
g60
(dp2228
sg69
g2213
sg62
(lp2229
g55
(g56
g57
NtRp2230
(dp2231
g60
(dp2232
g68
I4
ssg69
g2226
sg62
(lp2233
g55
(g64
g57
NtRp2234
(dp2235
g60
(dp2236
g68
I3
ssg69
Nsg62
(lp2237
g55
(g71
g57
NtRp2238
(dp2239
g60
(dp2240
sg69
g2234
sg62
(lp2241
g55
(g76
g57
NtRp2242
(dp2243
g60
(dp2244
g80
g81
ssg69
g2238
sg62
(lp2245
S'HTTP_ACCEPT'
p2246
asbag55
(g76
g57
NtRp2247
(dp2248
g60
(dp2249
g87
g88
ssg69
g2238
sg62
(lp2250
S':'
asbag55
(g76
g57
NtRp2251
(dp2252
g60
(dp2253
sg69
g2238
sg62
(lp2254
g55
(g56
g57
NtRp2255
(dp2256
g60
(dp2257
g68
I3
ssg69
g2251
sg62
(lp2258
g788
asbasbasbag55
(g71
g57
NtRp2259
(dp2260
g60
(dp2261
sg69
g2234
sg62
(lp2262
g55
(g76
g57
NtRp2263
(dp2264
g60
(dp2265
g80
g81
ssg69
g2259
sg62
(lp2266
S'HTTP_ACCEPT_CHARSET'
p2267
asbag55
(g76
g57
NtRp2268
(dp2269
g60
(dp2270
g87
g88
ssg69
g2259
sg62
(lp2271
S':'
asbag55
(g76
g57
NtRp2272
(dp2273
g60
(dp2274
sg69
g2259
sg62
(lp2275
g55
(g56
g57
NtRp2276
(dp2277
g60
(dp2278
g68
I3
ssg69
g2272
sg62
(lp2279
g810
asbasbasbag55
(g71
g57
NtRp2280
(dp2281
g60
(dp2282
sg69
g2234
sg62
(lp2283
g55
(g76
g57
NtRp2284
(dp2285
g60
(dp2286
g80
g81
ssg69
g2280
sg62
(lp2287
S'HTTP_ACCEPT_ENCODING'
p2288
asbag55
(g76
g57
NtRp2289
(dp2290
g60
(dp2291
g87
g88
ssg69
g2280
sg62
(lp2292
S':'
asbag55
(g76
g57
NtRp2293
(dp2294
g60
(dp2295
sg69
g2280
sg62
(lp2296
g55
(g56
g57
NtRp2297
(dp2298
g60
(dp2299
g68
I3
ssg69
g2293
sg62
(lp2300
g832
asbasbasbag55
(g71
g57
NtRp2301
(dp2302
g60
(dp2303
sg69
g2234
sg62
(lp2304
g55
(g76
g57
NtRp2305
(dp2306
g60
(dp2307
g80
g81
ssg69
g2301
sg62
(lp2308
S'HTTP_ACCEPT_LANGUAGE'
p2309
asbag55
(g76
g57
NtRp2310
(dp2311
g60
(dp2312
g87
g88
ssg69
g2301
sg62
(lp2313
S':'
asbag55
(g76
g57
NtRp2314
(dp2315
g60
(dp2316
sg69
g2301
sg62
(lp2317
g55
(g56
g57
NtRp2318
(dp2319
g60
(dp2320
g68
I3
ssg69
g2314
sg62
(lp2321
g854
asbasbasbag55
(g71
g57
NtRp2322
(dp2323
g60
(dp2324
sg69
g2234
sg62
(lp2325
g55
(g76
g57
NtRp2326
(dp2327
g60
(dp2328
g80
g81
ssg69
g2322
sg62
(lp2329
S'HTTP_CONNECTION'
p2330
asbag55
(g76
g57
NtRp2331
(dp2332
g60
(dp2333
g87
g88
ssg69
g2322
sg62
(lp2334
S':'
asbag55
(g76
g57
NtRp2335
(dp2336
g60
(dp2337
sg69
g2322
sg62
(lp2338
g55
(g56
g57
NtRp2339
(dp2340
g60
(dp2341
g68
I3
ssg69
g2335
sg62
(lp2342
g876
asbasbasbag55
(g71
g57
NtRp2343
(dp2344
g60
(dp2345
sg69
g2234
sg62
(lp2346
g55
(g76
g57
NtRp2347
(dp2348
g60
(dp2349
g80
g81
ssg69
g2343
sg62
(lp2350
S'HTTP_COOKIE'
p2351
asbag55
(g76
g57
NtRp2352
(dp2353
g60
(dp2354
g87
g88
ssg69
g2343
sg62
(lp2355
S':'
asbag55
(g76
g57
NtRp2356
(dp2357
g60
(dp2358
sg69
g2343
sg62
(lp2359
g55
(g56
g57
NtRp2360
(dp2361
g60
(dp2362
g68
I3
ssg69
g2356
sg62
(lp2363
g898
asbasbasbag55
(g71
g57
NtRp2364
(dp2365
g60
(dp2366
sg69
g2234
sg62
(lp2367
g55
(g76
g57
NtRp2368
(dp2369
g60
(dp2370
g80
g81
ssg69
g2364
sg62
(lp2371
S'HTTP_HOST'
p2372
asbag55
(g76
g57
NtRp2373
(dp2374
g60
(dp2375
g87
g88
ssg69
g2364
sg62
(lp2376
S':'
asbag55
(g76
g57
NtRp2377
(dp2378
g60
(dp2379
sg69
g2364
sg62
(lp2380
g55
(g56
g57
NtRp2381
(dp2382
g60
(dp2383
g68
I3
ssg69
g2377
sg62
(lp2384
g920
asbasbasbag55
(g71
g57
NtRp2385
(dp2386
g60
(dp2387
sg69
g2234
sg62
(lp2388
g55
(g76
g57
NtRp2389
(dp2390
g60
(dp2391
g80
g81
ssg69
g2385
sg62
(lp2392
S'HTTP_REFERER'
p2393
asbag55
(g76
g57
NtRp2394
(dp2395
g60
(dp2396
g87
g88
ssg69
g2385
sg62
(lp2397
S':'
asbag55
(g76
g57
NtRp2398
(dp2399
g60
(dp2400
sg69
g2385
sg62
(lp2401
g55
(g56
g57
NtRp2402
(dp2403
g60
(dp2404
g68
I3
ssg69
g2398
sg62
(lp2405
g942
asbasbasbag55
(g71
g57
NtRp2406
(dp2407
g60
(dp2408
sg69
g2234
sg62
(lp2409
g55
(g76
g57
NtRp2410
(dp2411
g60
(dp2412
g80
g81
ssg69
g2406
sg62
(lp2413
S'HTTP_USER_AGENT'
p2414
asbag55
(g76
g57
NtRp2415
(dp2416
g60
(dp2417
g87
g88
ssg69
g2406
sg62
(lp2418
S':'
asbag55
(g76
g57
NtRp2419
(dp2420
g60
(dp2421
sg69
g2406
sg62
(lp2422
g55
(g56
g57
NtRp2423
(dp2424
g60
(dp2425
g68
I3
ssg69
g2419
sg62
(lp2426
g964
asbasbasbag55
(g71
g57
NtRp2427
(dp2428
g60
(dp2429
sg69
g2234
sg62
(lp2430
g55
(g76
g57
NtRp2431
(dp2432
g60
(dp2433
g80
g81
ssg69
g2427
sg62
(lp2434
S'PATH_INFO'
p2435
asbag55
(g76
g57
NtRp2436
(dp2437
g60
(dp2438
g87
g88
ssg69
g2427
sg62
(lp2439
S':'
asbag55
(g76
g57
NtRp2440
(dp2441
g60
(dp2442
sg69
g2427
sg62
(lp2443
g55
(g56
g57
NtRp2444
(dp2445
g60
(dp2446
g68
I3
ssg69
g2440
sg62
(lp2447
g1028
asbasbasbag55
(g71
g57
NtRp2448
(dp2449
g60
(dp2450
sg69
g2234
sg62
(lp2451
g55
(g76
g57
NtRp2452
(dp2453
g60
(dp2454
g80
g81
ssg69
g2448
sg62
(lp2455
S'QUERY_STRING'
p2456
asbag55
(g76
g57
NtRp2457
(dp2458
g60
(dp2459
g87
g88
ssg69
g2448
sg62
(lp2460
S':'
asbag55
(g76
g57
NtRp2461
(dp2462
g60
(dp2463
sg69
g2448
sg62
(lp2464
g55
(g56
g57
NtRp2465
(dp2466
g60
(dp2467
g68
I3
ssg69
g2461
sg62
(lp2468
S''
asbasbasbag55
(g71
g57
NtRp2469
(dp2470
g60
(dp2471
sg69
g2234
sg62
(lp2472
g55
(g76
g57
NtRp2473
(dp2474
g60
(dp2475
g80
g81
ssg69
g2469
sg62
(lp2476
S'REMOTE_ADDR'
p2477
asbag55
(g76
g57
NtRp2478
(dp2479
g60
(dp2480
g87
g88
ssg69
g2469
sg62
(lp2481
S':'
asbag55
(g76
g57
NtRp2482
(dp2483
g60
(dp2484
sg69
g2469
sg62
(lp2485
g55
(g56
g57
NtRp2486
(dp2487
g60
(dp2488
g68
I3
ssg69
g2482
sg62
(lp2489
g201
asbasbasbag55
(g71
g57
NtRp2490
(dp2491
g60
(dp2492
sg69
g2234
sg62
(lp2493
g55
(g76
g57
NtRp2494
(dp2495
g60
(dp2496
g80
g81
ssg69
g2490
sg62
(lp2497
S'REMOTE_PORT'
p2498
asbag55
(g76
g57
NtRp2499
(dp2500
g60
(dp2501
g87
g88
ssg69
g2490
sg62
(lp2502
S':'
asbag55
(g76
g57
NtRp2503
(dp2504
g60
(dp2505
sg69
g2490
sg62
(lp2506
g55
(g56
g57
NtRp2507
(dp2508
g60
(dp2509
g68
I3
ssg69
g2503
sg62
(lp2510
g1092
asbasbasbag55
(g71
g57
NtRp2511
(dp2512
g60
(dp2513
sg69
g2234
sg62
(lp2514
g55
(g76
g57
NtRp2515
(dp2516
g60
(dp2517
g80
g81
ssg69
g2511
sg62
(lp2518
S'REQUEST_METHOD'
p2519
asbag55
(g76
g57
NtRp2520
(dp2521
g60
(dp2522
g87
g88
ssg69
g2511
sg62
(lp2523
S':'
asbag55
(g76
g57
NtRp2524
(dp2525
g60
(dp2526
sg69
g2511
sg62
(lp2527
g55
(g56
g57
NtRp2528
(dp2529
g60
(dp2530
g68
I3
ssg69
g2524
sg62
(lp2531
g1114
asbasbasbag55
(g71
g57
NtRp2532
(dp2533
g60
(dp2534
sg69
g2234
sg62
(lp2535
g55
(g76
g57
NtRp2536
(dp2537
g60
(dp2538
g80
g81
ssg69
g2532
sg62
(lp2539
S'SCRIPT_NAME'
p2540
asbag55
(g76
g57
NtRp2541
(dp2542
g60
(dp2543
g87
g88
ssg69
g2532
sg62
(lp2544
S':'
asbag55
(g76
g57
NtRp2545
(dp2546
g60
(dp2547
sg69
g2532
sg62
(lp2548
g55
(g56
g57
NtRp2549
(dp2550
g60
(dp2551
g68
I3
ssg69
g2545
sg62
(lp2552
S''
asbasbasbag55
(g71
g57
NtRp2553
(dp2554
g60
(dp2555
sg69
g2234
sg62
(lp2556
g55
(g76
g57
NtRp2557
(dp2558
g60
(dp2559
g80
g81
ssg69
g2553
sg62
(lp2560
S'SERVER_NAME'
p2561
asbag55
(g76
g57
NtRp2562
(dp2563
g60
(dp2564
g87
g88
ssg69
g2553
sg62
(lp2565
S':'
asbag55
(g76
g57
NtRp2566
(dp2567
g60
(dp2568
sg69
g2553
sg62
(lp2569
g55
(g56
g57
NtRp2570
(dp2571
g60
(dp2572
g68
I3
ssg69
g2566
sg62
(lp2573
g1157
asbasbasbag55
(g71
g57
NtRp2574
(dp2575
g60
(dp2576
sg69
g2234
sg62
(lp2577
g55
(g76
g57
NtRp2578
(dp2579
g60
(dp2580
g80
g81
ssg69
g2574
sg62
(lp2581
S'SERVER_PORT'
p2582
asbag55
(g76
g57
NtRp2583
(dp2584
g60
(dp2585
g87
g88
ssg69
g2574
sg62
(lp2586
S':'
asbag55
(g76
g57
NtRp2587
(dp2588
g60
(dp2589
sg69
g2574
sg62
(lp2590
g55
(g56
g57
NtRp2591
(dp2592
g60
(dp2593
g68
I3
ssg69
g2587
sg62
(lp2594
g1179
asbasbasbag55
(g71
g57
NtRp2595
(dp2596
g60
(dp2597
sg69
g2234
sg62
(lp2598
g55
(g76
g57
NtRp2599
(dp2600
g60
(dp2601
g80
g81
ssg69
g2595
sg62
(lp2602
S'SERVER_PROTOCOL'
p2603
asbag55
(g76
g57
NtRp2604
(dp2605
g60
(dp2606
g87
g88
ssg69
g2595
sg62
(lp2607
S':'
asbag55
(g76
g57
NtRp2608
(dp2609
g60
(dp2610
sg69
g2595
sg62
(lp2611
g55
(g56
g57
NtRp2612
(dp2613
g60
(dp2614
g68
I3
ssg69
g2608
sg62
(lp2615
g1201
asbasbasbag55
(g71
g57
NtRp2616
(dp2617
g60
(dp2618
sg69
g2234
sg62
(lp2619
g55
(g76
g57
NtRp2620
(dp2621
g60
(dp2622
g80
g81
ssg69
g2616
sg62
(lp2623
S'SERVER_SOFTWARE'
p2624
asbag55
(g76
g57
NtRp2625
(dp2626
g60
(dp2627
g87
g88
ssg69
g2616
sg62
(lp2628
S':'
asbag55
(g76
g57
NtRp2629
(dp2630
g60
(dp2631
sg69
g2616
sg62
(lp2632
g55
(g56
g57
NtRp2633
(dp2634
g60
(dp2635
g68
I3
ssg69
g2629
sg62
(lp2636
g1223
asbasbasbag55
(g71
g57
NtRp2637
(dp2638
g60
(dp2639
sg69
g2234
sg62
(lp2640
g55
(g76
g57
NtRp2641
(dp2642
g60
(dp2643
g80
g81
ssg69
g2637
sg62
(lp2644
S'wsgi.errors'
p2645
asbag55
(g76
g57
NtRp2646
(dp2647
g60
(dp2648
g87
g88
ssg69
g2637
sg62
(lp2649
S':'
asbag55
(g76
g57
NtRp2650
(dp2651
g60
(dp2652
sg69
g2637
sg62
(lp2653
g55
(g56
g57
NtRp2654
(dp2655
g60
(dp2656
g68
I3
ssg69
g2650
sg62
(lp2657
S"<open file '<stderr>', mode 'w' at 0x01F400B0>"
p2658
asbasbasbag55
(g71
g57
NtRp2659
(dp2660
g60
(dp2661
sg69
g2234
sg62
(lp2662
g55
(g76
g57
NtRp2663
(dp2664
g60
(dp2665
g80
g81
ssg69
g2659
sg62
(lp2666
S'wsgi.file_wrapper'
p2667
asbag55
(g76
g57
NtRp2668
(dp2669
g60
(dp2670
g87
g88
ssg69
g2659
sg62
(lp2671
S':'
asbag55
(g76
g57
NtRp2672
(dp2673
g60
(dp2674
sg69
g2659
sg62
(lp2675
g55
(g56
g57
NtRp2676
(dp2677
g60
(dp2678
g68
I3
ssg69
g2672
sg62
(lp2679
S'<class wsgiref.util.FileWrapper at 0x02B2E570>'
p2680
asbasbasbag55
(g71
g57
NtRp2681
(dp2682
g60
(dp2683
sg69
g2234
sg62
(lp2684
g55
(g76
g57
NtRp2685
(dp2686
g60
(dp2687
g80
g81
ssg69
g2681
sg62
(lp2688
S'wsgi.input'
p2689
asbag55
(g76
g57
NtRp2690
(dp2691
g60
(dp2692
g87
g88
ssg69
g2681
sg62
(lp2693
S':'
asbag55
(g76
g57
NtRp2694
(dp2695
g60
(dp2696
sg69
g2681
sg62
(lp2697
g55
(g56
g57
NtRp2698
(dp2699
g60
(dp2700
g68
I3
ssg69
g2694
sg62
(lp2701
S'<cStringIO.StringO object at 0x061207E0>'
p2702
asbasbasbag55
(g71
g57
NtRp2703
(dp2704
g60
(dp2705
sg69
g2234
sg62
(lp2706
g55
(g76
g57
NtRp2707
(dp2708
g60
(dp2709
g80
g81
ssg69
g2703
sg62
(lp2710
S'wsgi.multiprocess'
p2711
asbag55
(g76
g57
NtRp2712
(dp2713
g60
(dp2714
g87
g88
ssg69
g2703
sg62
(lp2715
S':'
asbag55
(g76
g57
NtRp2716
(dp2717
g60
(dp2718
sg69
g2703
sg62
(lp2719
g55
(g56
g57
NtRp2720
(dp2721
g60
(dp2722
g68
I3
ssg69
g2716
sg62
(lp2723
g98
asbasbasbag55
(g71
g57
NtRp2724
(dp2725
g60
(dp2726
sg69
g2234
sg62
(lp2727
g55
(g76
g57
NtRp2728
(dp2729
g60
(dp2730
g80
g81
ssg69
g2724
sg62
(lp2731
S'wsgi.multithread'
p2732
asbag55
(g76
g57
NtRp2733
(dp2734
g60
(dp2735
g87
g88
ssg69
g2724
sg62
(lp2736
S':'
asbag55
(g76
g57
NtRp2737
(dp2738
g60
(dp2739
sg69
g2724
sg62
(lp2740
g55
(g56
g57
NtRp2741
(dp2742
g60
(dp2743
g68
I3
ssg69
g2737
sg62
(lp2744
g1463
asbasbasbag55
(g71
g57
NtRp2745
(dp2746
g60
(dp2747
sg69
g2234
sg62
(lp2748
g55
(g76
g57
NtRp2749
(dp2750
g60
(dp2751
g80
g81
ssg69
g2745
sg62
(lp2752
S'wsgi.run_once'
p2753
asbag55
(g76
g57
NtRp2754
(dp2755
g60
(dp2756
g87
g88
ssg69
g2745
sg62
(lp2757
S':'
asbag55
(g76
g57
NtRp2758
(dp2759
g60
(dp2760
sg69
g2745
sg62
(lp2761
g55
(g56
g57
NtRp2762
(dp2763
g60
(dp2764
g68
I3
ssg69
g2758
sg62
(lp2765
g98
asbasbasbag55
(g71
g57
NtRp2766
(dp2767
g60
(dp2768
sg69
g2234
sg62
(lp2769
g55
(g76
g57
NtRp2770
(dp2771
g60
(dp2772
g80
g81
ssg69
g2766
sg62
(lp2773
S'wsgi.url_scheme'
p2774
asbag55
(g76
g57
NtRp2775
(dp2776
g60
(dp2777
g87
g88
ssg69
g2766
sg62
(lp2778
S':'
asbag55
(g76
g57
NtRp2779
(dp2780
g60
(dp2781
sg69
g2766
sg62
(lp2782
g55
(g56
g57
NtRp2783
(dp2784
g60
(dp2785
g68
I3
ssg69
g2779
sg62
(lp2786
g1506
asbasbasbag55
(g71
g57
NtRp2787
(dp2788
g60
(dp2789
sg69
g2234
sg62
(lp2790
g55
(g76
g57
NtRp2791
(dp2792
g60
(dp2793
g80
g81
ssg69
g2787
sg62
(lp2794
S'wsgi.version'
p2795
asbag55
(g76
g57
NtRp2796
(dp2797
g60
(dp2798
g87
g88
ssg69
g2787
sg62
(lp2799
S':'
asbag55
(g76
g57
NtRp2800
(dp2801
g60
(dp2802
sg69
g2787
sg62
(lp2803
g55
(g56
g57
NtRp2804
(dp2805
g60
(dp2806
g68
I3
ssg69
g2800
sg62
(lp2807
S'1'
asbasbasbasbasbasbasbasbasbasbasbasbasbsS'frames'
p2808
(lp2809
(dp2810
S'file'
p2811
S'C:\\Users\\Bussiere\\Dropbox\\Projets\\Yuki\\web2py\\gluon\\restricted.py'
p2812
sS'dump'
p2813
(dp2814
sS'lnum'
p2815
I205
sS'lines'
p2816
(dp2817
sS'call'
p2818
S'(code="# coding: utf8\\n\\nEXPERIMENTAL_STUFF = True\\n\\nif EX...te\'))\\n\\n\\n\\nresponse._vars=response._caller(design)\\n", environment={\'A\': <class \'gluon.html.A\'>, \'ALLOW_TOGGLE\': \'true\', \'A_button\': <function A_button at 0x065F6170>, \'B\': <class \'gluon.html.B\'>, \'BEAUTIFY\': <class \'gluon.html.BEAUTIFY\'>, \'BODY\': <class \'gluon.html.BODY\'>, \'BR\': <class \'gluon.html.BR\'>, \'BUTTON\': <class \'gluon.html.BUTTON\'>, \'CAT\': <class \'gluon.html.CAT\'>, \'CENTER\': <class \'gluon.html.CENTER\'>, ...}, layer=r\'C:\\Users\\Bussiere\\Dropbox\\Projets\\Yuki\\web2py\\applications\\admin\\controllers/default.py\')'
p2819
sS'func'
p2820
S'restricted'
p2821
sa(dp2822
g2811
S'C:\\Users\\Bussiere\\Dropbox\\Projets\\Yuki\\web2py\\applications\\admin\\controllers\\default.py'
p2823
sg2813
(dp2824
sg2815
I1352
sg2816
(dp2825
I1344
S'def reload_routes():'
p2826
sI1345
S'    """ Reload routes.py """'
p2827
sI1346
S'    import gluon.rewrite'
p2828
sI1347
S'    gluon.rewrite.load()'
p2829
sI1348
S"    redirect(URL('site'))"
p2830
sI1349
S''
sI1350
S''
sI1341
S'    else:'
p2831
sI1342
S'        return dict(form=T("Disabled"))'
p2832
sI1343
S''
ssg2818
S'()'
p2833
sg2820
S'<module>'
p2834
sa(dp2835
g2811
S'C:\\Users\\Bussiere\\Dropbox\\Projets\\Yuki\\web2py\\gluon\\globals.py'
p2836
sg2813
(dp2837
sg2815
I173
sg2816
(dp2838
sg2818
S'(f=<function design at 0x06676630>)'
p2839
sg2820
S'<lambda>'
p2840
sa(dp2841
g2811
S'C:\\Users\\Bussiere\\Dropbox\\Projets\\Yuki\\web2py\\applications\\admin\\controllers\\default.py'
p2842
sg2813
(dp2843
sg2815
I760
sg2816
(dp2844
I755
S'    # Get all languages'
p2845
sI756
S"    languages = listdir(apath('%s/languages/' % app, r=request), '[\\w-]*\\.py')"
p2846
sI757
S''
sI758
S'    #Get crontab'
p2847
sI759
S"    cronfolder = apath('%s/cron' % app, r=request)"
p2848
sI760
S'    if not os.path.exists(cronfolder): os.mkdir(cronfolder)'
p2849
sI761
S"    crontab = apath('%s/cron/crontab' % app, r=request)"
p2850
sI762
S'    if not os.path.exists(crontab):'
p2851
sI763
S"        safe_write(crontab, '#crontab')"
p2852
sI764
S''
ssg2818
S'()'
p2853
sg2820
S'design'
p2854
sasS'pyver'
p2855
S'Python 2.5.4: C:\\Users\\Bussiere\\Dropbox\\Projets\\Yuki\\web2py\\web2py.exe'
p2856
sS'session'
p2857
g55
(g56
g57
NtRp2858
(dp2859
g60
(dp2860
sg62
(lp2861
g55
(g64
g57
NtRp2862
(dp2863
g60
(dp2864
g68
I5
ssg69
Nsg62
(lp2865
g55
(g71
g57
NtRp2866
(dp2867
g60
(dp2868
sg69
g2862
sg62
(lp2869
g55
(g76
g57
NtRp2870
(dp2871
g60
(dp2872
g80
g81
ssg69
g2866
sg62
(lp2873
S'authorized'
p2874
asbag55
(g76
g57
NtRp2875
(dp2876
g60
(dp2877
g87
g88
ssg69
g2866
sg62
(lp2878
S':'
asbag55
(g76
g57
NtRp2879
(dp2880
g60
(dp2881
sg69
g2866
sg62
(lp2882
g55
(g56
g57
NtRp2883
(dp2884
g60
(dp2885
g68
I5
ssg69
g2879
sg62
(lp2886
g1463
asbasbasbag55
(g71
g57
NtRp2887
(dp2888
g60
(dp2889
sg69
g2862
sg62
(lp2890
g55
(g76
g57
NtRp2891
(dp2892
g60
(dp2893
g80
g81
ssg69
g2887
sg62
(lp2894
S'check_version'
p2895
asbag55
(g76
g57
NtRp2896
(dp2897
g60
(dp2898
g87
g88
ssg69
g2887
sg62
(lp2899
S':'
asbag55
(g76
g57
NtRp2900
(dp2901
g60
(dp2902
sg69
g2887
sg62
(lp2903
g55
(g56
g57
NtRp2904
(dp2905
g60
(dp2906
g68
I5
ssg69
g2900
sg62
(lp2907
g98
asbasbasbag55
(g71
g57
NtRp2908
(dp2909
g60
(dp2910
sg69
g2862
sg62
(lp2911
g55
(g76
g57
NtRp2912
(dp2913
g60
(dp2914
g80
g81
ssg69
g2908
sg62
(lp2915
S'last_time'
p2916
asbag55
(g76
g57
NtRp2917
(dp2918
g60
(dp2919
g87
g88
ssg69
g2908
sg62
(lp2920
S':'
asbag55
(g76
g57
NtRp2921
(dp2922
g60
(dp2923
sg69
g2908
sg62
(lp2924
g55
(g56
g57
NtRp2925
(dp2926
g60
(dp2927
g68
I5
ssg69
g2921
sg62
(lp2928
S'1331433658.457'
p2929
asbasbasbasbasbsS'etype'
p2930
S"<type 'exceptions.WindowsError'>"
p2931
sS'date'
p2932
S'Sun Mar 11 03:40:58 2012'
p2933
sS'response'
p2934
g55
(g56
g57
NtRp2935
(dp2936
g60
(dp2937
sg62
(lp2938
g55
(g64
g57
NtRp2939
(dp2940
g60
(dp2941
g68
I5
ssg69
Nsg62
(lp2942
g55
(g71
g57
NtRp2943
(dp2944
g60
(dp2945
sg69
g2939
sg62
(lp2946
g55
(g76
g57
NtRp2947
(dp2948
g60
(dp2949
g80
g81
ssg69
g2943
sg62
(lp2950
g166
asbag55
(g76
g57
NtRp2951
(dp2952
g60
(dp2953
g87
g88
ssg69
g2943
sg62
(lp2954
S':'
asbag55
(g76
g57
NtRp2955
(dp2956
g60
(dp2957
sg69
g2943
sg62
(lp2958
g55
(g56
g57
NtRp2959
(dp2960
g60
(dp2961
g68
I5
ssg69
g2955
sg62
(lp2962
S'<cStringIO.StringO object at 0x05E690E0>'
p2963
asbasbasbag55
(g71
g57
NtRp2964
(dp2965
g60
(dp2966
sg69
g2939
sg62
(lp2967
g55
(g76
g57
NtRp2968
(dp2969
g60
(dp2970
g80
g81
ssg69
g2964
sg62
(lp2971
g232
asbag55
(g76
g57
NtRp2972
(dp2973
g60
(dp2974
g87
g88
ssg69
g2964
sg62
(lp2975
S':'
asbag55
(g76
g57
NtRp2976
(dp2977
g60
(dp2978
sg69
g2964
sg62
(lp2979
g55
(g56
g57
NtRp2980
(dp2981
g60
(dp2982
g68
I5
ssg69
g2976
sg62
(lp2983
g55
(g64
g57
NtRp2984
(dp2985
g60
(dp2986
g68
I4
ssg69
Nsg62
(lp2987
g55
(g71
g57
NtRp2988
(dp2989
g60
(dp2990
sg69
g2984
sg62
(lp2991
g55
(g76
g57
NtRp2992
(dp2993
g60
(dp2994
g80
g81
ssg69
g2988
sg62
(lp2995
S'session_id_admin'
p2996
asbag55
(g76
g57
NtRp2997
(dp2998
g60
(dp2999
g87
g88
ssg69
g2988
sg62
(lp3000
S':'
asbag55
(g76
g57
NtRp3001
(dp3002
g60
(dp3003
sg69
g2988
sg62
(lp3004
g55
(g56
g57
NtRp3005
(dp3006
g60
(dp3007
g68
I4
ssg69
g3001
sg62
(lp3008
g55
(g64
g57
NtRp3009
(dp3010
g60
(dp3011
g68
I3
ssg69
Nsg62
(lp3012
g55
(g71
g57
NtRp3013
(dp3014
g60
(dp3015
sg69
g3009
sg62
(lp3016
g55
(g76
g57
NtRp3017
(dp3018
g60
(dp3019
g80
g81
ssg69
g3013
sg62
(lp3020
g282
asbag55
(g76
g57
NtRp3021
(dp3022
g60
(dp3023
g87
g88
ssg69
g3013
sg62
(lp3024
S':'
asbag55
(g76
g57
NtRp3025
(dp3026
g60
(dp3027
sg69
g3013
sg62
(lp3028
g55
(g56
g57
NtRp3029
(dp3030
g60
(dp3031
g68
I3
ssg69
g3025
sg62
(lp3032
S''
asbasbasbag55
(g71
g57
NtRp3033
(dp3034
g60
(dp3035
sg69
g3009
sg62
(lp3036
g55
(g76
g57
NtRp3037
(dp3038
g60
(dp3039
g80
g81
ssg69
g3033
sg62
(lp3040
g303
asbag55
(g76
g57
NtRp3041
(dp3042
g60
(dp3043
g87
g88
ssg69
g3033
sg62
(lp3044
S':'
asbag55
(g76
g57
NtRp3045
(dp3046
g60
(dp3047
sg69
g3033
sg62
(lp3048
g55
(g56
g57
NtRp3049
(dp3050
g60
(dp3051
g68
I3
ssg69
g3045
sg62
(lp3052
S''
asbasbasbag55
(g71
g57
NtRp3053
(dp3054
g60
(dp3055
sg69
g3009
sg62
(lp3056
g55
(g76
g57
NtRp3057
(dp3058
g60
(dp3059
g80
g81
ssg69
g3053
sg62
(lp3060
g324
asbag55
(g76
g57
NtRp3061
(dp3062
g60
(dp3063
g87
g88
ssg69
g3053
sg62
(lp3064
S':'
asbag55
(g76
g57
NtRp3065
(dp3066
g60
(dp3067
sg69
g3053
sg62
(lp3068
g55
(g56
g57
NtRp3069
(dp3070
g60
(dp3071
g68
I3
ssg69
g3065
sg62
(lp3072
S''
asbasbasbag55
(g71
g57
NtRp3073
(dp3074
g60
(dp3075
sg69
g3009
sg62
(lp3076
g55
(g76
g57
NtRp3077
(dp3078
g60
(dp3079
g80
g81
ssg69
g3073
sg62
(lp3080
g345
asbag55
(g76
g57
NtRp3081
(dp3082
g60
(dp3083
g87
g88
ssg69
g3073
sg62
(lp3084
S':'
asbag55
(g76
g57
NtRp3085
(dp3086
g60
(dp3087
sg69
g3073
sg62
(lp3088
g55
(g56
g57
NtRp3089
(dp3090
g60
(dp3091
g68
I3
ssg69
g3085
sg62
(lp3092
S''
asbasbasbag55
(g71
g57
NtRp3093
(dp3094
g60
(dp3095
sg69
g3009
sg62
(lp3096
g55
(g76
g57
NtRp3097
(dp3098
g60
(dp3099
g80
g81
ssg69
g3093
sg62
(lp3100
g366
asbag55
(g76
g57
NtRp3101
(dp3102
g60
(dp3103
g87
g88
ssg69
g3093
sg62
(lp3104
S':'
asbag55
(g76
g57
NtRp3105
(dp3106
g60
(dp3107
sg69
g3093
sg62
(lp3108
g55
(g56
g57
NtRp3109
(dp3110
g60
(dp3111
g68
I3
ssg69
g3105
sg62
(lp3112
S'/'
asbasbasbag55
(g71
g57
NtRp3113
(dp3114
g60
(dp3115
sg69
g3009
sg62
(lp3116
g55
(g76
g57
NtRp3117
(dp3118
g60
(dp3119
g80
g81
ssg69
g3113
sg62
(lp3120
g387
asbag55
(g76
g57
NtRp3121
(dp3122
g60
(dp3123
g87
g88
ssg69
g3113
sg62
(lp3124
S':'
asbag55
(g76
g57
NtRp3125
(dp3126
g60
(dp3127
sg69
g3113
sg62
(lp3128
g55
(g56
g57
NtRp3129
(dp3130
g60
(dp3131
g68
I3
ssg69
g3125
sg62
(lp3132
S''
asbasbasbag55
(g71
g57
NtRp3133
(dp3134
g60
(dp3135
sg69
g3009
sg62
(lp3136
g55
(g76
g57
NtRp3137
(dp3138
g60
(dp3139
g80
g81
ssg69
g3133
sg62
(lp3140
g408
asbag55
(g76
g57
NtRp3141
(dp3142
g60
(dp3143
g87
g88
ssg69
g3133
sg62
(lp3144
S':'
asbag55
(g76
g57
NtRp3145
(dp3146
g60
(dp3147
sg69
g3133
sg62
(lp3148
g55
(g56
g57
NtRp3149
(dp3150
g60
(dp3151
g68
I3
ssg69
g3145
sg62
(lp3152
S''
asbasbasbasbasbasbasbasbasbasbasbag55
(g71
g57
NtRp3153
(dp3154
g60
(dp3155
sg69
g2939
sg62
(lp3156
g55
(g76
g57
NtRp3157
(dp3158
g60
(dp3159
g80
g81
ssg69
g3153
sg62
(lp3160
S'delimiters'
p3161
asbag55
(g76
g57
NtRp3162
(dp3163
g60
(dp3164
g87
g88
ssg69
g3153
sg62
(lp3165
S':'
asbag55
(g76
g57
NtRp3166
(dp3167
g60
(dp3168
sg69
g3153
sg62
(lp3169
g55
(g56
g57
NtRp3170
(dp3171
g60
(dp3172
g68
I5
ssg69
g3166
sg62
(lp3173
g55
(g64
g57
NtRp3174
(dp3175
g60
(dp3176
g68
I4
ssg69
Nsg62
(lp3177
g55
(g71
g57
NtRp3178
(dp3179
g60
(dp3180
sg69
g3174
sg62
(lp3181
g55
(g76
g57
NtRp3182
(dp3183
g60
(dp3184
sg69
g3178
sg62
(lp3185
g55
(g56
g57
NtRp3186
(dp3187
g60
(dp3188
g68
I4
ssg69
g3182
sg62
(lp3189
S'{{'
p3190
asbasbasbag55
(g71
g57
NtRp3191
(dp3192
g60
(dp3193
sg69
g3174
sg62
(lp3194
g55
(g76
g57
NtRp3195
(dp3196
g60
(dp3197
sg69
g3191
sg62
(lp3198
g55
(g56
g57
NtRp3199
(dp3200
g60
(dp3201
g68
I4
ssg69
g3195
sg62
(lp3202
S'}}'
p3203
asbasbasbasbasbasbasbag55
(g71
g57
NtRp3204
(dp3205
g60
(dp3206
sg69
g2939
sg62
(lp3207
g55
(g76
g57
NtRp3208
(dp3209
g60
(dp3210
g80
g81
ssg69
g3204
sg62
(lp3211
S'files'
p3212
asbag55
(g76
g57
NtRp3213
(dp3214
g60
(dp3215
g87
g88
ssg69
g3204
sg62
(lp3216
S':'
asbag55
(g76
g57
NtRp3217
(dp3218
g60
(dp3219
sg69
g3204
sg62
(lp3220
g55
(g56
g57
NtRp3221
(dp3222
g60
(dp3223
g68
I5
ssg69
g3217
sg62
(lp3224
g55
(g64
g57
NtRp3225
(dp3226
g60
(dp3227
g68
I4
ssg69
Nsg62
(lp3228
g55
(g71
g57
NtRp3229
(dp3230
g60
(dp3231
sg69
g3225
sg62
(lp3232
g55
(g76
g57
NtRp3233
(dp3234
g60
(dp3235
sg69
g3229
sg62
(lp3236
g55
(g56
g57
NtRp3237
(dp3238
g60
(dp3239
g68
I4
ssg69
g3233
sg62
(lp3240
S'/admin/static/plugin_multiselect/jquery.dimensions.js'
p3241
asbasbasbag55
(g71
g57
NtRp3242
(dp3243
g60
(dp3244
sg69
g3225
sg62
(lp3245
g55
(g76
g57
NtRp3246
(dp3247
g60
(dp3248
sg69
g3242
sg62
(lp3249
g55
(g56
g57
NtRp3250
(dp3251
g60
(dp3252
g68
I4
ssg69
g3246
sg62
(lp3253
S'/admin/static/plugin_multiselect/jquery.multiselect.js'
p3254
asbasbasbag55
(g71
g57
NtRp3255
(dp3256
g60
(dp3257
sg69
g3225
sg62
(lp3258
g55
(g76
g57
NtRp3259
(dp3260
g60
(dp3261
sg69
g3255
sg62
(lp3262
g55
(g56
g57
NtRp3263
(dp3264
g60
(dp3265
g68
I4
ssg69
g3259
sg62
(lp3266
S'/admin/static/plugin_multiselect/jquery.multiselect.css'
p3267
asbasbasbag55
(g71
g57
NtRp3268
(dp3269
g60
(dp3270
sg69
g3225
sg62
(lp3271
g55
(g76
g57
NtRp3272
(dp3273
g60
(dp3274
sg69
g3268
sg62
(lp3275
g55
(g56
g57
NtRp3276
(dp3277
g60
(dp3278
g68
I4
ssg69
g3272
sg62
(lp3279
S'/admin/static/plugin_multiselect/start.js'
p3280
asbasbasbasbasbasbasbag55
(g71
g57
NtRp3281
(dp3282
g60
(dp3283
sg69
g2939
sg62
(lp3284
g55
(g76
g57
NtRp3285
(dp3286
g60
(dp3287
g80
g81
ssg69
g3281
sg62
(lp3288
S'flash'
p3289
asbag55
(g76
g57
NtRp3290
(dp3291
g60
(dp3292
g87
g88
ssg69
g3281
sg62
(lp3293
S':'
asbag55
(g76
g57
NtRp3294
(dp3295
g60
(dp3296
sg69
g3281
sg62
(lp3297
g55
(g56
g57
NtRp3298
(dp3299
g60
(dp3300
g68
I5
ssg69
g3294
sg62
(lp3301
S''
asbasbasbag55
(g71
g57
NtRp3302
(dp3303
g60
(dp3304
sg69
g2939
sg62
(lp3305
g55
(g76
g57
NtRp3306
(dp3307
g60
(dp3308
g80
g81
ssg69
g3302
sg62
(lp3309
S'generic_patterns'
p3310
asbag55
(g76
g57
NtRp3311
(dp3312
g60
(dp3313
g87
g88
ssg69
g3302
sg62
(lp3314
S':'
asbag55
(g76
g57
NtRp3315
(dp3316
g60
(dp3317
sg69
g3302
sg62
(lp3318
g55
(g56
g57
NtRp3319
(dp3320
g60
(dp3321
g68
I5
ssg69
g3315
sg62
(lp3322
g55
(g64
g57
NtRp3323
(dp3324
g60
(dp3325
g68
I4
ssg69
Nsg62
(lp3326
sbasbasbasbag55
(g71
g57
NtRp3327
(dp3328
g60
(dp3329
sg69
g2939
sg62
(lp3330
g55
(g76
g57
NtRp3331
(dp3332
g60
(dp3333
g80
g81
ssg69
g3327
sg62
(lp3334
S'headers'
p3335
asbag55
(g76
g57
NtRp3336
(dp3337
g60
(dp3338
g87
g88
ssg69
g3327
sg62
(lp3339
S':'
asbag55
(g76
g57
NtRp3340
(dp3341
g60
(dp3342
sg69
g3327
sg62
(lp3343
g55
(g56
g57
NtRp3344
(dp3345
g60
(dp3346
g68
I5
ssg69
g3340
sg62
(lp3347
g55
(g64
g57
NtRp3348
(dp3349
g60
(dp3350
g68
I4
ssg69
Nsg62
(lp3351
g55
(g71
g57
NtRp3352
(dp3353
g60
(dp3354
sg69
g3348
sg62
(lp3355
g55
(g76
g57
NtRp3356
(dp3357
g60
(dp3358
g80
g81
ssg69
g3352
sg62
(lp3359
S'Cache-Control'
p3360
asbag55
(g76
g57
NtRp3361
(dp3362
g60
(dp3363
g87
g88
ssg69
g3352
sg62
(lp3364
S':'
asbag55
(g76
g57
NtRp3365
(dp3366
g60
(dp3367
sg69
g3352
sg62
(lp3368
g55
(g56
g57
NtRp3369
(dp3370
g60
(dp3371
g68
I4
ssg69
g3365
sg62
(lp3372
S'no-store, no-cache, must-revalidate, post-check=0, pre-check=0'
p3373
asbasbasbag55
(g71
g57
NtRp3374
(dp3375
g60
(dp3376
sg69
g3348
sg62
(lp3377
g55
(g76
g57
NtRp3378
(dp3379
g60
(dp3380
g80
g81
ssg69
g3374
sg62
(lp3381
S'Content-Type'
p3382
asbag55
(g76
g57
NtRp3383
(dp3384
g60
(dp3385
g87
g88
ssg69
g3374
sg62
(lp3386
S':'
asbag55
(g76
g57
NtRp3387
(dp3388
g60
(dp3389
sg69
g3374
sg62
(lp3390
g55
(g56
g57
NtRp3391
(dp3392
g60
(dp3393
g68
I4
ssg69
g3387
sg62
(lp3394
S'text/html; charset=utf-8'
p3395
asbasbasbag55
(g71
g57
NtRp3396
(dp3397
g60
(dp3398
sg69
g3348
sg62
(lp3399
g55
(g76
g57
NtRp3400
(dp3401
g60
(dp3402
g80
g81
ssg69
g3396
sg62
(lp3403
S'Expires'
p3404
asbag55
(g76
g57
NtRp3405
(dp3406
g60
(dp3407
g87
g88
ssg69
g3396
sg62
(lp3408
S':'
asbag55
(g76
g57
NtRp3409
(dp3410
g60
(dp3411
sg69
g3396
sg62
(lp3412
g55
(g56
g57
NtRp3413
(dp3414
g60
(dp3415
g68
I4
ssg69
g3409
sg62
(lp3416
S'Sun, 11 Mar 2012 02:40:58 GMT'
p3417
asbasbasbag55
(g71
g57
NtRp3418
(dp3419
g60
(dp3420
sg69
g3348
sg62
(lp3421
g55
(g76
g57
NtRp3422
(dp3423
g60
(dp3424
g80
g81
ssg69
g3418
sg62
(lp3425
S'Pragma'
p3426
asbag55
(g76
g57
NtRp3427
(dp3428
g60
(dp3429
g87
g88
ssg69
g3418
sg62
(lp3430
S':'
asbag55
(g76
g57
NtRp3431
(dp3432
g60
(dp3433
sg69
g3418
sg62
(lp3434
g55
(g56
g57
NtRp3435
(dp3436
g60
(dp3437
g68
I4
ssg69
g3431
sg62
(lp3438
S'no-cache'
p3439
asbasbasbag55
(g71
g57
NtRp3440
(dp3441
g60
(dp3442
sg69
g3348
sg62
(lp3443
g55
(g76
g57
NtRp3444
(dp3445
g60
(dp3446
g80
g81
ssg69
g3440
sg62
(lp3447
S'X-Powered-By'
p3448
asbag55
(g76
g57
NtRp3449
(dp3450
g60
(dp3451
g87
g88
ssg69
g3440
sg62
(lp3452
S':'
asbag55
(g76
g57
NtRp3453
(dp3454
g60
(dp3455
sg69
g3440
sg62
(lp3456
g55
(g56
g57
NtRp3457
(dp3458
g60
(dp3459
g68
I4
ssg69
g3453
sg62
(lp3460
S'web2py'
p3461
asbasbasbasbasbasbasbag55
(g71
g57
NtRp3462
(dp3463
g60
(dp3464
sg69
g2939
sg62
(lp3465
g55
(g76
g57
NtRp3466
(dp3467
g60
(dp3468
g80
g81
ssg69
g3462
sg62
(lp3469
S'menu'
p3470
asbag55
(g76
g57
NtRp3471
(dp3472
g60
(dp3473
g87
g88
ssg69
g3462
sg62
(lp3474
S':'
asbag55
(g76
g57
NtRp3475
(dp3476
g60
(dp3477
sg69
g3462
sg62
(lp3478
g55
(g56
g57
NtRp3479
(dp3480
g60
(dp3481
g68
I5
ssg69
g3475
sg62
(lp3482
g55
(g64
g57
NtRp3483
(dp3484
g60
(dp3485
g68
I4
ssg69
Nsg62
(lp3486
g55
(g71
g57
NtRp3487
(dp3488
g60
(dp3489
sg69
g3483
sg62
(lp3490
g55
(g76
g57
NtRp3491
(dp3492
g60
(dp3493
sg69
g3487
sg62
(lp3494
g55
(g56
g57
NtRp3495
(dp3496
g60
(dp3497
g68
I4
ssg69
g3491
sg62
(lp3498
g55
(g64
g57
NtRp3499
(dp3500
g60
(dp3501
g68
I3
ssg69
Nsg62
(lp3502
g55
(g71
g57
NtRp3503
(dp3504
g60
(dp3505
sg69
g3499
sg62
(lp3506
g55
(g76
g57
NtRp3507
(dp3508
g60
(dp3509
sg69
g3503
sg62
(lp3510
g55
(g56
g57
NtRp3511
(dp3512
g60
(dp3513
g68
I3
ssg69
g3507
sg62
(lp3514
cgluon.languages
lazyT_unpickle
p3515
(S's\x04\x00\x00\x00Site'
tRp3516
asbasbasbag55
(g71
g57
NtRp3517
(dp3518
g60
(dp3519
sg69
g3499
sg62
(lp3520
g55
(g76
g57
NtRp3521
(dp3522
g60
(dp3523
sg69
g3517
sg62
(lp3524
g55
(g56
g57
NtRp3525
(dp3526
g60
(dp3527
g68
I3
ssg69
g3521
sg62
(lp3528
g98
asbasbasbag55
(g71
g57
NtRp3529
(dp3530
g60
(dp3531
sg69
g3499
sg62
(lp3532
g55
(g76
g57
NtRp3533
(dp3534
g60
(dp3535
sg69
g3529
sg62
(lp3536
g55
(g56
g57
NtRp3537
(dp3538
g60
(dp3539
g68
I3
ssg69
g3533
sg62
(lp3540
S'/admin/default/site'
p3541
asbasbasbasbasbasbasbag55
(g71
g57
NtRp3542
(dp3543
g60
(dp3544
sg69
g3483
sg62
(lp3545
g55
(g76
g57
NtRp3546
(dp3547
g60
(dp3548
sg69
g3542
sg62
(lp3549
g55
(g56
g57
NtRp3550
(dp3551
g60
(dp3552
g68
I4
ssg69
g3546
sg62
(lp3553
g55
(g64
g57
NtRp3554
(dp3555
g60
(dp3556
g68
I3
ssg69
Nsg62
(lp3557
g55
(g71
g57
NtRp3558
(dp3559
g60
(dp3560
sg69
g3554
sg62
(lp3561
g55
(g76
g57
NtRp3562
(dp3563
g60
(dp3564
sg69
g3558
sg62
(lp3565
g55
(g56
g57
NtRp3566
(dp3567
g60
(dp3568
g68
I3
ssg69
g3562
sg62
(lp3569
g3515
(S's\x04\x00\x00\x00Edit'
tRp3570
asbasbasbag55
(g71
g57
NtRp3571
(dp3572
g60
(dp3573
sg69
g3554
sg62
(lp3574
g55
(g76
g57
NtRp3575
(dp3576
g60
(dp3577
sg69
g3571
sg62
(lp3578
g55
(g56
g57
NtRp3579
(dp3580
g60
(dp3581
g68
I3
ssg69
g3575
sg62
(lp3582
g1463
asbasbasbag55
(g71
g57
NtRp3583
(dp3584
g60
(dp3585
sg69
g3554
sg62
(lp3586
g55
(g76
g57
NtRp3587
(dp3588
g60
(dp3589
sg69
g3583
sg62
(lp3590
g55
(g56
g57
NtRp3591
(dp3592
g60
(dp3593
g68
I3
ssg69
g3587
sg62
(lp3594
S'/admin/default/design/Yuki'
p3595
asbasbasbasbasbasbasbag55
(g71
g57
NtRp3596
(dp3597
g60
(dp3598
sg69
g3483
sg62
(lp3599
g55
(g76
g57
NtRp3600
(dp3601
g60
(dp3602
sg69
g3596
sg62
(lp3603
g55
(g56
g57
NtRp3604
(dp3605
g60
(dp3606
g68
I4
ssg69
g3600
sg62
(lp3607
g55
(g64
g57
NtRp3608
(dp3609
g60
(dp3610
g68
I3
ssg69
Nsg62
(lp3611
g55
(g71
g57
NtRp3612
(dp3613
g60
(dp3614
sg69
g3608
sg62
(lp3615
g55
(g76
g57
NtRp3616
(dp3617
g60
(dp3618
sg69
g3612
sg62
(lp3619
g55
(g56
g57
NtRp3620
(dp3621
g60
(dp3622
g68
I3
ssg69
g3616
sg62
(lp3623
g3515
(S's\x05\x00\x00\x00About'
tRp3624
asbasbasbag55
(g71
g57
NtRp3625
(dp3626
g60
(dp3627
sg69
g3608
sg62
(lp3628
g55
(g76
g57
NtRp3629
(dp3630
g60
(dp3631
sg69
g3625
sg62
(lp3632
g55
(g56
g57
NtRp3633
(dp3634
g60
(dp3635
g68
I3
ssg69
g3629
sg62
(lp3636
g98
asbasbasbag55
(g71
g57
NtRp3637
(dp3638
g60
(dp3639
sg69
g3608
sg62
(lp3640
g55
(g76
g57
NtRp3641
(dp3642
g60
(dp3643
sg69
g3637
sg62
(lp3644
g55
(g56
g57
NtRp3645
(dp3646
g60
(dp3647
g68
I3
ssg69
g3641
sg62
(lp3648
S'/admin/default/about/Yuki'
p3649
asbasbasbasbasbasbasbag55
(g71
g57
NtRp3650
(dp3651
g60
(dp3652
sg69
g3483
sg62
(lp3653
g55
(g76
g57
NtRp3654
(dp3655
g60
(dp3656
sg69
g3650
sg62
(lp3657
g55
(g56
g57
NtRp3658
(dp3659
g60
(dp3660
g68
I4
ssg69
g3654
sg62
(lp3661
g55
(g64
g57
NtRp3662
(dp3663
g60
(dp3664
g68
I3
ssg69
Nsg62
(lp3665
g55
(g71
g57
NtRp3666
(dp3667
g60
(dp3668
sg69
g3662
sg62
(lp3669
g55
(g76
g57
NtRp3670
(dp3671
g60
(dp3672
sg69
g3666
sg62
(lp3673
g55
(g56
g57
NtRp3674
(dp3675
g60
(dp3676
g68
I3
ssg69
g3670
sg62
(lp3677
g3515
(S's\x06\x00\x00\x00Errors'
tRp3678
asbasbasbag55
(g71
g57
NtRp3679
(dp3680
g60
(dp3681
sg69
g3662
sg62
(lp3682
g55
(g76
g57
NtRp3683
(dp3684
g60
(dp3685
sg69
g3679
sg62
(lp3686
g55
(g56
g57
NtRp3687
(dp3688
g60
(dp3689
g68
I3
ssg69
g3683
sg62
(lp3690
g98
asbasbasbag55
(g71
g57
NtRp3691
(dp3692
g60
(dp3693
sg69
g3662
sg62
(lp3694
g55
(g76
g57
NtRp3695
(dp3696
g60
(dp3697
sg69
g3691
sg62
(lp3698
g55
(g56
g57
NtRp3699
(dp3700
g60
(dp3701
g68
I3
ssg69
g3695
sg62
(lp3702
S'/admin/default/errors/Yuki'
p3703
asbasbasbasbasbasbasbag55
(g71
g57
NtRp3704
(dp3705
g60
(dp3706
sg69
g3483
sg62
(lp3707
g55
(g76
g57
NtRp3708
(dp3709
g60
(dp3710
sg69
g3704
sg62
(lp3711
g55
(g56
g57
NtRp3712
(dp3713
g60
(dp3714
g68
I4
ssg69
g3708
sg62
(lp3715
g55
(g64
g57
NtRp3716
(dp3717
g60
(dp3718
g68
I3
ssg69
Nsg62
(lp3719
g55
(g71
g57
NtRp3720
(dp3721
g60
(dp3722
sg69
g3716
sg62
(lp3723
g55
(g76
g57
NtRp3724
(dp3725
g60
(dp3726
sg69
g3720
sg62
(lp3727
g55
(g56
g57
NtRp3728
(dp3729
g60
(dp3730
g68
I3
ssg69
g3724
sg62
(lp3731
g3515
(S's\n\x00\x00\x00Versioning'
tRp3732
asbasbasbag55
(g71
g57
NtRp3733
(dp3734
g60
(dp3735
sg69
g3716
sg62
(lp3736
g55
(g76
g57
NtRp3737
(dp3738
g60
(dp3739
sg69
g3733
sg62
(lp3740
g55
(g56
g57
NtRp3741
(dp3742
g60
(dp3743
g68
I3
ssg69
g3737
sg62
(lp3744
g98
asbasbasbag55
(g71
g57
NtRp3745
(dp3746
g60
(dp3747
sg69
g3716
sg62
(lp3748
g55
(g76
g57
NtRp3749
(dp3750
g60
(dp3751
sg69
g3745
sg62
(lp3752
g55
(g56
g57
NtRp3753
(dp3754
g60
(dp3755
g68
I3
ssg69
g3749
sg62
(lp3756
S'/admin/mercurial/commit/Yuki'
p3757
asbasbasbasbasbasbasbag55
(g71
g57
NtRp3758
(dp3759
g60
(dp3760
sg69
g3483
sg62
(lp3761
g55
(g76
g57
NtRp3762
(dp3763
g60
(dp3764
sg69
g3758
sg62
(lp3765
g55
(g56
g57
NtRp3766
(dp3767
g60
(dp3768
g68
I4
ssg69
g3762
sg62
(lp3769
g55
(g64
g57
NtRp3770
(dp3771
g60
(dp3772
g68
I3
ssg69
Nsg62
(lp3773
g55
(g71
g57
NtRp3774
(dp3775
g60
(dp3776
sg69
g3770
sg62
(lp3777
g55
(g76
g57
NtRp3778
(dp3779
g60
(dp3780
sg69
g3774
sg62
(lp3781
g55
(g56
g57
NtRp3782
(dp3783
g60
(dp3784
g68
I3
ssg69
g3778
sg62
(lp3785
g3515
(S's\x06\x00\x00\x00Logout'
tRp3786
asbasbasbag55
(g71
g57
NtRp3787
(dp3788
g60
(dp3789
sg69
g3770
sg62
(lp3790
g55
(g76
g57
NtRp3791
(dp3792
g60
(dp3793
sg69
g3787
sg62
(lp3794
g55
(g56
g57
NtRp3795
(dp3796
g60
(dp3797
g68
I3
ssg69
g3791
sg62
(lp3798
g98
asbasbasbag55
(g71
g57
NtRp3799
(dp3800
g60
(dp3801
sg69
g3770
sg62
(lp3802
g55
(g76
g57
NtRp3803
(dp3804
g60
(dp3805
sg69
g3799
sg62
(lp3806
g55
(g56
g57
NtRp3807
(dp3808
g60
(dp3809
g68
I3
ssg69
g3803
sg62
(lp3810
S'/admin/default/logout'
p3811
asbasbasbasbasbasbasbag55
(g71
g57
NtRp3812
(dp3813
g60
(dp3814
sg69
g3483
sg62
(lp3815
g55
(g76
g57
NtRp3816
(dp3817
g60
(dp3818
sg69
g3812
sg62
(lp3819
g55
(g56
g57
NtRp3820
(dp3821
g60
(dp3822
g68
I4
ssg69
g3816
sg62
(lp3823
g55
(g64
g57
NtRp3824
(dp3825
g60
(dp3826
g68
I3
ssg69
Nsg62
(lp3827
g55
(g71
g57
NtRp3828
(dp3829
g60
(dp3830
sg69
g3824
sg62
(lp3831
g55
(g76
g57
NtRp3832
(dp3833
g60
(dp3834
sg69
g3828
sg62
(lp3835
g55
(g56
g57
NtRp3836
(dp3837
g60
(dp3838
g68
I3
ssg69
g3832
sg62
(lp3839
g3515
(S's\x05\x00\x00\x00Debug'
tRp3840
asbasbasbag55
(g71
g57
NtRp3841
(dp3842
g60
(dp3843
sg69
g3824
sg62
(lp3844
g55
(g76
g57
NtRp3845
(dp3846
g60
(dp3847
sg69
g3841
sg62
(lp3848
g55
(g56
g57
NtRp3849
(dp3850
g60
(dp3851
g68
I3
ssg69
g3845
sg62
(lp3852
g98
asbasbasbag55
(g71
g57
NtRp3853
(dp3854
g60
(dp3855
sg69
g3824
sg62
(lp3856
g55
(g76
g57
NtRp3857
(dp3858
g60
(dp3859
sg69
g3853
sg62
(lp3860
g55
(g56
g57
NtRp3861
(dp3862
g60
(dp3863
g68
I3
ssg69
g3857
sg62
(lp3864
S'/admin/debug/interact'
p3865
asbasbasbasbasbasbasbag55
(g71
g57
NtRp3866
(dp3867
g60
(dp3868
sg69
g3483
sg62
(lp3869
g55
(g76
g57
NtRp3870
(dp3871
g60
(dp3872
sg69
g3866
sg62
(lp3873
g55
(g56
g57
NtRp3874
(dp3875
g60
(dp3876
g68
I4
ssg69
g3870
sg62
(lp3877
g55
(g64
g57
NtRp3878
(dp3879
g60
(dp3880
g68
I3
ssg69
Nsg62
(lp3881
g55
(g71
g57
NtRp3882
(dp3883
g60
(dp3884
sg69
g3878
sg62
(lp3885
g55
(g76
g57
NtRp3886
(dp3887
g60
(dp3888
sg69
g3882
sg62
(lp3889
g55
(g56
g57
NtRp3890
(dp3891
g60
(dp3892
g68
I3
ssg69
g3886
sg62
(lp3893
g3515
(S's\x04\x00\x00\x00Help'
tRp3894
asbasbasbag55
(g71
g57
NtRp3895
(dp3896
g60
(dp3897
sg69
g3878
sg62
(lp3898
g55
(g76
g57
NtRp3899
(dp3900
g60
(dp3901
sg69
g3895
sg62
(lp3902
g55
(g56
g57
NtRp3903
(dp3904
g60
(dp3905
g68
I3
ssg69
g3899
sg62
(lp3906
g98
asbasbasbag55
(g71
g57
NtRp3907
(dp3908
g60
(dp3909
sg69
g3878
sg62
(lp3910
g55
(g76
g57
NtRp3911
(dp3912
g60
(dp3913
sg69
g3907
sg62
(lp3914
g55
(g56
g57
NtRp3915
(dp3916
g60
(dp3917
g68
I3
ssg69
g3911
sg62
(lp3918
S'http://web2py.com/examples'
p3919
asbasbasbasbasbasbasbasbasbasbasbag55
(g71
g57
NtRp3920
(dp3921
g60
(dp3922
sg69
g2939
sg62
(lp3923
g55
(g76
g57
NtRp3924
(dp3925
g60
(dp3926
g80
g81
ssg69
g3920
sg62
(lp3927
S'meta'
p3928
asbag55
(g76
g57
NtRp3929
(dp3930
g60
(dp3931
g87
g88
ssg69
g3920
sg62
(lp3932
S':'
asbag55
(g76
g57
NtRp3933
(dp3934
g60
(dp3935
sg69
g3920
sg62
(lp3936
g55
(g56
g57
NtRp3937
(dp3938
g60
(dp3939
g68
I5
ssg69
g3933
sg62
(lp3940
g55
(g64
g57
NtRp3941
(dp3942
g60
(dp3943
g68
I4
ssg69
Nsg62
(lp3944
sbasbasbasbag55
(g71
g57
NtRp3945
(dp3946
g60
(dp3947
sg69
g2939
sg62
(lp3948
g55
(g76
g57
NtRp3949
(dp3950
g60
(dp3951
g80
g81
ssg69
g3945
sg62
(lp3952
S'postprocessing'
p3953
asbag55
(g76
g57
NtRp3954
(dp3955
g60
(dp3956
g87
g88
ssg69
g3945
sg62
(lp3957
S':'
asbag55
(g76
g57
NtRp3958
(dp3959
g60
(dp3960
sg69
g3945
sg62
(lp3961
g55
(g56
g57
NtRp3962
(dp3963
g60
(dp3964
g68
I5
ssg69
g3958
sg62
(lp3965
g55
(g64
g57
NtRp3966
(dp3967
g60
(dp3968
g68
I4
ssg69
Nsg62
(lp3969
sbasbasbasbag55
(g71
g57
NtRp3970
(dp3971
g60
(dp3972
sg69
g2939
sg62
(lp3973
g55
(g76
g57
NtRp3974
(dp3975
g60
(dp3976
g80
g81
ssg69
g3970
sg62
(lp3977
S'session_file'
p3978
asbag55
(g76
g57
NtRp3979
(dp3980
g60
(dp3981
g87
g88
ssg69
g3970
sg62
(lp3982
S':'
asbag55
(g76
g57
NtRp3983
(dp3984
g60
(dp3985
sg69
g3970
sg62
(lp3986
g55
(g56
g57
NtRp3987
(dp3988
g60
(dp3989
g68
I5
ssg69
g3983
sg62
(lp3990
S"<open file 'C:\\Users\\Bussiere\\Dropbox\\Projets\\Yuki\\web2py\\applications\\admin\\sessions\\127.0.0.1-bf0b0813-7a73-44ef-8add-4ccb370d842d', mode 'rb+' at 0x065F5380>"
p3991
asbasbasbag55
(g71
g57
NtRp3992
(dp3993
g60
(dp3994
sg69
g2939
sg62
(lp3995
g55
(g76
g57
NtRp3996
(dp3997
g60
(dp3998
g80
g81
ssg69
g3992
sg62
(lp3999
S'session_filename'
p4000
asbag55
(g76
g57
NtRp4001
(dp4002
g60
(dp4003
g87
g88
ssg69
g3992
sg62
(lp4004
S':'
asbag55
(g76
g57
NtRp4005
(dp4006
g60
(dp4007
sg69
g3992
sg62
(lp4008
g55
(g56
g57
NtRp4009
(dp4010
g60
(dp4011
g68
I5
ssg69
g4005
sg62
(lp4012
S'C:\\Users\\Bussiere\\Dropbox\\Projets\\Yuki\\web2py\\applications\\admin\\sessions\\127.0.0.1-bf0b0813-7a73-44ef-8add-4ccb370d842d'
p4013
asbasbasbag55
(g71
g57
NtRp4014
(dp4015
g60
(dp4016
sg69
g2939
sg62
(lp4017
g55
(g76
g57
NtRp4018
(dp4019
g60
(dp4020
g80
g81
ssg69
g4014
sg62
(lp4021
S'session_id'
p4022
asbag55
(g76
g57
NtRp4023
(dp4024
g60
(dp4025
g87
g88
ssg69
g4014
sg62
(lp4026
S':'
asbag55
(g76
g57
NtRp4027
(dp4028
g60
(dp4029
sg69
g4014
sg62
(lp4030
g55
(g56
g57
NtRp4031
(dp4032
g60
(dp4033
g68
I5
ssg69
g4027
sg62
(lp4034
S'127.0.0.1-bf0b0813-7a73-44ef-8add-4ccb370d842d'
p4035
asbasbasbag55
(g71
g57
NtRp4036
(dp4037
g60
(dp4038
sg69
g2939
sg62
(lp4039
g55
(g76
g57
NtRp4040
(dp4041
g60
(dp4042
g80
g81
ssg69
g4036
sg62
(lp4043
S'session_id_name'
p4044
asbag55
(g76
g57
NtRp4045
(dp4046
g60
(dp4047
g87
g88
ssg69
g4036
sg62
(lp4048
S':'
asbag55
(g76
g57
NtRp4049
(dp4050
g60
(dp4051
sg69
g4036
sg62
(lp4052
g55
(g56
g57
NtRp4053
(dp4054
g60
(dp4055
g68
I5
ssg69
g4049
sg62
(lp4056
g2996
asbasbasbag55
(g71
g57
NtRp4057
(dp4058
g60
(dp4059
sg69
g2939
sg62
(lp4060
g55
(g76
g57
NtRp4061
(dp4062
g60
(dp4063
g80
g81
ssg69
g4057
sg62
(lp4064
S'session_locked'
p4065
asbag55
(g76
g57
NtRp4066
(dp4067
g60
(dp4068
g87
g88
ssg69
g4057
sg62
(lp4069
S':'
asbag55
(g76
g57
NtRp4070
(dp4071
g60
(dp4072
sg69
g4057
sg62
(lp4073
g55
(g56
g57
NtRp4074
(dp4075
g60
(dp4076
g68
I5
ssg69
g4070
sg62
(lp4077
g1463
asbasbasbag55
(g71
g57
NtRp4078
(dp4079
g60
(dp4080
sg69
g2939
sg62
(lp4081
g55
(g76
g57
NtRp4082
(dp4083
g60
(dp4084
g80
g81
ssg69
g4078
sg62
(lp4085
S'session_new'
p4086
asbag55
(g76
g57
NtRp4087
(dp4088
g60
(dp4089
g87
g88
ssg69
g4078
sg62
(lp4090
S':'
asbag55
(g76
g57
NtRp4091
(dp4092
g60
(dp4093
sg69
g4078
sg62
(lp4094
g55
(g56
g57
NtRp4095
(dp4096
g60
(dp4097
g68
I5
ssg69
g4091
sg62
(lp4098
g98
asbasbasbag55
(g71
g57
NtRp4099
(dp4100
g60
(dp4101
sg69
g2939
sg62
(lp4102
g55
(g76
g57
NtRp4103
(dp4104
g60
(dp4105
g80
g81
ssg69
g4099
sg62
(lp4106
S'status'
p4107
asbag55
(g76
g57
NtRp4108
(dp4109
g60
(dp4110
g87
g88
ssg69
g4099
sg62
(lp4111
S':'
asbag55
(g76
g57
NtRp4112
(dp4113
g60
(dp4114
sg69
g4099
sg62
(lp4115
g55
(g56
g57
NtRp4116
(dp4117
g60
(dp4118
g68
I5
ssg69
g4112
sg62
(lp4119
S'200'
p4120
asbasbasbag55
(g71
g57
NtRp4121
(dp4122
g60
(dp4123
sg69
g2939
sg62
(lp4124
g55
(g76
g57
NtRp4125
(dp4126
g60
(dp4127
g80
g81
ssg69
g4121
sg62
(lp4128
S'subtitle'
p4129
asbag55
(g76
g57
NtRp4130
(dp4131
g60
(dp4132
g87
g88
ssg69
g4121
sg62
(lp4133
S':'
asbag55
(g76
g57
NtRp4134
(dp4135
g60
(dp4136
sg69
g4121
sg62
(lp4137
g55
(g56
g57
NtRp4138
(dp4139
g60
(dp4140
g68
I5
ssg69
g4134
sg62
(lp4141
S'admin'
p4142
asbasbasbag55
(g71
g57
NtRp4143
(dp4144
g60
(dp4145
sg69
g2939
sg62
(lp4146
g55
(g76
g57
NtRp4147
(dp4148
g60
(dp4149
g80
g81
ssg69
g4143
sg62
(lp4150
S'title'
p4151
asbag55
(g76
g57
NtRp4152
(dp4153
g60
(dp4154
g87
g88
ssg69
g4143
sg62
(lp4155
S':'
asbag55
(g76
g57
NtRp4156
(dp4157
g60
(dp4158
sg69
g4143
sg62
(lp4159
g55
(g56
g57
NtRp4160
(dp4161
g60
(dp4162
g68
I5
ssg69
g4156
sg62
(lp4163
S'design Yuki'
p4164
asbasbasbag55
(g71
g57
NtRp4165
(dp4166
g60
(dp4167
sg69
g2939
sg62
(lp4168
g55
(g76
g57
NtRp4169
(dp4170
g60
(dp4171
g80
g81
ssg69
g4165
sg62
(lp4172
g2149
asbag55
(g76
g57
NtRp4173
(dp4174
g60
(dp4175
g87
g88
ssg69
g4165
sg62
(lp4176
S':'
asbag55
(g76
g57
NtRp4177
(dp4178
g60
(dp4179
sg69
g4165
sg62
(lp4180
g55
(g56
g57
NtRp4181
(dp4182
g60
(dp4183
g68
I5
ssg69
g4177
sg62
(lp4184
g2162
asbasbasbag55
(g71
g57
NtRp4185
(dp4186
g60
(dp4187
sg69
g2939
sg62
(lp4188
g55
(g76
g57
NtRp4189
(dp4190
g60
(dp4191
g80
g81
ssg69
g4185
sg62
(lp4192
S'view'
p4193
asbag55
(g76
g57
NtRp4194
(dp4195
g60
(dp4196
g87
g88
ssg69
g4185
sg62
(lp4197
S':'
asbag55
(g76
g57
NtRp4198
(dp4199
g60
(dp4200
sg69
g4185
sg62
(lp4201
g55
(g56
g57
NtRp4202
(dp4203
g60
(dp4204
g68
I5
ssg69
g4198
sg62
(lp4205
S'default/design.html'
p4206
asbasbasbasbasbsS'locals'
p4207
(dp4208
S'languages'
p4209
S'[]'
p4210
sS'cronfolder'
p4211
S"'C:/Users/Bussiere/Dropbox/Projets/Yuki/web2py/applications/Yuki/cron'"
p4212
sS'extend'
p4213
g45
sS'views'
p4214
S'[]'
p4215
sS'models'
p4216
S'[]'
p4217
sS'app'
p4218
S"'Yuki'"
p4219
sS'functions'
p4220
g45
sS'modules'
p4221
S'[]'
p4222
sS'statics'
p4223
S'[]'
p4224
sS'controllers'
p4225
S'[]'
p4226
sS'include'
p4227
g45
sS'defines'
p4228
g45
sssS'traceback'
p4229
S'Traceback (most recent call last):\n  File "gluon/restricted.py", line 205, in restricted\n  File "C:\\Users\\Bussiere\\Dropbox\\Projets\\Yuki\\web2py\\applications\\admin\\controllers/default.py", line 1352, in <module>\n  File "gluon/globals.py", line 173, in <lambda>\n  File "C:\\Users\\Bussiere\\Dropbox\\Projets\\Yuki\\web2py\\applications\\admin\\controllers/default.py", line 760, in design\nWindowsError: [Error 3] Le chemin d\x92acc\xe8s sp\xe9cifi\xe9 est introuvable: \'C:/Users/Bussiere/Dropbox/Projets/Yuki/web2py/applications/Yuki/cron\'\n'
p4230
s.